ARM GAS  C:\Users\glenn\AppData\Local\Temp\ccq5UQ50.s 			page 1


   1              		.syntax unified
   2              		.cpu cortex-m3
   3              		.fpu softvfp
   4              		.eabi_attribute 20, 1
   5              		.eabi_attribute 21, 1
   6              		.eabi_attribute 23, 3
   7              		.eabi_attribute 24, 1
   8              		.eabi_attribute 25, 1
   9              		.eabi_attribute 26, 1
  10              		.eabi_attribute 30, 6
  11              		.eabi_attribute 34, 1
  12              		.eabi_attribute 18, 4
  13              		.thumb
  14              		.file	"cb_logging.c"
  15              		.text
  16              	.Ltext0:
  17              		.cfi_sections	.debug_frame
  18              		.section	.text.initialize_eeprom_logging,"ax",%progbits
  19              		.align	2
  20              		.global	initialize_eeprom_logging
  21              		.thumb
  22              		.thumb_func
  23              		.type	initialize_eeprom_logging, %function
  24              	initialize_eeprom_logging:
  25              	.LFB63:
  26              		.file 1 ".\\cb_measurement\\cb_logging.c"
   1:.\cb_measurement/cb_logging.c **** /*
   2:.\cb_measurement/cb_logging.c **** ** File:  cb_logging.c
   3:.\cb_measurement/cb_logging.c **** ** Handles EEPROM Moisture Logging
   4:.\cb_measurement/cb_logging.c **** **
   5:.\cb_measurement/cb_logging.c **** */
   6:.\cb_measurement/cb_logging.c **** #include <device.h>
   7:.\cb_measurement/cb_logging.c **** #include "cb_logging.h"
   8:.\cb_measurement/cb_logging.c **** 
   9:.\cb_measurement/cb_logging.c **** /*
  10:.\cb_measurement/cb_logging.c **** Layout of EEPROM Format  in 4 bytes value
  11:.\cb_measurement/cb_logging.c **** position 0 -- Initialization Flag  0xa5a55a5a
  12:.\cb_measurement/cb_logging.c **** position 4 -- Number of 4 byte entries per entry 
  13:.\cb_measurement/cb_logging.c **** position 8 -- Time in Minutes Between Logging Interval
  14:.\cb_measurement/cb_logging.c **** position 12 --  Current Logged Number
  15:.\cb_measurement/cb_logging.c **** position 16 --  start of Logging Data
  16:.\cb_measurement/cb_logging.c **** position 16 + number of log elements * 4  -- start of Second Logs
  17:.\cb_measurement/cb_logging.c **** 
  18:.\cb_measurement/cb_logging.c **** 
  19:.\cb_measurement/cb_logging.c ****  */
  20:.\cb_measurement/cb_logging.c **** 
  21:.\cb_measurement/cb_logging.c **** 
  22:.\cb_measurement/cb_logging.c **** 
  23:.\cb_measurement/cb_logging.c **** 
  24:.\cb_measurement/cb_logging.c **** static int validate_eeprom( void );
  25:.\cb_measurement/cb_logging.c **** 
  26:.\cb_measurement/cb_logging.c **** 
  27:.\cb_measurement/cb_logging.c **** 
  28:.\cb_measurement/cb_logging.c **** void initialize_eeprom_logging( uint32 number_of_sensors, uint32 sample_time_interval )
  29:.\cb_measurement/cb_logging.c **** {
  27              		.loc 1 29 0
  28              		.cfi_startproc
ARM GAS  C:\Users\glenn\AppData\Local\Temp\ccq5UQ50.s 			page 2


  29              		@ args = 0, pretend = 0, frame = 24
  30              		@ frame_needed = 1, uses_anonymous_args = 0
  31 0000 80B5     		push	{r7, lr}
  32              		.cfi_def_cfa_offset 8
  33              		.cfi_offset 7, -8
  34              		.cfi_offset 14, -4
  35 0002 86B0     		sub	sp, sp, #24
  36              		.cfi_def_cfa_offset 32
  37 0004 00AF     		add	r7, sp, #0
  38              		.cfi_def_cfa_register 7
  39 0006 7860     		str	r0, [r7, #4]
  40 0008 3960     		str	r1, [r7]
  30:.\cb_measurement/cb_logging.c ****     // Start up EEPROM
  31:.\cb_measurement/cb_logging.c ****     uint32 zero;
  32:.\cb_measurement/cb_logging.c ****     uint32 init_value;
  33:.\cb_measurement/cb_logging.c ****     uint32 max_log_number;
  34:.\cb_measurement/cb_logging.c ****     
  35:.\cb_measurement/cb_logging.c ****     
  36:.\cb_measurement/cb_logging.c ****     max_log_number = ( EEPROM_1_EEPROM_SIZE - EEPROM_LOG_DATA_START_INDEX)/( number_of_sensors * 4 
  41              		.loc 1 36 0
  42 000a 7B68     		ldr	r3, [r7, #4]
  43 000c 9B00     		lsls	r3, r3, #2
  44 000e 40F2EC72 		movw	r2, #2028
  45 0012 B2FBF3F3 		udiv	r3, r2, r3
  46 0016 7B61     		str	r3, [r7, #20]
  37:.\cb_measurement/cb_logging.c ****     
  38:.\cb_measurement/cb_logging.c ****     init_value = EEPROM_INITIALIZATION_VALUE;
  47              		.loc 1 38 0
  48 0018 114B     		ldr	r3, .L2
  49 001a 3B61     		str	r3, [r7, #16]
  39:.\cb_measurement/cb_logging.c ****     zero = 0;
  50              		.loc 1 39 0
  51 001c 0023     		movs	r3, #0
  52 001e FB60     		str	r3, [r7, #12]
  40:.\cb_measurement/cb_logging.c ****     EEPROM_1_Start();
  53              		.loc 1 40 0
  54 0020 FFF7FEFF 		bl	EEPROM_1_Start
  41:.\cb_measurement/cb_logging.c ****     EEPROM_1_UpdateTemperature();
  55              		.loc 1 41 0
  56 0024 FFF7FEFF 		bl	EEPROM_1_UpdateTemperature
  42:.\cb_measurement/cb_logging.c ****     write_32_eeprom( EEPROM_INITIALIZATION_INDEX, (uint8 *) init_value );
  57              		.loc 1 42 0
  58 0028 3B69     		ldr	r3, [r7, #16]
  59 002a 0020     		movs	r0, #0
  60 002c 1946     		mov	r1, r3
  61 002e FFF7FEFF 		bl	write_32_eeprom
  43:.\cb_measurement/cb_logging.c ****     write_32_eeprom( EEPROM_NUMBER_OF_ENTRIES, ( uint8 *)number_of_sensors );
  62              		.loc 1 43 0
  63 0032 7B68     		ldr	r3, [r7, #4]
  64 0034 0420     		movs	r0, #4
  65 0036 1946     		mov	r1, r3
  66 0038 FFF7FEFF 		bl	write_32_eeprom
  44:.\cb_measurement/cb_logging.c ****     write_32_eeprom( EEPROM_SAMPLING_RATE, (uint8 *)&sample_time_interval );
  67              		.loc 1 44 0
  68 003c 3B46     		mov	r3, r7
  69 003e 0820     		movs	r0, #8
  70 0040 1946     		mov	r1, r3
ARM GAS  C:\Users\glenn\AppData\Local\Temp\ccq5UQ50.s 			page 3


  71 0042 FFF7FEFF 		bl	write_32_eeprom
  45:.\cb_measurement/cb_logging.c ****     write_32_eeprom( EEPROM_LOGGING_INDEX, (uint8 *) zero );
  72              		.loc 1 45 0
  73 0046 FB68     		ldr	r3, [r7, #12]
  74 0048 0C20     		movs	r0, #12
  75 004a 1946     		mov	r1, r3
  76 004c FFF7FEFF 		bl	write_32_eeprom
  46:.\cb_measurement/cb_logging.c ****     write_32_eeprom( EEPROM_MAX_NUMBER_OF_ENTRIES,(uint8 *) max_log_number );
  77              		.loc 1 46 0
  78 0050 7B69     		ldr	r3, [r7, #20]
  79 0052 1020     		movs	r0, #16
  80 0054 1946     		mov	r1, r3
  81 0056 FFF7FEFF 		bl	write_32_eeprom
  47:.\cb_measurement/cb_logging.c **** }
  82              		.loc 1 47 0
  83 005a 1837     		adds	r7, r7, #24
  84              		.cfi_def_cfa_offset 8
  85 005c BD46     		mov	sp, r7
  86              		.cfi_def_cfa_register 13
  87              		@ sp needed
  88 005e 80BD     		pop	{r7, pc}
  89              	.L3:
  90              		.align	2
  91              	.L2:
  92 0060 5A5AA5A5 		.word	-1515890086
  93              		.cfi_endproc
  94              	.LFE63:
  95              		.size	initialize_eeprom_logging, .-initialize_eeprom_logging
  96              		.section	.text.log_data,"ax",%progbits
  97              		.align	2
  98              		.global	log_data
  99              		.thumb
 100              		.thumb_func
 101              		.type	log_data, %function
 102              	log_data:
 103              	.LFB64:
  48:.\cb_measurement/cb_logging.c **** 
  49:.\cb_measurement/cb_logging.c **** void log_data( uint32 sensor_position, float value )
  50:.\cb_measurement/cb_logging.c **** {
 104              		.loc 1 50 0
 105              		.cfi_startproc
 106              		@ args = 0, pretend = 0, frame = 24
 107              		@ frame_needed = 1, uses_anonymous_args = 0
 108 0000 80B5     		push	{r7, lr}
 109              		.cfi_def_cfa_offset 8
 110              		.cfi_offset 7, -8
 111              		.cfi_offset 14, -4
 112 0002 86B0     		sub	sp, sp, #24
 113              		.cfi_def_cfa_offset 32
 114 0004 00AF     		add	r7, sp, #0
 115              		.cfi_def_cfa_register 7
 116 0006 7860     		str	r0, [r7, #4]
 117 0008 3960     		str	r1, [r7]	@ float
  51:.\cb_measurement/cb_logging.c ****     uint32 number_of_sensors;
  52:.\cb_measurement/cb_logging.c ****     uint32 logging_index;
  53:.\cb_measurement/cb_logging.c ****     uint32 position_index;
  54:.\cb_measurement/cb_logging.c ****     if( validate_eeprom() )
ARM GAS  C:\Users\glenn\AppData\Local\Temp\ccq5UQ50.s 			page 4


 118              		.loc 1 54 0
 119 000a FFF7FEFF 		bl	validate_eeprom
 120 000e 0346     		mov	r3, r0
 121 0010 002B     		cmp	r3, #0
 122 0012 1ED0     		beq	.L4
  55:.\cb_measurement/cb_logging.c ****     {
  56:.\cb_measurement/cb_logging.c ****          read_32_eeprom( EEPROM_NUMBER_OF_ENTRIES, (uint8 *)&number_of_sensors );
 123              		.loc 1 56 0
 124 0014 07F11003 		add	r3, r7, #16
 125 0018 0420     		movs	r0, #4
 126 001a 1946     		mov	r1, r3
 127 001c FFF7FEFF 		bl	read_32_eeprom
  57:.\cb_measurement/cb_logging.c ****          if( sensor_position < number_of_sensors )
 128              		.loc 1 57 0
 129 0020 3B69     		ldr	r3, [r7, #16]
 130 0022 7A68     		ldr	r2, [r7, #4]
 131 0024 9A42     		cmp	r2, r3
 132 0026 14D2     		bcs	.L4
  58:.\cb_measurement/cb_logging.c ****          {
  59:.\cb_measurement/cb_logging.c ****              read_32_eeprom( EEPROM_LOGGING_INDEX, (uint8 *) &logging_index  );
 133              		.loc 1 59 0
 134 0028 07F10C03 		add	r3, r7, #12
 135 002c 0C20     		movs	r0, #12
 136 002e 1946     		mov	r1, r3
 137 0030 FFF7FEFF 		bl	read_32_eeprom
  60:.\cb_measurement/cb_logging.c ****              position_index = EEPROM_LOG_DATA_START_INDEX  + ( number_of_sensors *4*logging_index )
 138              		.loc 1 60 0
 139 0034 3B69     		ldr	r3, [r7, #16]
 140 0036 FA68     		ldr	r2, [r7, #12]
 141 0038 02FB03F2 		mul	r2, r2, r3
 142 003c 7B68     		ldr	r3, [r7, #4]
 143 003e 1344     		add	r3, r3, r2
 144 0040 0533     		adds	r3, r3, #5
 145 0042 9B00     		lsls	r3, r3, #2
 146 0044 7B61     		str	r3, [r7, #20]
  61:.\cb_measurement/cb_logging.c ****              write_32_eeprom( position_index , (uint8 *) &value );
 147              		.loc 1 61 0
 148 0046 7A69     		ldr	r2, [r7, #20]
 149 0048 3B46     		mov	r3, r7
 150 004a 1046     		mov	r0, r2
 151 004c 1946     		mov	r1, r3
 152 004e FFF7FEFF 		bl	write_32_eeprom
 153              	.L4:
  62:.\cb_measurement/cb_logging.c ****          }
  63:.\cb_measurement/cb_logging.c ****     }
  64:.\cb_measurement/cb_logging.c **** }
 154              		.loc 1 64 0
 155 0052 1837     		adds	r7, r7, #24
 156              		.cfi_def_cfa_offset 8
 157 0054 BD46     		mov	sp, r7
 158              		.cfi_def_cfa_register 13
 159              		@ sp needed
 160 0056 80BD     		pop	{r7, pc}
 161              		.cfi_endproc
 162              	.LFE64:
 163              		.size	log_data, .-log_data
 164              		.section	.text.advance_index,"ax",%progbits
ARM GAS  C:\Users\glenn\AppData\Local\Temp\ccq5UQ50.s 			page 5


 165              		.align	2
 166              		.global	advance_index
 167              		.thumb
 168              		.thumb_func
 169              		.type	advance_index, %function
 170              	advance_index:
 171              	.LFB65:
  65:.\cb_measurement/cb_logging.c ****        
  66:.\cb_measurement/cb_logging.c **** void advance_index( void )
  67:.\cb_measurement/cb_logging.c **** {
 172              		.loc 1 67 0
 173              		.cfi_startproc
 174              		@ args = 0, pretend = 0, frame = 8
 175              		@ frame_needed = 1, uses_anonymous_args = 0
 176 0000 80B5     		push	{r7, lr}
 177              		.cfi_def_cfa_offset 8
 178              		.cfi_offset 7, -8
 179              		.cfi_offset 14, -4
 180 0002 82B0     		sub	sp, sp, #8
 181              		.cfi_def_cfa_offset 16
 182 0004 00AF     		add	r7, sp, #0
 183              		.cfi_def_cfa_register 7
  68:.\cb_measurement/cb_logging.c ****     uint32 log_index;
  69:.\cb_measurement/cb_logging.c ****     uint32 max_index;
  70:.\cb_measurement/cb_logging.c ****     log_index = 0; // remove warning
 184              		.loc 1 70 0
 185 0006 0023     		movs	r3, #0
 186 0008 3B60     		str	r3, [r7]
  71:.\cb_measurement/cb_logging.c ****     max_index = 0; // remove warning
 187              		.loc 1 71 0
 188 000a 0023     		movs	r3, #0
 189 000c 7B60     		str	r3, [r7, #4]
  72:.\cb_measurement/cb_logging.c ****     if( validate_eeprom() )
 190              		.loc 1 72 0
 191 000e FFF7FEFF 		bl	validate_eeprom
 192 0012 0346     		mov	r3, r0
 193 0014 002B     		cmp	r3, #0
 194 0016 15D0     		beq	.L6
  73:.\cb_measurement/cb_logging.c ****     {
  74:.\cb_measurement/cb_logging.c ****         
  75:.\cb_measurement/cb_logging.c ****        read_32_eeprom( EEPROM_LOGGING_INDEX, (uint8 *)&log_index );
 195              		.loc 1 75 0
 196 0018 3B46     		mov	r3, r7
 197 001a 0C20     		movs	r0, #12
 198 001c 1946     		mov	r1, r3
 199 001e FFF7FEFF 		bl	read_32_eeprom
  76:.\cb_measurement/cb_logging.c ****        read_32_eeprom(EEPROM_MAX_NUMBER_OF_ENTRIES, (uint8 *)max_index);
 200              		.loc 1 76 0
 201 0022 7B68     		ldr	r3, [r7, #4]
 202 0024 1020     		movs	r0, #16
 203 0026 1946     		mov	r1, r3
 204 0028 FFF7FEFF 		bl	read_32_eeprom
  77:.\cb_measurement/cb_logging.c ****        log_index = log_index +1;
 205              		.loc 1 77 0
 206 002c 3B68     		ldr	r3, [r7]
 207 002e 0133     		adds	r3, r3, #1
 208 0030 3B60     		str	r3, [r7]
ARM GAS  C:\Users\glenn\AppData\Local\Temp\ccq5UQ50.s 			page 6


  78:.\cb_measurement/cb_logging.c ****        if( log_index < max_index )
 209              		.loc 1 78 0
 210 0032 3A68     		ldr	r2, [r7]
 211 0034 7B68     		ldr	r3, [r7, #4]
 212 0036 9A42     		cmp	r2, r3
 213 0038 04D2     		bcs	.L6
  79:.\cb_measurement/cb_logging.c ****        {
  80:.\cb_measurement/cb_logging.c ****           write_32_eeprom(  EEPROM_LOGGING_INDEX, (uint8 *) log_index);
 214              		.loc 1 80 0
 215 003a 3B68     		ldr	r3, [r7]
 216 003c 0C20     		movs	r0, #12
 217 003e 1946     		mov	r1, r3
 218 0040 FFF7FEFF 		bl	write_32_eeprom
 219              	.L6:
  81:.\cb_measurement/cb_logging.c ****         
  82:.\cb_measurement/cb_logging.c ****        }
  83:.\cb_measurement/cb_logging.c ****     }
  84:.\cb_measurement/cb_logging.c **** }
 220              		.loc 1 84 0
 221 0044 0837     		adds	r7, r7, #8
 222              		.cfi_def_cfa_offset 8
 223 0046 BD46     		mov	sp, r7
 224              		.cfi_def_cfa_register 13
 225              		@ sp needed
 226 0048 80BD     		pop	{r7, pc}
 227              		.cfi_endproc
 228              	.LFE65:
 229              		.size	advance_index, .-advance_index
 230 004a 00BF     		.section	.text.write_32_eeprom,"ax",%progbits
 231              		.align	2
 232              		.global	write_32_eeprom
 233              		.thumb
 234              		.thumb_func
 235              		.type	write_32_eeprom, %function
 236              	write_32_eeprom:
 237              	.LFB66:
  85:.\cb_measurement/cb_logging.c ****         
  86:.\cb_measurement/cb_logging.c **** 
  87:.\cb_measurement/cb_logging.c **** 
  88:.\cb_measurement/cb_logging.c **** void write_32_eeprom( int eeprom_position, uint8 *value )
  89:.\cb_measurement/cb_logging.c **** {
 238              		.loc 1 89 0
 239              		.cfi_startproc
 240              		@ args = 0, pretend = 0, frame = 8
 241              		@ frame_needed = 1, uses_anonymous_args = 0
 242 0000 80B5     		push	{r7, lr}
 243              		.cfi_def_cfa_offset 8
 244              		.cfi_offset 7, -8
 245              		.cfi_offset 14, -4
 246 0002 82B0     		sub	sp, sp, #8
 247              		.cfi_def_cfa_offset 16
 248 0004 00AF     		add	r7, sp, #0
 249              		.cfi_def_cfa_register 7
 250 0006 7860     		str	r0, [r7, #4]
 251 0008 3960     		str	r1, [r7]
  90:.\cb_measurement/cb_logging.c ****   EEPROM_1_WriteByte( *value++, eeprom_position++ );
 252              		.loc 1 90 0
ARM GAS  C:\Users\glenn\AppData\Local\Temp\ccq5UQ50.s 			page 7


 253 000a 3B68     		ldr	r3, [r7]
 254 000c 5A1C     		adds	r2, r3, #1
 255 000e 3A60     		str	r2, [r7]
 256 0010 1978     		ldrb	r1, [r3]	@ zero_extendqisi2
 257 0012 7B68     		ldr	r3, [r7, #4]
 258 0014 5A1C     		adds	r2, r3, #1
 259 0016 7A60     		str	r2, [r7, #4]
 260 0018 9BB2     		uxth	r3, r3
 261 001a 0846     		mov	r0, r1
 262 001c 1946     		mov	r1, r3
 263 001e FFF7FEFF 		bl	EEPROM_1_WriteByte
  91:.\cb_measurement/cb_logging.c ****   EEPROM_1_WriteByte( *value++, eeprom_position++ );
 264              		.loc 1 91 0
 265 0022 3B68     		ldr	r3, [r7]
 266 0024 5A1C     		adds	r2, r3, #1
 267 0026 3A60     		str	r2, [r7]
 268 0028 1978     		ldrb	r1, [r3]	@ zero_extendqisi2
 269 002a 7B68     		ldr	r3, [r7, #4]
 270 002c 5A1C     		adds	r2, r3, #1
 271 002e 7A60     		str	r2, [r7, #4]
 272 0030 9BB2     		uxth	r3, r3
 273 0032 0846     		mov	r0, r1
 274 0034 1946     		mov	r1, r3
 275 0036 FFF7FEFF 		bl	EEPROM_1_WriteByte
  92:.\cb_measurement/cb_logging.c ****   EEPROM_1_WriteByte( *value++, eeprom_position++ );
 276              		.loc 1 92 0
 277 003a 3B68     		ldr	r3, [r7]
 278 003c 5A1C     		adds	r2, r3, #1
 279 003e 3A60     		str	r2, [r7]
 280 0040 1978     		ldrb	r1, [r3]	@ zero_extendqisi2
 281 0042 7B68     		ldr	r3, [r7, #4]
 282 0044 5A1C     		adds	r2, r3, #1
 283 0046 7A60     		str	r2, [r7, #4]
 284 0048 9BB2     		uxth	r3, r3
 285 004a 0846     		mov	r0, r1
 286 004c 1946     		mov	r1, r3
 287 004e FFF7FEFF 		bl	EEPROM_1_WriteByte
  93:.\cb_measurement/cb_logging.c ****   EEPROM_1_WriteByte( *value++, eeprom_position++ );
 288              		.loc 1 93 0
 289 0052 3B68     		ldr	r3, [r7]
 290 0054 5A1C     		adds	r2, r3, #1
 291 0056 3A60     		str	r2, [r7]
 292 0058 1978     		ldrb	r1, [r3]	@ zero_extendqisi2
 293 005a 7B68     		ldr	r3, [r7, #4]
 294 005c 5A1C     		adds	r2, r3, #1
 295 005e 7A60     		str	r2, [r7, #4]
 296 0060 9BB2     		uxth	r3, r3
 297 0062 0846     		mov	r0, r1
 298 0064 1946     		mov	r1, r3
 299 0066 FFF7FEFF 		bl	EEPROM_1_WriteByte
  94:.\cb_measurement/cb_logging.c **** }
 300              		.loc 1 94 0
 301 006a 0837     		adds	r7, r7, #8
 302              		.cfi_def_cfa_offset 8
 303 006c BD46     		mov	sp, r7
 304              		.cfi_def_cfa_register 13
 305              		@ sp needed
ARM GAS  C:\Users\glenn\AppData\Local\Temp\ccq5UQ50.s 			page 8


 306 006e 80BD     		pop	{r7, pc}
 307              		.cfi_endproc
 308              	.LFE66:
 309              		.size	write_32_eeprom, .-write_32_eeprom
 310              		.section	.text.read_32_eeprom,"ax",%progbits
 311              		.align	2
 312              		.global	read_32_eeprom
 313              		.thumb
 314              		.thumb_func
 315              		.type	read_32_eeprom, %function
 316              	read_32_eeprom:
 317              	.LFB67:
  95:.\cb_measurement/cb_logging.c **** 
  96:.\cb_measurement/cb_logging.c **** void read_32_eeprom( int eeprom_position, uint8 *value )
  97:.\cb_measurement/cb_logging.c **** {
 318              		.loc 1 97 0
 319              		.cfi_startproc
 320              		@ args = 0, pretend = 0, frame = 8
 321              		@ frame_needed = 1, uses_anonymous_args = 0
 322 0000 80B5     		push	{r7, lr}
 323              		.cfi_def_cfa_offset 8
 324              		.cfi_offset 7, -8
 325              		.cfi_offset 14, -4
 326 0002 82B0     		sub	sp, sp, #8
 327              		.cfi_def_cfa_offset 16
 328 0004 00AF     		add	r7, sp, #0
 329              		.cfi_def_cfa_register 7
 330 0006 7860     		str	r0, [r7, #4]
 331 0008 3960     		str	r1, [r7]
  98:.\cb_measurement/cb_logging.c ****    EEPROM_1_WriteByte( *value++, eeprom_position++ );
 332              		.loc 1 98 0
 333 000a 3B68     		ldr	r3, [r7]
 334 000c 5A1C     		adds	r2, r3, #1
 335 000e 3A60     		str	r2, [r7]
 336 0010 1978     		ldrb	r1, [r3]	@ zero_extendqisi2
 337 0012 7B68     		ldr	r3, [r7, #4]
 338 0014 5A1C     		adds	r2, r3, #1
 339 0016 7A60     		str	r2, [r7, #4]
 340 0018 9BB2     		uxth	r3, r3
 341 001a 0846     		mov	r0, r1
 342 001c 1946     		mov	r1, r3
 343 001e FFF7FEFF 		bl	EEPROM_1_WriteByte
  99:.\cb_measurement/cb_logging.c ****    EEPROM_1_WriteByte( *value++, eeprom_position++ );
 344              		.loc 1 99 0
 345 0022 3B68     		ldr	r3, [r7]
 346 0024 5A1C     		adds	r2, r3, #1
 347 0026 3A60     		str	r2, [r7]
 348 0028 1978     		ldrb	r1, [r3]	@ zero_extendqisi2
 349 002a 7B68     		ldr	r3, [r7, #4]
 350 002c 5A1C     		adds	r2, r3, #1
 351 002e 7A60     		str	r2, [r7, #4]
 352 0030 9BB2     		uxth	r3, r3
 353 0032 0846     		mov	r0, r1
 354 0034 1946     		mov	r1, r3
 355 0036 FFF7FEFF 		bl	EEPROM_1_WriteByte
 100:.\cb_measurement/cb_logging.c ****    EEPROM_1_WriteByte( *value++, eeprom_position++ );
 356              		.loc 1 100 0
ARM GAS  C:\Users\glenn\AppData\Local\Temp\ccq5UQ50.s 			page 9


 357 003a 3B68     		ldr	r3, [r7]
 358 003c 5A1C     		adds	r2, r3, #1
 359 003e 3A60     		str	r2, [r7]
 360 0040 1978     		ldrb	r1, [r3]	@ zero_extendqisi2
 361 0042 7B68     		ldr	r3, [r7, #4]
 362 0044 5A1C     		adds	r2, r3, #1
 363 0046 7A60     		str	r2, [r7, #4]
 364 0048 9BB2     		uxth	r3, r3
 365 004a 0846     		mov	r0, r1
 366 004c 1946     		mov	r1, r3
 367 004e FFF7FEFF 		bl	EEPROM_1_WriteByte
 101:.\cb_measurement/cb_logging.c ****    EEPROM_1_WriteByte( *value++, eeprom_position++ );
 368              		.loc 1 101 0
 369 0052 3B68     		ldr	r3, [r7]
 370 0054 5A1C     		adds	r2, r3, #1
 371 0056 3A60     		str	r2, [r7]
 372 0058 1978     		ldrb	r1, [r3]	@ zero_extendqisi2
 373 005a 7B68     		ldr	r3, [r7, #4]
 374 005c 5A1C     		adds	r2, r3, #1
 375 005e 7A60     		str	r2, [r7, #4]
 376 0060 9BB2     		uxth	r3, r3
 377 0062 0846     		mov	r0, r1
 378 0064 1946     		mov	r1, r3
 379 0066 FFF7FEFF 		bl	EEPROM_1_WriteByte
 102:.\cb_measurement/cb_logging.c **** }
 380              		.loc 1 102 0
 381 006a 0837     		adds	r7, r7, #8
 382              		.cfi_def_cfa_offset 8
 383 006c BD46     		mov	sp, r7
 384              		.cfi_def_cfa_register 13
 385              		@ sp needed
 386 006e 80BD     		pop	{r7, pc}
 387              		.cfi_endproc
 388              	.LFE67:
 389              		.size	read_32_eeprom, .-read_32_eeprom
 390              		.section	.text.read_16_eeprom,"ax",%progbits
 391              		.align	2
 392              		.global	read_16_eeprom
 393              		.thumb
 394              		.thumb_func
 395              		.type	read_16_eeprom, %function
 396              	read_16_eeprom:
 397              	.LFB68:
 103:.\cb_measurement/cb_logging.c **** 
 104:.\cb_measurement/cb_logging.c **** void read_16_eeprom( int eeprom_position, uint8 *value )
 105:.\cb_measurement/cb_logging.c **** {
 398              		.loc 1 105 0
 399              		.cfi_startproc
 400              		@ args = 0, pretend = 0, frame = 8
 401              		@ frame_needed = 1, uses_anonymous_args = 0
 402 0000 80B5     		push	{r7, lr}
 403              		.cfi_def_cfa_offset 8
 404              		.cfi_offset 7, -8
 405              		.cfi_offset 14, -4
 406 0002 82B0     		sub	sp, sp, #8
 407              		.cfi_def_cfa_offset 16
 408 0004 00AF     		add	r7, sp, #0
ARM GAS  C:\Users\glenn\AppData\Local\Temp\ccq5UQ50.s 			page 10


 409              		.cfi_def_cfa_register 7
 410 0006 7860     		str	r0, [r7, #4]
 411 0008 3960     		str	r1, [r7]
 106:.\cb_measurement/cb_logging.c ****    EEPROM_1_WriteByte( *value++, eeprom_position++ );
 412              		.loc 1 106 0
 413 000a 3B68     		ldr	r3, [r7]
 414 000c 5A1C     		adds	r2, r3, #1
 415 000e 3A60     		str	r2, [r7]
 416 0010 1978     		ldrb	r1, [r3]	@ zero_extendqisi2
 417 0012 7B68     		ldr	r3, [r7, #4]
 418 0014 5A1C     		adds	r2, r3, #1
 419 0016 7A60     		str	r2, [r7, #4]
 420 0018 9BB2     		uxth	r3, r3
 421 001a 0846     		mov	r0, r1
 422 001c 1946     		mov	r1, r3
 423 001e FFF7FEFF 		bl	EEPROM_1_WriteByte
 107:.\cb_measurement/cb_logging.c ****    EEPROM_1_WriteByte( *value++, eeprom_position++ );
 424              		.loc 1 107 0
 425 0022 3B68     		ldr	r3, [r7]
 426 0024 5A1C     		adds	r2, r3, #1
 427 0026 3A60     		str	r2, [r7]
 428 0028 1978     		ldrb	r1, [r3]	@ zero_extendqisi2
 429 002a 7B68     		ldr	r3, [r7, #4]
 430 002c 5A1C     		adds	r2, r3, #1
 431 002e 7A60     		str	r2, [r7, #4]
 432 0030 9BB2     		uxth	r3, r3
 433 0032 0846     		mov	r0, r1
 434 0034 1946     		mov	r1, r3
 435 0036 FFF7FEFF 		bl	EEPROM_1_WriteByte
 108:.\cb_measurement/cb_logging.c **** }  
 436              		.loc 1 108 0
 437 003a 0837     		adds	r7, r7, #8
 438              		.cfi_def_cfa_offset 8
 439 003c BD46     		mov	sp, r7
 440              		.cfi_def_cfa_register 13
 441              		@ sp needed
 442 003e 80BD     		pop	{r7, pc}
 443              		.cfi_endproc
 444              	.LFE68:
 445              		.size	read_16_eeprom, .-read_16_eeprom
 446              		.section	.text.get_modbus_eeprom_registers,"ax",%progbits
 447              		.align	2
 448              		.global	get_modbus_eeprom_registers
 449              		.thumb
 450              		.thumb_func
 451              		.type	get_modbus_eeprom_registers, %function
 452              	get_modbus_eeprom_registers:
 453              	.LFB69:
 109:.\cb_measurement/cb_logging.c **** 
 110:.\cb_measurement/cb_logging.c **** // this function treats eeprom as a 16 bit modbus registes
 111:.\cb_measurement/cb_logging.c **** int get_modbus_eeprom_registers( unsigned starting_register, unsigned number, uint16 *out )
 112:.\cb_measurement/cb_logging.c **** {
 454              		.loc 1 112 0
 455              		.cfi_startproc
 456              		@ args = 0, pretend = 0, frame = 24
 457              		@ frame_needed = 1, uses_anonymous_args = 0
 458 0000 80B5     		push	{r7, lr}
ARM GAS  C:\Users\glenn\AppData\Local\Temp\ccq5UQ50.s 			page 11


 459              		.cfi_def_cfa_offset 8
 460              		.cfi_offset 7, -8
 461              		.cfi_offset 14, -4
 462 0002 86B0     		sub	sp, sp, #24
 463              		.cfi_def_cfa_offset 32
 464 0004 00AF     		add	r7, sp, #0
 465              		.cfi_def_cfa_register 7
 466 0006 F860     		str	r0, [r7, #12]
 467 0008 B960     		str	r1, [r7, #8]
 468 000a 7A60     		str	r2, [r7, #4]
 113:.\cb_measurement/cb_logging.c ****     unsigned i;
 114:.\cb_measurement/cb_logging.c ****     int return_value;
 115:.\cb_measurement/cb_logging.c ****       
 116:.\cb_measurement/cb_logging.c ****     
 117:.\cb_measurement/cb_logging.c ****     starting_register = starting_register;
 118:.\cb_measurement/cb_logging.c ****     number            = number;
 119:.\cb_measurement/cb_logging.c ****     if( ( starting_register + number ) < EEPROM_1_EEPROM_SIZE )
 469              		.loc 1 119 0
 470 000c FA68     		ldr	r2, [r7, #12]
 471 000e BB68     		ldr	r3, [r7, #8]
 472 0010 1344     		add	r3, r3, r2
 473 0012 B3F5006F 		cmp	r3, #2048
 474 0016 16D2     		bcs	.L12
 120:.\cb_measurement/cb_logging.c ****     {
 121:.\cb_measurement/cb_logging.c ****         for( i= starting_register*2 ; i < number*2 ; i+=2 )
 475              		.loc 1 121 0
 476 0018 FB68     		ldr	r3, [r7, #12]
 477 001a 5B00     		lsls	r3, r3, #1
 478 001c 7B61     		str	r3, [r7, #20]
 479 001e 0AE0     		b	.L13
 480              	.L14:
 122:.\cb_measurement/cb_logging.c ****         {
 123:.\cb_measurement/cb_logging.c ****            read_16_eeprom( i, (uint8 *)out );
 481              		.loc 1 123 0 discriminator 3
 482 0020 7B69     		ldr	r3, [r7, #20]
 483 0022 1846     		mov	r0, r3
 484 0024 7968     		ldr	r1, [r7, #4]
 485 0026 FFF7FEFF 		bl	read_16_eeprom
 124:.\cb_measurement/cb_logging.c ****            out++;
 486              		.loc 1 124 0 discriminator 3
 487 002a 7B68     		ldr	r3, [r7, #4]
 488 002c 0233     		adds	r3, r3, #2
 489 002e 7B60     		str	r3, [r7, #4]
 121:.\cb_measurement/cb_logging.c ****         {
 490              		.loc 1 121 0 discriminator 3
 491 0030 7B69     		ldr	r3, [r7, #20]
 492 0032 0233     		adds	r3, r3, #2
 493 0034 7B61     		str	r3, [r7, #20]
 494              	.L13:
 121:.\cb_measurement/cb_logging.c ****         {
 495              		.loc 1 121 0 is_stmt 0 discriminator 1
 496 0036 BB68     		ldr	r3, [r7, #8]
 497 0038 5A00     		lsls	r2, r3, #1
 498 003a 7B69     		ldr	r3, [r7, #20]
 499 003c 9A42     		cmp	r2, r3
 500 003e EFD8     		bhi	.L14
 125:.\cb_measurement/cb_logging.c ****         }
ARM GAS  C:\Users\glenn\AppData\Local\Temp\ccq5UQ50.s 			page 12


 126:.\cb_measurement/cb_logging.c ****        
 127:.\cb_measurement/cb_logging.c ****         return_value = 1;
 501              		.loc 1 127 0 is_stmt 1
 502 0040 0123     		movs	r3, #1
 503 0042 3B61     		str	r3, [r7, #16]
 504 0044 01E0     		b	.L15
 505              	.L12:
 128:.\cb_measurement/cb_logging.c ****         
 129:.\cb_measurement/cb_logging.c ****     }
 130:.\cb_measurement/cb_logging.c ****     else
 131:.\cb_measurement/cb_logging.c ****     {
 132:.\cb_measurement/cb_logging.c ****         return_value = 0;
 506              		.loc 1 132 0
 507 0046 0023     		movs	r3, #0
 508 0048 3B61     		str	r3, [r7, #16]
 509              	.L15:
 133:.\cb_measurement/cb_logging.c ****     }
 134:.\cb_measurement/cb_logging.c ****     return return_value;
 510              		.loc 1 134 0
 511 004a 3B69     		ldr	r3, [r7, #16]
 135:.\cb_measurement/cb_logging.c **** }
 512              		.loc 1 135 0
 513 004c 1846     		mov	r0, r3
 514 004e 1837     		adds	r7, r7, #24
 515              		.cfi_def_cfa_offset 8
 516 0050 BD46     		mov	sp, r7
 517              		.cfi_def_cfa_register 13
 518              		@ sp needed
 519 0052 80BD     		pop	{r7, pc}
 520              		.cfi_endproc
 521              	.LFE69:
 522              		.size	get_modbus_eeprom_registers, .-get_modbus_eeprom_registers
 523              		.section	.text.validate_eeprom,"ax",%progbits
 524              		.align	2
 525              		.thumb
 526              		.thumb_func
 527              		.type	validate_eeprom, %function
 528              	validate_eeprom:
 529              	.LFB70:
 136:.\cb_measurement/cb_logging.c **** 
 137:.\cb_measurement/cb_logging.c **** 
 138:.\cb_measurement/cb_logging.c **** static int validate_eeprom( void )
 139:.\cb_measurement/cb_logging.c **** {
 530              		.loc 1 139 0
 531              		.cfi_startproc
 532              		@ args = 0, pretend = 0, frame = 8
 533              		@ frame_needed = 1, uses_anonymous_args = 0
 534 0000 80B5     		push	{r7, lr}
 535              		.cfi_def_cfa_offset 8
 536              		.cfi_offset 7, -8
 537              		.cfi_offset 14, -4
 538 0002 82B0     		sub	sp, sp, #8
 539              		.cfi_def_cfa_offset 16
 540 0004 00AF     		add	r7, sp, #0
 541              		.cfi_def_cfa_register 7
 140:.\cb_measurement/cb_logging.c ****     uint32 value;
 141:.\cb_measurement/cb_logging.c ****     int    return_value;
ARM GAS  C:\Users\glenn\AppData\Local\Temp\ccq5UQ50.s 			page 13


 142:.\cb_measurement/cb_logging.c ****     
 143:.\cb_measurement/cb_logging.c ****     value = 0;  // remove warning
 542              		.loc 1 143 0
 543 0006 0023     		movs	r3, #0
 544 0008 3B60     		str	r3, [r7]
 144:.\cb_measurement/cb_logging.c ****     read_32_eeprom( EEPROM_INITIALIZATION_INDEX, ( uint8 *)value );
 545              		.loc 1 144 0
 546 000a 3B68     		ldr	r3, [r7]
 547 000c 0020     		movs	r0, #0
 548 000e 1946     		mov	r1, r3
 549 0010 FFF7FEFF 		bl	read_32_eeprom
 145:.\cb_measurement/cb_logging.c ****     if( value == EEPROM_INITIALIZATION_VALUE )
 550              		.loc 1 145 0
 551 0014 3B68     		ldr	r3, [r7]
 552 0016 064A     		ldr	r2, .L21
 553 0018 9342     		cmp	r3, r2
 554 001a 02D1     		bne	.L18
 146:.\cb_measurement/cb_logging.c ****     {
 147:.\cb_measurement/cb_logging.c ****         return_value = 1;
 555              		.loc 1 147 0
 556 001c 0123     		movs	r3, #1
 557 001e 7B60     		str	r3, [r7, #4]
 558 0020 01E0     		b	.L19
 559              	.L18:
 148:.\cb_measurement/cb_logging.c ****     }
 149:.\cb_measurement/cb_logging.c ****     else
 150:.\cb_measurement/cb_logging.c ****     {
 151:.\cb_measurement/cb_logging.c ****         return_value = 0;
 560              		.loc 1 151 0
 561 0022 0023     		movs	r3, #0
 562 0024 7B60     		str	r3, [r7, #4]
 563              	.L19:
 152:.\cb_measurement/cb_logging.c ****     }
 153:.\cb_measurement/cb_logging.c ****     return return_value;
 564              		.loc 1 153 0
 565 0026 7B68     		ldr	r3, [r7, #4]
 154:.\cb_measurement/cb_logging.c ****     
 155:.\cb_measurement/cb_logging.c **** }
 566              		.loc 1 155 0
 567 0028 1846     		mov	r0, r3
 568 002a 0837     		adds	r7, r7, #8
 569              		.cfi_def_cfa_offset 8
 570 002c BD46     		mov	sp, r7
 571              		.cfi_def_cfa_register 13
 572              		@ sp needed
 573 002e 80BD     		pop	{r7, pc}
 574              	.L22:
 575              		.align	2
 576              	.L21:
 577 0030 5A5AA5A5 		.word	-1515890086
 578              		.cfi_endproc
 579              	.LFE70:
 580              		.size	validate_eeprom, .-validate_eeprom
 581              		.text
 582              	.Letext0:
 583              		.file 2 "c:\\program files (x86)\\cypress\\psoc creator\\3.3\\psoc creator\\import\\gnu\\arm\\4.9.
 584              		.file 3 "c:\\program files (x86)\\cypress\\psoc creator\\3.3\\psoc creator\\import\\gnu\\arm\\4.9.
ARM GAS  C:\Users\glenn\AppData\Local\Temp\ccq5UQ50.s 			page 14


 585              		.file 4 "Generated_Source\\PSoC5/cytypes.h"
 586              		.file 5 "Generated_Source\\PSoC5/core_cm3.h"