ARM GAS  C:\Users\glenn\AppData\Local\Temp\ccjfq4qP.s 			page 1


   1              		.syntax unified
   2              		.cpu cortex-m3
   3              		.fpu softvfp
   4              		.eabi_attribute 20, 1
   5              		.eabi_attribute 21, 1
   6              		.eabi_attribute 23, 3
   7              		.eabi_attribute 24, 1
   8              		.eabi_attribute 25, 1
   9              		.eabi_attribute 26, 1
  10              		.eabi_attribute 30, 6
  11              		.eabi_attribute 34, 1
  12              		.eabi_attribute 18, 4
  13              		.thumb
  14              		.file	"cf_external_functions.c"
  15              		.text
  16              	.Ltext0:
  17              		.cfi_sections	.debug_frame
  18              		.bss
  19              		.align	2
  20              	reset_flag:
  21 0000 00000000 		.space	4
  22              		.section	.text.toggle_heart_beat,"ax",%progbits
  23              		.align	2
  24              		.global	toggle_heart_beat
  25              		.thumb
  26              		.thumb_func
  27              		.type	toggle_heart_beat, %function
  28              	toggle_heart_beat:
  29              	.LFB65:
  30              		.file 1 ".\\chain_flow\\cf_external_functions.c"
   1:.\chain_flow/cf_external_functions.c **** /*
   2:.\chain_flow/cf_external_functions.c **** **
   3:.\chain_flow/cf_external_functions.c **** ** File: cf_external_functions.c
   4:.\chain_flow/cf_external_functions.c **** ** This file is manually generated
   5:.\chain_flow/cf_external_functions.c **** ** 
   6:.\chain_flow/cf_external_functions.c **** **
   7:.\chain_flow/cf_external_functions.c **** */
   8:.\chain_flow/cf_external_functions.c **** #include <device.h>
   9:.\chain_flow/cf_external_functions.c **** #include "cf_events.h"
  10:.\chain_flow/cf_external_functions.c **** #include "moving_average.h"
  11:.\chain_flow/cf_external_functions.c **** #include "cf_external_functions.h"
  12:.\chain_flow/cf_external_functions.c **** #include "a_to_d_functions.h"
  13:.\chain_flow/cf_external_functions.c **** #include "sigma_mux.h"
  14:.\chain_flow/cf_external_functions.c **** #include "event_fifo.h"
  15:.\chain_flow/cf_external_functions.c **** #include "digitial_io.h"
  16:.\chain_flow/cf_external_functions.c **** #include "process_modbus_message.h"
  17:.\chain_flow/cf_external_functions.c **** 
  18:.\chain_flow/cf_external_functions.c **** static uint32 reset_flag;
  19:.\chain_flow/cf_external_functions.c **** 
  20:.\chain_flow/cf_external_functions.c **** #define TICK_INTERVAL          16
  21:.\chain_flow/cf_external_functions.c **** 
  22:.\chain_flow/cf_external_functions.c **** int toggle_heart_beat(unsigned link_id, unsigned param_1,
  23:.\chain_flow/cf_external_functions.c ****                       unsigned param_2, unsigned param_3, 
  24:.\chain_flow/cf_external_functions.c **** 			          unsigned event, unsigned data)
  25:.\chain_flow/cf_external_functions.c **** {
  31              		.loc 1 25 0
  32              		.cfi_startproc
ARM GAS  C:\Users\glenn\AppData\Local\Temp\ccjfq4qP.s 			page 2


  33              		@ args = 8, pretend = 0, frame = 16
  34              		@ frame_needed = 1, uses_anonymous_args = 0
  35 0000 80B5     		push	{r7, lr}
  36              		.cfi_def_cfa_offset 8
  37              		.cfi_offset 7, -8
  38              		.cfi_offset 14, -4
  39 0002 84B0     		sub	sp, sp, #16
  40              		.cfi_def_cfa_offset 24
  41 0004 00AF     		add	r7, sp, #0
  42              		.cfi_def_cfa_register 7
  43 0006 F860     		str	r0, [r7, #12]
  44 0008 B960     		str	r1, [r7, #8]
  45 000a 7A60     		str	r2, [r7, #4]
  46 000c 3B60     		str	r3, [r7]
  26:.\chain_flow/cf_external_functions.c **** 	
  27:.\chain_flow/cf_external_functions.c ****            
  28:.\chain_flow/cf_external_functions.c ****    heart_beat_pin_Write( !heart_beat_pin_Read() );
  47              		.loc 1 28 0
  48 000e FFF7FEFF 		bl	heart_beat_pin_Read
  49 0012 0346     		mov	r3, r0
  50 0014 002B     		cmp	r3, #0
  51 0016 0CBF     		ite	eq
  52 0018 0123     		moveq	r3, #1
  53 001a 0023     		movne	r3, #0
  54 001c DBB2     		uxtb	r3, r3
  55 001e 1846     		mov	r0, r3
  56 0020 FFF7FEFF 		bl	heart_beat_pin_Write
  29:.\chain_flow/cf_external_functions.c ****    return CF_DISABLE;       
  57              		.loc 1 29 0
  58 0024 0223     		movs	r3, #2
  30:.\chain_flow/cf_external_functions.c **** 
  31:.\chain_flow/cf_external_functions.c **** }
  59              		.loc 1 31 0
  60 0026 1846     		mov	r0, r3
  61 0028 1037     		adds	r7, r7, #16
  62              		.cfi_def_cfa_offset 8
  63 002a BD46     		mov	sp, r7
  64              		.cfi_def_cfa_register 13
  65              		@ sp needed
  66 002c 80BD     		pop	{r7, pc}
  67              		.cfi_endproc
  68              	.LFE65:
  69              		.size	toggle_heart_beat, .-toggle_heart_beat
  70 002e 00BF     		.section	.text.pat_watch_dog,"ax",%progbits
  71              		.align	2
  72              		.global	pat_watch_dog
  73              		.thumb
  74              		.thumb_func
  75              		.type	pat_watch_dog, %function
  76              	pat_watch_dog:
  77              	.LFB66:
  32:.\chain_flow/cf_external_functions.c **** 
  33:.\chain_flow/cf_external_functions.c **** int  pat_watch_dog(unsigned link_id, unsigned param_1,
  34:.\chain_flow/cf_external_functions.c ****   unsigned param_2, unsigned param_3, unsigned event, unsigned data)
  35:.\chain_flow/cf_external_functions.c **** {
  78              		.loc 1 35 0
  79              		.cfi_startproc
ARM GAS  C:\Users\glenn\AppData\Local\Temp\ccjfq4qP.s 			page 3


  80              		@ args = 8, pretend = 0, frame = 16
  81              		@ frame_needed = 1, uses_anonymous_args = 0
  82 0000 80B5     		push	{r7, lr}
  83              		.cfi_def_cfa_offset 8
  84              		.cfi_offset 7, -8
  85              		.cfi_offset 14, -4
  86 0002 84B0     		sub	sp, sp, #16
  87              		.cfi_def_cfa_offset 24
  88 0004 00AF     		add	r7, sp, #0
  89              		.cfi_def_cfa_register 7
  90 0006 F860     		str	r0, [r7, #12]
  91 0008 B960     		str	r1, [r7, #8]
  92 000a 7A60     		str	r2, [r7, #4]
  93 000c 3B60     		str	r3, [r7]
  36:.\chain_flow/cf_external_functions.c ****     CyWdtClear();
  94              		.loc 1 36 0
  95 000e FFF7FEFF 		bl	CyWdtClear
  37:.\chain_flow/cf_external_functions.c ****     return CF_DISABLE;
  96              		.loc 1 37 0
  97 0012 0223     		movs	r3, #2
  38:.\chain_flow/cf_external_functions.c **** }
  98              		.loc 1 38 0
  99 0014 1846     		mov	r0, r3
 100 0016 1037     		adds	r7, r7, #16
 101              		.cfi_def_cfa_offset 8
 102 0018 BD46     		mov	sp, r7
 103              		.cfi_def_cfa_register 13
 104              		@ sp needed
 105 001a 80BD     		pop	{r7, pc}
 106              		.cfi_endproc
 107              	.LFE66:
 108              		.size	pat_watch_dog, .-pat_watch_dog
 109              		.section	.text.sleep_timer_interrupt,"ax",%progbits
 110              		.align	2
 111              		.global	sleep_timer_interrupt
 112              		.thumb
 113              		.thumb_func
 114              		.type	sleep_timer_interrupt, %function
 115              	sleep_timer_interrupt:
 116              	.LFB67:
  39:.\chain_flow/cf_external_functions.c **** 
  40:.\chain_flow/cf_external_functions.c **** 
  41:.\chain_flow/cf_external_functions.c **** 
  42:.\chain_flow/cf_external_functions.c **** /*
  43:.\chain_flow/cf_external_functions.c **** ** Die Temperature functions
  44:.\chain_flow/cf_external_functions.c **** **
  45:.\chain_flow/cf_external_functions.c **** */
  46:.\chain_flow/cf_external_functions.c **** 
  47:.\chain_flow/cf_external_functions.c **** 
  48:.\chain_flow/cf_external_functions.c **** 
  49:.\chain_flow/cf_external_functions.c **** 
  50:.\chain_flow/cf_external_functions.c **** 
  51:.\chain_flow/cf_external_functions.c **** /*
  52:.\chain_flow/cf_external_functions.c **** **
  53:.\chain_flow/cf_external_functions.c **** ** Initialize Function
  54:.\chain_flow/cf_external_functions.c **** **
  55:.\chain_flow/cf_external_functions.c **** **
ARM GAS  C:\Users\glenn\AppData\Local\Temp\ccjfq4qP.s 			page 4


  56:.\chain_flow/cf_external_functions.c **** */
  57:.\chain_flow/cf_external_functions.c **** CY_ISR_PROTO( sleep_timer_interrupt )
  58:.\chain_flow/cf_external_functions.c **** {
 117              		.loc 1 58 0
 118              		.cfi_startproc
 119              		@ args = 0, pretend = 0, frame = 0
 120              		@ frame_needed = 1, uses_anonymous_args = 0
 121 0000 80B5     		push	{r7, lr}
 122              		.cfi_def_cfa_offset 8
 123              		.cfi_offset 7, -8
 124              		.cfi_offset 14, -4
 125 0002 00AF     		add	r7, sp, #0
 126              		.cfi_def_cfa_register 7
  59:.\chain_flow/cf_external_functions.c ****     SleepTimer_1_GetStatus();
 127              		.loc 1 59 0
 128 0004 FFF7FEFF 		bl	SleepTimer_1_GetStatus
  60:.\chain_flow/cf_external_functions.c ****     cf_send_interrupt_event(  CF_TIME_TICK_EVENT, TICK_INTERVAL );
 129              		.loc 1 60 0
 130 0008 0220     		movs	r0, #2
 131 000a 1021     		movs	r1, #16
 132 000c FFF7FEFF 		bl	cf_send_interrupt_event
  61:.\chain_flow/cf_external_functions.c ****     
  62:.\chain_flow/cf_external_functions.c **** }
 133              		.loc 1 62 0
 134 0010 80BD     		pop	{r7, pc}
 135              		.cfi_endproc
 136              	.LFE67:
 137              		.size	sleep_timer_interrupt, .-sleep_timer_interrupt
 138 0012 00BF     		.section	.text.start_watchdog,"ax",%progbits
 139              		.align	2
 140              		.global	start_watchdog
 141              		.thumb
 142              		.thumb_func
 143              		.type	start_watchdog, %function
 144              	start_watchdog:
 145              	.LFB68:
  63:.\chain_flow/cf_external_functions.c **** 
  64:.\chain_flow/cf_external_functions.c **** 
  65:.\chain_flow/cf_external_functions.c **** 
  66:.\chain_flow/cf_external_functions.c **** int start_watchdog(unsigned link_id, unsigned param_1,
  67:.\chain_flow/cf_external_functions.c ****   unsigned param_2, unsigned param_3, unsigned event, unsigned data)
  68:.\chain_flow/cf_external_functions.c **** {
 146              		.loc 1 68 0
 147              		.cfi_startproc
 148              		@ args = 8, pretend = 0, frame = 16
 149              		@ frame_needed = 1, uses_anonymous_args = 0
 150              		@ link register save eliminated.
 151 0000 80B4     		push	{r7}
 152              		.cfi_def_cfa_offset 4
 153              		.cfi_offset 7, -4
 154 0002 85B0     		sub	sp, sp, #20
 155              		.cfi_def_cfa_offset 24
 156 0004 00AF     		add	r7, sp, #0
 157              		.cfi_def_cfa_register 7
 158 0006 F860     		str	r0, [r7, #12]
 159 0008 B960     		str	r1, [r7, #8]
 160 000a 7A60     		str	r2, [r7, #4]
ARM GAS  C:\Users\glenn\AppData\Local\Temp\ccjfq4qP.s 			page 5


 161 000c 3B60     		str	r3, [r7]
  69:.\chain_flow/cf_external_functions.c ****     //CyWdtStart( CYWDT_1024_TICKS, CYWDT_LPMODE_NOCHANGE ); // 2 -3 second interval
  70:.\chain_flow/cf_external_functions.c ****     return CF_DISABLE;
 162              		.loc 1 70 0
 163 000e 0223     		movs	r3, #2
  71:.\chain_flow/cf_external_functions.c **** }
 164              		.loc 1 71 0
 165 0010 1846     		mov	r0, r3
 166 0012 1437     		adds	r7, r7, #20
 167              		.cfi_def_cfa_offset 4
 168 0014 BD46     		mov	sp, r7
 169              		.cfi_def_cfa_register 13
 170              		@ sp needed
 171 0016 5DF8047B 		ldr	r7, [sp], #4
 172              		.cfi_restore 7
 173              		.cfi_def_cfa_offset 0
 174 001a 7047     		bx	lr
 175              		.cfi_endproc
 176              	.LFE68:
 177              		.size	start_watchdog, .-start_watchdog
 178              		.section	.text.enable_timer_interrupt,"ax",%progbits
 179              		.align	2
 180              		.global	enable_timer_interrupt
 181              		.thumb
 182              		.thumb_func
 183              		.type	enable_timer_interrupt, %function
 184              	enable_timer_interrupt:
 185              	.LFB69:
  72:.\chain_flow/cf_external_functions.c **** 
  73:.\chain_flow/cf_external_functions.c **** 
  74:.\chain_flow/cf_external_functions.c **** 
  75:.\chain_flow/cf_external_functions.c **** 
  76:.\chain_flow/cf_external_functions.c **** 
  77:.\chain_flow/cf_external_functions.c **** 
  78:.\chain_flow/cf_external_functions.c **** int enable_timer_interrupt(unsigned link_id, unsigned param_1,
  79:.\chain_flow/cf_external_functions.c ****   unsigned param_2, unsigned param_3, unsigned event, unsigned data)
  80:.\chain_flow/cf_external_functions.c **** {
 186              		.loc 1 80 0
 187              		.cfi_startproc
 188              		@ args = 8, pretend = 0, frame = 16
 189              		@ frame_needed = 1, uses_anonymous_args = 0
 190 0000 80B5     		push	{r7, lr}
 191              		.cfi_def_cfa_offset 8
 192              		.cfi_offset 7, -8
 193              		.cfi_offset 14, -4
 194 0002 84B0     		sub	sp, sp, #16
 195              		.cfi_def_cfa_offset 24
 196 0004 00AF     		add	r7, sp, #0
 197              		.cfi_def_cfa_register 7
 198 0006 F860     		str	r0, [r7, #12]
 199 0008 B960     		str	r1, [r7, #8]
 200 000a 7A60     		str	r2, [r7, #4]
 201 000c 3B60     		str	r3, [r7]
  81:.\chain_flow/cf_external_functions.c **** 
  82:.\chain_flow/cf_external_functions.c ****     isr_1_StartEx(sleep_timer_interrupt); 
 202              		.loc 1 82 0
 203 000e 0548     		ldr	r0, .L10
ARM GAS  C:\Users\glenn\AppData\Local\Temp\ccjfq4qP.s 			page 6


 204 0010 FFF7FEFF 		bl	isr_1_StartEx
  83:.\chain_flow/cf_external_functions.c ****     SleepTimer_1_Start();
 205              		.loc 1 83 0
 206 0014 FFF7FEFF 		bl	SleepTimer_1_Start
  84:.\chain_flow/cf_external_functions.c ****     return CF_DISABLE;
 207              		.loc 1 84 0
 208 0018 0223     		movs	r3, #2
  85:.\chain_flow/cf_external_functions.c **** }
 209              		.loc 1 85 0
 210 001a 1846     		mov	r0, r3
 211 001c 1037     		adds	r7, r7, #16
 212              		.cfi_def_cfa_offset 8
 213 001e BD46     		mov	sp, r7
 214              		.cfi_def_cfa_register 13
 215              		@ sp needed
 216 0020 80BD     		pop	{r7, pc}
 217              	.L11:
 218 0022 00BF     		.align	2
 219              	.L10:
 220 0024 00000000 		.word	sleep_timer_interrupt
 221              		.cfi_endproc
 222              	.LFE69:
 223              		.size	enable_timer_interrupt, .-enable_timer_interrupt
 224              		.section	.text.enable_interrupts,"ax",%progbits
 225              		.align	2
 226              		.global	enable_interrupts
 227              		.thumb
 228              		.thumb_func
 229              		.type	enable_interrupts, %function
 230              	enable_interrupts:
 231              	.LFB70:
  86:.\chain_flow/cf_external_functions.c **** 
  87:.\chain_flow/cf_external_functions.c **** int enable_interrupts(unsigned link_id, unsigned param_1,
  88:.\chain_flow/cf_external_functions.c ****   unsigned param_2, unsigned param_3, unsigned event, unsigned data)
  89:.\chain_flow/cf_external_functions.c **** {
 232              		.loc 1 89 0
 233              		.cfi_startproc
 234              		@ args = 8, pretend = 0, frame = 16
 235              		@ frame_needed = 1, uses_anonymous_args = 0
 236              		@ link register save eliminated.
 237 0000 80B4     		push	{r7}
 238              		.cfi_def_cfa_offset 4
 239              		.cfi_offset 7, -4
 240 0002 85B0     		sub	sp, sp, #20
 241              		.cfi_def_cfa_offset 24
 242 0004 00AF     		add	r7, sp, #0
 243              		.cfi_def_cfa_register 7
 244 0006 F860     		str	r0, [r7, #12]
 245 0008 B960     		str	r1, [r7, #8]
 246 000a 7A60     		str	r2, [r7, #4]
 247 000c 3B60     		str	r3, [r7]
  90:.\chain_flow/cf_external_functions.c ****    CyGlobalIntEnable;
 248              		.loc 1 90 0
 249              	@ 90 ".\chain_flow\cf_external_functions.c" 1
 250 000e 62B6     		CPSIE   i
 251              	@ 0 "" 2
  91:.\chain_flow/cf_external_functions.c ****    return CF_DISABLE;
ARM GAS  C:\Users\glenn\AppData\Local\Temp\ccjfq4qP.s 			page 7


 252              		.loc 1 91 0
 253              		.thumb
 254 0010 0223     		movs	r3, #2
  92:.\chain_flow/cf_external_functions.c **** }
 255              		.loc 1 92 0
 256 0012 1846     		mov	r0, r3
 257 0014 1437     		adds	r7, r7, #20
 258              		.cfi_def_cfa_offset 4
 259 0016 BD46     		mov	sp, r7
 260              		.cfi_def_cfa_register 13
 261              		@ sp needed
 262 0018 5DF8047B 		ldr	r7, [sp], #4
 263              		.cfi_restore 7
 264              		.cfi_def_cfa_offset 0
 265 001c 7047     		bx	lr
 266              		.cfi_endproc
 267              	.LFE70:
 268              		.size	enable_interrupts, .-enable_interrupts
 269 001e 00BF     		.section	.text.init_event_queue,"ax",%progbits
 270              		.align	2
 271              		.global	init_event_queue
 272              		.thumb
 273              		.thumb_func
 274              		.type	init_event_queue, %function
 275              	init_event_queue:
 276              	.LFB71:
  93:.\chain_flow/cf_external_functions.c **** 
  94:.\chain_flow/cf_external_functions.c **** 
  95:.\chain_flow/cf_external_functions.c **** 
  96:.\chain_flow/cf_external_functions.c **** 
  97:.\chain_flow/cf_external_functions.c **** 
  98:.\chain_flow/cf_external_functions.c **** 
  99:.\chain_flow/cf_external_functions.c **** 
 100:.\chain_flow/cf_external_functions.c ****  
 101:.\chain_flow/cf_external_functions.c ****     
 102:.\chain_flow/cf_external_functions.c **** int init_event_queue(unsigned link_id, unsigned param_1,
 103:.\chain_flow/cf_external_functions.c ****   unsigned param_2, unsigned param_3, unsigned event, unsigned data)
 104:.\chain_flow/cf_external_functions.c **** {
 277              		.loc 1 104 0
 278              		.cfi_startproc
 279              		@ args = 8, pretend = 0, frame = 16
 280              		@ frame_needed = 1, uses_anonymous_args = 0
 281 0000 80B5     		push	{r7, lr}
 282              		.cfi_def_cfa_offset 8
 283              		.cfi_offset 7, -8
 284              		.cfi_offset 14, -4
 285 0002 84B0     		sub	sp, sp, #16
 286              		.cfi_def_cfa_offset 24
 287 0004 00AF     		add	r7, sp, #0
 288              		.cfi_def_cfa_register 7
 289 0006 F860     		str	r0, [r7, #12]
 290 0008 B960     		str	r1, [r7, #8]
 291 000a 7A60     		str	r2, [r7, #4]
 292 000c 3B60     		str	r3, [r7]
 105:.\chain_flow/cf_external_functions.c ****   
 106:.\chain_flow/cf_external_functions.c ****     EF_initialize();
 293              		.loc 1 106 0
ARM GAS  C:\Users\glenn\AppData\Local\Temp\ccjfq4qP.s 			page 8


 294 000e FFF7FEFF 		bl	EF_initialize
 107:.\chain_flow/cf_external_functions.c ****     return CF_DISABLE;
 295              		.loc 1 107 0
 296 0012 0223     		movs	r3, #2
 108:.\chain_flow/cf_external_functions.c ****     
 109:.\chain_flow/cf_external_functions.c **** }  
 297              		.loc 1 109 0
 298 0014 1846     		mov	r0, r3
 299 0016 1037     		adds	r7, r7, #16
 300              		.cfi_def_cfa_offset 8
 301 0018 BD46     		mov	sp, r7
 302              		.cfi_def_cfa_register 13
 303              		@ sp needed
 304 001a 80BD     		pop	{r7, pc}
 305              		.cfi_endproc
 306              	.LFE71:
 307              		.size	init_event_queue, .-init_event_queue
 308              		.section	.text.switch_on_fn,"ax",%progbits
 309              		.align	2
 310              		.global	switch_on_fn
 311              		.thumb
 312              		.thumb_func
 313              		.type	switch_on_fn, %function
 314              	switch_on_fn:
 315              	.LFB72:
 110:.\chain_flow/cf_external_functions.c **** 
 111:.\chain_flow/cf_external_functions.c **** 
 112:.\chain_flow/cf_external_functions.c **** 
 113:.\chain_flow/cf_external_functions.c **** 
 114:.\chain_flow/cf_external_functions.c **** 
 115:.\chain_flow/cf_external_functions.c **** 
 116:.\chain_flow/cf_external_functions.c **** int switch_on_fn(unsigned link_id, unsigned param_1,
 117:.\chain_flow/cf_external_functions.c ****   unsigned param_2, unsigned param_3, unsigned event, unsigned data)
 118:.\chain_flow/cf_external_functions.c **** {
 316              		.loc 1 118 0
 317              		.cfi_startproc
 318              		@ args = 8, pretend = 0, frame = 16
 319              		@ frame_needed = 1, uses_anonymous_args = 0
 320              		@ link register save eliminated.
 321 0000 80B4     		push	{r7}
 322              		.cfi_def_cfa_offset 4
 323              		.cfi_offset 7, -4
 324 0002 85B0     		sub	sp, sp, #20
 325              		.cfi_def_cfa_offset 24
 326 0004 00AF     		add	r7, sp, #0
 327              		.cfi_def_cfa_register 7
 328 0006 F860     		str	r0, [r7, #12]
 329 0008 B960     		str	r1, [r7, #8]
 330 000a 7A60     		str	r2, [r7, #4]
 331 000c 3B60     		str	r3, [r7]
 119:.\chain_flow/cf_external_functions.c ****    return 0;
 332              		.loc 1 119 0
 333 000e 0023     		movs	r3, #0
 120:.\chain_flow/cf_external_functions.c **** }
 334              		.loc 1 120 0
 335 0010 1846     		mov	r0, r3
 336 0012 1437     		adds	r7, r7, #20
ARM GAS  C:\Users\glenn\AppData\Local\Temp\ccjfq4qP.s 			page 9


 337              		.cfi_def_cfa_offset 4
 338 0014 BD46     		mov	sp, r7
 339              		.cfi_def_cfa_register 13
 340              		@ sp needed
 341 0016 5DF8047B 		ldr	r7, [sp], #4
 342              		.cfi_restore 7
 343              		.cfi_def_cfa_offset 0
 344 001a 7047     		bx	lr
 345              		.cfi_endproc
 346              	.LFE72:
 347              		.size	switch_on_fn, .-switch_on_fn
 348              		.section	.text.switch_off_fn,"ax",%progbits
 349              		.align	2
 350              		.global	switch_off_fn
 351              		.thumb
 352              		.thumb_func
 353              		.type	switch_off_fn, %function
 354              	switch_off_fn:
 355              	.LFB73:
 121:.\chain_flow/cf_external_functions.c **** 
 122:.\chain_flow/cf_external_functions.c **** int switch_off_fn(unsigned link_id, unsigned param_1,
 123:.\chain_flow/cf_external_functions.c ****   unsigned param_2, unsigned param_3, unsigned event, unsigned data)
 124:.\chain_flow/cf_external_functions.c **** {
 356              		.loc 1 124 0
 357              		.cfi_startproc
 358              		@ args = 8, pretend = 0, frame = 16
 359              		@ frame_needed = 1, uses_anonymous_args = 0
 360              		@ link register save eliminated.
 361 0000 80B4     		push	{r7}
 362              		.cfi_def_cfa_offset 4
 363              		.cfi_offset 7, -4
 364 0002 85B0     		sub	sp, sp, #20
 365              		.cfi_def_cfa_offset 24
 366 0004 00AF     		add	r7, sp, #0
 367              		.cfi_def_cfa_register 7
 368 0006 F860     		str	r0, [r7, #12]
 369 0008 B960     		str	r1, [r7, #8]
 370 000a 7A60     		str	r2, [r7, #4]
 371 000c 3B60     		str	r3, [r7]
 125:.\chain_flow/cf_external_functions.c ****     return 0;
 372              		.loc 1 125 0
 373 000e 0023     		movs	r3, #0
 126:.\chain_flow/cf_external_functions.c **** }
 374              		.loc 1 126 0
 375 0010 1846     		mov	r0, r3
 376 0012 1437     		adds	r7, r7, #20
 377              		.cfi_def_cfa_offset 4
 378 0014 BD46     		mov	sp, r7
 379              		.cfi_def_cfa_register 13
 380              		@ sp needed
 381 0016 5DF8047B 		ldr	r7, [sp], #4
 382              		.cfi_restore 7
 383              		.cfi_def_cfa_offset 0
 384 001a 7047     		bx	lr
 385              		.cfi_endproc
 386              	.LFE73:
 387              		.size	switch_off_fn, .-switch_off_fn
ARM GAS  C:\Users\glenn\AppData\Local\Temp\ccjfq4qP.s 			page 10


 388              		.section	.text.initialize_callibration_variables,"ax",%progbits
 389              		.align	2
 390              		.global	initialize_callibration_variables
 391              		.thumb
 392              		.thumb_func
 393              		.type	initialize_callibration_variables, %function
 394              	initialize_callibration_variables:
 395              	.LFB74:
 127:.\chain_flow/cf_external_functions.c **** 
 128:.\chain_flow/cf_external_functions.c **** 
 129:.\chain_flow/cf_external_functions.c **** int initialize_callibration_variables(unsigned link_id, unsigned param_1,
 130:.\chain_flow/cf_external_functions.c ****   unsigned param_2, unsigned param_3, unsigned event, unsigned data)
 131:.\chain_flow/cf_external_functions.c **** {
 396              		.loc 1 131 0
 397              		.cfi_startproc
 398              		@ args = 8, pretend = 0, frame = 16
 399              		@ frame_needed = 1, uses_anonymous_args = 0
 400              		@ link register save eliminated.
 401 0000 80B4     		push	{r7}
 402              		.cfi_def_cfa_offset 4
 403              		.cfi_offset 7, -4
 404 0002 85B0     		sub	sp, sp, #20
 405              		.cfi_def_cfa_offset 24
 406 0004 00AF     		add	r7, sp, #0
 407              		.cfi_def_cfa_register 7
 408 0006 F860     		str	r0, [r7, #12]
 409 0008 B960     		str	r1, [r7, #8]
 410 000a 7A60     		str	r2, [r7, #4]
 411 000c 3B60     		str	r3, [r7]
 132:.\chain_flow/cf_external_functions.c ****     return 0;
 412              		.loc 1 132 0
 413 000e 0023     		movs	r3, #0
 133:.\chain_flow/cf_external_functions.c **** }
 414              		.loc 1 133 0
 415 0010 1846     		mov	r0, r3
 416 0012 1437     		adds	r7, r7, #20
 417              		.cfi_def_cfa_offset 4
 418 0014 BD46     		mov	sp, r7
 419              		.cfi_def_cfa_register 13
 420              		@ sp needed
 421 0016 5DF8047B 		ldr	r7, [sp], #4
 422              		.cfi_restore 7
 423              		.cfi_def_cfa_offset 0
 424 001a 7047     		bx	lr
 425              		.cfi_endproc
 426              	.LFE74:
 427              		.size	initialize_callibration_variables, .-initialize_callibration_variables
 428              		.section	.text.set_modbus_watch_dog_flag,"ax",%progbits
 429              		.align	2
 430              		.global	set_modbus_watch_dog_flag
 431              		.thumb
 432              		.thumb_func
 433              		.type	set_modbus_watch_dog_flag, %function
 434              	set_modbus_watch_dog_flag:
 435              	.LFB75:
 134:.\chain_flow/cf_external_functions.c **** 
 135:.\chain_flow/cf_external_functions.c **** int set_modbus_watch_dog_flag(unsigned link_id, unsigned param_1,
ARM GAS  C:\Users\glenn\AppData\Local\Temp\ccjfq4qP.s 			page 11


 136:.\chain_flow/cf_external_functions.c ****   unsigned param_2, unsigned param_3, unsigned event, unsigned data)
 137:.\chain_flow/cf_external_functions.c **** {
 436              		.loc 1 137 0
 437              		.cfi_startproc
 438              		@ args = 8, pretend = 0, frame = 24
 439              		@ frame_needed = 1, uses_anonymous_args = 0
 440 0000 80B5     		push	{r7, lr}
 441              		.cfi_def_cfa_offset 8
 442              		.cfi_offset 7, -8
 443              		.cfi_offset 14, -4
 444 0002 86B0     		sub	sp, sp, #24
 445              		.cfi_def_cfa_offset 32
 446 0004 00AF     		add	r7, sp, #0
 447              		.cfi_def_cfa_register 7
 448 0006 F860     		str	r0, [r7, #12]
 449 0008 B960     		str	r1, [r7, #8]
 450 000a 7A60     		str	r2, [r7, #4]
 451 000c 3B60     		str	r3, [r7]
 138:.\chain_flow/cf_external_functions.c ****     uint16 temp;
 139:.\chain_flow/cf_external_functions.c ****     temp = 1;
 452              		.loc 1 139 0
 453 000e 0123     		movs	r3, #1
 454 0010 FB82     		strh	r3, [r7, #22]	@ movhi
 140:.\chain_flow/cf_external_functions.c ****     store_modbus_data_registers( MOD_RTU_WATCH_DOG_FLAG, 1, &temp);
 455              		.loc 1 140 0
 456 0012 07F11603 		add	r3, r7, #22
 457 0016 0220     		movs	r0, #2
 458 0018 0121     		movs	r1, #1
 459 001a 1A46     		mov	r2, r3
 460 001c FFF7FEFF 		bl	store_modbus_data_registers
 141:.\chain_flow/cf_external_functions.c ****     return 0;
 461              		.loc 1 141 0
 462 0020 0023     		movs	r3, #0
 142:.\chain_flow/cf_external_functions.c **** }
 463              		.loc 1 142 0
 464 0022 1846     		mov	r0, r3
 465 0024 1837     		adds	r7, r7, #24
 466              		.cfi_def_cfa_offset 8
 467 0026 BD46     		mov	sp, r7
 468              		.cfi_def_cfa_register 13
 469              		@ sp needed
 470 0028 80BD     		pop	{r7, pc}
 471              		.cfi_endproc
 472              	.LFE75:
 473              		.size	set_modbus_watch_dog_flag, .-set_modbus_watch_dog_flag
 474 002a 00BF     		.section	.text.set_minute_rollover,"ax",%progbits
 475              		.align	2
 476              		.global	set_minute_rollover
 477              		.thumb
 478              		.thumb_func
 479              		.type	set_minute_rollover, %function
 480              	set_minute_rollover:
 481              	.LFB76:
 143:.\chain_flow/cf_external_functions.c **** 
 144:.\chain_flow/cf_external_functions.c **** int set_minute_rollover(unsigned link_id, unsigned param_1,
 145:.\chain_flow/cf_external_functions.c ****   unsigned param_2, unsigned param_3, unsigned event, unsigned data)
 146:.\chain_flow/cf_external_functions.c **** {
ARM GAS  C:\Users\glenn\AppData\Local\Temp\ccjfq4qP.s 			page 12


 482              		.loc 1 146 0
 483              		.cfi_startproc
 484              		@ args = 8, pretend = 0, frame = 24
 485              		@ frame_needed = 1, uses_anonymous_args = 0
 486 0000 80B5     		push	{r7, lr}
 487              		.cfi_def_cfa_offset 8
 488              		.cfi_offset 7, -8
 489              		.cfi_offset 14, -4
 490 0002 86B0     		sub	sp, sp, #24
 491              		.cfi_def_cfa_offset 32
 492 0004 00AF     		add	r7, sp, #0
 493              		.cfi_def_cfa_register 7
 494 0006 F860     		str	r0, [r7, #12]
 495 0008 B960     		str	r1, [r7, #8]
 496 000a 7A60     		str	r2, [r7, #4]
 497 000c 3B60     		str	r3, [r7]
 147:.\chain_flow/cf_external_functions.c ****    uint16 temp;
 148:.\chain_flow/cf_external_functions.c ****     temp = 1;
 498              		.loc 1 148 0
 499 000e 0123     		movs	r3, #1
 500 0010 FB82     		strh	r3, [r7, #22]	@ movhi
 149:.\chain_flow/cf_external_functions.c ****     store_modbus_data_registers(MOD_MINUTE_ROLLOVER , 1, &temp);
 501              		.loc 1 149 0
 502 0012 07F11603 		add	r3, r7, #22
 503 0016 0620     		movs	r0, #6
 504 0018 0121     		movs	r1, #1
 505 001a 1A46     		mov	r2, r3
 506 001c FFF7FEFF 		bl	store_modbus_data_registers
 150:.\chain_flow/cf_external_functions.c ****     return 0;
 507              		.loc 1 150 0
 508 0020 0023     		movs	r3, #0
 151:.\chain_flow/cf_external_functions.c **** }
 509              		.loc 1 151 0
 510 0022 1846     		mov	r0, r3
 511 0024 1837     		adds	r7, r7, #24
 512              		.cfi_def_cfa_offset 8
 513 0026 BD46     		mov	sp, r7
 514              		.cfi_def_cfa_register 13
 515              		@ sp needed
 516 0028 80BD     		pop	{r7, pc}
 517              		.cfi_endproc
 518              	.LFE76:
 519              		.size	set_minute_rollover, .-set_minute_rollover
 520 002a 00BF     		.section	.text.update_modbus_rtc_values,"ax",%progbits
 521              		.align	2
 522              		.global	update_modbus_rtc_values
 523              		.thumb
 524              		.thumb_func
 525              		.type	update_modbus_rtc_values, %function
 526              	update_modbus_rtc_values:
 527              	.LFB77:
 152:.\chain_flow/cf_external_functions.c ****        
 153:.\chain_flow/cf_external_functions.c ****  
 154:.\chain_flow/cf_external_functions.c **** int update_modbus_rtc_values(unsigned link_id, unsigned param_1,
 155:.\chain_flow/cf_external_functions.c ****   unsigned param_2, unsigned param_3, unsigned event, unsigned data)
 156:.\chain_flow/cf_external_functions.c **** {
 528              		.loc 1 156 0
ARM GAS  C:\Users\glenn\AppData\Local\Temp\ccjfq4qP.s 			page 13


 529              		.cfi_startproc
 530              		@ args = 8, pretend = 0, frame = 24
 531              		@ frame_needed = 1, uses_anonymous_args = 0
 532 0000 80B5     		push	{r7, lr}
 533              		.cfi_def_cfa_offset 8
 534              		.cfi_offset 7, -8
 535              		.cfi_offset 14, -4
 536 0002 86B0     		sub	sp, sp, #24
 537              		.cfi_def_cfa_offset 32
 538 0004 00AF     		add	r7, sp, #0
 539              		.cfi_def_cfa_register 7
 540 0006 F860     		str	r0, [r7, #12]
 541 0008 B960     		str	r1, [r7, #8]
 542 000a 7A60     		str	r2, [r7, #4]
 543 000c 3B60     		str	r3, [r7]
 157:.\chain_flow/cf_external_functions.c ****     uint16 temp;
 158:.\chain_flow/cf_external_functions.c ****     temp =   RTC_1_ReadSecond();                     
 544              		.loc 1 158 0
 545 000e FFF7FEFF 		bl	RTC_1_ReadSecond
 546 0012 0346     		mov	r3, r0
 547 0014 9BB2     		uxth	r3, r3
 548 0016 FB82     		strh	r3, [r7, #22]	@ movhi
 159:.\chain_flow/cf_external_functions.c ****     store_modbus_data_registers( MOD_SECOND, 1, &temp );
 549              		.loc 1 159 0
 550 0018 07F11603 		add	r3, r7, #22
 551 001c 0D20     		movs	r0, #13
 552 001e 0121     		movs	r1, #1
 553 0020 1A46     		mov	r2, r3
 554 0022 FFF7FEFF 		bl	store_modbus_data_registers
 160:.\chain_flow/cf_external_functions.c ****     temp =   RTC_1_ReadMinute();                     
 555              		.loc 1 160 0
 556 0026 FFF7FEFF 		bl	RTC_1_ReadMinute
 557 002a 0346     		mov	r3, r0
 558 002c 9BB2     		uxth	r3, r3
 559 002e FB82     		strh	r3, [r7, #22]	@ movhi
 161:.\chain_flow/cf_external_functions.c ****     store_modbus_data_registers(  MOD_MINUTE,  1, &temp);
 560              		.loc 1 161 0
 561 0030 07F11603 		add	r3, r7, #22
 562 0034 0C20     		movs	r0, #12
 563 0036 0121     		movs	r1, #1
 564 0038 1A46     		mov	r2, r3
 565 003a FFF7FEFF 		bl	store_modbus_data_registers
 162:.\chain_flow/cf_external_functions.c ****     temp =  RTC_1_ReadHour();                     ;
 566              		.loc 1 162 0
 567 003e FFF7FEFF 		bl	RTC_1_ReadHour
 568 0042 0346     		mov	r3, r0
 569 0044 9BB2     		uxth	r3, r3
 570 0046 FB82     		strh	r3, [r7, #22]	@ movhi
 163:.\chain_flow/cf_external_functions.c ****     store_modbus_data_registers( MOD_HOUR,  1, &temp);
 571              		.loc 1 163 0
 572 0048 07F11603 		add	r3, r7, #22
 573 004c 0B20     		movs	r0, #11
 574 004e 0121     		movs	r1, #1
 575 0050 1A46     		mov	r2, r3
 576 0052 FFF7FEFF 		bl	store_modbus_data_registers
 164:.\chain_flow/cf_external_functions.c ****     temp = RTC_1_ReadDayOfMonth();                
 577              		.loc 1 164 0
ARM GAS  C:\Users\glenn\AppData\Local\Temp\ccjfq4qP.s 			page 14


 578 0056 FFF7FEFF 		bl	RTC_1_ReadDayOfMonth
 579 005a 0346     		mov	r3, r0
 580 005c 9BB2     		uxth	r3, r3
 581 005e FB82     		strh	r3, [r7, #22]	@ movhi
 165:.\chain_flow/cf_external_functions.c ****     store_modbus_data_registers( MOD_DAY,  1, &temp);
 582              		.loc 1 165 0
 583 0060 07F11603 		add	r3, r7, #22
 584 0064 0A20     		movs	r0, #10
 585 0066 0121     		movs	r1, #1
 586 0068 1A46     		mov	r2, r3
 587 006a FFF7FEFF 		bl	store_modbus_data_registers
 166:.\chain_flow/cf_external_functions.c ****     temp = RTC_1_ReadMonth();                      
 588              		.loc 1 166 0
 589 006e FFF7FEFF 		bl	RTC_1_ReadMonth
 590 0072 0346     		mov	r3, r0
 591 0074 9BB2     		uxth	r3, r3
 592 0076 FB82     		strh	r3, [r7, #22]	@ movhi
 167:.\chain_flow/cf_external_functions.c ****     store_modbus_data_registers(  MOD_MONTH,  1, &temp);
 593              		.loc 1 167 0
 594 0078 07F11603 		add	r3, r7, #22
 595 007c 0920     		movs	r0, #9
 596 007e 0121     		movs	r1, #1
 597 0080 1A46     		mov	r2, r3
 598 0082 FFF7FEFF 		bl	store_modbus_data_registers
 168:.\chain_flow/cf_external_functions.c ****     temp =  RTC_1_ReadYear();                      
 599              		.loc 1 168 0
 600 0086 FFF7FEFF 		bl	RTC_1_ReadYear
 601 008a 0346     		mov	r3, r0
 602 008c FB82     		strh	r3, [r7, #22]	@ movhi
 169:.\chain_flow/cf_external_functions.c ****     store_modbus_data_registers( MOD_YEAR, 1, &temp);
 603              		.loc 1 169 0
 604 008e 07F11603 		add	r3, r7, #22
 605 0092 0820     		movs	r0, #8
 606 0094 0121     		movs	r1, #1
 607 0096 1A46     		mov	r2, r3
 608 0098 FFF7FEFF 		bl	store_modbus_data_registers
 170:.\chain_flow/cf_external_functions.c ****     return 0;
 609              		.loc 1 170 0
 610 009c 0023     		movs	r3, #0
 171:.\chain_flow/cf_external_functions.c **** }
 611              		.loc 1 171 0
 612 009e 1846     		mov	r0, r3
 613 00a0 1837     		adds	r7, r7, #24
 614              		.cfi_def_cfa_offset 8
 615 00a2 BD46     		mov	sp, r7
 616              		.cfi_def_cfa_register 13
 617              		@ sp needed
 618 00a4 80BD     		pop	{r7, pc}
 619              		.cfi_endproc
 620              	.LFE77:
 621              		.size	update_modbus_rtc_values, .-update_modbus_rtc_values
 622 00a6 00BF     		.section	.text.set_modbus_reset_flag,"ax",%progbits
 623              		.align	2
 624              		.global	set_modbus_reset_flag
 625              		.thumb
 626              		.thumb_func
 627              		.type	set_modbus_reset_flag, %function
ARM GAS  C:\Users\glenn\AppData\Local\Temp\ccjfq4qP.s 			page 15


 628              	set_modbus_reset_flag:
 629              	.LFB78:
 172:.\chain_flow/cf_external_functions.c **** 
 173:.\chain_flow/cf_external_functions.c **** 
 174:.\chain_flow/cf_external_functions.c **** int set_modbus_reset_flag(unsigned link_id, unsigned param_1,
 175:.\chain_flow/cf_external_functions.c ****   unsigned param_2, unsigned param_3, unsigned event, unsigned data)
 176:.\chain_flow/cf_external_functions.c **** {
 630              		.loc 1 176 0
 631              		.cfi_startproc
 632              		@ args = 8, pretend = 0, frame = 24
 633              		@ frame_needed = 1, uses_anonymous_args = 0
 634 0000 80B5     		push	{r7, lr}
 635              		.cfi_def_cfa_offset 8
 636              		.cfi_offset 7, -8
 637              		.cfi_offset 14, -4
 638 0002 86B0     		sub	sp, sp, #24
 639              		.cfi_def_cfa_offset 32
 640 0004 00AF     		add	r7, sp, #0
 641              		.cfi_def_cfa_register 7
 642 0006 F860     		str	r0, [r7, #12]
 643 0008 B960     		str	r1, [r7, #8]
 644 000a 7A60     		str	r2, [r7, #4]
 645 000c 3B60     		str	r3, [r7]
 177:.\chain_flow/cf_external_functions.c ****    uint16 temp;
 178:.\chain_flow/cf_external_functions.c ****     temp = 1;
 646              		.loc 1 178 0
 647 000e 0123     		movs	r3, #1
 648 0010 FB82     		strh	r3, [r7, #22]	@ movhi
 179:.\chain_flow/cf_external_functions.c ****     store_modbus_data_registers( MOD_POWER_UP_EVENT, 1, &temp);
 649              		.loc 1 179 0
 650 0012 07F11603 		add	r3, r7, #22
 651 0016 0520     		movs	r0, #5
 652 0018 0121     		movs	r1, #1
 653 001a 1A46     		mov	r2, r3
 654 001c FFF7FEFF 		bl	store_modbus_data_registers
 180:.\chain_flow/cf_external_functions.c ****     return 0;
 655              		.loc 1 180 0
 656 0020 0023     		movs	r3, #0
 181:.\chain_flow/cf_external_functions.c **** }
 657              		.loc 1 181 0
 658 0022 1846     		mov	r0, r3
 659 0024 1837     		adds	r7, r7, #24
 660              		.cfi_def_cfa_offset 8
 661 0026 BD46     		mov	sp, r7
 662              		.cfi_def_cfa_register 13
 663              		@ sp needed
 664 0028 80BD     		pop	{r7, pc}
 665              		.cfi_endproc
 666              	.LFE78:
 667              		.size	set_modbus_reset_flag, .-set_modbus_reset_flag
 668 002a 00BF     		.section	.text.initialize_controller_wd_flag,"ax",%progbits
 669              		.align	2
 670              		.global	initialize_controller_wd_flag
 671              		.thumb
 672              		.thumb_func
 673              		.type	initialize_controller_wd_flag, %function
 674              	initialize_controller_wd_flag:
ARM GAS  C:\Users\glenn\AppData\Local\Temp\ccjfq4qP.s 			page 16


 675              	.LFB79:
 182:.\chain_flow/cf_external_functions.c **** 
 183:.\chain_flow/cf_external_functions.c **** 
 184:.\chain_flow/cf_external_functions.c **** 
 185:.\chain_flow/cf_external_functions.c **** 
 186:.\chain_flow/cf_external_functions.c **** int initialize_controller_wd_flag(unsigned link_id, unsigned param_1,
 187:.\chain_flow/cf_external_functions.c ****   unsigned param_2, unsigned param_3, unsigned event, unsigned data)
 188:.\chain_flow/cf_external_functions.c **** {
 676              		.loc 1 188 0
 677              		.cfi_startproc
 678              		@ args = 8, pretend = 0, frame = 24
 679              		@ frame_needed = 1, uses_anonymous_args = 0
 680 0000 80B5     		push	{r7, lr}
 681              		.cfi_def_cfa_offset 8
 682              		.cfi_offset 7, -8
 683              		.cfi_offset 14, -4
 684 0002 86B0     		sub	sp, sp, #24
 685              		.cfi_def_cfa_offset 32
 686 0004 00AF     		add	r7, sp, #0
 687              		.cfi_def_cfa_register 7
 688 0006 F860     		str	r0, [r7, #12]
 689 0008 B960     		str	r1, [r7, #8]
 690 000a 7A60     		str	r2, [r7, #4]
 691 000c 3B60     		str	r3, [r7]
 189:.\chain_flow/cf_external_functions.c ****      uint16 temp;
 190:.\chain_flow/cf_external_functions.c ****     
 191:.\chain_flow/cf_external_functions.c ****      temp = 0;
 692              		.loc 1 191 0
 693 000e 0023     		movs	r3, #0
 694 0010 FB82     		strh	r3, [r7, #22]	@ movhi
 192:.\chain_flow/cf_external_functions.c ****      
 193:.\chain_flow/cf_external_functions.c ****      store_modbus_data_registers( MOD_CONTROLLER_WATCH_DOG_FLAG, 1, &temp );
 695              		.loc 1 193 0
 696 0012 07F11603 		add	r3, r7, #22
 697 0016 0320     		movs	r0, #3
 698 0018 0121     		movs	r1, #1
 699 001a 1A46     		mov	r2, r3
 700 001c FFF7FEFF 		bl	store_modbus_data_registers
 194:.\chain_flow/cf_external_functions.c ****      return 0;
 701              		.loc 1 194 0
 702 0020 0023     		movs	r3, #0
 195:.\chain_flow/cf_external_functions.c **** }
 703              		.loc 1 195 0
 704 0022 1846     		mov	r0, r3
 705 0024 1837     		adds	r7, r7, #24
 706              		.cfi_def_cfa_offset 8
 707 0026 BD46     		mov	sp, r7
 708              		.cfi_def_cfa_register 13
 709              		@ sp needed
 710 0028 80BD     		pop	{r7, pc}
 711              		.cfi_endproc
 712              	.LFE79:
 713              		.size	initialize_controller_wd_flag, .-initialize_controller_wd_flag
 714 002a 00BF     		.section	.text.set_reset_flag,"ax",%progbits
 715              		.align	2
 716              		.global	set_reset_flag
 717              		.thumb
ARM GAS  C:\Users\glenn\AppData\Local\Temp\ccjfq4qP.s 			page 17


 718              		.thumb_func
 719              		.type	set_reset_flag, %function
 720              	set_reset_flag:
 721              	.LFB80:
 196:.\chain_flow/cf_external_functions.c **** 
 197:.\chain_flow/cf_external_functions.c **** 
 198:.\chain_flow/cf_external_functions.c **** 
 199:.\chain_flow/cf_external_functions.c ****  
 200:.\chain_flow/cf_external_functions.c **** void set_reset_flag( void )
 201:.\chain_flow/cf_external_functions.c **** {
 722              		.loc 1 201 0
 723              		.cfi_startproc
 724              		@ args = 0, pretend = 0, frame = 0
 725              		@ frame_needed = 1, uses_anonymous_args = 0
 726              		@ link register save eliminated.
 727 0000 80B4     		push	{r7}
 728              		.cfi_def_cfa_offset 4
 729              		.cfi_offset 7, -4
 730 0002 00AF     		add	r7, sp, #0
 731              		.cfi_def_cfa_register 7
 202:.\chain_flow/cf_external_functions.c ****     reset_flag = 1;
 732              		.loc 1 202 0
 733 0004 034B     		ldr	r3, .L33
 734 0006 0122     		movs	r2, #1
 735 0008 1A60     		str	r2, [r3]
 203:.\chain_flow/cf_external_functions.c **** }
 736              		.loc 1 203 0
 737 000a BD46     		mov	sp, r7
 738              		.cfi_def_cfa_register 13
 739              		@ sp needed
 740 000c 5DF8047B 		ldr	r7, [sp], #4
 741              		.cfi_restore 7
 742              		.cfi_def_cfa_offset 0
 743 0010 7047     		bx	lr
 744              	.L34:
 745 0012 00BF     		.align	2
 746              	.L33:
 747 0014 00000000 		.word	reset_flag
 748              		.cfi_endproc
 749              	.LFE80:
 750              		.size	set_reset_flag, .-set_reset_flag
 751              		.section	.text.clear_reset_flag,"ax",%progbits
 752              		.align	2
 753              		.global	clear_reset_flag
 754              		.thumb
 755              		.thumb_func
 756              		.type	clear_reset_flag, %function
 757              	clear_reset_flag:
 758              	.LFB81:
 204:.\chain_flow/cf_external_functions.c ****     
 205:.\chain_flow/cf_external_functions.c **** int clear_reset_flag(unsigned link_id, unsigned param_1,
 206:.\chain_flow/cf_external_functions.c ****   unsigned param_2, unsigned param_3, unsigned event, unsigned data)
 207:.\chain_flow/cf_external_functions.c **** {
 759              		.loc 1 207 0
 760              		.cfi_startproc
 761              		@ args = 8, pretend = 0, frame = 16
 762              		@ frame_needed = 1, uses_anonymous_args = 0
ARM GAS  C:\Users\glenn\AppData\Local\Temp\ccjfq4qP.s 			page 18


 763              		@ link register save eliminated.
 764 0000 80B4     		push	{r7}
 765              		.cfi_def_cfa_offset 4
 766              		.cfi_offset 7, -4
 767 0002 85B0     		sub	sp, sp, #20
 768              		.cfi_def_cfa_offset 24
 769 0004 00AF     		add	r7, sp, #0
 770              		.cfi_def_cfa_register 7
 771 0006 F860     		str	r0, [r7, #12]
 772 0008 B960     		str	r1, [r7, #8]
 773 000a 7A60     		str	r2, [r7, #4]
 774 000c 3B60     		str	r3, [r7]
 208:.\chain_flow/cf_external_functions.c ****     reset_flag = 0;
 775              		.loc 1 208 0
 776 000e 054B     		ldr	r3, .L37
 777 0010 0022     		movs	r2, #0
 778 0012 1A60     		str	r2, [r3]
 209:.\chain_flow/cf_external_functions.c ****     return 0;
 779              		.loc 1 209 0
 780 0014 0023     		movs	r3, #0
 210:.\chain_flow/cf_external_functions.c **** }
 781              		.loc 1 210 0
 782 0016 1846     		mov	r0, r3
 783 0018 1437     		adds	r7, r7, #20
 784              		.cfi_def_cfa_offset 4
 785 001a BD46     		mov	sp, r7
 786              		.cfi_def_cfa_register 13
 787              		@ sp needed
 788 001c 5DF8047B 		ldr	r7, [sp], #4
 789              		.cfi_restore 7
 790              		.cfi_def_cfa_offset 0
 791 0020 7047     		bx	lr
 792              	.L38:
 793 0022 00BF     		.align	2
 794              	.L37:
 795 0024 00000000 		.word	reset_flag
 796              		.cfi_endproc
 797              	.LFE81:
 798              		.size	clear_reset_flag, .-clear_reset_flag
 799              		.section	.text.check_reset_flag,"ax",%progbits
 800              		.align	2
 801              		.global	check_reset_flag
 802              		.thumb
 803              		.thumb_func
 804              		.type	check_reset_flag, %function
 805              	check_reset_flag:
 806              	.LFB82:
 211:.\chain_flow/cf_external_functions.c **** 
 212:.\chain_flow/cf_external_functions.c **** 
 213:.\chain_flow/cf_external_functions.c **** int check_reset_flag(unsigned link_id, unsigned param_1,
 214:.\chain_flow/cf_external_functions.c ****   unsigned param_2, unsigned param_3, unsigned event, unsigned data)
 215:.\chain_flow/cf_external_functions.c **** {
 807              		.loc 1 215 0
 808              		.cfi_startproc
 809              		@ args = 8, pretend = 0, frame = 16
 810              		@ frame_needed = 1, uses_anonymous_args = 0
 811 0000 80B5     		push	{r7, lr}
ARM GAS  C:\Users\glenn\AppData\Local\Temp\ccjfq4qP.s 			page 19


 812              		.cfi_def_cfa_offset 8
 813              		.cfi_offset 7, -8
 814              		.cfi_offset 14, -4
 815 0002 84B0     		sub	sp, sp, #16
 816              		.cfi_def_cfa_offset 24
 817 0004 00AF     		add	r7, sp, #0
 818              		.cfi_def_cfa_register 7
 819 0006 F860     		str	r0, [r7, #12]
 820 0008 B960     		str	r1, [r7, #8]
 821 000a 7A60     		str	r2, [r7, #4]
 822 000c 3B60     		str	r3, [r7]
 216:.\chain_flow/cf_external_functions.c ****     if( reset_flag != 0 )
 823              		.loc 1 216 0
 824 000e 054B     		ldr	r3, .L42
 825 0010 1B68     		ldr	r3, [r3]
 826 0012 002B     		cmp	r3, #0
 827 0014 01D0     		beq	.L40
 217:.\chain_flow/cf_external_functions.c ****     {
 218:.\chain_flow/cf_external_functions.c ****         CySoftwareReset();
 828              		.loc 1 218 0
 829 0016 FFF7FEFF 		bl	CySoftwareReset
 830              	.L40:
 219:.\chain_flow/cf_external_functions.c ****     }
 220:.\chain_flow/cf_external_functions.c ****     return 0;
 831              		.loc 1 220 0
 832 001a 0023     		movs	r3, #0
 221:.\chain_flow/cf_external_functions.c **** }
 833              		.loc 1 221 0
 834 001c 1846     		mov	r0, r3
 835 001e 1037     		adds	r7, r7, #16
 836              		.cfi_def_cfa_offset 8
 837 0020 BD46     		mov	sp, r7
 838              		.cfi_def_cfa_register 13
 839              		@ sp needed
 840 0022 80BD     		pop	{r7, pc}
 841              	.L43:
 842              		.align	2
 843              	.L42:
 844 0024 00000000 		.word	reset_flag
 845              		.cfi_endproc
 846              	.LFE82:
 847              		.size	check_reset_flag, .-check_reset_flag
 848              		.text
 849              	.Letext0:
 850              		.file 2 "c:\\program files (x86)\\cypress\\psoc creator\\3.3\\psoc creator\\import\\gnu\\arm\\4.9.
 851              		.file 3 "c:\\program files (x86)\\cypress\\psoc creator\\3.3\\psoc creator\\import\\gnu\\arm\\4.9.
 852              		.file 4 "Generated_Source\\PSoC5/cytypes.h"
 853              		.file 5 "Generated_Source\\PSoC5/core_cm3.h"
 854              		.file 6 ".\\rtu_modbus/process_modbus_message.h"