ARM GAS  C:\Users\glenn\AppData\Local\Temp\cczp9mEB.s 			page 1


   1              		.syntax unified
   2              		.cpu cortex-m3
   3              		.fpu softvfp
   4              		.eabi_attribute 20, 1
   5              		.eabi_attribute 21, 1
   6              		.eabi_attribute 23, 3
   7              		.eabi_attribute 24, 1
   8              		.eabi_attribute 25, 1
   9              		.eabi_attribute 26, 1
  10              		.eabi_attribute 30, 6
  11              		.eabi_attribute 34, 1
  12              		.eabi_attribute 18, 4
  13              		.thumb
  14              		.file	"cf_runtime_functions.c"
  15              		.text
  16              	.Ltext0:
  17              		.cfi_sections	.debug_frame
  18              		.section	.text.terminate_fn,"ax",%progbits
  19              		.align	2
  20              		.global	terminate_fn
  21              		.thumb
  22              		.thumb_func
  23              		.type	terminate_fn, %function
  24              	terminate_fn:
  25              	.LFB63:
  26              		.file 1 ".\\chain_flow\\cf_runtime_functions.c"
   1:.\chain_flow/cf_runtime_functions.c **** /*
   2:.\chain_flow/cf_runtime_functions.c **** 
   3:.\chain_flow/cf_runtime_functions.c **** File: cf_runtime_functions.c
   4:.\chain_flow/cf_runtime_functions.c **** Implements of codes for cf_runtime_functions.c
   5:.\chain_flow/cf_runtime_functions.c **** 
   6:.\chain_flow/cf_runtime_functions.c **** 
   7:.\chain_flow/cf_runtime_functions.c **** */
   8:.\chain_flow/cf_runtime_functions.c **** 
   9:.\chain_flow/cf_runtime_functions.c **** #include <stdint.h>
  10:.\chain_flow/cf_runtime_functions.c **** #include <stdlib.h>
  11:.\chain_flow/cf_runtime_functions.c **** #include <device.h>
  12:.\chain_flow/cf_runtime_functions.c **** #include "cf_chain_flow_support.h"
  13:.\chain_flow/cf_runtime_functions.c **** 
  14:.\chain_flow/cf_runtime_functions.c **** #include "cf_runtime_functions.h"
  15:.\chain_flow/cf_runtime_functions.c **** #include "cf_events.h"
  16:.\chain_flow/cf_runtime_functions.c **** 
  17:.\chain_flow/cf_runtime_functions.c **** #define NULL_PARAMETER  0xffffffff
  18:.\chain_flow/cf_runtime_functions.c **** 
  19:.\chain_flow/cf_runtime_functions.c **** int terminate_fn( unsigned link_id, CF_FUN_AUX param_1, unsigned param_2, 
  20:.\chain_flow/cf_runtime_functions.c ****     unsigned param_3, unsigned param_4,  unsigned event, unsigned event_data)
  21:.\chain_flow/cf_runtime_functions.c **** {
  27              		.loc 1 21 0
  28              		.cfi_startproc
  29              		@ args = 12, pretend = 0, frame = 16
  30              		@ frame_needed = 1, uses_anonymous_args = 0
  31              		@ link register save eliminated.
  32 0000 80B4     		push	{r7}
  33              		.cfi_def_cfa_offset 4
  34              		.cfi_offset 7, -4
  35 0002 85B0     		sub	sp, sp, #20
  36              		.cfi_def_cfa_offset 24
ARM GAS  C:\Users\glenn\AppData\Local\Temp\cczp9mEB.s 			page 2


  37 0004 00AF     		add	r7, sp, #0
  38              		.cfi_def_cfa_register 7
  39 0006 F860     		str	r0, [r7, #12]
  40 0008 B960     		str	r1, [r7, #8]
  41 000a 7A60     		str	r2, [r7, #4]
  42 000c 3B60     		str	r3, [r7]
  22:.\chain_flow/cf_runtime_functions.c ****    return CF_TERMINATE;
  43              		.loc 1 22 0
  44 000e 0423     		movs	r3, #4
  23:.\chain_flow/cf_runtime_functions.c **** }
  45              		.loc 1 23 0
  46 0010 1846     		mov	r0, r3
  47 0012 1437     		adds	r7, r7, #20
  48              		.cfi_def_cfa_offset 4
  49 0014 BD46     		mov	sp, r7
  50              		.cfi_def_cfa_register 13
  51              		@ sp needed
  52 0016 5DF8047B 		ldr	r7, [sp], #4
  53              		.cfi_restore 7
  54              		.cfi_def_cfa_offset 0
  55 001a 7047     		bx	lr
  56              		.cfi_endproc
  57              	.LFE63:
  58              		.size	terminate_fn, .-terminate_fn
  59              		.section	.text.halt_fn,"ax",%progbits
  60              		.align	2
  61              		.global	halt_fn
  62              		.thumb
  63              		.thumb_func
  64              		.type	halt_fn, %function
  65              	halt_fn:
  66              	.LFB64:
  24:.\chain_flow/cf_runtime_functions.c **** 
  25:.\chain_flow/cf_runtime_functions.c **** 
  26:.\chain_flow/cf_runtime_functions.c **** int halt_fn( unsigned link_id, CF_FUN_AUX param_1, unsigned param_2, 
  27:.\chain_flow/cf_runtime_functions.c ****     unsigned param_3, unsigned param_4,  unsigned event, unsigned event_data)
  28:.\chain_flow/cf_runtime_functions.c **** {
  67              		.loc 1 28 0
  68              		.cfi_startproc
  69              		@ args = 12, pretend = 0, frame = 16
  70              		@ frame_needed = 1, uses_anonymous_args = 0
  71              		@ link register save eliminated.
  72 0000 80B4     		push	{r7}
  73              		.cfi_def_cfa_offset 4
  74              		.cfi_offset 7, -4
  75 0002 85B0     		sub	sp, sp, #20
  76              		.cfi_def_cfa_offset 24
  77 0004 00AF     		add	r7, sp, #0
  78              		.cfi_def_cfa_register 7
  79 0006 F860     		str	r0, [r7, #12]
  80 0008 B960     		str	r1, [r7, #8]
  81 000a 7A60     		str	r2, [r7, #4]
  82 000c 3B60     		str	r3, [r7]
  29:.\chain_flow/cf_runtime_functions.c **** 
  30:.\chain_flow/cf_runtime_functions.c ****   return CF_HALT;
  83              		.loc 1 30 0
  84 000e 0123     		movs	r3, #1
ARM GAS  C:\Users\glenn\AppData\Local\Temp\cczp9mEB.s 			page 3


  31:.\chain_flow/cf_runtime_functions.c **** }
  85              		.loc 1 31 0
  86 0010 1846     		mov	r0, r3
  87 0012 1437     		adds	r7, r7, #20
  88              		.cfi_def_cfa_offset 4
  89 0014 BD46     		mov	sp, r7
  90              		.cfi_def_cfa_register 13
  91              		@ sp needed
  92 0016 5DF8047B 		ldr	r7, [sp], #4
  93              		.cfi_restore 7
  94              		.cfi_def_cfa_offset 0
  95 001a 7047     		bx	lr
  96              		.cfi_endproc
  97              	.LFE64:
  98              		.size	halt_fn, .-halt_fn
  99              		.section	.text.reset_fn,"ax",%progbits
 100              		.align	2
 101              		.global	reset_fn
 102              		.thumb
 103              		.thumb_func
 104              		.type	reset_fn, %function
 105              	reset_fn:
 106              	.LFB65:
  32:.\chain_flow/cf_runtime_functions.c **** 
  33:.\chain_flow/cf_runtime_functions.c **** 
  34:.\chain_flow/cf_runtime_functions.c ****  
  35:.\chain_flow/cf_runtime_functions.c **** int reset_fn( unsigned link_id, CF_FUN_AUX param_1, unsigned param_2, 
  36:.\chain_flow/cf_runtime_functions.c ****     unsigned param_3, unsigned param_4,  unsigned event, unsigned event_data)
  37:.\chain_flow/cf_runtime_functions.c **** {
 107              		.loc 1 37 0
 108              		.cfi_startproc
 109              		@ args = 12, pretend = 0, frame = 16
 110              		@ frame_needed = 1, uses_anonymous_args = 0
 111              		@ link register save eliminated.
 112 0000 80B4     		push	{r7}
 113              		.cfi_def_cfa_offset 4
 114              		.cfi_offset 7, -4
 115 0002 85B0     		sub	sp, sp, #20
 116              		.cfi_def_cfa_offset 24
 117 0004 00AF     		add	r7, sp, #0
 118              		.cfi_def_cfa_register 7
 119 0006 F860     		str	r0, [r7, #12]
 120 0008 B960     		str	r1, [r7, #8]
 121 000a 7A60     		str	r2, [r7, #4]
 122 000c 3B60     		str	r3, [r7]
  38:.\chain_flow/cf_runtime_functions.c ****    
  39:.\chain_flow/cf_runtime_functions.c ****    return CF_RESET;
 123              		.loc 1 39 0
 124 000e 0323     		movs	r3, #3
  40:.\chain_flow/cf_runtime_functions.c **** 
  41:.\chain_flow/cf_runtime_functions.c **** }
 125              		.loc 1 41 0
 126 0010 1846     		mov	r0, r3
 127 0012 1437     		adds	r7, r7, #20
 128              		.cfi_def_cfa_offset 4
 129 0014 BD46     		mov	sp, r7
 130              		.cfi_def_cfa_register 13
ARM GAS  C:\Users\glenn\AppData\Local\Temp\cczp9mEB.s 			page 4


 131              		@ sp needed
 132 0016 5DF8047B 		ldr	r7, [sp], #4
 133              		.cfi_restore 7
 134              		.cfi_def_cfa_offset 0
 135 001a 7047     		bx	lr
 136              		.cfi_endproc
 137              	.LFE65:
 138              		.size	reset_fn, .-reset_fn
 139              		.section	.text.one_step_fn,"ax",%progbits
 140              		.align	2
 141              		.global	one_step_fn
 142              		.thumb
 143              		.thumb_func
 144              		.type	one_step_fn, %function
 145              	one_step_fn:
 146              	.LFB66:
  42:.\chain_flow/cf_runtime_functions.c **** 
  43:.\chain_flow/cf_runtime_functions.c **** int one_step_fn( unsigned link_id, CF_FUN_AUX param_1, unsigned param_2, 
  44:.\chain_flow/cf_runtime_functions.c ****     unsigned param_3, unsigned param_4,  unsigned event, unsigned event_data)
  45:.\chain_flow/cf_runtime_functions.c **** {
 147              		.loc 1 45 0
 148              		.cfi_startproc
 149              		@ args = 12, pretend = 0, frame = 16
 150              		@ frame_needed = 1, uses_anonymous_args = 0
 151 0000 90B5     		push	{r4, r7, lr}
 152              		.cfi_def_cfa_offset 12
 153              		.cfi_offset 4, -12
 154              		.cfi_offset 7, -8
 155              		.cfi_offset 14, -4
 156 0002 87B0     		sub	sp, sp, #28
 157              		.cfi_def_cfa_offset 40
 158 0004 02AF     		add	r7, sp, #8
 159              		.cfi_def_cfa 7, 32
 160 0006 F860     		str	r0, [r7, #12]
 161 0008 B960     		str	r1, [r7, #8]
 162 000a 7A60     		str	r2, [r7, #4]
 163 000c 3B60     		str	r3, [r7]
  46:.\chain_flow/cf_runtime_functions.c ****   
  47:.\chain_flow/cf_runtime_functions.c **** 
  48:.\chain_flow/cf_runtime_functions.c **** 
  49:.\chain_flow/cf_runtime_functions.c **** 
  50:.\chain_flow/cf_runtime_functions.c ****    if( event== CF_INIT_EVENT )
 164              		.loc 1 50 0
 165 000e 7B6A     		ldr	r3, [r7, #36]
 166 0010 012B     		cmp	r3, #1
 167 0012 09D1     		bne	.L8
  51:.\chain_flow/cf_runtime_functions.c ****    {
  52:.\chain_flow/cf_runtime_functions.c ****       param_1(link_id, param_2,param_3,param_4,event,event_data );
 168              		.loc 1 52 0
 169 0014 7B6A     		ldr	r3, [r7, #36]
 170 0016 0093     		str	r3, [sp]
 171 0018 BB6A     		ldr	r3, [r7, #40]
 172 001a 0193     		str	r3, [sp, #4]
 173 001c BC68     		ldr	r4, [r7, #8]
 174 001e F868     		ldr	r0, [r7, #12]
 175 0020 7968     		ldr	r1, [r7, #4]
 176 0022 3A68     		ldr	r2, [r7]
ARM GAS  C:\Users\glenn\AppData\Local\Temp\cczp9mEB.s 			page 5


 177 0024 3B6A     		ldr	r3, [r7, #32]
 178 0026 A047     		blx	r4
 179              	.L8:
  53:.\chain_flow/cf_runtime_functions.c ****    }
  54:.\chain_flow/cf_runtime_functions.c ****    return CF_DISABLE; 
 180              		.loc 1 54 0
 181 0028 0223     		movs	r3, #2
  55:.\chain_flow/cf_runtime_functions.c **** }
 182              		.loc 1 55 0
 183 002a 1846     		mov	r0, r3
 184 002c 1437     		adds	r7, r7, #20
 185              		.cfi_def_cfa_offset 12
 186 002e BD46     		mov	sp, r7
 187              		.cfi_def_cfa_register 13
 188              		@ sp needed
 189 0030 90BD     		pop	{r4, r7, pc}
 190              		.cfi_endproc
 191              	.LFE66:
 192              		.size	one_step_fn, .-one_step_fn
 193 0032 00BF     		.section	.text.code_step_fn,"ax",%progbits
 194              		.align	2
 195              		.global	code_step_fn
 196              		.thumb
 197              		.thumb_func
 198              		.type	code_step_fn, %function
 199              	code_step_fn:
 200              	.LFB67:
  56:.\chain_flow/cf_runtime_functions.c **** 
  57:.\chain_flow/cf_runtime_functions.c **** int code_step_fn( unsigned link_id, CF_FUN_AUX param_1, unsigned param_2, 
  58:.\chain_flow/cf_runtime_functions.c ****     unsigned param_3, unsigned param_4,  unsigned event, unsigned event_data)
  59:.\chain_flow/cf_runtime_functions.c **** {
 201              		.loc 1 59 0
 202              		.cfi_startproc
 203              		@ args = 12, pretend = 0, frame = 16
 204              		@ frame_needed = 1, uses_anonymous_args = 0
 205 0000 90B5     		push	{r4, r7, lr}
 206              		.cfi_def_cfa_offset 12
 207              		.cfi_offset 4, -12
 208              		.cfi_offset 7, -8
 209              		.cfi_offset 14, -4
 210 0002 87B0     		sub	sp, sp, #28
 211              		.cfi_def_cfa_offset 40
 212 0004 02AF     		add	r7, sp, #8
 213              		.cfi_def_cfa 7, 32
 214 0006 F860     		str	r0, [r7, #12]
 215 0008 B960     		str	r1, [r7, #8]
 216 000a 7A60     		str	r2, [r7, #4]
 217 000c 3B60     		str	r3, [r7]
  60:.\chain_flow/cf_runtime_functions.c ****    
  61:.\chain_flow/cf_runtime_functions.c ****    return param_1( link_id, param_2,param_3,param_4,event,event_data );
 218              		.loc 1 61 0
 219 000e 7B6A     		ldr	r3, [r7, #36]
 220 0010 0093     		str	r3, [sp]
 221 0012 BB6A     		ldr	r3, [r7, #40]
 222 0014 0193     		str	r3, [sp, #4]
 223 0016 BC68     		ldr	r4, [r7, #8]
 224 0018 F868     		ldr	r0, [r7, #12]
ARM GAS  C:\Users\glenn\AppData\Local\Temp\cczp9mEB.s 			page 6


 225 001a 7968     		ldr	r1, [r7, #4]
 226 001c 3A68     		ldr	r2, [r7]
 227 001e 3B6A     		ldr	r3, [r7, #32]
 228 0020 A047     		blx	r4
 229 0022 0346     		mov	r3, r0
  62:.\chain_flow/cf_runtime_functions.c **** 
  63:.\chain_flow/cf_runtime_functions.c **** }
 230              		.loc 1 63 0
 231 0024 1846     		mov	r0, r3
 232 0026 1437     		adds	r7, r7, #20
 233              		.cfi_def_cfa_offset 12
 234 0028 BD46     		mov	sp, r7
 235              		.cfi_def_cfa_register 13
 236              		@ sp needed
 237 002a 90BD     		pop	{r4, r7, pc}
 238              		.cfi_endproc
 239              	.LFE67:
 240              		.size	code_step_fn, .-code_step_fn
 241              		.section	.text.send_event_fn,"ax",%progbits
 242              		.align	2
 243              		.global	send_event_fn
 244              		.thumb
 245              		.thumb_func
 246              		.type	send_event_fn, %function
 247              	send_event_fn:
 248              	.LFB68:
  64:.\chain_flow/cf_runtime_functions.c **** 
  65:.\chain_flow/cf_runtime_functions.c **** 
  66:.\chain_flow/cf_runtime_functions.c **** int send_event_fn( unsigned link_id, CF_FUN_AUX param_1, unsigned param_2, 
  67:.\chain_flow/cf_runtime_functions.c ****     unsigned param_3, unsigned param_4,  unsigned event, unsigned event_data)
  68:.\chain_flow/cf_runtime_functions.c **** {
 249              		.loc 1 68 0
 250              		.cfi_startproc
 251              		@ args = 12, pretend = 0, frame = 16
 252              		@ frame_needed = 1, uses_anonymous_args = 0
 253 0000 80B5     		push	{r7, lr}
 254              		.cfi_def_cfa_offset 8
 255              		.cfi_offset 7, -8
 256              		.cfi_offset 14, -4
 257 0002 84B0     		sub	sp, sp, #16
 258              		.cfi_def_cfa_offset 24
 259 0004 00AF     		add	r7, sp, #0
 260              		.cfi_def_cfa_register 7
 261 0006 F860     		str	r0, [r7, #12]
 262 0008 B960     		str	r1, [r7, #8]
 263 000a 7A60     		str	r2, [r7, #4]
 264 000c 3B60     		str	r3, [r7]
  69:.\chain_flow/cf_runtime_functions.c ****  
  70:.\chain_flow/cf_runtime_functions.c ****    if( event== CF_INIT_EVENT )
 265              		.loc 1 70 0
 266 000e FB69     		ldr	r3, [r7, #28]
 267 0010 012B     		cmp	r3, #1
 268 0012 03D1     		bne	.L13
  71:.\chain_flow/cf_runtime_functions.c ****    {
  72:.\chain_flow/cf_runtime_functions.c ****       cf_send_event( param_2, param_3 );
 269              		.loc 1 72 0
 270 0014 7868     		ldr	r0, [r7, #4]
ARM GAS  C:\Users\glenn\AppData\Local\Temp\cczp9mEB.s 			page 7


 271 0016 3968     		ldr	r1, [r7]
 272 0018 FFF7FEFF 		bl	cf_send_event
 273              	.L13:
  73:.\chain_flow/cf_runtime_functions.c ****    }
  74:.\chain_flow/cf_runtime_functions.c ****    return CF_DISABLE;
 274              		.loc 1 74 0
 275 001c 0223     		movs	r3, #2
  75:.\chain_flow/cf_runtime_functions.c **** }
 276              		.loc 1 75 0
 277 001e 1846     		mov	r0, r3
 278 0020 1037     		adds	r7, r7, #16
 279              		.cfi_def_cfa_offset 8
 280 0022 BD46     		mov	sp, r7
 281              		.cfi_def_cfa_register 13
 282              		@ sp needed
 283 0024 80BD     		pop	{r7, pc}
 284              		.cfi_endproc
 285              	.LFE68:
 286              		.size	send_event_fn, .-send_event_fn
 287              		.section	.text.wait_tod_fn,"ax",%progbits
 288              		.align	2
 289              		.global	wait_tod_fn
 290              		.thumb
 291              		.thumb_func
 292              		.type	wait_tod_fn, %function
 293              	wait_tod_fn:
 294              	.LFB69:
  76:.\chain_flow/cf_runtime_functions.c **** 
  77:.\chain_flow/cf_runtime_functions.c **** 
  78:.\chain_flow/cf_runtime_functions.c **** int wait_tod_fn( unsigned link_id, CF_FUN_AUX param_1, unsigned param_2, 
  79:.\chain_flow/cf_runtime_functions.c ****     unsigned param_3, unsigned param_4,  unsigned event, unsigned event_data)
  80:.\chain_flow/cf_runtime_functions.c **** {
 295              		.loc 1 80 0
 296              		.cfi_startproc
 297              		@ args = 12, pretend = 0, frame = 32
 298              		@ frame_needed = 1, uses_anonymous_args = 0
 299 0000 80B5     		push	{r7, lr}
 300              		.cfi_def_cfa_offset 8
 301              		.cfi_offset 7, -8
 302              		.cfi_offset 14, -4
 303 0002 88B0     		sub	sp, sp, #32
 304              		.cfi_def_cfa_offset 40
 305 0004 00AF     		add	r7, sp, #0
 306              		.cfi_def_cfa_register 7
 307 0006 F860     		str	r0, [r7, #12]
 308 0008 B960     		str	r1, [r7, #8]
 309 000a 7A60     		str	r2, [r7, #4]
 310 000c 3B60     		str	r3, [r7]
  81:.\chain_flow/cf_runtime_functions.c ****    unsigned hour;
  82:.\chain_flow/cf_runtime_functions.c ****    unsigned minute;
  83:.\chain_flow/cf_runtime_functions.c ****    unsigned second;
  84:.\chain_flow/cf_runtime_functions.c ****    
  85:.\chain_flow/cf_runtime_functions.c ****    second = RTC_1_ReadSecond();   
 311              		.loc 1 85 0
 312 000e FFF7FEFF 		bl	RTC_1_ReadSecond
 313 0012 0346     		mov	r3, r0
 314 0014 FB61     		str	r3, [r7, #28]
ARM GAS  C:\Users\glenn\AppData\Local\Temp\cczp9mEB.s 			page 8


  86:.\chain_flow/cf_runtime_functions.c ****    minute = RTC_1_ReadMinute();
 315              		.loc 1 86 0
 316 0016 FFF7FEFF 		bl	RTC_1_ReadMinute
 317 001a 0346     		mov	r3, r0
 318 001c BB61     		str	r3, [r7, #24]
  87:.\chain_flow/cf_runtime_functions.c ****    hour   = RTC_1_ReadHour();
 319              		.loc 1 87 0
 320 001e FFF7FEFF 		bl	RTC_1_ReadHour
 321 0022 0346     		mov	r3, r0
 322 0024 7B61     		str	r3, [r7, #20]
  88:.\chain_flow/cf_runtime_functions.c ****  
  89:.\chain_flow/cf_runtime_functions.c ****    // check hour
  90:.\chain_flow/cf_runtime_functions.c ****    if( ( param_2 == NULL_PARAMETER ) || ( param_2 == hour ))
 323              		.loc 1 90 0
 324 0026 7B68     		ldr	r3, [r7, #4]
 325 0028 B3F1FF3F 		cmp	r3, #-1
 326 002c 03D0     		beq	.L16
 327              		.loc 1 90 0 is_stmt 0 discriminator 1
 328 002e 7A68     		ldr	r2, [r7, #4]
 329 0030 7B69     		ldr	r3, [r7, #20]
 330 0032 9A42     		cmp	r2, r3
 331 0034 11D1     		bne	.L17
 332              	.L16:
  91:.\chain_flow/cf_runtime_functions.c ****    {
  92:.\chain_flow/cf_runtime_functions.c ****      if( ( param_3 == NULL_PARAMETER ) || ( param_3 == minute ))
 333              		.loc 1 92 0 is_stmt 1
 334 0036 3B68     		ldr	r3, [r7]
 335 0038 B3F1FF3F 		cmp	r3, #-1
 336 003c 03D0     		beq	.L18
 337              		.loc 1 92 0 is_stmt 0 discriminator 1
 338 003e 3A68     		ldr	r2, [r7]
 339 0040 BB69     		ldr	r3, [r7, #24]
 340 0042 9A42     		cmp	r2, r3
 341 0044 09D1     		bne	.L17
 342              	.L18:
  93:.\chain_flow/cf_runtime_functions.c ****      {
  94:.\chain_flow/cf_runtime_functions.c ****        if( ( param_4 == NULL_PARAMETER ) || ( param_4 == second ))
 343              		.loc 1 94 0 is_stmt 1
 344 0046 BB6A     		ldr	r3, [r7, #40]
 345 0048 B3F1FF3F 		cmp	r3, #-1
 346 004c 03D0     		beq	.L19
 347              		.loc 1 94 0 is_stmt 0 discriminator 1
 348 004e BA6A     		ldr	r2, [r7, #40]
 349 0050 FB69     		ldr	r3, [r7, #28]
 350 0052 9A42     		cmp	r2, r3
 351 0054 01D1     		bne	.L17
 352              	.L19:
  95:.\chain_flow/cf_runtime_functions.c ****        {
  96:.\chain_flow/cf_runtime_functions.c ****           return CF_DISABLE;
 353              		.loc 1 96 0 is_stmt 1
 354 0056 0223     		movs	r3, #2
 355 0058 00E0     		b	.L20
 356              	.L17:
  97:.\chain_flow/cf_runtime_functions.c ****        }
  98:.\chain_flow/cf_runtime_functions.c ****      }
  99:.\chain_flow/cf_runtime_functions.c ****    }
 100:.\chain_flow/cf_runtime_functions.c ****     return CF_HALT;  // implemented on specific system
ARM GAS  C:\Users\glenn\AppData\Local\Temp\cczp9mEB.s 			page 9


 357              		.loc 1 100 0
 358 005a 0123     		movs	r3, #1
 359              	.L20:
 101:.\chain_flow/cf_runtime_functions.c **** 
 102:.\chain_flow/cf_runtime_functions.c **** }
 360              		.loc 1 102 0
 361 005c 1846     		mov	r0, r3
 362 005e 2037     		adds	r7, r7, #32
 363              		.cfi_def_cfa_offset 8
 364 0060 BD46     		mov	sp, r7
 365              		.cfi_def_cfa_register 13
 366              		@ sp needed
 367 0062 80BD     		pop	{r7, pc}
 368              		.cfi_endproc
 369              	.LFE69:
 370              		.size	wait_tod_fn, .-wait_tod_fn
 371              		.section	.text.wait_event_count_fn,"ax",%progbits
 372              		.align	2
 373              		.global	wait_event_count_fn
 374              		.thumb
 375              		.thumb_func
 376              		.type	wait_event_count_fn, %function
 377              	wait_event_count_fn:
 378              	.LFB70:
 103:.\chain_flow/cf_runtime_functions.c **** 
 104:.\chain_flow/cf_runtime_functions.c **** 
 105:.\chain_flow/cf_runtime_functions.c **** int wait_event_count_fn( unsigned link_id, CF_FUN_AUX param_1, unsigned rx_event, 
 106:.\chain_flow/cf_runtime_functions.c ****     unsigned rx_event_count, unsigned param_4,  unsigned event, unsigned event_data)
 107:.\chain_flow/cf_runtime_functions.c **** {
 379              		.loc 1 107 0
 380              		.cfi_startproc
 381              		@ args = 12, pretend = 0, frame = 24
 382              		@ frame_needed = 1, uses_anonymous_args = 0
 383 0000 80B5     		push	{r7, lr}
 384              		.cfi_def_cfa_offset 8
 385              		.cfi_offset 7, -8
 386              		.cfi_offset 14, -4
 387 0002 86B0     		sub	sp, sp, #24
 388              		.cfi_def_cfa_offset 32
 389 0004 00AF     		add	r7, sp, #0
 390              		.cfi_def_cfa_register 7
 391 0006 F860     		str	r0, [r7, #12]
 392 0008 B960     		str	r1, [r7, #8]
 393 000a 7A60     		str	r2, [r7, #4]
 394 000c 3B60     		str	r3, [r7]
 108:.\chain_flow/cf_runtime_functions.c ****   unsigned value; 
 109:.\chain_flow/cf_runtime_functions.c ****   int      return_value;
 110:.\chain_flow/cf_runtime_functions.c ****   if( event == CF_INIT_EVENT )
 395              		.loc 1 110 0
 396 000e 7B6A     		ldr	r3, [r7, #36]
 397 0010 012B     		cmp	r3, #1
 398 0012 05D1     		bne	.L22
 111:.\chain_flow/cf_runtime_functions.c ****   {
 112:.\chain_flow/cf_runtime_functions.c ****        cf_store_cell_value( link_id , 0 );
 399              		.loc 1 112 0
 400 0014 F868     		ldr	r0, [r7, #12]
 401 0016 0021     		movs	r1, #0
ARM GAS  C:\Users\glenn\AppData\Local\Temp\cczp9mEB.s 			page 10


 402 0018 FFF7FEFF 		bl	cf_store_cell_value
 113:.\chain_flow/cf_runtime_functions.c ****        return_value = CF_CONTINUE;
 403              		.loc 1 113 0
 404 001c 0023     		movs	r3, #0
 405 001e 7B61     		str	r3, [r7, #20]
 406              	.L22:
 114:.\chain_flow/cf_runtime_functions.c **** 
 115:.\chain_flow/cf_runtime_functions.c ****   }
 116:.\chain_flow/cf_runtime_functions.c ****    if( event == rx_event )
 407              		.loc 1 116 0
 408 0020 7A6A     		ldr	r2, [r7, #36]
 409 0022 7B68     		ldr	r3, [r7, #4]
 410 0024 9A42     		cmp	r2, r3
 411 0026 15D1     		bne	.L23
 117:.\chain_flow/cf_runtime_functions.c ****    {
 118:.\chain_flow/cf_runtime_functions.c ****        value = cf_get_cell_value( link_id );
 412              		.loc 1 118 0
 413 0028 F868     		ldr	r0, [r7, #12]
 414 002a FFF7FEFF 		bl	cf_get_cell_value
 415 002e 3861     		str	r0, [r7, #16]
 119:.\chain_flow/cf_runtime_functions.c ****        value += event_data;
 416              		.loc 1 119 0
 417 0030 3A69     		ldr	r2, [r7, #16]
 418 0032 BB6A     		ldr	r3, [r7, #40]
 419 0034 1344     		add	r3, r3, r2
 420 0036 3B61     		str	r3, [r7, #16]
 120:.\chain_flow/cf_runtime_functions.c ****        cf_store_cell_value(link_id, value);
 421              		.loc 1 120 0
 422 0038 F868     		ldr	r0, [r7, #12]
 423 003a 3969     		ldr	r1, [r7, #16]
 424 003c FFF7FEFF 		bl	cf_store_cell_value
 121:.\chain_flow/cf_runtime_functions.c ****        if( value >= rx_event_count )
 425              		.loc 1 121 0
 426 0040 3A69     		ldr	r2, [r7, #16]
 427 0042 3B68     		ldr	r3, [r7]
 428 0044 9A42     		cmp	r2, r3
 429 0046 02D3     		bcc	.L24
 122:.\chain_flow/cf_runtime_functions.c ****        {
 123:.\chain_flow/cf_runtime_functions.c ****           return_value = CF_DISABLE;
 430              		.loc 1 123 0
 431 0048 0223     		movs	r3, #2
 432 004a 7B61     		str	r3, [r7, #20]
 433 004c 04E0     		b	.L26
 434              	.L24:
 124:.\chain_flow/cf_runtime_functions.c ****        }
 125:.\chain_flow/cf_runtime_functions.c ****        else
 126:.\chain_flow/cf_runtime_functions.c ****        {
 127:.\chain_flow/cf_runtime_functions.c **** 	   return_value = CF_HALT;
 435              		.loc 1 127 0
 436 004e 0123     		movs	r3, #1
 437 0050 7B61     		str	r3, [r7, #20]
 438 0052 01E0     		b	.L26
 439              	.L23:
 128:.\chain_flow/cf_runtime_functions.c ****        }
 129:.\chain_flow/cf_runtime_functions.c ****    }
 130:.\chain_flow/cf_runtime_functions.c ****    else
 131:.\chain_flow/cf_runtime_functions.c ****    {
ARM GAS  C:\Users\glenn\AppData\Local\Temp\cczp9mEB.s 			page 11


 132:.\chain_flow/cf_runtime_functions.c ****       return_value = CF_HALT;
 440              		.loc 1 132 0
 441 0054 0123     		movs	r3, #1
 442 0056 7B61     		str	r3, [r7, #20]
 443              	.L26:
 133:.\chain_flow/cf_runtime_functions.c ****    }
 134:.\chain_flow/cf_runtime_functions.c ****    return return_value;   
 444              		.loc 1 134 0
 445 0058 7B69     		ldr	r3, [r7, #20]
 135:.\chain_flow/cf_runtime_functions.c **** 
 136:.\chain_flow/cf_runtime_functions.c **** }
 446              		.loc 1 136 0
 447 005a 1846     		mov	r0, r3
 448 005c 1837     		adds	r7, r7, #24
 449              		.cfi_def_cfa_offset 8
 450 005e BD46     		mov	sp, r7
 451              		.cfi_def_cfa_register 13
 452              		@ sp needed
 453 0060 80BD     		pop	{r7, pc}
 454              		.cfi_endproc
 455              	.LFE70:
 456              		.size	wait_event_count_fn, .-wait_event_count_fn
 457 0062 00BF     		.section	.text.wait_event_fn,"ax",%progbits
 458              		.align	2
 459              		.global	wait_event_fn
 460              		.thumb
 461              		.thumb_func
 462              		.type	wait_event_fn, %function
 463              	wait_event_fn:
 464              	.LFB71:
 137:.\chain_flow/cf_runtime_functions.c **** 
 138:.\chain_flow/cf_runtime_functions.c ****   
 139:.\chain_flow/cf_runtime_functions.c **** int wait_event_fn( unsigned link_id, CF_FUN_AUX param_1, unsigned rx_event, 
 140:.\chain_flow/cf_runtime_functions.c ****     unsigned time_count, unsigned param_4,  unsigned event, unsigned event_data)
 141:.\chain_flow/cf_runtime_functions.c **** {
 465              		.loc 1 141 0
 466              		.cfi_startproc
 467              		@ args = 12, pretend = 0, frame = 24
 468              		@ frame_needed = 1, uses_anonymous_args = 0
 469 0000 80B5     		push	{r7, lr}
 470              		.cfi_def_cfa_offset 8
 471              		.cfi_offset 7, -8
 472              		.cfi_offset 14, -4
 473 0002 86B0     		sub	sp, sp, #24
 474              		.cfi_def_cfa_offset 32
 475 0004 00AF     		add	r7, sp, #0
 476              		.cfi_def_cfa_register 7
 477 0006 F860     		str	r0, [r7, #12]
 478 0008 B960     		str	r1, [r7, #8]
 479 000a 7A60     		str	r2, [r7, #4]
 480 000c 3B60     		str	r3, [r7]
 142:.\chain_flow/cf_runtime_functions.c ****    int       return_value;
 143:.\chain_flow/cf_runtime_functions.c ****    unsigned  value;
 144:.\chain_flow/cf_runtime_functions.c ****    if( event == CF_INIT_EVENT )
 481              		.loc 1 144 0
 482 000e 7B6A     		ldr	r3, [r7, #36]
 483 0010 012B     		cmp	r3, #1
ARM GAS  C:\Users\glenn\AppData\Local\Temp\cczp9mEB.s 			page 12


 484 0012 05D1     		bne	.L29
 145:.\chain_flow/cf_runtime_functions.c ****   {
 146:.\chain_flow/cf_runtime_functions.c ****        cf_store_cell_value( link_id , 0 );
 485              		.loc 1 146 0
 486 0014 F868     		ldr	r0, [r7, #12]
 487 0016 0021     		movs	r1, #0
 488 0018 FFF7FEFF 		bl	cf_store_cell_value
 147:.\chain_flow/cf_runtime_functions.c ****        return CF_CONTINUE;
 489              		.loc 1 147 0
 490 001c 0023     		movs	r3, #0
 491 001e 26E0     		b	.L30
 492              	.L29:
 148:.\chain_flow/cf_runtime_functions.c **** 
 149:.\chain_flow/cf_runtime_functions.c ****   }
 150:.\chain_flow/cf_runtime_functions.c **** 	
 151:.\chain_flow/cf_runtime_functions.c ****    if( event == rx_event )
 493              		.loc 1 151 0
 494 0020 7A6A     		ldr	r2, [r7, #36]
 495 0022 7B68     		ldr	r3, [r7, #4]
 496 0024 9A42     		cmp	r2, r3
 497 0026 01D1     		bne	.L31
 152:.\chain_flow/cf_runtime_functions.c ****    {
 153:.\chain_flow/cf_runtime_functions.c ****       return CF_DISABLE;
 498              		.loc 1 153 0
 499 0028 0223     		movs	r3, #2
 500 002a 20E0     		b	.L30
 501              	.L31:
 154:.\chain_flow/cf_runtime_functions.c ****    }
 155:.\chain_flow/cf_runtime_functions.c ****   else if( event == CF_TIME_TICK_EVENT )
 502              		.loc 1 155 0
 503 002c 7B6A     		ldr	r3, [r7, #36]
 504 002e 022B     		cmp	r3, #2
 505 0030 1AD1     		bne	.L32
 156:.\chain_flow/cf_runtime_functions.c ****   {
 157:.\chain_flow/cf_runtime_functions.c ****     if( time_count > 0 )
 506              		.loc 1 157 0
 507 0032 3B68     		ldr	r3, [r7]
 508 0034 002B     		cmp	r3, #0
 509 0036 15D0     		beq	.L33
 158:.\chain_flow/cf_runtime_functions.c ****     {
 159:.\chain_flow/cf_runtime_functions.c ****          value = cf_get_cell_value( link_id );
 510              		.loc 1 159 0
 511 0038 F868     		ldr	r0, [r7, #12]
 512 003a FFF7FEFF 		bl	cf_get_cell_value
 513 003e 3861     		str	r0, [r7, #16]
 160:.\chain_flow/cf_runtime_functions.c ****          value += event_data;
 514              		.loc 1 160 0
 515 0040 3A69     		ldr	r2, [r7, #16]
 516 0042 BB6A     		ldr	r3, [r7, #40]
 517 0044 1344     		add	r3, r3, r2
 518 0046 3B61     		str	r3, [r7, #16]
 161:.\chain_flow/cf_runtime_functions.c ****          cf_store_cell_value(link_id, value);
 519              		.loc 1 161 0
 520 0048 F868     		ldr	r0, [r7, #12]
 521 004a 3969     		ldr	r1, [r7, #16]
 522 004c FFF7FEFF 		bl	cf_store_cell_value
 162:.\chain_flow/cf_runtime_functions.c **** 
ARM GAS  C:\Users\glenn\AppData\Local\Temp\cczp9mEB.s 			page 13


 163:.\chain_flow/cf_runtime_functions.c ****          if( value >= time_count )
 523              		.loc 1 163 0
 524 0050 3A69     		ldr	r2, [r7, #16]
 525 0052 3B68     		ldr	r3, [r7]
 526 0054 9A42     		cmp	r2, r3
 527 0056 02D3     		bcc	.L34
 164:.\chain_flow/cf_runtime_functions.c ****          {
 165:.\chain_flow/cf_runtime_functions.c ****              return_value = CF_RESET;
 528              		.loc 1 165 0
 529 0058 0323     		movs	r3, #3
 530 005a 7B61     		str	r3, [r7, #20]
 531 005c 06E0     		b	.L36
 532              	.L34:
 166:.\chain_flow/cf_runtime_functions.c ****           }
 167:.\chain_flow/cf_runtime_functions.c ****           else
 168:.\chain_flow/cf_runtime_functions.c ****           {
 169:.\chain_flow/cf_runtime_functions.c **** 		      return_value = CF_HALT;
 533              		.loc 1 169 0
 534 005e 0123     		movs	r3, #1
 535 0060 7B61     		str	r3, [r7, #20]
 536 0062 03E0     		b	.L36
 537              	.L33:
 170:.\chain_flow/cf_runtime_functions.c ****           }
 171:.\chain_flow/cf_runtime_functions.c **** 	  }
 172:.\chain_flow/cf_runtime_functions.c ****       else
 173:.\chain_flow/cf_runtime_functions.c ****       {
 174:.\chain_flow/cf_runtime_functions.c ****         return CF_HALT;
 538              		.loc 1 174 0
 539 0064 0123     		movs	r3, #1
 540 0066 02E0     		b	.L30
 541              	.L32:
 175:.\chain_flow/cf_runtime_functions.c ****       }
 176:.\chain_flow/cf_runtime_functions.c ****    }  
 177:.\chain_flow/cf_runtime_functions.c ****    else
 178:.\chain_flow/cf_runtime_functions.c ****    {
 179:.\chain_flow/cf_runtime_functions.c **** 	
 180:.\chain_flow/cf_runtime_functions.c ****       return_value = CF_HALT;
 542              		.loc 1 180 0
 543 0068 0123     		movs	r3, #1
 544 006a 7B61     		str	r3, [r7, #20]
 545              	.L36:
 181:.\chain_flow/cf_runtime_functions.c ****    }
 182:.\chain_flow/cf_runtime_functions.c ****    return return_value;   
 546              		.loc 1 182 0
 547 006c 7B69     		ldr	r3, [r7, #20]
 548              	.L30:
 183:.\chain_flow/cf_runtime_functions.c **** 
 184:.\chain_flow/cf_runtime_functions.c **** }
 549              		.loc 1 184 0
 550 006e 1846     		mov	r0, r3
 551 0070 1837     		adds	r7, r7, #24
 552              		.cfi_def_cfa_offset 8
 553 0072 BD46     		mov	sp, r7
 554              		.cfi_def_cfa_register 13
 555              		@ sp needed
 556 0074 80BD     		pop	{r7, pc}
 557              		.cfi_endproc
ARM GAS  C:\Users\glenn\AppData\Local\Temp\cczp9mEB.s 			page 14


 558              	.LFE71:
 559              		.size	wait_event_fn, .-wait_event_fn
 560 0076 00BF     		.section	.text.wait_time_fn,"ax",%progbits
 561              		.align	2
 562              		.global	wait_time_fn
 563              		.thumb
 564              		.thumb_func
 565              		.type	wait_time_fn, %function
 566              	wait_time_fn:
 567              	.LFB72:
 185:.\chain_flow/cf_runtime_functions.c **** 
 186:.\chain_flow/cf_runtime_functions.c **** 
 187:.\chain_flow/cf_runtime_functions.c **** 
 188:.\chain_flow/cf_runtime_functions.c **** int wait_time_fn( unsigned link_id, CF_FUN_AUX param_1, unsigned param_2, 
 189:.\chain_flow/cf_runtime_functions.c ****     unsigned param_3, unsigned param_4,  unsigned event, unsigned event_data)
 190:.\chain_flow/cf_runtime_functions.c **** {
 568              		.loc 1 190 0
 569              		.cfi_startproc
 570              		@ args = 12, pretend = 0, frame = 24
 571              		@ frame_needed = 1, uses_anonymous_args = 0
 572 0000 80B5     		push	{r7, lr}
 573              		.cfi_def_cfa_offset 8
 574              		.cfi_offset 7, -8
 575              		.cfi_offset 14, -4
 576 0002 86B0     		sub	sp, sp, #24
 577              		.cfi_def_cfa_offset 32
 578 0004 00AF     		add	r7, sp, #0
 579              		.cfi_def_cfa_register 7
 580 0006 F860     		str	r0, [r7, #12]
 581 0008 B960     		str	r1, [r7, #8]
 582 000a 7A60     		str	r2, [r7, #4]
 583 000c 3B60     		str	r3, [r7]
 191:.\chain_flow/cf_runtime_functions.c ****   int return_value;
 192:.\chain_flow/cf_runtime_functions.c ****   unsigned value;
 193:.\chain_flow/cf_runtime_functions.c ****   
 194:.\chain_flow/cf_runtime_functions.c ****   if( event == CF_INIT_EVENT )
 584              		.loc 1 194 0
 585 000e 7B6A     		ldr	r3, [r7, #36]
 586 0010 012B     		cmp	r3, #1
 587 0012 05D1     		bne	.L38
 195:.\chain_flow/cf_runtime_functions.c ****   {
 196:.\chain_flow/cf_runtime_functions.c ****        cf_store_cell_value( link_id , 0 );
 588              		.loc 1 196 0
 589 0014 F868     		ldr	r0, [r7, #12]
 590 0016 0021     		movs	r1, #0
 591 0018 FFF7FEFF 		bl	cf_store_cell_value
 197:.\chain_flow/cf_runtime_functions.c ****        return CF_CONTINUE;
 592              		.loc 1 197 0
 593 001c 0023     		movs	r3, #0
 594 001e 1BE0     		b	.L39
 595              	.L38:
 198:.\chain_flow/cf_runtime_functions.c **** 
 199:.\chain_flow/cf_runtime_functions.c ****   }
 200:.\chain_flow/cf_runtime_functions.c ****   else if( event == CF_TIME_TICK_EVENT )
 596              		.loc 1 200 0
 597 0020 7B6A     		ldr	r3, [r7, #36]
 598 0022 022B     		cmp	r3, #2
ARM GAS  C:\Users\glenn\AppData\Local\Temp\cczp9mEB.s 			page 15


 599 0024 15D1     		bne	.L40
 201:.\chain_flow/cf_runtime_functions.c ****   {
 202:.\chain_flow/cf_runtime_functions.c ****      value = cf_get_cell_value( link_id );
 600              		.loc 1 202 0
 601 0026 F868     		ldr	r0, [r7, #12]
 602 0028 FFF7FEFF 		bl	cf_get_cell_value
 603 002c 3861     		str	r0, [r7, #16]
 203:.\chain_flow/cf_runtime_functions.c ****      value += event_data;
 604              		.loc 1 203 0
 605 002e 3A69     		ldr	r2, [r7, #16]
 606 0030 BB6A     		ldr	r3, [r7, #40]
 607 0032 1344     		add	r3, r3, r2
 608 0034 3B61     		str	r3, [r7, #16]
 204:.\chain_flow/cf_runtime_functions.c ****      cf_store_cell_value(link_id, value);
 609              		.loc 1 204 0
 610 0036 F868     		ldr	r0, [r7, #12]
 611 0038 3969     		ldr	r1, [r7, #16]
 612 003a FFF7FEFF 		bl	cf_store_cell_value
 205:.\chain_flow/cf_runtime_functions.c **** 
 206:.\chain_flow/cf_runtime_functions.c ****      if( value >= param_2 )
 613              		.loc 1 206 0
 614 003e 3A69     		ldr	r2, [r7, #16]
 615 0040 7B68     		ldr	r3, [r7, #4]
 616 0042 9A42     		cmp	r2, r3
 617 0044 02D3     		bcc	.L41
 207:.\chain_flow/cf_runtime_functions.c ****      {
 208:.\chain_flow/cf_runtime_functions.c ****        return_value = CF_DISABLE;
 618              		.loc 1 208 0
 619 0046 0223     		movs	r3, #2
 620 0048 7B61     		str	r3, [r7, #20]
 621 004a 04E0     		b	.L43
 622              	.L41:
 209:.\chain_flow/cf_runtime_functions.c ****      }
 210:.\chain_flow/cf_runtime_functions.c ****      else
 211:.\chain_flow/cf_runtime_functions.c ****      {
 212:.\chain_flow/cf_runtime_functions.c ****         return_value = CF_HALT;
 623              		.loc 1 212 0
 624 004c 0123     		movs	r3, #1
 625 004e 7B61     		str	r3, [r7, #20]
 626 0050 01E0     		b	.L43
 627              	.L40:
 213:.\chain_flow/cf_runtime_functions.c ****      }
 214:.\chain_flow/cf_runtime_functions.c ****   }
 215:.\chain_flow/cf_runtime_functions.c ****   else
 216:.\chain_flow/cf_runtime_functions.c ****   {
 217:.\chain_flow/cf_runtime_functions.c ****        return_value = CF_HALT;
 628              		.loc 1 217 0
 629 0052 0123     		movs	r3, #1
 630 0054 7B61     		str	r3, [r7, #20]
 631              	.L43:
 218:.\chain_flow/cf_runtime_functions.c ****   }
 219:.\chain_flow/cf_runtime_functions.c ****   return return_value;
 632              		.loc 1 219 0
 633 0056 7B69     		ldr	r3, [r7, #20]
 634              	.L39:
 220:.\chain_flow/cf_runtime_functions.c **** 
 221:.\chain_flow/cf_runtime_functions.c **** }
ARM GAS  C:\Users\glenn\AppData\Local\Temp\cczp9mEB.s 			page 16


 635              		.loc 1 221 0
 636 0058 1846     		mov	r0, r3
 637 005a 1837     		adds	r7, r7, #24
 638              		.cfi_def_cfa_offset 8
 639 005c BD46     		mov	sp, r7
 640              		.cfi_def_cfa_register 13
 641              		@ sp needed
 642 005e 80BD     		pop	{r7, pc}
 643              		.cfi_endproc
 644              	.LFE72:
 645              		.size	wait_time_fn, .-wait_time_fn
 646              		.section	.text.wait_condition_fn,"ax",%progbits
 647              		.align	2
 648              		.global	wait_condition_fn
 649              		.thumb
 650              		.thumb_func
 651              		.type	wait_condition_fn, %function
 652              	wait_condition_fn:
 653              	.LFB73:
 222:.\chain_flow/cf_runtime_functions.c **** 
 223:.\chain_flow/cf_runtime_functions.c **** int wait_condition_fn( unsigned link_id, CF_FUN_AUX param_1, unsigned param_2, 
 224:.\chain_flow/cf_runtime_functions.c ****     unsigned param_3, unsigned param_4,  unsigned event, unsigned event_data)
 225:.\chain_flow/cf_runtime_functions.c **** {
 654              		.loc 1 225 0
 655              		.cfi_startproc
 656              		@ args = 12, pretend = 0, frame = 24
 657              		@ frame_needed = 1, uses_anonymous_args = 0
 658 0000 90B5     		push	{r4, r7, lr}
 659              		.cfi_def_cfa_offset 12
 660              		.cfi_offset 4, -12
 661              		.cfi_offset 7, -8
 662              		.cfi_offset 14, -4
 663 0002 89B0     		sub	sp, sp, #36
 664              		.cfi_def_cfa_offset 48
 665 0004 02AF     		add	r7, sp, #8
 666              		.cfi_def_cfa 7, 40
 667 0006 F860     		str	r0, [r7, #12]
 668 0008 B960     		str	r1, [r7, #8]
 669 000a 7A60     		str	r2, [r7, #4]
 670 000c 3B60     		str	r3, [r7]
 226:.\chain_flow/cf_runtime_functions.c ****     int return_value;
 227:.\chain_flow/cf_runtime_functions.c ****     unsigned value;
 228:.\chain_flow/cf_runtime_functions.c ****     if( event == CF_INIT_EVENT )
 671              		.loc 1 228 0
 672 000e FB6A     		ldr	r3, [r7, #44]
 673 0010 012B     		cmp	r3, #1
 674 0012 0FD1     		bne	.L45
 229:.\chain_flow/cf_runtime_functions.c ****   {
 230:.\chain_flow/cf_runtime_functions.c ****         param_1( link_id , param_2, param_3, param_4, event,event_data );
 675              		.loc 1 230 0
 676 0014 FB6A     		ldr	r3, [r7, #44]
 677 0016 0093     		str	r3, [sp]
 678 0018 3B6B     		ldr	r3, [r7, #48]
 679 001a 0193     		str	r3, [sp, #4]
 680 001c BC68     		ldr	r4, [r7, #8]
 681 001e F868     		ldr	r0, [r7, #12]
 682 0020 7968     		ldr	r1, [r7, #4]
ARM GAS  C:\Users\glenn\AppData\Local\Temp\cczp9mEB.s 			page 17


 683 0022 3A68     		ldr	r2, [r7]
 684 0024 BB6A     		ldr	r3, [r7, #40]
 685 0026 A047     		blx	r4
 231:.\chain_flow/cf_runtime_functions.c ****        cf_store_cell_value( link_id , 0 );
 686              		.loc 1 231 0
 687 0028 F868     		ldr	r0, [r7, #12]
 688 002a 0021     		movs	r1, #0
 689 002c FFF7FEFF 		bl	cf_store_cell_value
 232:.\chain_flow/cf_runtime_functions.c ****        return CF_CONTINUE;
 690              		.loc 1 232 0
 691 0030 0023     		movs	r3, #0
 692 0032 2EE0     		b	.L46
 693              	.L45:
 233:.\chain_flow/cf_runtime_functions.c **** 
 234:.\chain_flow/cf_runtime_functions.c ****   }
 235:.\chain_flow/cf_runtime_functions.c ****    
 236:.\chain_flow/cf_runtime_functions.c ****    else if( param_1( link_id , param_2, param_3, param_4, event,event_data ) != 0)
 694              		.loc 1 236 0
 695 0034 FB6A     		ldr	r3, [r7, #44]
 696 0036 0093     		str	r3, [sp]
 697 0038 3B6B     		ldr	r3, [r7, #48]
 698 003a 0193     		str	r3, [sp, #4]
 699 003c BC68     		ldr	r4, [r7, #8]
 700 003e F868     		ldr	r0, [r7, #12]
 701 0040 7968     		ldr	r1, [r7, #4]
 702 0042 3A68     		ldr	r2, [r7]
 703 0044 BB6A     		ldr	r3, [r7, #40]
 704 0046 A047     		blx	r4
 705 0048 0346     		mov	r3, r0
 706 004a 002B     		cmp	r3, #0
 707 004c 02D0     		beq	.L47
 237:.\chain_flow/cf_runtime_functions.c ****    {
 238:.\chain_flow/cf_runtime_functions.c ****      return_value = CF_DISABLE;
 708              		.loc 1 238 0
 709 004e 0223     		movs	r3, #2
 710 0050 7B61     		str	r3, [r7, #20]
 711 0052 1DE0     		b	.L48
 712              	.L47:
 239:.\chain_flow/cf_runtime_functions.c ****    }
 240:.\chain_flow/cf_runtime_functions.c ****    else if( ( event == CF_TIME_TICK_EVENT )&&(param_4 > 0 ) )
 713              		.loc 1 240 0
 714 0054 FB6A     		ldr	r3, [r7, #44]
 715 0056 022B     		cmp	r3, #2
 716 0058 18D1     		bne	.L49
 717              		.loc 1 240 0 is_stmt 0 discriminator 1
 718 005a BB6A     		ldr	r3, [r7, #40]
 719 005c 002B     		cmp	r3, #0
 720 005e 15D0     		beq	.L49
 241:.\chain_flow/cf_runtime_functions.c ****    {
 242:.\chain_flow/cf_runtime_functions.c ****      value = cf_get_cell_value( link_id );
 721              		.loc 1 242 0 is_stmt 1
 722 0060 F868     		ldr	r0, [r7, #12]
 723 0062 FFF7FEFF 		bl	cf_get_cell_value
 724 0066 3861     		str	r0, [r7, #16]
 243:.\chain_flow/cf_runtime_functions.c ****      value += event_data;
 725              		.loc 1 243 0
 726 0068 3A69     		ldr	r2, [r7, #16]
ARM GAS  C:\Users\glenn\AppData\Local\Temp\cczp9mEB.s 			page 18


 727 006a 3B6B     		ldr	r3, [r7, #48]
 728 006c 1344     		add	r3, r3, r2
 729 006e 3B61     		str	r3, [r7, #16]
 244:.\chain_flow/cf_runtime_functions.c ****      cf_store_cell_value(link_id, value);
 730              		.loc 1 244 0
 731 0070 F868     		ldr	r0, [r7, #12]
 732 0072 3969     		ldr	r1, [r7, #16]
 733 0074 FFF7FEFF 		bl	cf_store_cell_value
 245:.\chain_flow/cf_runtime_functions.c **** 
 246:.\chain_flow/cf_runtime_functions.c ****      if( value >= param_4 )
 734              		.loc 1 246 0
 735 0078 3A69     		ldr	r2, [r7, #16]
 736 007a BB6A     		ldr	r3, [r7, #40]
 737 007c 9A42     		cmp	r2, r3
 738 007e 02D3     		bcc	.L50
 247:.\chain_flow/cf_runtime_functions.c ****      {
 248:.\chain_flow/cf_runtime_functions.c ****        return_value = CF_RESET;
 739              		.loc 1 248 0
 740 0080 0323     		movs	r3, #3
 741 0082 7B61     		str	r3, [r7, #20]
 246:.\chain_flow/cf_runtime_functions.c ****      {
 742              		.loc 1 246 0
 743 0084 04E0     		b	.L48
 744              	.L50:
 249:.\chain_flow/cf_runtime_functions.c ****      }
 250:.\chain_flow/cf_runtime_functions.c ****      else
 251:.\chain_flow/cf_runtime_functions.c ****      {
 252:.\chain_flow/cf_runtime_functions.c ****         return_value = CF_HALT;
 745              		.loc 1 252 0
 746 0086 0123     		movs	r3, #1
 747 0088 7B61     		str	r3, [r7, #20]
 246:.\chain_flow/cf_runtime_functions.c ****      {
 748              		.loc 1 246 0
 749 008a 01E0     		b	.L48
 750              	.L49:
 253:.\chain_flow/cf_runtime_functions.c ****      }
 254:.\chain_flow/cf_runtime_functions.c ****   }
 255:.\chain_flow/cf_runtime_functions.c ****    else
 256:.\chain_flow/cf_runtime_functions.c ****    {
 257:.\chain_flow/cf_runtime_functions.c ****      return_value = CF_HALT;
 751              		.loc 1 257 0
 752 008c 0123     		movs	r3, #1
 753 008e 7B61     		str	r3, [r7, #20]
 754              	.L48:
 258:.\chain_flow/cf_runtime_functions.c ****    }
 259:.\chain_flow/cf_runtime_functions.c ****  
 260:.\chain_flow/cf_runtime_functions.c ****    return return_value;
 755              		.loc 1 260 0
 756 0090 7B69     		ldr	r3, [r7, #20]
 757              	.L46:
 261:.\chain_flow/cf_runtime_functions.c **** 
 262:.\chain_flow/cf_runtime_functions.c **** }     
 758              		.loc 1 262 0
 759 0092 1846     		mov	r0, r3
 760 0094 1C37     		adds	r7, r7, #28
 761              		.cfi_def_cfa_offset 12
 762 0096 BD46     		mov	sp, r7
ARM GAS  C:\Users\glenn\AppData\Local\Temp\cczp9mEB.s 			page 19


 763              		.cfi_def_cfa_register 13
 764              		@ sp needed
 765 0098 90BD     		pop	{r4, r7, pc}
 766              		.cfi_endproc
 767              	.LFE73:
 768              		.size	wait_condition_fn, .-wait_condition_fn
 769              		.section	.text.verify_condition_fn,"ax",%progbits
 770              		.align	2
 771              		.global	verify_condition_fn
 772              		.thumb
 773              		.thumb_func
 774              		.type	verify_condition_fn, %function
 775              	verify_condition_fn:
 776              	.LFB74:
 263:.\chain_flow/cf_runtime_functions.c **** 
 264:.\chain_flow/cf_runtime_functions.c **** int verify_condition_fn( unsigned link_id, CF_FUN_AUX param_1, unsigned param_2, 
 265:.\chain_flow/cf_runtime_functions.c ****     unsigned param_3, unsigned param_4,  unsigned event, unsigned event_data)
 266:.\chain_flow/cf_runtime_functions.c **** {
 777              		.loc 1 266 0
 778              		.cfi_startproc
 779              		@ args = 12, pretend = 0, frame = 24
 780              		@ frame_needed = 1, uses_anonymous_args = 0
 781 0000 90B5     		push	{r4, r7, lr}
 782              		.cfi_def_cfa_offset 12
 783              		.cfi_offset 4, -12
 784              		.cfi_offset 7, -8
 785              		.cfi_offset 14, -4
 786 0002 89B0     		sub	sp, sp, #36
 787              		.cfi_def_cfa_offset 48
 788 0004 02AF     		add	r7, sp, #8
 789              		.cfi_def_cfa 7, 40
 790 0006 F860     		str	r0, [r7, #12]
 791 0008 B960     		str	r1, [r7, #8]
 792 000a 7A60     		str	r2, [r7, #4]
 793 000c 3B60     		str	r3, [r7]
 267:.\chain_flow/cf_runtime_functions.c ****    int return_value;
 268:.\chain_flow/cf_runtime_functions.c ****   
 269:.\chain_flow/cf_runtime_functions.c ****    
 270:.\chain_flow/cf_runtime_functions.c ****    if( param_1( link_id , param_2, param_3, param_4, event,event_data ) != 0)
 794              		.loc 1 270 0
 795 000e FB6A     		ldr	r3, [r7, #44]
 796 0010 0093     		str	r3, [sp]
 797 0012 3B6B     		ldr	r3, [r7, #48]
 798 0014 0193     		str	r3, [sp, #4]
 799 0016 BC68     		ldr	r4, [r7, #8]
 800 0018 F868     		ldr	r0, [r7, #12]
 801 001a 7968     		ldr	r1, [r7, #4]
 802 001c 3A68     		ldr	r2, [r7]
 803 001e BB6A     		ldr	r3, [r7, #40]
 804 0020 A047     		blx	r4
 805 0022 0346     		mov	r3, r0
 806 0024 002B     		cmp	r3, #0
 807 0026 02D0     		beq	.L53
 271:.\chain_flow/cf_runtime_functions.c ****    {
 272:.\chain_flow/cf_runtime_functions.c ****      return_value = CF_CONTINUE;
 808              		.loc 1 272 0
 809 0028 0023     		movs	r3, #0
ARM GAS  C:\Users\glenn\AppData\Local\Temp\cczp9mEB.s 			page 20


 810 002a 7B61     		str	r3, [r7, #20]
 811 002c 01E0     		b	.L54
 812              	.L53:
 273:.\chain_flow/cf_runtime_functions.c ****    }
 274:.\chain_flow/cf_runtime_functions.c ****    else
 275:.\chain_flow/cf_runtime_functions.c ****    {
 276:.\chain_flow/cf_runtime_functions.c ****      return_value = CF_RESET;
 813              		.loc 1 276 0
 814 002e 0323     		movs	r3, #3
 815 0030 7B61     		str	r3, [r7, #20]
 816              	.L54:
 277:.\chain_flow/cf_runtime_functions.c ****    } 
 278:.\chain_flow/cf_runtime_functions.c ****    return return_value;
 817              		.loc 1 278 0
 818 0032 7B69     		ldr	r3, [r7, #20]
 279:.\chain_flow/cf_runtime_functions.c **** 
 280:.\chain_flow/cf_runtime_functions.c **** }    
 819              		.loc 1 280 0
 820 0034 1846     		mov	r0, r3
 821 0036 1C37     		adds	r7, r7, #28
 822              		.cfi_def_cfa_offset 12
 823 0038 BD46     		mov	sp, r7
 824              		.cfi_def_cfa_register 13
 825              		@ sp needed
 826 003a 90BD     		pop	{r4, r7, pc}
 827              		.cfi_endproc
 828              	.LFE74:
 829              		.size	verify_condition_fn, .-verify_condition_fn
 830              		.section	.text.verify_not_timeout_fn,"ax",%progbits
 831              		.align	2
 832              		.global	verify_not_timeout_fn
 833              		.thumb
 834              		.thumb_func
 835              		.type	verify_not_timeout_fn, %function
 836              	verify_not_timeout_fn:
 837              	.LFB75:
 281:.\chain_flow/cf_runtime_functions.c ****  
 282:.\chain_flow/cf_runtime_functions.c **** int verify_not_timeout_fn( unsigned link_id, CF_FUN_AUX param_1, unsigned param_2, 
 283:.\chain_flow/cf_runtime_functions.c ****     unsigned param_3, unsigned param_4,  unsigned event, unsigned event_data)
 284:.\chain_flow/cf_runtime_functions.c **** {
 838              		.loc 1 284 0
 839              		.cfi_startproc
 840              		@ args = 12, pretend = 0, frame = 24
 841              		@ frame_needed = 1, uses_anonymous_args = 0
 842 0000 80B5     		push	{r7, lr}
 843              		.cfi_def_cfa_offset 8
 844              		.cfi_offset 7, -8
 845              		.cfi_offset 14, -4
 846 0002 86B0     		sub	sp, sp, #24
 847              		.cfi_def_cfa_offset 32
 848 0004 00AF     		add	r7, sp, #0
 849              		.cfi_def_cfa_register 7
 850 0006 F860     		str	r0, [r7, #12]
 851 0008 B960     		str	r1, [r7, #8]
 852 000a 7A60     		str	r2, [r7, #4]
 853 000c 3B60     		str	r3, [r7]
 285:.\chain_flow/cf_runtime_functions.c ****   int return_value;
ARM GAS  C:\Users\glenn\AppData\Local\Temp\cczp9mEB.s 			page 21


 286:.\chain_flow/cf_runtime_functions.c ****   unsigned value;
 287:.\chain_flow/cf_runtime_functions.c ****   
 288:.\chain_flow/cf_runtime_functions.c ****   if( event == CF_INIT_EVENT )
 854              		.loc 1 288 0
 855 000e 7B6A     		ldr	r3, [r7, #36]
 856 0010 012B     		cmp	r3, #1
 857 0012 04D1     		bne	.L57
 289:.\chain_flow/cf_runtime_functions.c ****   {
 290:.\chain_flow/cf_runtime_functions.c ****        cf_store_cell_value( link_id , 0 );
 858              		.loc 1 290 0
 859 0014 F868     		ldr	r0, [r7, #12]
 860 0016 0021     		movs	r1, #0
 861 0018 FFF7FEFF 		bl	cf_store_cell_value
 862 001c 1AE0     		b	.L58
 863              	.L57:
 291:.\chain_flow/cf_runtime_functions.c **** 
 292:.\chain_flow/cf_runtime_functions.c ****   }
 293:.\chain_flow/cf_runtime_functions.c ****   else if( event == CF_TIME_TICK_EVENT )
 864              		.loc 1 293 0
 865 001e 7B6A     		ldr	r3, [r7, #36]
 866 0020 022B     		cmp	r3, #2
 867 0022 15D1     		bne	.L59
 294:.\chain_flow/cf_runtime_functions.c ****   {
 295:.\chain_flow/cf_runtime_functions.c ****      value = cf_get_cell_value( link_id );
 868              		.loc 1 295 0
 869 0024 F868     		ldr	r0, [r7, #12]
 870 0026 FFF7FEFF 		bl	cf_get_cell_value
 871 002a 3861     		str	r0, [r7, #16]
 296:.\chain_flow/cf_runtime_functions.c ****      value += event_data;
 872              		.loc 1 296 0
 873 002c 3A69     		ldr	r2, [r7, #16]
 874 002e BB6A     		ldr	r3, [r7, #40]
 875 0030 1344     		add	r3, r3, r2
 876 0032 3B61     		str	r3, [r7, #16]
 297:.\chain_flow/cf_runtime_functions.c ****      cf_store_cell_value(link_id, value);
 877              		.loc 1 297 0
 878 0034 F868     		ldr	r0, [r7, #12]
 879 0036 3969     		ldr	r1, [r7, #16]
 880 0038 FFF7FEFF 		bl	cf_store_cell_value
 298:.\chain_flow/cf_runtime_functions.c **** 
 299:.\chain_flow/cf_runtime_functions.c ****      if( value >= param_2 )
 881              		.loc 1 299 0
 882 003c 3A69     		ldr	r2, [r7, #16]
 883 003e 7B68     		ldr	r3, [r7, #4]
 884 0040 9A42     		cmp	r2, r3
 885 0042 02D3     		bcc	.L60
 300:.\chain_flow/cf_runtime_functions.c ****      {
 301:.\chain_flow/cf_runtime_functions.c ****        return_value = CF_RESET;
 886              		.loc 1 301 0
 887 0044 0323     		movs	r3, #3
 888 0046 7B61     		str	r3, [r7, #20]
 889 0048 04E0     		b	.L58
 890              	.L60:
 302:.\chain_flow/cf_runtime_functions.c ****      }
 303:.\chain_flow/cf_runtime_functions.c ****      else
 304:.\chain_flow/cf_runtime_functions.c ****      {
 305:.\chain_flow/cf_runtime_functions.c ****         return_value = CF_CONTINUE;
ARM GAS  C:\Users\glenn\AppData\Local\Temp\cczp9mEB.s 			page 22


 891              		.loc 1 305 0
 892 004a 0023     		movs	r3, #0
 893 004c 7B61     		str	r3, [r7, #20]
 894 004e 01E0     		b	.L58
 895              	.L59:
 306:.\chain_flow/cf_runtime_functions.c ****      }
 307:.\chain_flow/cf_runtime_functions.c ****   }
 308:.\chain_flow/cf_runtime_functions.c ****   else
 309:.\chain_flow/cf_runtime_functions.c ****   {
 310:.\chain_flow/cf_runtime_functions.c ****        return_value = CF_CONTINUE;
 896              		.loc 1 310 0
 897 0050 0023     		movs	r3, #0
 898 0052 7B61     		str	r3, [r7, #20]
 899              	.L58:
 311:.\chain_flow/cf_runtime_functions.c ****   }
 312:.\chain_flow/cf_runtime_functions.c ****   return return_value;
 900              		.loc 1 312 0
 901 0054 7B69     		ldr	r3, [r7, #20]
 313:.\chain_flow/cf_runtime_functions.c **** 
 314:.\chain_flow/cf_runtime_functions.c **** }
 902              		.loc 1 314 0
 903 0056 1846     		mov	r0, r3
 904 0058 1837     		adds	r7, r7, #24
 905              		.cfi_def_cfa_offset 8
 906 005a BD46     		mov	sp, r7
 907              		.cfi_def_cfa_register 13
 908              		@ sp needed
 909 005c 80BD     		pop	{r7, pc}
 910              		.cfi_endproc
 911              	.LFE75:
 912              		.size	verify_not_timeout_fn, .-verify_not_timeout_fn
 913 005e 00BF     		.section	.text.verify_not_event_fn,"ax",%progbits
 914              		.align	2
 915              		.global	verify_not_event_fn
 916              		.thumb
 917              		.thumb_func
 918              		.type	verify_not_event_fn, %function
 919              	verify_not_event_fn:
 920              	.LFB76:
 315:.\chain_flow/cf_runtime_functions.c **** 
 316:.\chain_flow/cf_runtime_functions.c **** 
 317:.\chain_flow/cf_runtime_functions.c **** int verify_not_event_fn( unsigned link_id, CF_FUN_AUX param_1, unsigned param_2, 
 318:.\chain_flow/cf_runtime_functions.c ****     unsigned param_3, unsigned param_4,  unsigned event, unsigned event_data)
 319:.\chain_flow/cf_runtime_functions.c **** {
 921              		.loc 1 319 0
 922              		.cfi_startproc
 923              		@ args = 12, pretend = 0, frame = 24
 924              		@ frame_needed = 1, uses_anonymous_args = 0
 925              		@ link register save eliminated.
 926 0000 80B4     		push	{r7}
 927              		.cfi_def_cfa_offset 4
 928              		.cfi_offset 7, -4
 929 0002 87B0     		sub	sp, sp, #28
 930              		.cfi_def_cfa_offset 32
 931 0004 00AF     		add	r7, sp, #0
 932              		.cfi_def_cfa_register 7
 933 0006 F860     		str	r0, [r7, #12]
ARM GAS  C:\Users\glenn\AppData\Local\Temp\cczp9mEB.s 			page 23


 934 0008 B960     		str	r1, [r7, #8]
 935 000a 7A60     		str	r2, [r7, #4]
 936 000c 3B60     		str	r3, [r7]
 320:.\chain_flow/cf_runtime_functions.c ****   
 321:.\chain_flow/cf_runtime_functions.c ****    int    return_value;
 322:.\chain_flow/cf_runtime_functions.c ****    
 323:.\chain_flow/cf_runtime_functions.c ****    if( event == param_2 )
 937              		.loc 1 323 0
 938 000e 7A6A     		ldr	r2, [r7, #36]
 939 0010 7B68     		ldr	r3, [r7, #4]
 940 0012 9A42     		cmp	r2, r3
 941 0014 02D1     		bne	.L64
 324:.\chain_flow/cf_runtime_functions.c ****    {
 325:.\chain_flow/cf_runtime_functions.c ****       return_value = CF_RESET;
 942              		.loc 1 325 0
 943 0016 0323     		movs	r3, #3
 944 0018 7B61     		str	r3, [r7, #20]
 945 001a 01E0     		b	.L65
 946              	.L64:
 326:.\chain_flow/cf_runtime_functions.c ****    }
 327:.\chain_flow/cf_runtime_functions.c ****    else
 328:.\chain_flow/cf_runtime_functions.c ****    {
 329:.\chain_flow/cf_runtime_functions.c ****       return_value = CF_CONTINUE;
 947              		.loc 1 329 0
 948 001c 0023     		movs	r3, #0
 949 001e 7B61     		str	r3, [r7, #20]
 950              	.L65:
 330:.\chain_flow/cf_runtime_functions.c ****    }
 331:.\chain_flow/cf_runtime_functions.c ****    return return_value;   
 951              		.loc 1 331 0
 952 0020 7B69     		ldr	r3, [r7, #20]
 332:.\chain_flow/cf_runtime_functions.c **** 
 333:.\chain_flow/cf_runtime_functions.c **** }
 953              		.loc 1 333 0
 954 0022 1846     		mov	r0, r3
 955 0024 1C37     		adds	r7, r7, #28
 956              		.cfi_def_cfa_offset 4
 957 0026 BD46     		mov	sp, r7
 958              		.cfi_def_cfa_register 13
 959              		@ sp needed
 960 0028 5DF8047B 		ldr	r7, [sp], #4
 961              		.cfi_restore 7
 962              		.cfi_def_cfa_offset 0
 963 002c 7047     		bx	lr
 964              		.cfi_endproc
 965              	.LFE76:
 966              		.size	verify_not_event_fn, .-verify_not_event_fn
 967 002e 00BF     		.section	.text.verify_not_tod_fn,"ax",%progbits
 968              		.align	2
 969              		.global	verify_not_tod_fn
 970              		.thumb
 971              		.thumb_func
 972              		.type	verify_not_tod_fn, %function
 973              	verify_not_tod_fn:
 974              	.LFB77:
 334:.\chain_flow/cf_runtime_functions.c **** 
 335:.\chain_flow/cf_runtime_functions.c **** int verify_not_tod_fn( unsigned link_id, CF_FUN_AUX param_1, unsigned param_2, 
ARM GAS  C:\Users\glenn\AppData\Local\Temp\cczp9mEB.s 			page 24


 336:.\chain_flow/cf_runtime_functions.c ****     unsigned param_3, unsigned param_4,  unsigned event, unsigned event_data)
 337:.\chain_flow/cf_runtime_functions.c **** {
 975              		.loc 1 337 0
 976              		.cfi_startproc
 977              		@ args = 12, pretend = 0, frame = 32
 978              		@ frame_needed = 1, uses_anonymous_args = 0
 979 0000 80B5     		push	{r7, lr}
 980              		.cfi_def_cfa_offset 8
 981              		.cfi_offset 7, -8
 982              		.cfi_offset 14, -4
 983 0002 88B0     		sub	sp, sp, #32
 984              		.cfi_def_cfa_offset 40
 985 0004 00AF     		add	r7, sp, #0
 986              		.cfi_def_cfa_register 7
 987 0006 F860     		str	r0, [r7, #12]
 988 0008 B960     		str	r1, [r7, #8]
 989 000a 7A60     		str	r2, [r7, #4]
 990 000c 3B60     		str	r3, [r7]
 338:.\chain_flow/cf_runtime_functions.c ****    unsigned hour;
 339:.\chain_flow/cf_runtime_functions.c ****    unsigned minute;
 340:.\chain_flow/cf_runtime_functions.c ****    unsigned second;
 341:.\chain_flow/cf_runtime_functions.c ****    
 342:.\chain_flow/cf_runtime_functions.c ****    second = RTC_1_ReadSecond();   
 991              		.loc 1 342 0
 992 000e FFF7FEFF 		bl	RTC_1_ReadSecond
 993 0012 0346     		mov	r3, r0
 994 0014 FB61     		str	r3, [r7, #28]
 343:.\chain_flow/cf_runtime_functions.c ****    minute = RTC_1_ReadMinute();
 995              		.loc 1 343 0
 996 0016 FFF7FEFF 		bl	RTC_1_ReadMinute
 997 001a 0346     		mov	r3, r0
 998 001c BB61     		str	r3, [r7, #24]
 344:.\chain_flow/cf_runtime_functions.c ****    hour   = RTC_1_ReadHour();
 999              		.loc 1 344 0
 1000 001e FFF7FEFF 		bl	RTC_1_ReadHour
 1001 0022 0346     		mov	r3, r0
 1002 0024 7B61     		str	r3, [r7, #20]
 345:.\chain_flow/cf_runtime_functions.c ****  
 346:.\chain_flow/cf_runtime_functions.c ****    // check hour
 347:.\chain_flow/cf_runtime_functions.c ****    if( ( param_2 == NULL_PARAMETER ) || ( param_2 == hour ))
 1003              		.loc 1 347 0
 1004 0026 7B68     		ldr	r3, [r7, #4]
 1005 0028 B3F1FF3F 		cmp	r3, #-1
 1006 002c 03D0     		beq	.L68
 1007              		.loc 1 347 0 is_stmt 0 discriminator 1
 1008 002e 7A68     		ldr	r2, [r7, #4]
 1009 0030 7B69     		ldr	r3, [r7, #20]
 1010 0032 9A42     		cmp	r2, r3
 1011 0034 11D1     		bne	.L69
 1012              	.L68:
 348:.\chain_flow/cf_runtime_functions.c ****    {
 349:.\chain_flow/cf_runtime_functions.c ****      if( ( param_3 == NULL_PARAMETER ) || ( param_3 == minute ))
 1013              		.loc 1 349 0 is_stmt 1
 1014 0036 3B68     		ldr	r3, [r7]
 1015 0038 B3F1FF3F 		cmp	r3, #-1
 1016 003c 03D0     		beq	.L70
 1017              		.loc 1 349 0 is_stmt 0 discriminator 1
ARM GAS  C:\Users\glenn\AppData\Local\Temp\cczp9mEB.s 			page 25


 1018 003e 3A68     		ldr	r2, [r7]
 1019 0040 BB69     		ldr	r3, [r7, #24]
 1020 0042 9A42     		cmp	r2, r3
 1021 0044 09D1     		bne	.L69
 1022              	.L70:
 350:.\chain_flow/cf_runtime_functions.c ****      {
 351:.\chain_flow/cf_runtime_functions.c ****        if( ( param_4 == NULL_PARAMETER ) || ( param_4 == second ))
 1023              		.loc 1 351 0 is_stmt 1
 1024 0046 BB6A     		ldr	r3, [r7, #40]
 1025 0048 B3F1FF3F 		cmp	r3, #-1
 1026 004c 03D0     		beq	.L71
 1027              		.loc 1 351 0 is_stmt 0 discriminator 1
 1028 004e BA6A     		ldr	r2, [r7, #40]
 1029 0050 FB69     		ldr	r3, [r7, #28]
 1030 0052 9A42     		cmp	r2, r3
 1031 0054 01D1     		bne	.L69
 1032              	.L71:
 352:.\chain_flow/cf_runtime_functions.c ****        {
 353:.\chain_flow/cf_runtime_functions.c ****           return CF_RESET;
 1033              		.loc 1 353 0 is_stmt 1
 1034 0056 0323     		movs	r3, #3
 1035 0058 00E0     		b	.L72
 1036              	.L69:
 354:.\chain_flow/cf_runtime_functions.c ****        }
 355:.\chain_flow/cf_runtime_functions.c ****      }
 356:.\chain_flow/cf_runtime_functions.c ****    }
 357:.\chain_flow/cf_runtime_functions.c ****     return CF_CONTINUE;  // implemented on specific system
 1037              		.loc 1 357 0
 1038 005a 0023     		movs	r3, #0
 1039              	.L72:
 358:.\chain_flow/cf_runtime_functions.c **** 
 359:.\chain_flow/cf_runtime_functions.c **** }
 1040              		.loc 1 359 0
 1041 005c 1846     		mov	r0, r3
 1042 005e 2037     		adds	r7, r7, #32
 1043              		.cfi_def_cfa_offset 8
 1044 0060 BD46     		mov	sp, r7
 1045              		.cfi_def_cfa_register 13
 1046              		@ sp needed
 1047 0062 80BD     		pop	{r7, pc}
 1048              		.cfi_endproc
 1049              	.LFE77:
 1050              		.size	verify_not_tod_fn, .-verify_not_tod_fn
 1051              		.section	.text.nop_fn,"ax",%progbits
 1052              		.align	2
 1053              		.global	nop_fn
 1054              		.thumb
 1055              		.thumb_func
 1056              		.type	nop_fn, %function
 1057              	nop_fn:
 1058              	.LFB78:
 360:.\chain_flow/cf_runtime_functions.c **** 
 361:.\chain_flow/cf_runtime_functions.c **** int nop_fn( unsigned link_id, CF_FUN_AUX param_1, unsigned param_2, 
 362:.\chain_flow/cf_runtime_functions.c ****     unsigned param_3, unsigned param_4,  unsigned event, unsigned event_data)
 363:.\chain_flow/cf_runtime_functions.c **** {
 1059              		.loc 1 363 0
 1060              		.cfi_startproc
ARM GAS  C:\Users\glenn\AppData\Local\Temp\cczp9mEB.s 			page 26


 1061              		@ args = 12, pretend = 0, frame = 16
 1062              		@ frame_needed = 1, uses_anonymous_args = 0
 1063              		@ link register save eliminated.
 1064 0000 80B4     		push	{r7}
 1065              		.cfi_def_cfa_offset 4
 1066              		.cfi_offset 7, -4
 1067 0002 85B0     		sub	sp, sp, #20
 1068              		.cfi_def_cfa_offset 24
 1069 0004 00AF     		add	r7, sp, #0
 1070              		.cfi_def_cfa_register 7
 1071 0006 F860     		str	r0, [r7, #12]
 1072 0008 B960     		str	r1, [r7, #8]
 1073 000a 7A60     		str	r2, [r7, #4]
 1074 000c 3B60     		str	r3, [r7]
 364:.\chain_flow/cf_runtime_functions.c ****   return CF_DISABLE;
 1075              		.loc 1 364 0
 1076 000e 0223     		movs	r3, #2
 365:.\chain_flow/cf_runtime_functions.c **** }
 1077              		.loc 1 365 0
 1078 0010 1846     		mov	r0, r3
 1079 0012 1437     		adds	r7, r7, #20
 1080              		.cfi_def_cfa_offset 4
 1081 0014 BD46     		mov	sp, r7
 1082              		.cfi_def_cfa_register 13
 1083              		@ sp needed
 1084 0016 5DF8047B 		ldr	r7, [sp], #4
 1085              		.cfi_restore 7
 1086              		.cfi_def_cfa_offset 0
 1087 001a 7047     		bx	lr
 1088              		.cfi_endproc
 1089              	.LFE78:
 1090              		.size	nop_fn, .-nop_fn
 1091              		.section	.text.change_state_fn,"ax",%progbits
 1092              		.align	2
 1093              		.global	change_state_fn
 1094              		.thumb
 1095              		.thumb_func
 1096              		.type	change_state_fn, %function
 1097              	change_state_fn:
 1098              	.LFB79:
 366:.\chain_flow/cf_runtime_functions.c ****  
 367:.\chain_flow/cf_runtime_functions.c **** 
 368:.\chain_flow/cf_runtime_functions.c ****  
 369:.\chain_flow/cf_runtime_functions.c **** int change_state_fn( unsigned link_id, CF_FUN_AUX param_1, unsigned chain_id, 
 370:.\chain_flow/cf_runtime_functions.c ****     unsigned link_index, unsigned param_4,  unsigned event, unsigned event_data)
 371:.\chain_flow/cf_runtime_functions.c **** {
 1099              		.loc 1 371 0
 1100              		.cfi_startproc
 1101              		@ args = 12, pretend = 0, frame = 16
 1102              		@ frame_needed = 1, uses_anonymous_args = 0
 1103 0000 80B5     		push	{r7, lr}
 1104              		.cfi_def_cfa_offset 8
 1105              		.cfi_offset 7, -8
 1106              		.cfi_offset 14, -4
 1107 0002 84B0     		sub	sp, sp, #16
 1108              		.cfi_def_cfa_offset 24
 1109 0004 00AF     		add	r7, sp, #0
ARM GAS  C:\Users\glenn\AppData\Local\Temp\cczp9mEB.s 			page 27


 1110              		.cfi_def_cfa_register 7
 1111 0006 F860     		str	r0, [r7, #12]
 1112 0008 B960     		str	r1, [r7, #8]
 1113 000a 7A60     		str	r2, [r7, #4]
 1114 000c 3B60     		str	r3, [r7]
 372:.\chain_flow/cf_runtime_functions.c ****    if( event == CF_INIT_EVENT )
 1115              		.loc 1 372 0
 1116 000e FB69     		ldr	r3, [r7, #28]
 1117 0010 012B     		cmp	r3, #1
 1118 0012 03D1     		bne	.L76
 373:.\chain_flow/cf_runtime_functions.c ****    {
 374:.\chain_flow/cf_runtime_functions.c ****       cf_change_state( chain_id, link_index );
 1119              		.loc 1 374 0
 1120 0014 7868     		ldr	r0, [r7, #4]
 1121 0016 3968     		ldr	r1, [r7]
 1122 0018 FFF7FEFF 		bl	cf_change_state
 1123              	.L76:
 375:.\chain_flow/cf_runtime_functions.c ****    }
 376:.\chain_flow/cf_runtime_functions.c ****    return CF_DISABLE;
 1124              		.loc 1 376 0
 1125 001c 0223     		movs	r3, #2
 377:.\chain_flow/cf_runtime_functions.c **** 
 378:.\chain_flow/cf_runtime_functions.c **** 
 379:.\chain_flow/cf_runtime_functions.c **** }
 1126              		.loc 1 379 0
 1127 001e 1846     		mov	r0, r3
 1128 0020 1037     		adds	r7, r7, #16
 1129              		.cfi_def_cfa_offset 8
 1130 0022 BD46     		mov	sp, r7
 1131              		.cfi_def_cfa_register 13
 1132              		@ sp needed
 1133 0024 80BD     		pop	{r7, pc}
 1134              		.cfi_endproc
 1135              	.LFE79:
 1136              		.size	change_state_fn, .-change_state_fn
 1137              		.section	.text.system_reset_fn,"ax",%progbits
 1138              		.align	2
 1139              		.global	system_reset_fn
 1140              		.thumb
 1141              		.thumb_func
 1142              		.type	system_reset_fn, %function
 1143              	system_reset_fn:
 1144              	.LFB80:
 380:.\chain_flow/cf_runtime_functions.c **** 
 381:.\chain_flow/cf_runtime_functions.c **** int system_reset_fn( unsigned link_id, CF_FUN_AUX param_1, unsigned param_2, 
 382:.\chain_flow/cf_runtime_functions.c ****     unsigned param_3, unsigned param_4,  unsigned event, unsigned event_data)
 383:.\chain_flow/cf_runtime_functions.c **** {
 1145              		.loc 1 383 0
 1146              		.cfi_startproc
 1147              		@ args = 12, pretend = 0, frame = 16
 1148              		@ frame_needed = 1, uses_anonymous_args = 0
 1149 0000 80B5     		push	{r7, lr}
 1150              		.cfi_def_cfa_offset 8
 1151              		.cfi_offset 7, -8
 1152              		.cfi_offset 14, -4
 1153 0002 84B0     		sub	sp, sp, #16
 1154              		.cfi_def_cfa_offset 24
ARM GAS  C:\Users\glenn\AppData\Local\Temp\cczp9mEB.s 			page 28


 1155 0004 00AF     		add	r7, sp, #0
 1156              		.cfi_def_cfa_register 7
 1157 0006 F860     		str	r0, [r7, #12]
 1158 0008 B960     		str	r1, [r7, #8]
 1159 000a 7A60     		str	r2, [r7, #4]
 1160 000c 3B60     		str	r3, [r7]
 384:.\chain_flow/cf_runtime_functions.c ****    CySoftwareReset();
 1161              		.loc 1 384 0
 1162 000e FFF7FEFF 		bl	CySoftwareReset
 385:.\chain_flow/cf_runtime_functions.c ****    return CF_DISABLE;
 1163              		.loc 1 385 0
 1164 0012 0223     		movs	r3, #2
 386:.\chain_flow/cf_runtime_functions.c **** }
 1165              		.loc 1 386 0
 1166 0014 1846     		mov	r0, r3
 1167 0016 1037     		adds	r7, r7, #16
 1168              		.cfi_def_cfa_offset 8
 1169 0018 BD46     		mov	sp, r7
 1170              		.cfi_def_cfa_register 13
 1171              		@ sp needed
 1172 001a 80BD     		pop	{r7, pc}
 1173              		.cfi_endproc
 1174              	.LFE80:
 1175              		.size	system_reset_fn, .-system_reset_fn
 1176              		.section	.text.enable_chain_fn,"ax",%progbits
 1177              		.align	2
 1178              		.global	enable_chain_fn
 1179              		.thumb
 1180              		.thumb_func
 1181              		.type	enable_chain_fn, %function
 1182              	enable_chain_fn:
 1183              	.LFB81:
 387:.\chain_flow/cf_runtime_functions.c **** 
 388:.\chain_flow/cf_runtime_functions.c **** int enable_chain_fn( unsigned link_id, CF_FUN_AUX param_1, unsigned param_2, 
 389:.\chain_flow/cf_runtime_functions.c ****     unsigned param_3, unsigned param_4,  unsigned event, unsigned event_data)
 390:.\chain_flow/cf_runtime_functions.c **** {
 1184              		.loc 1 390 0
 1185              		.cfi_startproc
 1186              		@ args = 12, pretend = 0, frame = 16
 1187              		@ frame_needed = 1, uses_anonymous_args = 0
 1188 0000 80B5     		push	{r7, lr}
 1189              		.cfi_def_cfa_offset 8
 1190              		.cfi_offset 7, -8
 1191              		.cfi_offset 14, -4
 1192 0002 84B0     		sub	sp, sp, #16
 1193              		.cfi_def_cfa_offset 24
 1194 0004 00AF     		add	r7, sp, #0
 1195              		.cfi_def_cfa_register 7
 1196 0006 F860     		str	r0, [r7, #12]
 1197 0008 B960     		str	r1, [r7, #8]
 1198 000a 7A60     		str	r2, [r7, #4]
 1199 000c 3B60     		str	r3, [r7]
 391:.\chain_flow/cf_runtime_functions.c ****    if( event == CF_INIT_EVENT )
 1200              		.loc 1 391 0
 1201 000e FB69     		ldr	r3, [r7, #28]
 1202 0010 012B     		cmp	r3, #1
 1203 0012 14D1     		bne	.L81
ARM GAS  C:\Users\glenn\AppData\Local\Temp\cczp9mEB.s 			page 29


 392:.\chain_flow/cf_runtime_functions.c ****    {
 393:.\chain_flow/cf_runtime_functions.c ****       if( param_2 != NULL_PARAMETER)
 1204              		.loc 1 393 0
 1205 0014 7B68     		ldr	r3, [r7, #4]
 1206 0016 B3F1FF3F 		cmp	r3, #-1
 1207 001a 02D0     		beq	.L82
 394:.\chain_flow/cf_runtime_functions.c ****       {
 395:.\chain_flow/cf_runtime_functions.c ****           cf_enable_chain((intptr_t)param_2);
 1208              		.loc 1 395 0
 1209 001c 7868     		ldr	r0, [r7, #4]
 1210 001e FFF7FEFF 		bl	cf_enable_chain
 1211              	.L82:
 396:.\chain_flow/cf_runtime_functions.c ****       }
 397:.\chain_flow/cf_runtime_functions.c ****       if( param_3 != NULL_PARAMETER)
 1212              		.loc 1 397 0
 1213 0022 3B68     		ldr	r3, [r7]
 1214 0024 B3F1FF3F 		cmp	r3, #-1
 1215 0028 02D0     		beq	.L83
 398:.\chain_flow/cf_runtime_functions.c ****       {
 399:.\chain_flow/cf_runtime_functions.c ****           cf_enable_chain((intptr_t)param_3);
 1216              		.loc 1 399 0
 1217 002a 3868     		ldr	r0, [r7]
 1218 002c FFF7FEFF 		bl	cf_enable_chain
 1219              	.L83:
 400:.\chain_flow/cf_runtime_functions.c ****       }
 401:.\chain_flow/cf_runtime_functions.c **** 
 402:.\chain_flow/cf_runtime_functions.c ****       if( param_4 != NULL_PARAMETER)
 1220              		.loc 1 402 0
 1221 0030 BB69     		ldr	r3, [r7, #24]
 1222 0032 B3F1FF3F 		cmp	r3, #-1
 1223 0036 02D0     		beq	.L81
 403:.\chain_flow/cf_runtime_functions.c ****       {
 404:.\chain_flow/cf_runtime_functions.c ****           cf_enable_chain((intptr_t)param_4);
 1224              		.loc 1 404 0
 1225 0038 B869     		ldr	r0, [r7, #24]
 1226 003a FFF7FEFF 		bl	cf_enable_chain
 1227              	.L81:
 405:.\chain_flow/cf_runtime_functions.c ****       }
 406:.\chain_flow/cf_runtime_functions.c **** 
 407:.\chain_flow/cf_runtime_functions.c ****    }
 408:.\chain_flow/cf_runtime_functions.c ****    return CF_DISABLE;
 1228              		.loc 1 408 0
 1229 003e 0223     		movs	r3, #2
 409:.\chain_flow/cf_runtime_functions.c **** 
 410:.\chain_flow/cf_runtime_functions.c **** }
 1230              		.loc 1 410 0
 1231 0040 1846     		mov	r0, r3
 1232 0042 1037     		adds	r7, r7, #16
 1233              		.cfi_def_cfa_offset 8
 1234 0044 BD46     		mov	sp, r7
 1235              		.cfi_def_cfa_register 13
 1236              		@ sp needed
 1237 0046 80BD     		pop	{r7, pc}
 1238              		.cfi_endproc
 1239              	.LFE81:
 1240              		.size	enable_chain_fn, .-enable_chain_fn
 1241              		.section	.text.disable_chain_fn,"ax",%progbits
ARM GAS  C:\Users\glenn\AppData\Local\Temp\cczp9mEB.s 			page 30


 1242              		.align	2
 1243              		.global	disable_chain_fn
 1244              		.thumb
 1245              		.thumb_func
 1246              		.type	disable_chain_fn, %function
 1247              	disable_chain_fn:
 1248              	.LFB82:
 411:.\chain_flow/cf_runtime_functions.c ****   
 412:.\chain_flow/cf_runtime_functions.c **** int disable_chain_fn( unsigned link_id, CF_FUN_AUX param_1, unsigned param_2, 
 413:.\chain_flow/cf_runtime_functions.c ****     unsigned param_3, unsigned param_4,  unsigned event, unsigned event_data)
 414:.\chain_flow/cf_runtime_functions.c **** {
 1249              		.loc 1 414 0
 1250              		.cfi_startproc
 1251              		@ args = 12, pretend = 0, frame = 16
 1252              		@ frame_needed = 1, uses_anonymous_args = 0
 1253 0000 80B5     		push	{r7, lr}
 1254              		.cfi_def_cfa_offset 8
 1255              		.cfi_offset 7, -8
 1256              		.cfi_offset 14, -4
 1257 0002 84B0     		sub	sp, sp, #16
 1258              		.cfi_def_cfa_offset 24
 1259 0004 00AF     		add	r7, sp, #0
 1260              		.cfi_def_cfa_register 7
 1261 0006 F860     		str	r0, [r7, #12]
 1262 0008 B960     		str	r1, [r7, #8]
 1263 000a 7A60     		str	r2, [r7, #4]
 1264 000c 3B60     		str	r3, [r7]
 415:.\chain_flow/cf_runtime_functions.c ****    if( event == CF_INIT_EVENT )
 1265              		.loc 1 415 0
 1266 000e FB69     		ldr	r3, [r7, #28]
 1267 0010 012B     		cmp	r3, #1
 1268 0012 14D1     		bne	.L86
 416:.\chain_flow/cf_runtime_functions.c ****    {
 417:.\chain_flow/cf_runtime_functions.c ****      if( param_2 != NULL_PARAMETER)
 1269              		.loc 1 417 0
 1270 0014 7B68     		ldr	r3, [r7, #4]
 1271 0016 B3F1FF3F 		cmp	r3, #-1
 1272 001a 02D0     		beq	.L87
 418:.\chain_flow/cf_runtime_functions.c ****       {
 419:.\chain_flow/cf_runtime_functions.c ****            cf_disable_chain((intptr_t)param_2);
 1273              		.loc 1 419 0
 1274 001c 7868     		ldr	r0, [r7, #4]
 1275 001e FFF7FEFF 		bl	cf_disable_chain
 1276              	.L87:
 420:.\chain_flow/cf_runtime_functions.c ****       }
 421:.\chain_flow/cf_runtime_functions.c ****       if( param_3 != NULL_PARAMETER)
 1277              		.loc 1 421 0
 1278 0022 3B68     		ldr	r3, [r7]
 1279 0024 B3F1FF3F 		cmp	r3, #-1
 1280 0028 02D0     		beq	.L88
 422:.\chain_flow/cf_runtime_functions.c ****       {
 423:.\chain_flow/cf_runtime_functions.c ****           cf_suspend_chain((intptr_t)param_3);
 1281              		.loc 1 423 0
 1282 002a 3868     		ldr	r0, [r7]
 1283 002c FFF7FEFF 		bl	cf_suspend_chain
 1284              	.L88:
 424:.\chain_flow/cf_runtime_functions.c ****       }
ARM GAS  C:\Users\glenn\AppData\Local\Temp\cczp9mEB.s 			page 31


 425:.\chain_flow/cf_runtime_functions.c **** 
 426:.\chain_flow/cf_runtime_functions.c ****       if( param_4 != NULL_PARAMETER)
 1285              		.loc 1 426 0
 1286 0030 BB69     		ldr	r3, [r7, #24]
 1287 0032 B3F1FF3F 		cmp	r3, #-1
 1288 0036 02D0     		beq	.L86
 427:.\chain_flow/cf_runtime_functions.c ****       {
 428:.\chain_flow/cf_runtime_functions.c ****           cf_suspend_chain((intptr_t)param_4);
 1289              		.loc 1 428 0
 1290 0038 B869     		ldr	r0, [r7, #24]
 1291 003a FFF7FEFF 		bl	cf_suspend_chain
 1292              	.L86:
 429:.\chain_flow/cf_runtime_functions.c ****       }
 430:.\chain_flow/cf_runtime_functions.c **** 
 431:.\chain_flow/cf_runtime_functions.c ****      
 432:.\chain_flow/cf_runtime_functions.c ****       
 433:.\chain_flow/cf_runtime_functions.c ****       
 434:.\chain_flow/cf_runtime_functions.c ****    }
 435:.\chain_flow/cf_runtime_functions.c ****    return CF_DISABLE;
 1293              		.loc 1 435 0
 1294 003e 0223     		movs	r3, #2
 436:.\chain_flow/cf_runtime_functions.c **** 
 437:.\chain_flow/cf_runtime_functions.c **** 
 438:.\chain_flow/cf_runtime_functions.c **** }
 1295              		.loc 1 438 0
 1296 0040 1846     		mov	r0, r3
 1297 0042 1037     		adds	r7, r7, #16
 1298              		.cfi_def_cfa_offset 8
 1299 0044 BD46     		mov	sp, r7
 1300              		.cfi_def_cfa_register 13
 1301              		@ sp needed
 1302 0046 80BD     		pop	{r7, pc}
 1303              		.cfi_endproc
 1304              	.LFE82:
 1305              		.size	disable_chain_fn, .-disable_chain_fn
 1306              		.section	.text.suspend_chain_fn,"ax",%progbits
 1307              		.align	2
 1308              		.global	suspend_chain_fn
 1309              		.thumb
 1310              		.thumb_func
 1311              		.type	suspend_chain_fn, %function
 1312              	suspend_chain_fn:
 1313              	.LFB83:
 439:.\chain_flow/cf_runtime_functions.c **** int suspend_chain_fn( unsigned link_id, CF_FUN_AUX param_1, unsigned param_2, 
 440:.\chain_flow/cf_runtime_functions.c ****     unsigned param_3, unsigned param_4,  unsigned event, unsigned event_data)
 441:.\chain_flow/cf_runtime_functions.c **** {
 1314              		.loc 1 441 0
 1315              		.cfi_startproc
 1316              		@ args = 12, pretend = 0, frame = 16
 1317              		@ frame_needed = 1, uses_anonymous_args = 0
 1318 0000 80B5     		push	{r7, lr}
 1319              		.cfi_def_cfa_offset 8
 1320              		.cfi_offset 7, -8
 1321              		.cfi_offset 14, -4
 1322 0002 84B0     		sub	sp, sp, #16
 1323              		.cfi_def_cfa_offset 24
 1324 0004 00AF     		add	r7, sp, #0
ARM GAS  C:\Users\glenn\AppData\Local\Temp\cczp9mEB.s 			page 32


 1325              		.cfi_def_cfa_register 7
 1326 0006 F860     		str	r0, [r7, #12]
 1327 0008 B960     		str	r1, [r7, #8]
 1328 000a 7A60     		str	r2, [r7, #4]
 1329 000c 3B60     		str	r3, [r7]
 442:.\chain_flow/cf_runtime_functions.c ****    if( event == CF_INIT_EVENT )
 1330              		.loc 1 442 0
 1331 000e FB69     		ldr	r3, [r7, #28]
 1332 0010 012B     		cmp	r3, #1
 1333 0012 08D1     		bne	.L91
 443:.\chain_flow/cf_runtime_functions.c ****    {
 444:.\chain_flow/cf_runtime_functions.c ****  
 445:.\chain_flow/cf_runtime_functions.c ****       cf_suspend_chain((intptr_t)param_2);
 1334              		.loc 1 445 0
 1335 0014 7868     		ldr	r0, [r7, #4]
 1336 0016 FFF7FEFF 		bl	cf_suspend_chain
 446:.\chain_flow/cf_runtime_functions.c ****       cf_suspend_chain((intptr_t)param_3);
 1337              		.loc 1 446 0
 1338 001a 3868     		ldr	r0, [r7]
 1339 001c FFF7FEFF 		bl	cf_suspend_chain
 447:.\chain_flow/cf_runtime_functions.c ****       cf_suspend_chain((intptr_t)param_4);
 1340              		.loc 1 447 0
 1341 0020 B869     		ldr	r0, [r7, #24]
 1342 0022 FFF7FEFF 		bl	cf_suspend_chain
 1343              	.L91:
 448:.\chain_flow/cf_runtime_functions.c ****    }
 449:.\chain_flow/cf_runtime_functions.c ****    return CF_DISABLE;
 1344              		.loc 1 449 0
 1345 0026 0223     		movs	r3, #2
 450:.\chain_flow/cf_runtime_functions.c **** }
 1346              		.loc 1 450 0
 1347 0028 1846     		mov	r0, r3
 1348 002a 1037     		adds	r7, r7, #16
 1349              		.cfi_def_cfa_offset 8
 1350 002c BD46     		mov	sp, r7
 1351              		.cfi_def_cfa_register 13
 1352              		@ sp needed
 1353 002e 80BD     		pop	{r7, pc}
 1354              		.cfi_endproc
 1355              	.LFE83:
 1356              		.size	suspend_chain_fn, .-suspend_chain_fn
 1357              		.section	.text.resume_chain_fn,"ax",%progbits
 1358              		.align	2
 1359              		.global	resume_chain_fn
 1360              		.thumb
 1361              		.thumb_func
 1362              		.type	resume_chain_fn, %function
 1363              	resume_chain_fn:
 1364              	.LFB84:
 451:.\chain_flow/cf_runtime_functions.c **** 
 452:.\chain_flow/cf_runtime_functions.c **** int resume_chain_fn( unsigned link_id, CF_FUN_AUX param_1, unsigned param_2, 
 453:.\chain_flow/cf_runtime_functions.c ****     unsigned param_3, unsigned param_4,  unsigned event, unsigned event_data)
 454:.\chain_flow/cf_runtime_functions.c **** {
 1365              		.loc 1 454 0
 1366              		.cfi_startproc
 1367              		@ args = 12, pretend = 0, frame = 16
 1368              		@ frame_needed = 1, uses_anonymous_args = 0
ARM GAS  C:\Users\glenn\AppData\Local\Temp\cczp9mEB.s 			page 33


 1369 0000 80B5     		push	{r7, lr}
 1370              		.cfi_def_cfa_offset 8
 1371              		.cfi_offset 7, -8
 1372              		.cfi_offset 14, -4
 1373 0002 84B0     		sub	sp, sp, #16
 1374              		.cfi_def_cfa_offset 24
 1375 0004 00AF     		add	r7, sp, #0
 1376              		.cfi_def_cfa_register 7
 1377 0006 F860     		str	r0, [r7, #12]
 1378 0008 B960     		str	r1, [r7, #8]
 1379 000a 7A60     		str	r2, [r7, #4]
 1380 000c 3B60     		str	r3, [r7]
 455:.\chain_flow/cf_runtime_functions.c ****    if( event == CF_INIT_EVENT )
 1381              		.loc 1 455 0
 1382 000e FB69     		ldr	r3, [r7, #28]
 1383 0010 012B     		cmp	r3, #1
 1384 0012 08D1     		bne	.L94
 456:.\chain_flow/cf_runtime_functions.c ****    {
 457:.\chain_flow/cf_runtime_functions.c ****       
 458:.\chain_flow/cf_runtime_functions.c ****       cf_resume_chain((intptr_t)param_2);
 1385              		.loc 1 458 0
 1386 0014 7868     		ldr	r0, [r7, #4]
 1387 0016 FFF7FEFF 		bl	cf_resume_chain
 459:.\chain_flow/cf_runtime_functions.c ****       cf_resume_chain((intptr_t)param_3);
 1388              		.loc 1 459 0
 1389 001a 3868     		ldr	r0, [r7]
 1390 001c FFF7FEFF 		bl	cf_resume_chain
 460:.\chain_flow/cf_runtime_functions.c ****       cf_resume_chain((intptr_t)param_4);
 1391              		.loc 1 460 0
 1392 0020 B869     		ldr	r0, [r7, #24]
 1393 0022 FFF7FEFF 		bl	cf_resume_chain
 1394              	.L94:
 461:.\chain_flow/cf_runtime_functions.c ****    }
 462:.\chain_flow/cf_runtime_functions.c ****    return CF_DISABLE;
 1395              		.loc 1 462 0
 1396 0026 0223     		movs	r3, #2
 463:.\chain_flow/cf_runtime_functions.c **** 
 464:.\chain_flow/cf_runtime_functions.c **** }
 1397              		.loc 1 464 0
 1398 0028 1846     		mov	r0, r3
 1399 002a 1037     		adds	r7, r7, #16
 1400              		.cfi_def_cfa_offset 8
 1401 002c BD46     		mov	sp, r7
 1402              		.cfi_def_cfa_register 13
 1403              		@ sp needed
 1404 002e 80BD     		pop	{r7, pc}
 1405              		.cfi_endproc
 1406              	.LFE84:
 1407              		.size	resume_chain_fn, .-resume_chain_fn
 1408              		.text
 1409              	.Letext0:
 1410              		.file 2 "c:\\program files (x86)\\cypress\\psoc creator\\3.3\\psoc creator\\import\\gnu\\arm\\4.9.
 1411              		.file 3 "c:\\program files (x86)\\cypress\\psoc creator\\3.3\\psoc creator\\import\\gnu\\arm\\4.9.
 1412              		.file 4 ".\\chain_flow\\cf_chain_flow_support.h"
 1413              		.file 5 "Generated_Source\\PSoC5/core_cm3.h"