ARM GAS  C:\Users\glenn\AppData\Local\Temp\cc8YMqik.s 			page 1


   1              		.syntax unified
   2              		.cpu cortex-m3
   3              		.fpu softvfp
   4              		.eabi_attribute 20, 1
   5              		.eabi_attribute 21, 1
   6              		.eabi_attribute 23, 3
   7              		.eabi_attribute 24, 1
   8              		.eabi_attribute 25, 1
   9              		.eabi_attribute 26, 1
  10              		.eabi_attribute 30, 6
  11              		.eabi_attribute 34, 1
  12              		.eabi_attribute 18, 4
  13              		.thumb
  14              		.file	"cyfitter_cfg.c"
  15              		.text
  16              	.Ltext0:
  17              		.cfi_sections	.debug_frame
  18              		.section	.text.CYMEMZERO,"ax",%progbits
  19              		.align	2
  20              		.thumb
  21              		.thumb_func
  22              		.type	CYMEMZERO, %function
  23              	CYMEMZERO:
  24              	.LFB0:
  25              		.file 1 ".\\Generated_Source\\PSoC5\\cyfitter_cfg.c"
   1:.\Generated_Source\PSoC5/cyfitter_cfg.c **** /*******************************************************************************
   2:.\Generated_Source\PSoC5/cyfitter_cfg.c **** * File Name: cyfitter_cfg.c
   3:.\Generated_Source\PSoC5/cyfitter_cfg.c **** * 
   4:.\Generated_Source\PSoC5/cyfitter_cfg.c **** * PSoC Creator  3.3 CP3
   5:.\Generated_Source\PSoC5/cyfitter_cfg.c **** *
   6:.\Generated_Source\PSoC5/cyfitter_cfg.c **** * Description:
   7:.\Generated_Source\PSoC5/cyfitter_cfg.c **** * This file contains device initialization code.
   8:.\Generated_Source\PSoC5/cyfitter_cfg.c **** * Except for the user defined sections in CyClockStartupError(), this file should not be modified.
   9:.\Generated_Source\PSoC5/cyfitter_cfg.c **** * This file is automatically generated by PSoC Creator.
  10:.\Generated_Source\PSoC5/cyfitter_cfg.c **** *
  11:.\Generated_Source\PSoC5/cyfitter_cfg.c **** ********************************************************************************
  12:.\Generated_Source\PSoC5/cyfitter_cfg.c **** * Copyright (c) 2007-2016 Cypress Semiconductor.  All rights reserved.
  13:.\Generated_Source\PSoC5/cyfitter_cfg.c **** * You may use this file only in accordance with the license, terms, conditions, 
  14:.\Generated_Source\PSoC5/cyfitter_cfg.c **** * disclaimers, and limitations in the end user license agreement accompanying 
  15:.\Generated_Source\PSoC5/cyfitter_cfg.c **** * the software package with which this file was provided.
  16:.\Generated_Source\PSoC5/cyfitter_cfg.c **** ********************************************************************************/
  17:.\Generated_Source\PSoC5/cyfitter_cfg.c **** 
  18:.\Generated_Source\PSoC5/cyfitter_cfg.c **** #include <string.h>
  19:.\Generated_Source\PSoC5/cyfitter_cfg.c **** #include "cytypes.h"
  20:.\Generated_Source\PSoC5/cyfitter_cfg.c **** #include "cydevice_trm.h"
  21:.\Generated_Source\PSoC5/cyfitter_cfg.c **** #include "cyfitter.h"
  22:.\Generated_Source\PSoC5/cyfitter_cfg.c **** #include "CyLib.h"
  23:.\Generated_Source\PSoC5/cyfitter_cfg.c **** #include "cyfitter_cfg.h"
  24:.\Generated_Source\PSoC5/cyfitter_cfg.c **** 
  25:.\Generated_Source\PSoC5/cyfitter_cfg.c **** #define CY_NEED_CYCLOCKSTARTUPERROR 1
  26:.\Generated_Source\PSoC5/cyfitter_cfg.c **** 
  27:.\Generated_Source\PSoC5/cyfitter_cfg.c **** 
  28:.\Generated_Source\PSoC5/cyfitter_cfg.c **** #if defined(__GNUC__) || defined(__ARMCC_VERSION)
  29:.\Generated_Source\PSoC5/cyfitter_cfg.c ****     #define CYPACKED 
  30:.\Generated_Source\PSoC5/cyfitter_cfg.c ****     #define CYPACKED_ATTR __attribute__ ((packed))
  31:.\Generated_Source\PSoC5/cyfitter_cfg.c ****     #define CYALIGNED __attribute__ ((aligned))
  32:.\Generated_Source\PSoC5/cyfitter_cfg.c ****     #define CY_CFG_UNUSED __attribute__ ((unused))
ARM GAS  C:\Users\glenn\AppData\Local\Temp\cc8YMqik.s 			page 2


  33:.\Generated_Source\PSoC5/cyfitter_cfg.c ****     #ifndef CY_CFG_SECTION
  34:.\Generated_Source\PSoC5/cyfitter_cfg.c ****         #define CY_CFG_SECTION __attribute__ ((section(".psocinit")))
  35:.\Generated_Source\PSoC5/cyfitter_cfg.c ****     #endif
  36:.\Generated_Source\PSoC5/cyfitter_cfg.c ****     
  37:.\Generated_Source\PSoC5/cyfitter_cfg.c ****     #if defined(__ARMCC_VERSION)
  38:.\Generated_Source\PSoC5/cyfitter_cfg.c ****         #define CY_CFG_MEMORY_BARRIER() __memory_changed()
  39:.\Generated_Source\PSoC5/cyfitter_cfg.c ****     #else
  40:.\Generated_Source\PSoC5/cyfitter_cfg.c ****         #define CY_CFG_MEMORY_BARRIER() __sync_synchronize()
  41:.\Generated_Source\PSoC5/cyfitter_cfg.c ****     #endif
  42:.\Generated_Source\PSoC5/cyfitter_cfg.c ****     
  43:.\Generated_Source\PSoC5/cyfitter_cfg.c **** #elif defined(__ICCARM__)
  44:.\Generated_Source\PSoC5/cyfitter_cfg.c ****     #include <intrinsics.h>
  45:.\Generated_Source\PSoC5/cyfitter_cfg.c **** 
  46:.\Generated_Source\PSoC5/cyfitter_cfg.c ****     #define CYPACKED __packed
  47:.\Generated_Source\PSoC5/cyfitter_cfg.c ****     #define CYPACKED_ATTR 
  48:.\Generated_Source\PSoC5/cyfitter_cfg.c ****     #define CYALIGNED _Pragma("data_alignment=4")
  49:.\Generated_Source\PSoC5/cyfitter_cfg.c ****     #define CY_CFG_UNUSED _Pragma("diag_suppress=Pe177")
  50:.\Generated_Source\PSoC5/cyfitter_cfg.c ****     #define CY_CFG_SECTION _Pragma("location=\".psocinit\"")
  51:.\Generated_Source\PSoC5/cyfitter_cfg.c ****     
  52:.\Generated_Source\PSoC5/cyfitter_cfg.c ****     #define CY_CFG_MEMORY_BARRIER() __DMB()
  53:.\Generated_Source\PSoC5/cyfitter_cfg.c ****     
  54:.\Generated_Source\PSoC5/cyfitter_cfg.c **** #else
  55:.\Generated_Source\PSoC5/cyfitter_cfg.c ****     #error Unsupported toolchain
  56:.\Generated_Source\PSoC5/cyfitter_cfg.c **** #endif
  57:.\Generated_Source\PSoC5/cyfitter_cfg.c **** 
  58:.\Generated_Source\PSoC5/cyfitter_cfg.c **** 
  59:.\Generated_Source\PSoC5/cyfitter_cfg.c **** CY_CFG_UNUSED
  60:.\Generated_Source\PSoC5/cyfitter_cfg.c **** static void CYMEMZERO(void *s, size_t n);
  61:.\Generated_Source\PSoC5/cyfitter_cfg.c **** CY_CFG_UNUSED
  62:.\Generated_Source\PSoC5/cyfitter_cfg.c **** static void CYMEMZERO(void *s, size_t n)
  63:.\Generated_Source\PSoC5/cyfitter_cfg.c **** {
  26              		.loc 1 63 0
  27              		.cfi_startproc
  28              		@ args = 0, pretend = 0, frame = 8
  29              		@ frame_needed = 1, uses_anonymous_args = 0
  30 0000 80B5     		push	{r7, lr}
  31              		.cfi_def_cfa_offset 8
  32              		.cfi_offset 7, -8
  33              		.cfi_offset 14, -4
  34 0002 82B0     		sub	sp, sp, #8
  35              		.cfi_def_cfa_offset 16
  36 0004 00AF     		add	r7, sp, #0
  37              		.cfi_def_cfa_register 7
  38 0006 7860     		str	r0, [r7, #4]
  39 0008 3960     		str	r1, [r7]
  64:.\Generated_Source\PSoC5/cyfitter_cfg.c **** 	(void)memset(s, 0, n);
  40              		.loc 1 64 0
  41 000a 7868     		ldr	r0, [r7, #4]
  42 000c 0021     		movs	r1, #0
  43 000e 3A68     		ldr	r2, [r7]
  44 0010 FFF7FEFF 		bl	memset
  65:.\Generated_Source\PSoC5/cyfitter_cfg.c **** }
  45              		.loc 1 65 0
  46 0014 0837     		adds	r7, r7, #8
  47              		.cfi_def_cfa_offset 8
  48 0016 BD46     		mov	sp, r7
  49              		.cfi_def_cfa_register 13
ARM GAS  C:\Users\glenn\AppData\Local\Temp\cc8YMqik.s 			page 3


  50              		@ sp needed
  51 0018 80BD     		pop	{r7, pc}
  52              		.cfi_endproc
  53              	.LFE0:
  54              		.size	CYMEMZERO, .-CYMEMZERO
  55 001a 00BF     		.section	.text.CYCONFIGCPY,"ax",%progbits
  56              		.align	2
  57              		.thumb
  58              		.thumb_func
  59              		.type	CYCONFIGCPY, %function
  60              	CYCONFIGCPY:
  61              	.LFB1:
  66:.\Generated_Source\PSoC5/cyfitter_cfg.c **** CY_CFG_UNUSED
  67:.\Generated_Source\PSoC5/cyfitter_cfg.c **** static void CYCONFIGCPY(void *dest, const void *src, size_t n);
  68:.\Generated_Source\PSoC5/cyfitter_cfg.c **** CY_CFG_UNUSED
  69:.\Generated_Source\PSoC5/cyfitter_cfg.c **** static void CYCONFIGCPY(void *dest, const void *src, size_t n)
  70:.\Generated_Source\PSoC5/cyfitter_cfg.c **** {
  62              		.loc 1 70 0
  63              		.cfi_startproc
  64              		@ args = 0, pretend = 0, frame = 16
  65              		@ frame_needed = 1, uses_anonymous_args = 0
  66 0000 80B5     		push	{r7, lr}
  67              		.cfi_def_cfa_offset 8
  68              		.cfi_offset 7, -8
  69              		.cfi_offset 14, -4
  70 0002 84B0     		sub	sp, sp, #16
  71              		.cfi_def_cfa_offset 24
  72 0004 00AF     		add	r7, sp, #0
  73              		.cfi_def_cfa_register 7
  74 0006 F860     		str	r0, [r7, #12]
  75 0008 B960     		str	r1, [r7, #8]
  76 000a 7A60     		str	r2, [r7, #4]
  71:.\Generated_Source\PSoC5/cyfitter_cfg.c **** 	(void)memcpy(dest, src, n);
  77              		.loc 1 71 0
  78 000c F868     		ldr	r0, [r7, #12]
  79 000e B968     		ldr	r1, [r7, #8]
  80 0010 7A68     		ldr	r2, [r7, #4]
  81 0012 FFF7FEFF 		bl	memcpy
  72:.\Generated_Source\PSoC5/cyfitter_cfg.c **** }
  82              		.loc 1 72 0
  83 0016 1037     		adds	r7, r7, #16
  84              		.cfi_def_cfa_offset 8
  85 0018 BD46     		mov	sp, r7
  86              		.cfi_def_cfa_register 13
  87              		@ sp needed
  88 001a 80BD     		pop	{r7, pc}
  89              		.cfi_endproc
  90              	.LFE1:
  91              		.size	CYCONFIGCPY, .-CYCONFIGCPY
  92              		.section	.text.CYCONFIGCPYCODE,"ax",%progbits
  93              		.align	2
  94              		.thumb
  95              		.thumb_func
  96              		.type	CYCONFIGCPYCODE, %function
  97              	CYCONFIGCPYCODE:
  98              	.LFB2:
  73:.\Generated_Source\PSoC5/cyfitter_cfg.c **** CY_CFG_UNUSED
ARM GAS  C:\Users\glenn\AppData\Local\Temp\cc8YMqik.s 			page 4


  74:.\Generated_Source\PSoC5/cyfitter_cfg.c **** static void CYCONFIGCPYCODE(void *dest, const void *src, size_t n);
  75:.\Generated_Source\PSoC5/cyfitter_cfg.c **** CY_CFG_UNUSED
  76:.\Generated_Source\PSoC5/cyfitter_cfg.c **** static void CYCONFIGCPYCODE(void *dest, const void *src, size_t n)
  77:.\Generated_Source\PSoC5/cyfitter_cfg.c **** {
  99              		.loc 1 77 0
 100              		.cfi_startproc
 101              		@ args = 0, pretend = 0, frame = 16
 102              		@ frame_needed = 1, uses_anonymous_args = 0
 103 0000 80B5     		push	{r7, lr}
 104              		.cfi_def_cfa_offset 8
 105              		.cfi_offset 7, -8
 106              		.cfi_offset 14, -4
 107 0002 84B0     		sub	sp, sp, #16
 108              		.cfi_def_cfa_offset 24
 109 0004 00AF     		add	r7, sp, #0
 110              		.cfi_def_cfa_register 7
 111 0006 F860     		str	r0, [r7, #12]
 112 0008 B960     		str	r1, [r7, #8]
 113 000a 7A60     		str	r2, [r7, #4]
  78:.\Generated_Source\PSoC5/cyfitter_cfg.c **** 	(void)memcpy(dest, src, n);
 114              		.loc 1 78 0
 115 000c F868     		ldr	r0, [r7, #12]
 116 000e B968     		ldr	r1, [r7, #8]
 117 0010 7A68     		ldr	r2, [r7, #4]
 118 0012 FFF7FEFF 		bl	memcpy
  79:.\Generated_Source\PSoC5/cyfitter_cfg.c **** }
 119              		.loc 1 79 0
 120 0016 1037     		adds	r7, r7, #16
 121              		.cfi_def_cfa_offset 8
 122 0018 BD46     		mov	sp, r7
 123              		.cfi_def_cfa_register 13
 124              		@ sp needed
 125 001a 80BD     		pop	{r7, pc}
 126              		.cfi_endproc
 127              	.LFE2:
 128              		.size	CYCONFIGCPYCODE, .-CYCONFIGCPYCODE
 129              		.section	.text.CyClockStartupError,"ax",%progbits
 130              		.align	2
 131              		.thumb
 132              		.thumb_func
 133              		.type	CyClockStartupError, %function
 134              	CyClockStartupError:
 135              	.LFB3:
  80:.\Generated_Source\PSoC5/cyfitter_cfg.c **** 
  81:.\Generated_Source\PSoC5/cyfitter_cfg.c **** 
  82:.\Generated_Source\PSoC5/cyfitter_cfg.c **** 
  83:.\Generated_Source\PSoC5/cyfitter_cfg.c **** /* Clock startup error codes                                                   */
  84:.\Generated_Source\PSoC5/cyfitter_cfg.c **** #define CYCLOCKSTART_NO_ERROR    0u
  85:.\Generated_Source\PSoC5/cyfitter_cfg.c **** #define CYCLOCKSTART_XTAL_ERROR  1u
  86:.\Generated_Source\PSoC5/cyfitter_cfg.c **** #define CYCLOCKSTART_32KHZ_ERROR 2u
  87:.\Generated_Source\PSoC5/cyfitter_cfg.c **** #define CYCLOCKSTART_PLL_ERROR   3u
  88:.\Generated_Source\PSoC5/cyfitter_cfg.c **** 
  89:.\Generated_Source\PSoC5/cyfitter_cfg.c **** #ifdef CY_NEED_CYCLOCKSTARTUPERROR
  90:.\Generated_Source\PSoC5/cyfitter_cfg.c **** /*******************************************************************************
  91:.\Generated_Source\PSoC5/cyfitter_cfg.c **** * Function Name: CyClockStartupError
  92:.\Generated_Source\PSoC5/cyfitter_cfg.c **** ********************************************************************************
  93:.\Generated_Source\PSoC5/cyfitter_cfg.c **** * Summary:
ARM GAS  C:\Users\glenn\AppData\Local\Temp\cc8YMqik.s 			page 5


  94:.\Generated_Source\PSoC5/cyfitter_cfg.c **** *  If an error is encountered during clock configuration (crystal startup error,
  95:.\Generated_Source\PSoC5/cyfitter_cfg.c **** *  PLL lock error, etc.), the system will end up here.  Unless reimplemented by
  96:.\Generated_Source\PSoC5/cyfitter_cfg.c **** *  the customer, this function will stop in an infinite loop.
  97:.\Generated_Source\PSoC5/cyfitter_cfg.c **** *
  98:.\Generated_Source\PSoC5/cyfitter_cfg.c **** * Parameters:
  99:.\Generated_Source\PSoC5/cyfitter_cfg.c **** *   void
 100:.\Generated_Source\PSoC5/cyfitter_cfg.c **** *
 101:.\Generated_Source\PSoC5/cyfitter_cfg.c **** * Return:
 102:.\Generated_Source\PSoC5/cyfitter_cfg.c **** *   void
 103:.\Generated_Source\PSoC5/cyfitter_cfg.c **** *
 104:.\Generated_Source\PSoC5/cyfitter_cfg.c **** *******************************************************************************/
 105:.\Generated_Source\PSoC5/cyfitter_cfg.c **** CY_CFG_UNUSED
 106:.\Generated_Source\PSoC5/cyfitter_cfg.c **** static void CyClockStartupError(uint8 errorCode);
 107:.\Generated_Source\PSoC5/cyfitter_cfg.c **** CY_CFG_UNUSED
 108:.\Generated_Source\PSoC5/cyfitter_cfg.c **** static void CyClockStartupError(uint8 errorCode)
 109:.\Generated_Source\PSoC5/cyfitter_cfg.c **** {
 136              		.loc 1 109 0
 137              		.cfi_startproc
 138              		@ args = 0, pretend = 0, frame = 8
 139              		@ frame_needed = 1, uses_anonymous_args = 0
 140              		@ link register save eliminated.
 141 0000 80B4     		push	{r7}
 142              		.cfi_def_cfa_offset 4
 143              		.cfi_offset 7, -4
 144 0002 83B0     		sub	sp, sp, #12
 145              		.cfi_def_cfa_offset 16
 146 0004 00AF     		add	r7, sp, #0
 147              		.cfi_def_cfa_register 7
 148 0006 0346     		mov	r3, r0
 149 0008 FB71     		strb	r3, [r7, #7]
 150              	.L5:
 110:.\Generated_Source\PSoC5/cyfitter_cfg.c ****     /* To remove the compiler warning if errorCode not used.                */
 111:.\Generated_Source\PSoC5/cyfitter_cfg.c ****     errorCode = errorCode;
 112:.\Generated_Source\PSoC5/cyfitter_cfg.c **** 
 113:.\Generated_Source\PSoC5/cyfitter_cfg.c ****     /* `#START CyClockStartupError` */
 114:.\Generated_Source\PSoC5/cyfitter_cfg.c **** 
 115:.\Generated_Source\PSoC5/cyfitter_cfg.c ****     /* If we have a clock startup error (bad MHz crystal, PLL lock, etc.),  */
 116:.\Generated_Source\PSoC5/cyfitter_cfg.c ****     /* we will end up here to allow the customer to implement something to  */
 117:.\Generated_Source\PSoC5/cyfitter_cfg.c ****     /* deal with the clock condition.                                       */
 118:.\Generated_Source\PSoC5/cyfitter_cfg.c **** 
 119:.\Generated_Source\PSoC5/cyfitter_cfg.c ****     /* `#END` */
 120:.\Generated_Source\PSoC5/cyfitter_cfg.c **** 
 121:.\Generated_Source\PSoC5/cyfitter_cfg.c ****     /* If nothing else, stop here since the clocks have not started         */
 122:.\Generated_Source\PSoC5/cyfitter_cfg.c ****     /* correctly.                                                           */
 123:.\Generated_Source\PSoC5/cyfitter_cfg.c ****     while(1) {}
 151              		.loc 1 123 0 discriminator 1
 152 000a FEE7     		b	.L5
 153              		.cfi_endproc
 154              	.LFE3:
 155              		.size	CyClockStartupError, .-CyClockStartupError
 156              		.section	.text.cfg_write_bytes32,"ax",%progbits
 157              		.align	2
 158              		.thumb
 159              		.thumb_func
 160              		.type	cfg_write_bytes32, %function
 161              	cfg_write_bytes32:
 162              	.LFB4:
ARM GAS  C:\Users\glenn\AppData\Local\Temp\cc8YMqik.s 			page 6


 124:.\Generated_Source\PSoC5/cyfitter_cfg.c **** }
 125:.\Generated_Source\PSoC5/cyfitter_cfg.c **** #endif
 126:.\Generated_Source\PSoC5/cyfitter_cfg.c **** 
 127:.\Generated_Source\PSoC5/cyfitter_cfg.c **** #define CY_CFG_BASE_ADDR_COUNT 39u
 128:.\Generated_Source\PSoC5/cyfitter_cfg.c **** CYPACKED typedef struct
 129:.\Generated_Source\PSoC5/cyfitter_cfg.c **** {
 130:.\Generated_Source\PSoC5/cyfitter_cfg.c **** 	uint8 offset;
 131:.\Generated_Source\PSoC5/cyfitter_cfg.c **** 	uint8 value;
 132:.\Generated_Source\PSoC5/cyfitter_cfg.c **** } CYPACKED_ATTR cy_cfg_addrvalue_t;
 133:.\Generated_Source\PSoC5/cyfitter_cfg.c **** 
 134:.\Generated_Source\PSoC5/cyfitter_cfg.c **** 
 135:.\Generated_Source\PSoC5/cyfitter_cfg.c **** 
 136:.\Generated_Source\PSoC5/cyfitter_cfg.c **** /*******************************************************************************
 137:.\Generated_Source\PSoC5/cyfitter_cfg.c **** * Function Name: cfg_write_bytes32
 138:.\Generated_Source\PSoC5/cyfitter_cfg.c **** ********************************************************************************
 139:.\Generated_Source\PSoC5/cyfitter_cfg.c **** * Summary:
 140:.\Generated_Source\PSoC5/cyfitter_cfg.c **** *  This function is used for setting up the chip configuration areas that
 141:.\Generated_Source\PSoC5/cyfitter_cfg.c **** *  contain relatively sparse data.
 142:.\Generated_Source\PSoC5/cyfitter_cfg.c **** *
 143:.\Generated_Source\PSoC5/cyfitter_cfg.c **** * Parameters:
 144:.\Generated_Source\PSoC5/cyfitter_cfg.c **** *   void
 145:.\Generated_Source\PSoC5/cyfitter_cfg.c **** *
 146:.\Generated_Source\PSoC5/cyfitter_cfg.c **** * Return:
 147:.\Generated_Source\PSoC5/cyfitter_cfg.c **** *   void
 148:.\Generated_Source\PSoC5/cyfitter_cfg.c **** *
 149:.\Generated_Source\PSoC5/cyfitter_cfg.c **** *******************************************************************************/
 150:.\Generated_Source\PSoC5/cyfitter_cfg.c **** static void cfg_write_bytes32(const uint32 addr_table[], const cy_cfg_addrvalue_t data_table[]);
 151:.\Generated_Source\PSoC5/cyfitter_cfg.c **** static void cfg_write_bytes32(const uint32 addr_table[], const cy_cfg_addrvalue_t data_table[])
 152:.\Generated_Source\PSoC5/cyfitter_cfg.c **** {
 163              		.loc 1 152 0
 164              		.cfi_startproc
 165              		@ args = 0, pretend = 0, frame = 24
 166              		@ frame_needed = 1, uses_anonymous_args = 0
 167              		@ link register save eliminated.
 168 0000 80B4     		push	{r7}
 169              		.cfi_def_cfa_offset 4
 170              		.cfi_offset 7, -4
 171 0002 87B0     		sub	sp, sp, #28
 172              		.cfi_def_cfa_offset 32
 173 0004 00AF     		add	r7, sp, #0
 174              		.cfi_def_cfa_register 7
 175 0006 7860     		str	r0, [r7, #4]
 176 0008 3960     		str	r1, [r7]
 153:.\Generated_Source\PSoC5/cyfitter_cfg.c **** 	/* For 32-bit little-endian architectures */
 154:.\Generated_Source\PSoC5/cyfitter_cfg.c **** 	uint32 i, j = 0u;
 177              		.loc 1 154 0
 178 000a 0023     		movs	r3, #0
 179 000c 3B61     		str	r3, [r7, #16]
 155:.\Generated_Source\PSoC5/cyfitter_cfg.c **** 	for (i = 0u; i < CY_CFG_BASE_ADDR_COUNT; i++)
 180              		.loc 1 155 0
 181 000e 0023     		movs	r3, #0
 182 0010 7B61     		str	r3, [r7, #20]
 183 0012 27E0     		b	.L7
 184              	.L10:
 185              	.LBB2:
 156:.\Generated_Source\PSoC5/cyfitter_cfg.c **** 	{
 157:.\Generated_Source\PSoC5/cyfitter_cfg.c **** 		uint32 baseAddr = addr_table[i];
ARM GAS  C:\Users\glenn\AppData\Local\Temp\cc8YMqik.s 			page 7


 186              		.loc 1 157 0
 187 0014 7B69     		ldr	r3, [r7, #20]
 188 0016 9B00     		lsls	r3, r3, #2
 189 0018 7A68     		ldr	r2, [r7, #4]
 190 001a 1344     		add	r3, r3, r2
 191 001c 1B68     		ldr	r3, [r3]
 192 001e BB60     		str	r3, [r7, #8]
 158:.\Generated_Source\PSoC5/cyfitter_cfg.c **** 		uint8 count = (uint8)baseAddr;
 193              		.loc 1 158 0
 194 0020 BB68     		ldr	r3, [r7, #8]
 195 0022 FB73     		strb	r3, [r7, #15]
 159:.\Generated_Source\PSoC5/cyfitter_cfg.c **** 		baseAddr &= 0xFFFFFF00u;
 196              		.loc 1 159 0
 197 0024 BB68     		ldr	r3, [r7, #8]
 198 0026 23F0FF03 		bic	r3, r3, #255
 199 002a BB60     		str	r3, [r7, #8]
 160:.\Generated_Source\PSoC5/cyfitter_cfg.c **** 		while (count != 0u)
 200              		.loc 1 160 0
 201 002c 14E0     		b	.L8
 202              	.L9:
 161:.\Generated_Source\PSoC5/cyfitter_cfg.c **** 		{
 162:.\Generated_Source\PSoC5/cyfitter_cfg.c **** 			CY_SET_XTND_REG8((void CYFAR *)(baseAddr + data_table[j].offset), data_table[j].value);
 203              		.loc 1 162 0
 204 002e 3B69     		ldr	r3, [r7, #16]
 205 0030 5B00     		lsls	r3, r3, #1
 206 0032 3A68     		ldr	r2, [r7]
 207 0034 1344     		add	r3, r3, r2
 208 0036 1B78     		ldrb	r3, [r3]	@ zero_extendqisi2
 209 0038 1A46     		mov	r2, r3
 210 003a BB68     		ldr	r3, [r7, #8]
 211 003c 1344     		add	r3, r3, r2
 212 003e 1946     		mov	r1, r3
 213 0040 3B69     		ldr	r3, [r7, #16]
 214 0042 5B00     		lsls	r3, r3, #1
 215 0044 3A68     		ldr	r2, [r7]
 216 0046 1344     		add	r3, r3, r2
 217 0048 5B78     		ldrb	r3, [r3, #1]	@ zero_extendqisi2
 218 004a 0B70     		strb	r3, [r1]
 163:.\Generated_Source\PSoC5/cyfitter_cfg.c **** 			j++;
 219              		.loc 1 163 0
 220 004c 3B69     		ldr	r3, [r7, #16]
 221 004e 0133     		adds	r3, r3, #1
 222 0050 3B61     		str	r3, [r7, #16]
 164:.\Generated_Source\PSoC5/cyfitter_cfg.c **** 			count--;
 223              		.loc 1 164 0
 224 0052 FB7B     		ldrb	r3, [r7, #15]	@ zero_extendqisi2
 225 0054 013B     		subs	r3, r3, #1
 226 0056 FB73     		strb	r3, [r7, #15]
 227              	.L8:
 160:.\Generated_Source\PSoC5/cyfitter_cfg.c **** 		{
 228              		.loc 1 160 0
 229 0058 FB7B     		ldrb	r3, [r7, #15]	@ zero_extendqisi2
 230 005a 002B     		cmp	r3, #0
 231 005c E7D1     		bne	.L9
 232              	.LBE2:
 155:.\Generated_Source\PSoC5/cyfitter_cfg.c **** 	{
 233              		.loc 1 155 0 discriminator 2
ARM GAS  C:\Users\glenn\AppData\Local\Temp\cc8YMqik.s 			page 8


 234 005e 7B69     		ldr	r3, [r7, #20]
 235 0060 0133     		adds	r3, r3, #1
 236 0062 7B61     		str	r3, [r7, #20]
 237              	.L7:
 155:.\Generated_Source\PSoC5/cyfitter_cfg.c **** 	{
 238              		.loc 1 155 0 is_stmt 0 discriminator 1
 239 0064 7B69     		ldr	r3, [r7, #20]
 240 0066 262B     		cmp	r3, #38
 241 0068 D4D9     		bls	.L10
 165:.\Generated_Source\PSoC5/cyfitter_cfg.c **** 		}
 166:.\Generated_Source\PSoC5/cyfitter_cfg.c **** 	}
 167:.\Generated_Source\PSoC5/cyfitter_cfg.c **** }
 242              		.loc 1 167 0 is_stmt 1
 243 006a 1C37     		adds	r7, r7, #28
 244              		.cfi_def_cfa_offset 4
 245 006c BD46     		mov	sp, r7
 246              		.cfi_def_cfa_register 13
 247              		@ sp needed
 248 006e 5DF8047B 		ldr	r7, [sp], #4
 249              		.cfi_restore 7
 250              		.cfi_def_cfa_offset 0
 251 0072 7047     		bx	lr
 252              		.cfi_endproc
 253              	.LFE4:
 254              		.size	cfg_write_bytes32, .-cfg_write_bytes32
 255              		.section	.text.ClockSetup,"ax",%progbits
 256              		.align	2
 257              		.thumb
 258              		.thumb_func
 259              		.type	ClockSetup, %function
 260              	ClockSetup:
 261              	.LFB5:
 168:.\Generated_Source\PSoC5/cyfitter_cfg.c **** 
 169:.\Generated_Source\PSoC5/cyfitter_cfg.c **** /*******************************************************************************
 170:.\Generated_Source\PSoC5/cyfitter_cfg.c **** * Function Name: ClockSetup
 171:.\Generated_Source\PSoC5/cyfitter_cfg.c **** ********************************************************************************
 172:.\Generated_Source\PSoC5/cyfitter_cfg.c **** *
 173:.\Generated_Source\PSoC5/cyfitter_cfg.c **** * Summary:
 174:.\Generated_Source\PSoC5/cyfitter_cfg.c **** *  Performs the initialization of all of the clocks in the device based on the
 175:.\Generated_Source\PSoC5/cyfitter_cfg.c **** *  settings in the Clock tab of the DWR.  This includes enabling the requested
 176:.\Generated_Source\PSoC5/cyfitter_cfg.c **** *  clocks and setting the necessary dividers to produce the desired frequency. 
 177:.\Generated_Source\PSoC5/cyfitter_cfg.c **** *
 178:.\Generated_Source\PSoC5/cyfitter_cfg.c **** * Parameters:
 179:.\Generated_Source\PSoC5/cyfitter_cfg.c **** *  void
 180:.\Generated_Source\PSoC5/cyfitter_cfg.c **** *
 181:.\Generated_Source\PSoC5/cyfitter_cfg.c **** * Return:
 182:.\Generated_Source\PSoC5/cyfitter_cfg.c **** *  void
 183:.\Generated_Source\PSoC5/cyfitter_cfg.c **** *
 184:.\Generated_Source\PSoC5/cyfitter_cfg.c **** *******************************************************************************/
 185:.\Generated_Source\PSoC5/cyfitter_cfg.c **** static void ClockSetup(void);
 186:.\Generated_Source\PSoC5/cyfitter_cfg.c **** static void ClockSetup(void)
 187:.\Generated_Source\PSoC5/cyfitter_cfg.c **** {
 262              		.loc 1 187 0
 263              		.cfi_startproc
 264              		@ args = 0, pretend = 0, frame = 8
 265              		@ frame_needed = 1, uses_anonymous_args = 0
 266 0000 80B5     		push	{r7, lr}
ARM GAS  C:\Users\glenn\AppData\Local\Temp\cc8YMqik.s 			page 9


 267              		.cfi_def_cfa_offset 8
 268              		.cfi_offset 7, -8
 269              		.cfi_offset 14, -4
 270 0002 82B0     		sub	sp, sp, #8
 271              		.cfi_def_cfa_offset 16
 272 0004 00AF     		add	r7, sp, #0
 273              		.cfi_def_cfa_register 7
 188:.\Generated_Source\PSoC5/cyfitter_cfg.c **** 	/* CYDEV_CLKDIST_ACFG0_CFG0 Address: CYREG_CLKDIST_ACFG0_CFG0 Size (bytes): 4 */
 189:.\Generated_Source\PSoC5/cyfitter_cfg.c **** 	static const uint8 CYCODE BS_CYDEV_CLKDIST_ACFG0_CFG0_VAL[] = {
 190:.\Generated_Source\PSoC5/cyfitter_cfg.c **** 		0x14u, 0x00u, 0x18u, 0x01u};
 191:.\Generated_Source\PSoC5/cyfitter_cfg.c **** 
 192:.\Generated_Source\PSoC5/cyfitter_cfg.c **** 	uint8 x32TrHold;
 193:.\Generated_Source\PSoC5/cyfitter_cfg.c **** 	uint32 timeout;
 194:.\Generated_Source\PSoC5/cyfitter_cfg.c **** 	uint8 pllLock;
 195:.\Generated_Source\PSoC5/cyfitter_cfg.c **** 
 196:.\Generated_Source\PSoC5/cyfitter_cfg.c **** 	x32TrHold = CY_GET_XTND_REG8((void CYFAR *)CYREG_X32_TR);
 274              		.loc 1 196 0
 275 0006 5F4B     		ldr	r3, .L19
 276 0008 1B78     		ldrb	r3, [r3]
 277 000a BB70     		strb	r3, [r7, #2]
 197:.\Generated_Source\PSoC5/cyfitter_cfg.c **** 
 198:.\Generated_Source\PSoC5/cyfitter_cfg.c **** 	/* Configure Digital Clocks based on settings from Clock DWR */
 199:.\Generated_Source\PSoC5/cyfitter_cfg.c **** 	CY_SET_XTND_REG16((void CYFAR *)(CYREG_CLKDIST_DCFG0_CFG0), 0x0000u);
 278              		.loc 1 199 0
 279 000c 5E4B     		ldr	r3, .L19+4
 280 000e 0022     		movs	r2, #0
 281 0010 1A80     		strh	r2, [r3]	@ movhi
 200:.\Generated_Source\PSoC5/cyfitter_cfg.c **** 	CY_SET_XTND_REG8((void CYFAR *)(CYREG_CLKDIST_DCFG0_CFG0 + 0x2u), 0x50u);
 282              		.loc 1 200 0
 283 0012 5E4B     		ldr	r3, .L19+8
 284 0014 5022     		movs	r2, #80
 285 0016 1A70     		strb	r2, [r3]
 201:.\Generated_Source\PSoC5/cyfitter_cfg.c **** 	CY_SET_XTND_REG16((void CYFAR *)(CYREG_CLKDIST_DCFG1_CFG0), 0x0027u);
 286              		.loc 1 201 0
 287 0018 5D4B     		ldr	r3, .L19+12
 288 001a 2722     		movs	r2, #39
 289 001c 1A80     		strh	r2, [r3]	@ movhi
 202:.\Generated_Source\PSoC5/cyfitter_cfg.c **** 	CY_SET_XTND_REG8((void CYFAR *)(CYREG_CLKDIST_DCFG1_CFG0 + 0x2u), 0x18u);
 290              		.loc 1 202 0
 291 001e 5D4B     		ldr	r3, .L19+16
 292 0020 1822     		movs	r2, #24
 293 0022 1A70     		strb	r2, [r3]
 203:.\Generated_Source\PSoC5/cyfitter_cfg.c **** 	CY_SET_XTND_REG16((void CYFAR *)(CYREG_CLKDIST_DCFG2_CFG0), 0x004Du);
 294              		.loc 1 203 0
 295 0024 5C4B     		ldr	r3, .L19+20
 296 0026 4D22     		movs	r2, #77
 297 0028 1A80     		strh	r2, [r3]	@ movhi
 204:.\Generated_Source\PSoC5/cyfitter_cfg.c **** 	CY_SET_XTND_REG8((void CYFAR *)(CYREG_CLKDIST_DCFG2_CFG0 + 0x2u), 0x19u);
 298              		.loc 1 204 0
 299 002a 5C4B     		ldr	r3, .L19+24
 300 002c 1922     		movs	r2, #25
 301 002e 1A70     		strb	r2, [r3]
 205:.\Generated_Source\PSoC5/cyfitter_cfg.c **** 	CY_SET_XTND_REG16((void CYFAR *)(CYREG_CLKDIST_DCFG3_CFG0), 0x5DBFu);
 302              		.loc 1 205 0
 303 0030 5B4B     		ldr	r3, .L19+28
 304 0032 45F6BF52 		movw	r2, #23999
 305 0036 1A80     		strh	r2, [r3]	@ movhi
ARM GAS  C:\Users\glenn\AppData\Local\Temp\cc8YMqik.s 			page 10


 206:.\Generated_Source\PSoC5/cyfitter_cfg.c **** 	CY_SET_XTND_REG8((void CYFAR *)(CYREG_CLKDIST_DCFG3_CFG0 + 0x2u), 0x19u);
 306              		.loc 1 206 0
 307 0038 5A4B     		ldr	r3, .L19+32
 308 003a 1922     		movs	r2, #25
 309 003c 1A70     		strb	r2, [r3]
 207:.\Generated_Source\PSoC5/cyfitter_cfg.c **** 	CY_SET_XTND_REG16((void CYFAR *)(CYREG_CLKDIST_DCFG4_CFG0), 0x0221u);
 310              		.loc 1 207 0
 311 003e 5A4B     		ldr	r3, .L19+36
 312 0040 40F22122 		movw	r2, #545
 313 0044 1A80     		strh	r2, [r3]	@ movhi
 208:.\Generated_Source\PSoC5/cyfitter_cfg.c **** 	CY_SET_XTND_REG8((void CYFAR *)(CYREG_CLKDIST_DCFG4_CFG0 + 0x2u), 0x1Du);
 314              		.loc 1 208 0
 315 0046 594B     		ldr	r3, .L19+40
 316 0048 1D22     		movs	r2, #29
 317 004a 1A70     		strb	r2, [r3]
 209:.\Generated_Source\PSoC5/cyfitter_cfg.c **** 	CY_SET_XTND_REG16((void CYFAR *)(CYREG_CLKDIST_DCFG5_CFG0), 0x028Eu);
 318              		.loc 1 209 0
 319 004c 584B     		ldr	r3, .L19+44
 320 004e 40F28E22 		movw	r2, #654
 321 0052 1A80     		strh	r2, [r3]	@ movhi
 210:.\Generated_Source\PSoC5/cyfitter_cfg.c **** 	CY_SET_XTND_REG8((void CYFAR *)(CYREG_CLKDIST_DCFG5_CFG0 + 0x2u), 0x1Du);
 322              		.loc 1 210 0
 323 0054 574B     		ldr	r3, .L19+48
 324 0056 1D22     		movs	r2, #29
 325 0058 1A70     		strb	r2, [r3]
 211:.\Generated_Source\PSoC5/cyfitter_cfg.c **** 
 212:.\Generated_Source\PSoC5/cyfitter_cfg.c **** 	/* Configure Analog Clocks based on settings from Clock DWR */
 213:.\Generated_Source\PSoC5/cyfitter_cfg.c **** 	CYCONFIGCPYCODE((void CYFAR *)(CYREG_CLKDIST_ACFG0_CFG0), (const void CYCODE *)(BS_CYDEV_CLKDIST_A
 326              		.loc 1 213 0
 327 005a 5748     		ldr	r0, .L19+52
 328 005c 5749     		ldr	r1, .L19+56
 329 005e 0422     		movs	r2, #4
 330 0060 FFF7FEFF 		bl	CYCONFIGCPYCODE
 214:.\Generated_Source\PSoC5/cyfitter_cfg.c **** 
 215:.\Generated_Source\PSoC5/cyfitter_cfg.c **** 	/* Configure ILO based on settings from Clock DWR */
 216:.\Generated_Source\PSoC5/cyfitter_cfg.c **** 	CY_SET_XTND_REG8((void CYFAR *)(CYREG_SLOWCLK_ILO_CR0), 0x06u);
 331              		.loc 1 216 0
 332 0064 564B     		ldr	r3, .L19+60
 333 0066 0622     		movs	r2, #6
 334 0068 1A70     		strb	r2, [r3]
 217:.\Generated_Source\PSoC5/cyfitter_cfg.c **** 
 218:.\Generated_Source\PSoC5/cyfitter_cfg.c **** 	/* Configure XTAL 32kHz based on settings from Clock DWR */
 219:.\Generated_Source\PSoC5/cyfitter_cfg.c **** 	CY_SET_XTND_REG8((void CYFAR *)(CYREG_SLOWCLK_X32_TST), 0xF3u);
 335              		.loc 1 219 0
 336 006a 564B     		ldr	r3, .L19+64
 337 006c F322     		movs	r2, #243
 338 006e 1A70     		strb	r2, [r3]
 220:.\Generated_Source\PSoC5/cyfitter_cfg.c **** 	CY_SET_XTND_REG8((void CYFAR *)(CYREG_X32_TR), 0x03u);
 339              		.loc 1 220 0
 340 0070 444B     		ldr	r3, .L19
 341 0072 0322     		movs	r2, #3
 342 0074 1A70     		strb	r2, [r3]
 221:.\Generated_Source\PSoC5/cyfitter_cfg.c **** 	CY_SET_XTND_REG8((void CYFAR *)(CYREG_SLOWCLK_X32_CFG), 0x84u);
 343              		.loc 1 221 0
 344 0076 544B     		ldr	r3, .L19+68
 345 0078 8422     		movs	r2, #132
 346 007a 1A70     		strb	r2, [r3]
ARM GAS  C:\Users\glenn\AppData\Local\Temp\cc8YMqik.s 			page 11


 222:.\Generated_Source\PSoC5/cyfitter_cfg.c **** 	CY_SET_XTND_REG8((void CYFAR *)(CYREG_SLOWCLK_X32_CR), 0x05u);
 347              		.loc 1 222 0
 348 007c 534B     		ldr	r3, .L19+72
 349 007e 0522     		movs	r2, #5
 350 0080 1A70     		strb	r2, [r3]
 223:.\Generated_Source\PSoC5/cyfitter_cfg.c **** 	/* Wait up to 1000000us for the XTAL 32kHz to lock */
 224:.\Generated_Source\PSoC5/cyfitter_cfg.c **** 	for (timeout = 1000000u / 10u; (timeout > 0u) && ((CY_GET_XTND_REG8((void CYFAR *)CYREG_SLOWCLK_X3
 351              		.loc 1 224 0
 352 0082 534B     		ldr	r3, .L19+76
 353 0084 7B60     		str	r3, [r7, #4]
 354 0086 06E0     		b	.L12
 355              	.L14:
 225:.\Generated_Source\PSoC5/cyfitter_cfg.c **** 	{ 
 226:.\Generated_Source\PSoC5/cyfitter_cfg.c **** 		
 227:.\Generated_Source\PSoC5/cyfitter_cfg.c **** 		CyDelayCycles(10u * 48u); /* Delay 10us based on 48MHz clock */
 356              		.loc 1 227 0 discriminator 4
 357 0088 4FF4F070 		mov	r0, #480
 358 008c FFF7FEFF 		bl	CyDelayCycles
 224:.\Generated_Source\PSoC5/cyfitter_cfg.c **** 	{ 
 359              		.loc 1 224 0 discriminator 4
 360 0090 7B68     		ldr	r3, [r7, #4]
 361 0092 013B     		subs	r3, r3, #1
 362 0094 7B60     		str	r3, [r7, #4]
 363              	.L12:
 224:.\Generated_Source\PSoC5/cyfitter_cfg.c **** 	{ 
 364              		.loc 1 224 0 is_stmt 0 discriminator 1
 365 0096 7B68     		ldr	r3, [r7, #4]
 366 0098 002B     		cmp	r3, #0
 367 009a 06D0     		beq	.L13
 224:.\Generated_Source\PSoC5/cyfitter_cfg.c **** 	{ 
 368              		.loc 1 224 0 discriminator 3
 369 009c 4B4B     		ldr	r3, .L19+72
 370 009e 1B78     		ldrb	r3, [r3]
 371 00a0 DBB2     		uxtb	r3, r3
 372 00a2 03F02003 		and	r3, r3, #32
 373 00a6 002B     		cmp	r3, #0
 374 00a8 EED0     		beq	.L14
 375              	.L13:
 228:.\Generated_Source\PSoC5/cyfitter_cfg.c **** 	}
 229:.\Generated_Source\PSoC5/cyfitter_cfg.c **** 	CY_SET_XTND_REG8((void CYFAR *)(CYREG_X32_TR), (x32TrHold));
 376              		.loc 1 229 0 is_stmt 1
 377 00aa 364A     		ldr	r2, .L19
 378 00ac BB78     		ldrb	r3, [r7, #2]
 379 00ae 1370     		strb	r3, [r2]
 230:.\Generated_Source\PSoC5/cyfitter_cfg.c **** 
 231:.\Generated_Source\PSoC5/cyfitter_cfg.c **** 	/* Configure IMO based on settings from Clock DWR */
 232:.\Generated_Source\PSoC5/cyfitter_cfg.c **** 	CY_SET_XTND_REG8((void CYFAR *)(CYREG_FASTCLK_IMO_CR), 0x52u);
 380              		.loc 1 232 0
 381 00b0 484B     		ldr	r3, .L19+80
 382 00b2 5222     		movs	r2, #82
 383 00b4 1A70     		strb	r2, [r3]
 233:.\Generated_Source\PSoC5/cyfitter_cfg.c **** 	CY_SET_XTND_REG8((void CYFAR *)(CYREG_IMO_TR1), (CY_GET_XTND_REG8((void CYFAR *)CYREG_FLSHID_CUST_
 384              		.loc 1 233 0
 385 00b6 484B     		ldr	r3, .L19+84
 386 00b8 484A     		ldr	r2, .L19+88
 387 00ba 1278     		ldrb	r2, [r2]
 388 00bc D2B2     		uxtb	r2, r2
ARM GAS  C:\Users\glenn\AppData\Local\Temp\cc8YMqik.s 			page 12


 389 00be 1A70     		strb	r2, [r3]
 234:.\Generated_Source\PSoC5/cyfitter_cfg.c **** 
 235:.\Generated_Source\PSoC5/cyfitter_cfg.c **** 	/* Configure PLL based on settings from Clock DWR */
 236:.\Generated_Source\PSoC5/cyfitter_cfg.c **** 	CY_SET_XTND_REG16((void CYFAR *)(CYREG_FASTCLK_PLL_P), 0x0818u);
 390              		.loc 1 236 0
 391 00c0 474B     		ldr	r3, .L19+92
 392 00c2 40F61802 		movw	r2, #2072
 393 00c6 1A80     		strh	r2, [r3]	@ movhi
 237:.\Generated_Source\PSoC5/cyfitter_cfg.c **** 	CY_SET_XTND_REG16((void CYFAR *)(CYREG_FASTCLK_PLL_CFG0), 0x1251u);
 394              		.loc 1 237 0
 395 00c8 464B     		ldr	r3, .L19+96
 396 00ca 41F25122 		movw	r2, #4689
 397 00ce 1A80     		strh	r2, [r3]	@ movhi
 238:.\Generated_Source\PSoC5/cyfitter_cfg.c **** 	/* Wait up to 250us for the PLL to lock */
 239:.\Generated_Source\PSoC5/cyfitter_cfg.c **** 	pllLock = 0u;
 398              		.loc 1 239 0
 399 00d0 0023     		movs	r3, #0
 400 00d2 FB70     		strb	r3, [r7, #3]
 240:.\Generated_Source\PSoC5/cyfitter_cfg.c **** 	for (timeout = 250u / 10u; (timeout > 0u) && (pllLock != 0x03u); timeout--)
 401              		.loc 1 240 0
 402 00d4 1923     		movs	r3, #25
 403 00d6 7B60     		str	r3, [r7, #4]
 404 00d8 14E0     		b	.L15
 405              	.L17:
 241:.\Generated_Source\PSoC5/cyfitter_cfg.c **** 	{ 
 242:.\Generated_Source\PSoC5/cyfitter_cfg.c **** 		pllLock = 0x03u & ((uint8)((uint8)pllLock << 1) | ((CY_GET_XTND_REG8((void CYFAR *)CYREG_FASTCLK_
 406              		.loc 1 242 0 discriminator 4
 407 00da FB78     		ldrb	r3, [r7, #3]
 408 00dc 5B00     		lsls	r3, r3, #1
 409 00de DAB2     		uxtb	r2, r3
 410 00e0 414B     		ldr	r3, .L19+100
 411 00e2 1B78     		ldrb	r3, [r3]
 412 00e4 DBB2     		uxtb	r3, r3
 413 00e6 03F00103 		and	r3, r3, #1
 414 00ea DBB2     		uxtb	r3, r3
 415 00ec 1343     		orrs	r3, r3, r2
 416 00ee DBB2     		uxtb	r3, r3
 417 00f0 03F00303 		and	r3, r3, #3
 418 00f4 FB70     		strb	r3, [r7, #3]
 243:.\Generated_Source\PSoC5/cyfitter_cfg.c **** 		CyDelayCycles(10u * 48u); /* Delay 10us based on 48MHz clock */
 419              		.loc 1 243 0 discriminator 4
 420 00f6 4FF4F070 		mov	r0, #480
 421 00fa FFF7FEFF 		bl	CyDelayCycles
 240:.\Generated_Source\PSoC5/cyfitter_cfg.c **** 	for (timeout = 250u / 10u; (timeout > 0u) && (pllLock != 0x03u); timeout--)
 422              		.loc 1 240 0 discriminator 4
 423 00fe 7B68     		ldr	r3, [r7, #4]
 424 0100 013B     		subs	r3, r3, #1
 425 0102 7B60     		str	r3, [r7, #4]
 426              	.L15:
 240:.\Generated_Source\PSoC5/cyfitter_cfg.c **** 	for (timeout = 250u / 10u; (timeout > 0u) && (pllLock != 0x03u); timeout--)
 427              		.loc 1 240 0 is_stmt 0 discriminator 1
 428 0104 7B68     		ldr	r3, [r7, #4]
 429 0106 002B     		cmp	r3, #0
 430 0108 02D0     		beq	.L16
 240:.\Generated_Source\PSoC5/cyfitter_cfg.c **** 	for (timeout = 250u / 10u; (timeout > 0u) && (pllLock != 0x03u); timeout--)
 431              		.loc 1 240 0 discriminator 3
 432 010a FB78     		ldrb	r3, [r7, #3]	@ zero_extendqisi2
ARM GAS  C:\Users\glenn\AppData\Local\Temp\cc8YMqik.s 			page 13


 433 010c 032B     		cmp	r3, #3
 434 010e E4D1     		bne	.L17
 435              	.L16:
 244:.\Generated_Source\PSoC5/cyfitter_cfg.c **** 	}
 245:.\Generated_Source\PSoC5/cyfitter_cfg.c **** 	/* If we ran out of time the PLL didn't lock so go to the error function */
 246:.\Generated_Source\PSoC5/cyfitter_cfg.c **** 	if (timeout == 0u)
 436              		.loc 1 246 0 is_stmt 1
 437 0110 7B68     		ldr	r3, [r7, #4]
 438 0112 002B     		cmp	r3, #0
 439 0114 02D1     		bne	.L18
 247:.\Generated_Source\PSoC5/cyfitter_cfg.c **** 	{
 248:.\Generated_Source\PSoC5/cyfitter_cfg.c **** 		CyClockStartupError(CYCLOCKSTART_PLL_ERROR);
 440              		.loc 1 248 0
 441 0116 0320     		movs	r0, #3
 442 0118 FFF7FEFF 		bl	CyClockStartupError
 443              	.L18:
 249:.\Generated_Source\PSoC5/cyfitter_cfg.c **** 	}
 250:.\Generated_Source\PSoC5/cyfitter_cfg.c **** 
 251:.\Generated_Source\PSoC5/cyfitter_cfg.c **** 	/* Configure Bus/Master Clock based on settings from Clock DWR */
 252:.\Generated_Source\PSoC5/cyfitter_cfg.c **** 	CY_SET_XTND_REG16((void CYFAR *)(CYREG_CLKDIST_MSTR0), 0x0100u);
 444              		.loc 1 252 0
 445 011c 334B     		ldr	r3, .L19+104
 446 011e 4FF48072 		mov	r2, #256
 447 0122 1A80     		strh	r2, [r3]	@ movhi
 253:.\Generated_Source\PSoC5/cyfitter_cfg.c **** 	CY_SET_XTND_REG8((void CYFAR *)(CYREG_CLKDIST_MSTR0), 0x07u);
 448              		.loc 1 253 0
 449 0124 314B     		ldr	r3, .L19+104
 450 0126 0722     		movs	r2, #7
 451 0128 1A70     		strb	r2, [r3]
 254:.\Generated_Source\PSoC5/cyfitter_cfg.c **** 	CY_SET_XTND_REG8((void CYFAR *)(CYREG_CLKDIST_BCFG0), 0x00u);
 452              		.loc 1 254 0
 453 012a 314B     		ldr	r3, .L19+108
 454 012c 0022     		movs	r2, #0
 455 012e 1A70     		strb	r2, [r3]
 255:.\Generated_Source\PSoC5/cyfitter_cfg.c **** 	CY_SET_XTND_REG8((void CYFAR *)(CYREG_CLKDIST_BCFG2), 0x48u);
 456              		.loc 1 255 0
 457 0130 304B     		ldr	r3, .L19+112
 458 0132 4822     		movs	r2, #72
 459 0134 1A70     		strb	r2, [r3]
 256:.\Generated_Source\PSoC5/cyfitter_cfg.c **** 	CY_SET_XTND_REG8((void CYFAR *)(CYREG_CLKDIST_MSTR0), 0x00u);
 460              		.loc 1 256 0
 461 0136 2D4B     		ldr	r3, .L19+104
 462 0138 0022     		movs	r2, #0
 463 013a 1A70     		strb	r2, [r3]
 257:.\Generated_Source\PSoC5/cyfitter_cfg.c **** 
 258:.\Generated_Source\PSoC5/cyfitter_cfg.c **** 	/* Configure USB Clock based on settings from Clock DWR */
 259:.\Generated_Source\PSoC5/cyfitter_cfg.c **** 	CY_SET_XTND_REG8((void CYFAR *)(CYREG_CLKDIST_UCFG), 0x00u);
 464              		.loc 1 259 0
 465 013c 2E4B     		ldr	r3, .L19+116
 466 013e 0022     		movs	r2, #0
 467 0140 1A70     		strb	r2, [r3]
 260:.\Generated_Source\PSoC5/cyfitter_cfg.c **** 	CY_SET_XTND_REG8((void CYFAR *)(CYREG_CLKDIST_LD), 0x02u);
 468              		.loc 1 260 0
 469 0142 2E4B     		ldr	r3, .L19+120
 470 0144 0222     		movs	r2, #2
 471 0146 1A70     		strb	r2, [r3]
 261:.\Generated_Source\PSoC5/cyfitter_cfg.c **** 	CY_SET_XTND_REG8((void CYFAR *)(CYREG_CLKDIST_DLY1), 0x04u);
ARM GAS  C:\Users\glenn\AppData\Local\Temp\cc8YMqik.s 			page 14


 472              		.loc 1 261 0
 473 0148 2D4B     		ldr	r3, .L19+124
 474 014a 0422     		movs	r2, #4
 475 014c 1A70     		strb	r2, [r3]
 262:.\Generated_Source\PSoC5/cyfitter_cfg.c **** 
 263:.\Generated_Source\PSoC5/cyfitter_cfg.c **** 	CY_SET_XTND_REG8((void CYFAR *)(CYREG_PM_ACT_CFG2), ((CY_GET_XTND_REG8((void CYFAR *)CYREG_PM_ACT_
 476              		.loc 1 263 0
 477 014e 2D4A     		ldr	r2, .L19+128
 478 0150 2C4B     		ldr	r3, .L19+128
 479 0152 1B78     		ldrb	r3, [r3]
 480 0154 DBB2     		uxtb	r3, r3
 481 0156 43F03F03 		orr	r3, r3, #63
 482 015a DBB2     		uxtb	r3, r3
 483 015c 1370     		strb	r3, [r2]
 264:.\Generated_Source\PSoC5/cyfitter_cfg.c **** 	CY_SET_XTND_REG8((void CYFAR *)(CYREG_PM_ACT_CFG1), ((CY_GET_XTND_REG8((void CYFAR *)CYREG_PM_ACT_
 484              		.loc 1 264 0
 485 015e 2A4A     		ldr	r2, .L19+132
 486 0160 294B     		ldr	r3, .L19+132
 487 0162 1B78     		ldrb	r3, [r3]
 488 0164 DBB2     		uxtb	r3, r3
 489 0166 43F00103 		orr	r3, r3, #1
 490 016a DBB2     		uxtb	r3, r3
 491 016c 1370     		strb	r3, [r2]
 265:.\Generated_Source\PSoC5/cyfitter_cfg.c **** 	CY_SET_XTND_REG8((void CYFAR *)(CYREG_PM_ACT_CFG0), ((CY_GET_XTND_REG8((void CYFAR *)CYREG_PM_ACT_
 492              		.loc 1 265 0
 493 016e 274A     		ldr	r2, .L19+136
 494 0170 264B     		ldr	r3, .L19+136
 495 0172 1B78     		ldrb	r3, [r3]
 496 0174 DBB2     		uxtb	r3, r3
 497 0176 63F07F03 		orn	r3, r3, #127
 498 017a DBB2     		uxtb	r3, r3
 499 017c 1370     		strb	r3, [r2]
 266:.\Generated_Source\PSoC5/cyfitter_cfg.c **** }
 500              		.loc 1 266 0
 501 017e 0837     		adds	r7, r7, #8
 502              		.cfi_def_cfa_offset 8
 503 0180 BD46     		mov	sp, r7
 504              		.cfi_def_cfa_register 13
 505              		@ sp needed
 506 0182 80BD     		pop	{r7, pc}
 507              	.L20:
 508              		.align	2
 509              	.L19:
 510 0184 98460040 		.word	1073759896
 511 0188 80400040 		.word	1073758336
 512 018c 82400040 		.word	1073758338
 513 0190 84400040 		.word	1073758340
 514 0194 86400040 		.word	1073758342
 515 0198 88400040 		.word	1073758344
 516 019c 8A400040 		.word	1073758346
 517 01a0 8C400040 		.word	1073758348
 518 01a4 8E400040 		.word	1073758350
 519 01a8 90400040 		.word	1073758352
 520 01ac 92400040 		.word	1073758354
 521 01b0 94400040 		.word	1073758356
 522 01b4 96400040 		.word	1073758358
 523 01b8 00410040 		.word	1073758464
ARM GAS  C:\Users\glenn\AppData\Local\Temp\cc8YMqik.s 			page 15


 524 01bc 80000000 		.word	BS_CYDEV_CLKDIST_ACFG0_CFG0_VAL.4872
 525 01c0 00430040 		.word	1073758976
 526 01c4 0A430040 		.word	1073758986
 527 01c8 09430040 		.word	1073758985
 528 01cc 08430040 		.word	1073758984
 529 01d0 A0860100 		.word	100000
 530 01d4 00420040 		.word	1073758720
 531 01d8 A1460040 		.word	1073759905
 532 01dc 0F010049 		.word	1224737039
 533 01e0 22420040 		.word	1073758754
 534 01e4 20420040 		.word	1073758752
 535 01e8 25420040 		.word	1073758757
 536 01ec 04400040 		.word	1073758212
 537 01f0 06400040 		.word	1073758214
 538 01f4 08400040 		.word	1073758216
 539 01f8 09400040 		.word	1073758217
 540 01fc 01400040 		.word	1073758209
 541 0200 0B400040 		.word	1073758219
 542 0204 A2430040 		.word	1073759138
 543 0208 A1430040 		.word	1073759137
 544 020c A0430040 		.word	1073759136
 545              		.cfi_endproc
 546              	.LFE5:
 547              		.size	ClockSetup, .-ClockSetup
 548              		.section	.text.AnalogSetDefault,"ax",%progbits
 549              		.align	2
 550              		.thumb
 551              		.thumb_func
 552              		.type	AnalogSetDefault, %function
 553              	AnalogSetDefault:
 554              	.LFB6:
 267:.\Generated_Source\PSoC5/cyfitter_cfg.c **** 
 268:.\Generated_Source\PSoC5/cyfitter_cfg.c **** 
 269:.\Generated_Source\PSoC5/cyfitter_cfg.c **** /* Analog API Functions */
 270:.\Generated_Source\PSoC5/cyfitter_cfg.c **** 
 271:.\Generated_Source\PSoC5/cyfitter_cfg.c **** 
 272:.\Generated_Source\PSoC5/cyfitter_cfg.c **** /*******************************************************************************
 273:.\Generated_Source\PSoC5/cyfitter_cfg.c **** * Function Name: AnalogSetDefault
 274:.\Generated_Source\PSoC5/cyfitter_cfg.c **** ********************************************************************************
 275:.\Generated_Source\PSoC5/cyfitter_cfg.c **** *
 276:.\Generated_Source\PSoC5/cyfitter_cfg.c **** * Summary:
 277:.\Generated_Source\PSoC5/cyfitter_cfg.c **** *  Sets up the analog portions of the chip to default values based on chip
 278:.\Generated_Source\PSoC5/cyfitter_cfg.c **** *  configuration options from the project.
 279:.\Generated_Source\PSoC5/cyfitter_cfg.c **** *
 280:.\Generated_Source\PSoC5/cyfitter_cfg.c **** * Parameters:
 281:.\Generated_Source\PSoC5/cyfitter_cfg.c **** *  void
 282:.\Generated_Source\PSoC5/cyfitter_cfg.c **** *
 283:.\Generated_Source\PSoC5/cyfitter_cfg.c **** * Return:
 284:.\Generated_Source\PSoC5/cyfitter_cfg.c **** *  void
 285:.\Generated_Source\PSoC5/cyfitter_cfg.c **** *
 286:.\Generated_Source\PSoC5/cyfitter_cfg.c **** *******************************************************************************/
 287:.\Generated_Source\PSoC5/cyfitter_cfg.c **** static void AnalogSetDefault(void);
 288:.\Generated_Source\PSoC5/cyfitter_cfg.c **** static void AnalogSetDefault(void)
 289:.\Generated_Source\PSoC5/cyfitter_cfg.c **** {
 555              		.loc 1 289 0
 556              		.cfi_startproc
 557              		@ args = 0, pretend = 0, frame = 8
ARM GAS  C:\Users\glenn\AppData\Local\Temp\cc8YMqik.s 			page 16


 558              		@ frame_needed = 1, uses_anonymous_args = 0
 559 0000 80B5     		push	{r7, lr}
 560              		.cfi_def_cfa_offset 8
 561              		.cfi_offset 7, -8
 562              		.cfi_offset 14, -4
 563 0002 82B0     		sub	sp, sp, #8
 564              		.cfi_def_cfa_offset 16
 565 0004 00AF     		add	r7, sp, #0
 566              		.cfi_def_cfa_register 7
 290:.\Generated_Source\PSoC5/cyfitter_cfg.c **** 	uint8 bg_xover_inl_trim = CY_GET_XTND_REG8((void CYFAR *)(CYREG_FLSHID_MFG_CFG_BG_XOVER_INL_TRIM +
 567              		.loc 1 290 0
 568 0006 264B     		ldr	r3, .L22
 569 0008 1B78     		ldrb	r3, [r3]
 570 000a FB71     		strb	r3, [r7, #7]
 291:.\Generated_Source\PSoC5/cyfitter_cfg.c **** 	uint8 cr4 = CY_GET_XTND_REG8((void CYFAR *)(CYREG_RESET_CR4));
 571              		.loc 1 291 0
 572 000c 254B     		ldr	r3, .L22+4
 573 000e 1B78     		ldrb	r3, [r3]
 574 0010 BB71     		strb	r3, [r7, #6]
 292:.\Generated_Source\PSoC5/cyfitter_cfg.c **** 	uint8 cr5 = CY_GET_XTND_REG8((void CYFAR *)(CYREG_RESET_CR5));
 575              		.loc 1 292 0
 576 0012 254B     		ldr	r3, .L22+8
 577 0014 1B78     		ldrb	r3, [r3]
 578 0016 7B71     		strb	r3, [r7, #5]
 293:.\Generated_Source\PSoC5/cyfitter_cfg.c **** 	CY_SET_XTND_REG8((void CYFAR *)(CYREG_BG_DFT0), (bg_xover_inl_trim & 0x07u));
 579              		.loc 1 293 0
 580 0018 244A     		ldr	r2, .L22+12
 581 001a FB79     		ldrb	r3, [r7, #7]
 582 001c 03F00703 		and	r3, r3, #7
 583 0020 DBB2     		uxtb	r3, r3
 584 0022 1370     		strb	r3, [r2]
 294:.\Generated_Source\PSoC5/cyfitter_cfg.c **** 	CY_SET_XTND_REG8((void CYFAR *)(CYREG_BG_DFT1), ((bg_xover_inl_trim >> 4) & 0x0Fu));
 585              		.loc 1 294 0
 586 0024 224A     		ldr	r2, .L22+16
 587 0026 FB79     		ldrb	r3, [r7, #7]	@ zero_extendqisi2
 588 0028 1B09     		lsrs	r3, r3, #4
 589 002a DBB2     		uxtb	r3, r3
 590 002c 1370     		strb	r3, [r2]
 295:.\Generated_Source\PSoC5/cyfitter_cfg.c **** 	/* Disable PRES while setting up SAR voltage reference */
 296:.\Generated_Source\PSoC5/cyfitter_cfg.c **** 	CY_SET_XTND_REG8((void CYFAR *)(CYREG_RESET_CR4), (cr4 | 0x03u));
 591              		.loc 1 296 0
 592 002e 1D4A     		ldr	r2, .L22+4
 593 0030 BB79     		ldrb	r3, [r7, #6]
 594 0032 43F00303 		orr	r3, r3, #3
 595 0036 DBB2     		uxtb	r3, r3
 596 0038 1370     		strb	r3, [r2]
 297:.\Generated_Source\PSoC5/cyfitter_cfg.c **** 	CY_SET_XTND_REG8((void CYFAR *)(CYREG_RESET_CR5), (cr5 | 0x03u));
 597              		.loc 1 297 0
 598 003a 1B4A     		ldr	r2, .L22+8
 599 003c 7B79     		ldrb	r3, [r7, #5]
 600 003e 43F00303 		orr	r3, r3, #3
 601 0042 DBB2     		uxtb	r3, r3
 602 0044 1370     		strb	r3, [r2]
 298:.\Generated_Source\PSoC5/cyfitter_cfg.c **** 	CY_SET_XTND_REG8((void CYFAR *)CYREG_PRT2_AG, 0x08u);
 603              		.loc 1 298 0
 604 0046 1B4B     		ldr	r3, .L22+20
 605 0048 0822     		movs	r2, #8
ARM GAS  C:\Users\glenn\AppData\Local\Temp\cc8YMqik.s 			page 17


 606 004a 1A70     		strb	r2, [r3]
 299:.\Generated_Source\PSoC5/cyfitter_cfg.c **** 	CY_SET_XTND_REG8((void CYFAR *)CYREG_SAR0_CSR1, 0x40u);
 607              		.loc 1 299 0
 608 004c 1A4B     		ldr	r3, .L22+24
 609 004e 4022     		movs	r2, #64
 610 0050 1A70     		strb	r2, [r3]
 300:.\Generated_Source\PSoC5/cyfitter_cfg.c **** 	CY_SET_XTND_REG8((void CYFAR *)CYREG_SAR0_CSR3, 0x40u);
 611              		.loc 1 300 0
 612 0052 1A4B     		ldr	r3, .L22+28
 613 0054 4022     		movs	r2, #64
 614 0056 1A70     		strb	r2, [r3]
 301:.\Generated_Source\PSoC5/cyfitter_cfg.c **** 	CY_SET_XTND_REG8((void CYFAR *)CYREG_DAC0_SW4, 0x01u);
 615              		.loc 1 301 0
 616 0058 194B     		ldr	r3, .L22+32
 617 005a 0122     		movs	r2, #1
 618 005c 1A70     		strb	r2, [r3]
 302:.\Generated_Source\PSoC5/cyfitter_cfg.c **** 	CY_SET_XTND_REG8((void CYFAR *)CYREG_DAC2_SW0, 0x20u);
 619              		.loc 1 302 0
 620 005e 194B     		ldr	r3, .L22+36
 621 0060 2022     		movs	r2, #32
 622 0062 1A70     		strb	r2, [r3]
 303:.\Generated_Source\PSoC5/cyfitter_cfg.c **** 	CY_SET_XTND_REG8((void CYFAR *)CYREG_DSM0_SW0, 0x51u);
 623              		.loc 1 303 0
 624 0064 184B     		ldr	r3, .L22+40
 625 0066 5122     		movs	r2, #81
 626 0068 1A70     		strb	r2, [r3]
 304:.\Generated_Source\PSoC5/cyfitter_cfg.c **** 	CY_SET_XTND_REG8((void CYFAR *)CYREG_DSM0_SW4, 0x20u);
 627              		.loc 1 304 0
 628 006a 184B     		ldr	r3, .L22+44
 629 006c 2022     		movs	r2, #32
 630 006e 1A70     		strb	r2, [r3]
 305:.\Generated_Source\PSoC5/cyfitter_cfg.c **** 	CY_SET_XTND_REG8((void CYFAR *)CYREG_SAR0_SW0, 0x08u);
 631              		.loc 1 305 0
 632 0070 174B     		ldr	r3, .L22+48
 633 0072 0822     		movs	r2, #8
 634 0074 1A70     		strb	r2, [r3]
 306:.\Generated_Source\PSoC5/cyfitter_cfg.c **** 	CY_SET_XTND_REG8((void CYFAR *)CYREG_SAR0_SW3, 0x20u);
 635              		.loc 1 306 0
 636 0076 174B     		ldr	r3, .L22+52
 637 0078 2022     		movs	r2, #32
 638 007a 1A70     		strb	r2, [r3]
 307:.\Generated_Source\PSoC5/cyfitter_cfg.c **** 	CY_SET_XTND_REG8((void CYFAR *)CYREG_BUS_SW0, 0xD0u);
 639              		.loc 1 307 0
 640 007c 164B     		ldr	r3, .L22+56
 641 007e D022     		movs	r2, #208
 642 0080 1A70     		strb	r2, [r3]
 308:.\Generated_Source\PSoC5/cyfitter_cfg.c **** 	CyDelayUs(10u); /* Allow vref to settle before re-enabling PRES */
 643              		.loc 1 308 0
 644 0082 0A20     		movs	r0, #10
 645 0084 FFF7FEFF 		bl	CyDelayUs
 309:.\Generated_Source\PSoC5/cyfitter_cfg.c **** 	CY_SET_XTND_REG8((void CYFAR *)(CYREG_RESET_CR5), (cr5));
 646              		.loc 1 309 0
 647 0088 074A     		ldr	r2, .L22+8
 648 008a 7B79     		ldrb	r3, [r7, #5]
 649 008c 1370     		strb	r3, [r2]
 310:.\Generated_Source\PSoC5/cyfitter_cfg.c **** 	CY_SET_XTND_REG8((void CYFAR *)(CYREG_RESET_CR4), (cr4));
 650              		.loc 1 310 0
ARM GAS  C:\Users\glenn\AppData\Local\Temp\cc8YMqik.s 			page 18


 651 008e 054A     		ldr	r2, .L22+4
 652 0090 BB79     		ldrb	r3, [r7, #6]
 653 0092 1370     		strb	r3, [r2]
 311:.\Generated_Source\PSoC5/cyfitter_cfg.c **** 	CY_SET_XTND_REG8((void CYFAR *)CYREG_PUMP_CR0, 0x44u);
 654              		.loc 1 311 0
 655 0094 114B     		ldr	r3, .L22+60
 656 0096 4422     		movs	r2, #68
 657 0098 1A70     		strb	r2, [r3]
 312:.\Generated_Source\PSoC5/cyfitter_cfg.c **** }
 658              		.loc 1 312 0
 659 009a 0837     		adds	r7, r7, #8
 660              		.cfi_def_cfa_offset 8
 661 009c BD46     		mov	sp, r7
 662              		.cfi_def_cfa_register 13
 663              		@ sp needed
 664 009e 80BD     		pop	{r7, pc}
 665              	.L23:
 666              		.align	2
 667              	.L22:
 668 00a0 CF010049 		.word	1224737231
 669 00a4 F8460040 		.word	1073759992
 670 00a8 F9460040 		.word	1073759993
 671 00ac 6E580040 		.word	1073764462
 672 00b0 6F580040 		.word	1073764463
 673 00b4 2D510040 		.word	1073762605
 674 00b8 01590040 		.word	1073764609
 675 00bc 03590040 		.word	1073764611
 676 00c0 845A0040 		.word	1073764996
 677 00c4 905A0040 		.word	1073765008
 678 00c8 005B0040 		.word	1073765120
 679 00cc 045B0040 		.word	1073765124
 680 00d0 205B0040 		.word	1073765152
 681 00d4 235B0040 		.word	1073765155
 682 00d8 585B0040 		.word	1073765208
 683 00dc 76580040 		.word	1073764470
 684              		.cfi_endproc
 685              	.LFE6:
 686              		.size	AnalogSetDefault, .-AnalogSetDefault
 687              		.section	.text.SetAnalogRoutingPumps,"ax",%progbits
 688              		.align	2
 689              		.global	SetAnalogRoutingPumps
 690              		.thumb
 691              		.thumb_func
 692              		.type	SetAnalogRoutingPumps, %function
 693              	SetAnalogRoutingPumps:
 694              	.LFB7:
 313:.\Generated_Source\PSoC5/cyfitter_cfg.c **** 
 314:.\Generated_Source\PSoC5/cyfitter_cfg.c **** 
 315:.\Generated_Source\PSoC5/cyfitter_cfg.c **** /*******************************************************************************
 316:.\Generated_Source\PSoC5/cyfitter_cfg.c **** * Function Name: SetAnalogRoutingPumps
 317:.\Generated_Source\PSoC5/cyfitter_cfg.c **** ********************************************************************************
 318:.\Generated_Source\PSoC5/cyfitter_cfg.c **** *
 319:.\Generated_Source\PSoC5/cyfitter_cfg.c **** * Summary:
 320:.\Generated_Source\PSoC5/cyfitter_cfg.c **** * Enables or disables the analog pumps feeding analog routing switches.
 321:.\Generated_Source\PSoC5/cyfitter_cfg.c **** * Intended to be called at startup, based on the Vdda system configuration;
 322:.\Generated_Source\PSoC5/cyfitter_cfg.c **** * may be called during operation when the user informs us that the Vdda voltage
 323:.\Generated_Source\PSoC5/cyfitter_cfg.c **** * crossed the pump threshold.
ARM GAS  C:\Users\glenn\AppData\Local\Temp\cc8YMqik.s 			page 19


 324:.\Generated_Source\PSoC5/cyfitter_cfg.c **** *
 325:.\Generated_Source\PSoC5/cyfitter_cfg.c **** * Parameters:
 326:.\Generated_Source\PSoC5/cyfitter_cfg.c **** *  enabled - 1 to enable the pumps, 0 to disable the pumps
 327:.\Generated_Source\PSoC5/cyfitter_cfg.c **** *
 328:.\Generated_Source\PSoC5/cyfitter_cfg.c **** * Return:
 329:.\Generated_Source\PSoC5/cyfitter_cfg.c **** *  void
 330:.\Generated_Source\PSoC5/cyfitter_cfg.c **** *
 331:.\Generated_Source\PSoC5/cyfitter_cfg.c **** *******************************************************************************/
 332:.\Generated_Source\PSoC5/cyfitter_cfg.c **** void SetAnalogRoutingPumps(uint8 enabled)
 333:.\Generated_Source\PSoC5/cyfitter_cfg.c **** {
 695              		.loc 1 333 0
 696              		.cfi_startproc
 697              		@ args = 0, pretend = 0, frame = 16
 698              		@ frame_needed = 1, uses_anonymous_args = 0
 699              		@ link register save eliminated.
 700 0000 80B4     		push	{r7}
 701              		.cfi_def_cfa_offset 4
 702              		.cfi_offset 7, -4
 703 0002 85B0     		sub	sp, sp, #20
 704              		.cfi_def_cfa_offset 24
 705 0004 00AF     		add	r7, sp, #0
 706              		.cfi_def_cfa_register 7
 707 0006 0346     		mov	r3, r0
 708 0008 FB71     		strb	r3, [r7, #7]
 334:.\Generated_Source\PSoC5/cyfitter_cfg.c **** 	uint8 regValue = CY_GET_XTND_REG8((void CYFAR *)CYREG_PUMP_CR0);
 709              		.loc 1 334 0
 710 000a 0B4B     		ldr	r3, .L27
 711 000c 1B78     		ldrb	r3, [r3]
 712 000e FB73     		strb	r3, [r7, #15]
 335:.\Generated_Source\PSoC5/cyfitter_cfg.c **** 	if (enabled != 0u)
 713              		.loc 1 335 0
 714 0010 FB79     		ldrb	r3, [r7, #7]	@ zero_extendqisi2
 715 0012 002B     		cmp	r3, #0
 716 0014 04D0     		beq	.L25
 336:.\Generated_Source\PSoC5/cyfitter_cfg.c **** 	{
 337:.\Generated_Source\PSoC5/cyfitter_cfg.c **** 		regValue |= 0x22u;
 717              		.loc 1 337 0
 718 0016 FB7B     		ldrb	r3, [r7, #15]
 719 0018 43F02203 		orr	r3, r3, #34
 720 001c FB73     		strb	r3, [r7, #15]
 721 001e 03E0     		b	.L26
 722              	.L25:
 338:.\Generated_Source\PSoC5/cyfitter_cfg.c **** 	}
 339:.\Generated_Source\PSoC5/cyfitter_cfg.c **** 	else
 340:.\Generated_Source\PSoC5/cyfitter_cfg.c **** 	{
 341:.\Generated_Source\PSoC5/cyfitter_cfg.c **** 		regValue &= (uint8)~0x22u;
 723              		.loc 1 341 0
 724 0020 FB7B     		ldrb	r3, [r7, #15]
 725 0022 23F02203 		bic	r3, r3, #34
 726 0026 FB73     		strb	r3, [r7, #15]
 727              	.L26:
 342:.\Generated_Source\PSoC5/cyfitter_cfg.c **** 	}
 343:.\Generated_Source\PSoC5/cyfitter_cfg.c **** 	CY_SET_XTND_REG8((void CYFAR *)CYREG_PUMP_CR0, regValue);
 728              		.loc 1 343 0
 729 0028 034A     		ldr	r2, .L27
 730 002a FB7B     		ldrb	r3, [r7, #15]
 731 002c 1370     		strb	r3, [r2]
ARM GAS  C:\Users\glenn\AppData\Local\Temp\cc8YMqik.s 			page 20


 344:.\Generated_Source\PSoC5/cyfitter_cfg.c **** }
 732              		.loc 1 344 0
 733 002e 1437     		adds	r7, r7, #20
 734              		.cfi_def_cfa_offset 4
 735 0030 BD46     		mov	sp, r7
 736              		.cfi_def_cfa_register 13
 737              		@ sp needed
 738 0032 5DF8047B 		ldr	r7, [sp], #4
 739              		.cfi_restore 7
 740              		.cfi_def_cfa_offset 0
 741 0036 7047     		bx	lr
 742              	.L28:
 743              		.align	2
 744              	.L27:
 745 0038 76580040 		.word	1073764470
 746              		.cfi_endproc
 747              	.LFE7:
 748              		.size	SetAnalogRoutingPumps, .-SetAnalogRoutingPumps
 749              		.global	AMux_1__addrTable
 750              		.section	.rodata
 751              		.align	2
 752              		.type	AMux_1__addrTable, %object
 753              		.size	AMux_1__addrTable, 36
 754              	AMux_1__addrTable:
 755 0000 3D510040 		.word	1073762621
 756 0004 3D510040 		.word	1073762621
 757 0008 3D510040 		.word	1073762621
 758 000c 3D510040 		.word	1073762621
 759 0010 0D510040 		.word	1073762573
 760 0014 0D510040 		.word	1073762573
 761 0018 0D510040 		.word	1073762573
 762 001c 835A0040 		.word	1073764995
 763 0020 2D510040 		.word	1073762605
 764              		.global	AMux_1__maskTable
 765              		.align	2
 766              		.type	AMux_1__maskTable, %object
 767              		.size	AMux_1__maskTable, 9
 768              	AMux_1__maskTable:
 769 0024 01       		.byte	1
 770 0025 04       		.byte	4
 771 0026 10       		.byte	16
 772 0027 40       		.byte	64
 773 0028 01       		.byte	1
 774 0029 04       		.byte	4
 775 002a 10       		.byte	16
 776 002b 80       		.byte	-128
 777 002c 10       		.byte	16
 778              		.section	.text.AMux_1_Set,"ax",%progbits
 779              		.align	2
 780              		.global	AMux_1_Set
 781              		.thumb
 782              		.thumb_func
 783              		.type	AMux_1_Set, %function
 784              	AMux_1_Set:
 785              	.LFB8:
 345:.\Generated_Source\PSoC5/cyfitter_cfg.c **** 
 346:.\Generated_Source\PSoC5/cyfitter_cfg.c **** #define CY_AMUX_UNUSED CYREG_BOOST_SR
ARM GAS  C:\Users\glenn\AppData\Local\Temp\cc8YMqik.s 			page 21


 347:.\Generated_Source\PSoC5/cyfitter_cfg.c **** /* This is an implementation detail of the AMux. Code that depends on it may be
 348:.\Generated_Source\PSoC5/cyfitter_cfg.c ****    incompatible with other versions of PSoC Creator. */
 349:.\Generated_Source\PSoC5/cyfitter_cfg.c **** uint8 CYXDATA * const CYCODE AMux_1__addrTable[9] = {
 350:.\Generated_Source\PSoC5/cyfitter_cfg.c **** 	(uint8 CYXDATA *)CYREG_PRT3_AG, 
 351:.\Generated_Source\PSoC5/cyfitter_cfg.c **** 	(uint8 CYXDATA *)CYREG_PRT3_AG, 
 352:.\Generated_Source\PSoC5/cyfitter_cfg.c **** 	(uint8 CYXDATA *)CYREG_PRT3_AG, 
 353:.\Generated_Source\PSoC5/cyfitter_cfg.c **** 	(uint8 CYXDATA *)CYREG_PRT3_AG, 
 354:.\Generated_Source\PSoC5/cyfitter_cfg.c **** 	(uint8 CYXDATA *)CYREG_PRT0_AG, 
 355:.\Generated_Source\PSoC5/cyfitter_cfg.c **** 	(uint8 CYXDATA *)CYREG_PRT0_AG, 
 356:.\Generated_Source\PSoC5/cyfitter_cfg.c **** 	(uint8 CYXDATA *)CYREG_PRT0_AG, 
 357:.\Generated_Source\PSoC5/cyfitter_cfg.c **** 	(uint8 CYXDATA *)CYREG_DAC0_SW3, 
 358:.\Generated_Source\PSoC5/cyfitter_cfg.c **** 	(uint8 CYXDATA *)CYREG_PRT2_AG, 
 359:.\Generated_Source\PSoC5/cyfitter_cfg.c **** };
 360:.\Generated_Source\PSoC5/cyfitter_cfg.c **** 
 361:.\Generated_Source\PSoC5/cyfitter_cfg.c **** /* This is an implementation detail of the AMux. Code that depends on it may be
 362:.\Generated_Source\PSoC5/cyfitter_cfg.c ****    incompatible with other versions of PSoC Creator. */
 363:.\Generated_Source\PSoC5/cyfitter_cfg.c **** const uint8 CYCODE AMux_1__maskTable[9] = {
 364:.\Generated_Source\PSoC5/cyfitter_cfg.c **** 	0x01u, 
 365:.\Generated_Source\PSoC5/cyfitter_cfg.c **** 	0x04u, 
 366:.\Generated_Source\PSoC5/cyfitter_cfg.c **** 	0x10u, 
 367:.\Generated_Source\PSoC5/cyfitter_cfg.c **** 	0x40u, 
 368:.\Generated_Source\PSoC5/cyfitter_cfg.c **** 	0x01u, 
 369:.\Generated_Source\PSoC5/cyfitter_cfg.c **** 	0x04u, 
 370:.\Generated_Source\PSoC5/cyfitter_cfg.c **** 	0x10u, 
 371:.\Generated_Source\PSoC5/cyfitter_cfg.c **** 	0x80u, 
 372:.\Generated_Source\PSoC5/cyfitter_cfg.c **** 	0x10u, 
 373:.\Generated_Source\PSoC5/cyfitter_cfg.c **** };
 374:.\Generated_Source\PSoC5/cyfitter_cfg.c **** 
 375:.\Generated_Source\PSoC5/cyfitter_cfg.c **** /*******************************************************************************
 376:.\Generated_Source\PSoC5/cyfitter_cfg.c **** * Function Name: AMux_1_Set
 377:.\Generated_Source\PSoC5/cyfitter_cfg.c **** ********************************************************************************
 378:.\Generated_Source\PSoC5/cyfitter_cfg.c **** * Summary:
 379:.\Generated_Source\PSoC5/cyfitter_cfg.c **** *  This function is used to set a particular channel as active on the AMux.
 380:.\Generated_Source\PSoC5/cyfitter_cfg.c **** *
 381:.\Generated_Source\PSoC5/cyfitter_cfg.c **** * Parameters:  
 382:.\Generated_Source\PSoC5/cyfitter_cfg.c **** *   channel - The mux channel input to set as active
 383:.\Generated_Source\PSoC5/cyfitter_cfg.c **** *
 384:.\Generated_Source\PSoC5/cyfitter_cfg.c **** * Return:
 385:.\Generated_Source\PSoC5/cyfitter_cfg.c **** *   void
 386:.\Generated_Source\PSoC5/cyfitter_cfg.c **** *
 387:.\Generated_Source\PSoC5/cyfitter_cfg.c **** *******************************************************************************/
 388:.\Generated_Source\PSoC5/cyfitter_cfg.c **** void AMux_1_Set(uint8 channel)
 389:.\Generated_Source\PSoC5/cyfitter_cfg.c **** {
 786              		.loc 1 389 0
 787              		.cfi_startproc
 788              		@ args = 0, pretend = 0, frame = 8
 789              		@ frame_needed = 1, uses_anonymous_args = 0
 790              		@ link register save eliminated.
 791 0000 80B4     		push	{r7}
 792              		.cfi_def_cfa_offset 4
 793              		.cfi_offset 7, -4
 794 0002 83B0     		sub	sp, sp, #12
 795              		.cfi_def_cfa_offset 16
 796 0004 00AF     		add	r7, sp, #0
 797              		.cfi_def_cfa_register 7
 798 0006 0346     		mov	r3, r0
 799 0008 FB71     		strb	r3, [r7, #7]
ARM GAS  C:\Users\glenn\AppData\Local\Temp\cc8YMqik.s 			page 22


 390:.\Generated_Source\PSoC5/cyfitter_cfg.c **** 	if (channel < 9)
 800              		.loc 1 390 0
 801 000a FB79     		ldrb	r3, [r7, #7]	@ zero_extendqisi2
 802 000c 082B     		cmp	r3, #8
 803 000e 0ED8     		bhi	.L29
 391:.\Generated_Source\PSoC5/cyfitter_cfg.c **** 	{
 392:.\Generated_Source\PSoC5/cyfitter_cfg.c **** 		*AMux_1__addrTable[channel] |= AMux_1__maskTable[channel];
 804              		.loc 1 392 0
 805 0010 FB79     		ldrb	r3, [r7, #7]	@ zero_extendqisi2
 806 0012 094A     		ldr	r2, .L31
 807 0014 52F82330 		ldr	r3, [r2, r3, lsl #2]
 808 0018 FA79     		ldrb	r2, [r7, #7]	@ zero_extendqisi2
 809 001a 0749     		ldr	r1, .L31
 810 001c 51F82220 		ldr	r2, [r1, r2, lsl #2]
 811 0020 1178     		ldrb	r1, [r2]	@ zero_extendqisi2
 812 0022 FA79     		ldrb	r2, [r7, #7]	@ zero_extendqisi2
 813 0024 0548     		ldr	r0, .L31+4
 814 0026 825C     		ldrb	r2, [r0, r2]	@ zero_extendqisi2
 815 0028 0A43     		orrs	r2, r2, r1
 816 002a D2B2     		uxtb	r2, r2
 817 002c 1A70     		strb	r2, [r3]
 818              	.L29:
 393:.\Generated_Source\PSoC5/cyfitter_cfg.c **** 	}
 394:.\Generated_Source\PSoC5/cyfitter_cfg.c **** }
 819              		.loc 1 394 0
 820 002e 0C37     		adds	r7, r7, #12
 821              		.cfi_def_cfa_offset 4
 822 0030 BD46     		mov	sp, r7
 823              		.cfi_def_cfa_register 13
 824              		@ sp needed
 825 0032 5DF8047B 		ldr	r7, [sp], #4
 826              		.cfi_restore 7
 827              		.cfi_def_cfa_offset 0
 828 0036 7047     		bx	lr
 829              	.L32:
 830              		.align	2
 831              	.L31:
 832 0038 00000000 		.word	AMux_1__addrTable
 833 003c 00000000 		.word	AMux_1__maskTable
 834              		.cfi_endproc
 835              	.LFE8:
 836              		.size	AMux_1_Set, .-AMux_1_Set
 837              		.section	.text.AMux_1_Unset,"ax",%progbits
 838              		.align	2
 839              		.global	AMux_1_Unset
 840              		.thumb
 841              		.thumb_func
 842              		.type	AMux_1_Unset, %function
 843              	AMux_1_Unset:
 844              	.LFB9:
 395:.\Generated_Source\PSoC5/cyfitter_cfg.c **** 
 396:.\Generated_Source\PSoC5/cyfitter_cfg.c **** /*******************************************************************************
 397:.\Generated_Source\PSoC5/cyfitter_cfg.c **** * Function Name: AMux_1_Unset
 398:.\Generated_Source\PSoC5/cyfitter_cfg.c **** ********************************************************************************
 399:.\Generated_Source\PSoC5/cyfitter_cfg.c **** * Summary:
 400:.\Generated_Source\PSoC5/cyfitter_cfg.c **** *  This function is used to clear a particular channel from being active on the
 401:.\Generated_Source\PSoC5/cyfitter_cfg.c **** *  AMux.
ARM GAS  C:\Users\glenn\AppData\Local\Temp\cc8YMqik.s 			page 23


 402:.\Generated_Source\PSoC5/cyfitter_cfg.c **** *
 403:.\Generated_Source\PSoC5/cyfitter_cfg.c **** * Parameters:  
 404:.\Generated_Source\PSoC5/cyfitter_cfg.c **** *   channel - The mux channel input to mark inactive
 405:.\Generated_Source\PSoC5/cyfitter_cfg.c **** *
 406:.\Generated_Source\PSoC5/cyfitter_cfg.c **** * Return:
 407:.\Generated_Source\PSoC5/cyfitter_cfg.c **** *   void
 408:.\Generated_Source\PSoC5/cyfitter_cfg.c **** *
 409:.\Generated_Source\PSoC5/cyfitter_cfg.c **** *******************************************************************************/
 410:.\Generated_Source\PSoC5/cyfitter_cfg.c **** void AMux_1_Unset(uint8 channel)
 411:.\Generated_Source\PSoC5/cyfitter_cfg.c **** {
 845              		.loc 1 411 0
 846              		.cfi_startproc
 847              		@ args = 0, pretend = 0, frame = 8
 848              		@ frame_needed = 1, uses_anonymous_args = 0
 849              		@ link register save eliminated.
 850 0000 80B4     		push	{r7}
 851              		.cfi_def_cfa_offset 4
 852              		.cfi_offset 7, -4
 853 0002 83B0     		sub	sp, sp, #12
 854              		.cfi_def_cfa_offset 16
 855 0004 00AF     		add	r7, sp, #0
 856              		.cfi_def_cfa_register 7
 857 0006 0346     		mov	r3, r0
 858 0008 FB71     		strb	r3, [r7, #7]
 412:.\Generated_Source\PSoC5/cyfitter_cfg.c **** 	if (channel < 9)
 859              		.loc 1 412 0
 860 000a FB79     		ldrb	r3, [r7, #7]	@ zero_extendqisi2
 861 000c 082B     		cmp	r3, #8
 862 000e 10D8     		bhi	.L33
 413:.\Generated_Source\PSoC5/cyfitter_cfg.c **** 	{
 414:.\Generated_Source\PSoC5/cyfitter_cfg.c **** 		*AMux_1__addrTable[channel] &= (uint8)~AMux_1__maskTable[channel];
 863              		.loc 1 414 0
 864 0010 FB79     		ldrb	r3, [r7, #7]	@ zero_extendqisi2
 865 0012 0A4A     		ldr	r2, .L35
 866 0014 52F82330 		ldr	r3, [r2, r3, lsl #2]
 867 0018 FA79     		ldrb	r2, [r7, #7]	@ zero_extendqisi2
 868 001a 0849     		ldr	r1, .L35
 869 001c 51F82220 		ldr	r2, [r1, r2, lsl #2]
 870 0020 1178     		ldrb	r1, [r2]	@ zero_extendqisi2
 871 0022 FA79     		ldrb	r2, [r7, #7]	@ zero_extendqisi2
 872 0024 0648     		ldr	r0, .L35+4
 873 0026 825C     		ldrb	r2, [r0, r2]	@ zero_extendqisi2
 874 0028 D243     		mvns	r2, r2
 875 002a D2B2     		uxtb	r2, r2
 876 002c 0A40     		ands	r2, r2, r1
 877 002e D2B2     		uxtb	r2, r2
 878 0030 1A70     		strb	r2, [r3]
 879              	.L33:
 415:.\Generated_Source\PSoC5/cyfitter_cfg.c **** 	}
 416:.\Generated_Source\PSoC5/cyfitter_cfg.c **** }
 880              		.loc 1 416 0
 881 0032 0C37     		adds	r7, r7, #12
 882              		.cfi_def_cfa_offset 4
 883 0034 BD46     		mov	sp, r7
 884              		.cfi_def_cfa_register 13
 885              		@ sp needed
 886 0036 5DF8047B 		ldr	r7, [sp], #4
ARM GAS  C:\Users\glenn\AppData\Local\Temp\cc8YMqik.s 			page 24


 887              		.cfi_restore 7
 888              		.cfi_def_cfa_offset 0
 889 003a 7047     		bx	lr
 890              	.L36:
 891              		.align	2
 892              	.L35:
 893 003c 00000000 		.word	AMux_1__addrTable
 894 0040 00000000 		.word	AMux_1__maskTable
 895              		.cfi_endproc
 896              	.LFE9:
 897              		.size	AMux_1_Unset, .-AMux_1_Unset
 898              		.section	.rodata
 899 002d 000000   		.align	2
 900              		.type	AMux_2__outerAddr, %object
 901              		.size	AMux_2__outerAddr, 36
 902              	AMux_2__outerAddr:
 903 0030 3D510040 		.word	1073762621
 904 0034 3D510040 		.word	1073762621
 905 0038 3D510040 		.word	1073762621
 906 003c 3D510040 		.word	1073762621
 907 0040 0D510040 		.word	1073762573
 908 0044 0D510040 		.word	1073762573
 909 0048 0D510040 		.word	1073762573
 910 004c 0D510040 		.word	1073762573
 911 0050 2D510040 		.word	1073762605
 912              		.align	2
 913              		.type	AMux_2__outerMask, %object
 914              		.size	AMux_2__outerMask, 9
 915              	AMux_2__outerMask:
 916 0054 02       		.byte	2
 917 0055 08       		.byte	8
 918 0056 20       		.byte	32
 919 0057 80       		.byte	-128
 920 0058 02       		.byte	2
 921 0059 08       		.byte	8
 922 005a 20       		.byte	32
 923 005b 80       		.byte	-128
 924 005c 20       		.byte	32
 925 005d 000000   		.align	2
 926              		.type	AMux_2__innerAddr, %object
 927              		.size	AMux_2__innerAddr, 16
 928              	AMux_2__innerAddr:
 929 0060 585B0040 		.word	1073765208
 930 0064 045B0040 		.word	1073765124
 931 0068 24430040 		.word	1073759012
 932 006c 045B0040 		.word	1073765124
 933              		.align	2
 934              		.type	AMux_2__innerMask, %object
 935              		.size	AMux_2__innerMask, 4
 936              	AMux_2__innerMask:
 937 0070 20       		.byte	32
 938 0071 80       		.byte	-128
 939 0072 00       		.byte	0
 940 0073 02       		.byte	2
 941              		.align	2
 942              		.type	AMux_2__innerMap, %object
 943              		.size	AMux_2__innerMap, 9
ARM GAS  C:\Users\glenn\AppData\Local\Temp\cc8YMqik.s 			page 25


 944              	AMux_2__innerMap:
 945 0074 00       		.byte	0
 946 0075 01       		.byte	1
 947 0076 00       		.byte	0
 948 0077 01       		.byte	1
 949 0078 02       		.byte	2
 950 0079 01       		.byte	1
 951 007a 02       		.byte	2
 952 007b 01       		.byte	1
 953 007c 03       		.byte	3
 954              		.bss
 955              		.align	1
 956              	AMux_2__armsEnabled:
 957 0000 0000     		.space	2
 958 0002 0000     		.align	2
 959              	AMux_2__refCnt:
 960 0004 00000000 		.space	4
 961              		.section	.text.AMux_2_Set,"ax",%progbits
 962              		.align	2
 963              		.global	AMux_2_Set
 964              		.thumb
 965              		.thumb_func
 966              		.type	AMux_2_Set, %function
 967              	AMux_2_Set:
 968              	.LFB10:
 417:.\Generated_Source\PSoC5/cyfitter_cfg.c **** 
 418:.\Generated_Source\PSoC5/cyfitter_cfg.c **** static uint8 CYXDATA * const CYCODE AMux_2__outerAddr[9] = {
 419:.\Generated_Source\PSoC5/cyfitter_cfg.c **** 	(uint8 CYXDATA *)CYREG_PRT3_AG, 
 420:.\Generated_Source\PSoC5/cyfitter_cfg.c **** 	(uint8 CYXDATA *)CYREG_PRT3_AG, 
 421:.\Generated_Source\PSoC5/cyfitter_cfg.c **** 	(uint8 CYXDATA *)CYREG_PRT3_AG, 
 422:.\Generated_Source\PSoC5/cyfitter_cfg.c **** 	(uint8 CYXDATA *)CYREG_PRT3_AG, 
 423:.\Generated_Source\PSoC5/cyfitter_cfg.c **** 	(uint8 CYXDATA *)CYREG_PRT0_AG, 
 424:.\Generated_Source\PSoC5/cyfitter_cfg.c **** 	(uint8 CYXDATA *)CYREG_PRT0_AG, 
 425:.\Generated_Source\PSoC5/cyfitter_cfg.c **** 	(uint8 CYXDATA *)CYREG_PRT0_AG, 
 426:.\Generated_Source\PSoC5/cyfitter_cfg.c **** 	(uint8 CYXDATA *)CYREG_PRT0_AG, 
 427:.\Generated_Source\PSoC5/cyfitter_cfg.c **** 	(uint8 CYXDATA *)CYREG_PRT2_AG, 
 428:.\Generated_Source\PSoC5/cyfitter_cfg.c **** };
 429:.\Generated_Source\PSoC5/cyfitter_cfg.c **** 
 430:.\Generated_Source\PSoC5/cyfitter_cfg.c **** static const uint8 CYCODE AMux_2__outerMask[9] = {
 431:.\Generated_Source\PSoC5/cyfitter_cfg.c **** 	0x02u, 
 432:.\Generated_Source\PSoC5/cyfitter_cfg.c **** 	0x08u, 
 433:.\Generated_Source\PSoC5/cyfitter_cfg.c **** 	0x20u, 
 434:.\Generated_Source\PSoC5/cyfitter_cfg.c **** 	0x80u, 
 435:.\Generated_Source\PSoC5/cyfitter_cfg.c **** 	0x02u, 
 436:.\Generated_Source\PSoC5/cyfitter_cfg.c **** 	0x08u, 
 437:.\Generated_Source\PSoC5/cyfitter_cfg.c **** 	0x20u, 
 438:.\Generated_Source\PSoC5/cyfitter_cfg.c **** 	0x80u, 
 439:.\Generated_Source\PSoC5/cyfitter_cfg.c **** 	0x20u, 
 440:.\Generated_Source\PSoC5/cyfitter_cfg.c **** };
 441:.\Generated_Source\PSoC5/cyfitter_cfg.c **** 
 442:.\Generated_Source\PSoC5/cyfitter_cfg.c **** static uint8 CYXDATA * const CYCODE AMux_2__innerAddr[4] = {
 443:.\Generated_Source\PSoC5/cyfitter_cfg.c **** 	(uint8 CYXDATA *)CYREG_BUS_SW0, 
 444:.\Generated_Source\PSoC5/cyfitter_cfg.c **** 	(uint8 CYXDATA *)CYREG_DSM0_SW4, 
 445:.\Generated_Source\PSoC5/cyfitter_cfg.c **** 	(uint8 CYXDATA *)CY_AMUX_UNUSED, 
 446:.\Generated_Source\PSoC5/cyfitter_cfg.c **** 	(uint8 CYXDATA *)CYREG_DSM0_SW4, 
 447:.\Generated_Source\PSoC5/cyfitter_cfg.c **** };
 448:.\Generated_Source\PSoC5/cyfitter_cfg.c **** 
ARM GAS  C:\Users\glenn\AppData\Local\Temp\cc8YMqik.s 			page 26


 449:.\Generated_Source\PSoC5/cyfitter_cfg.c **** static const uint8 CYCODE AMux_2__innerMask[4] = {
 450:.\Generated_Source\PSoC5/cyfitter_cfg.c **** 	0x20u, 
 451:.\Generated_Source\PSoC5/cyfitter_cfg.c **** 	0x80u, 
 452:.\Generated_Source\PSoC5/cyfitter_cfg.c **** 	0x00u, 
 453:.\Generated_Source\PSoC5/cyfitter_cfg.c **** 	0x02u, 
 454:.\Generated_Source\PSoC5/cyfitter_cfg.c **** };
 455:.\Generated_Source\PSoC5/cyfitter_cfg.c **** 
 456:.\Generated_Source\PSoC5/cyfitter_cfg.c **** static const uint8 CYCODE AMux_2__innerMap[9] = {
 457:.\Generated_Source\PSoC5/cyfitter_cfg.c **** 	0u, 
 458:.\Generated_Source\PSoC5/cyfitter_cfg.c **** 	1u, 
 459:.\Generated_Source\PSoC5/cyfitter_cfg.c **** 	0u, 
 460:.\Generated_Source\PSoC5/cyfitter_cfg.c **** 	1u, 
 461:.\Generated_Source\PSoC5/cyfitter_cfg.c **** 	2u, 
 462:.\Generated_Source\PSoC5/cyfitter_cfg.c **** 	1u, 
 463:.\Generated_Source\PSoC5/cyfitter_cfg.c **** 	2u, 
 464:.\Generated_Source\PSoC5/cyfitter_cfg.c **** 	1u, 
 465:.\Generated_Source\PSoC5/cyfitter_cfg.c **** 	3u, 
 466:.\Generated_Source\PSoC5/cyfitter_cfg.c **** };
 467:.\Generated_Source\PSoC5/cyfitter_cfg.c **** 
 468:.\Generated_Source\PSoC5/cyfitter_cfg.c **** static uint16 AMux_2__armsEnabled = 0u;
 469:.\Generated_Source\PSoC5/cyfitter_cfg.c **** static uint8 AMux_2__refCnt[] = {0u, 0u, 0u, 0u};
 470:.\Generated_Source\PSoC5/cyfitter_cfg.c **** 
 471:.\Generated_Source\PSoC5/cyfitter_cfg.c **** /*******************************************************************************
 472:.\Generated_Source\PSoC5/cyfitter_cfg.c **** * Function Name: AMux_2_Set
 473:.\Generated_Source\PSoC5/cyfitter_cfg.c **** ********************************************************************************
 474:.\Generated_Source\PSoC5/cyfitter_cfg.c **** * Summary:
 475:.\Generated_Source\PSoC5/cyfitter_cfg.c **** *  This function is used to set a particular channel as active on the AMux.
 476:.\Generated_Source\PSoC5/cyfitter_cfg.c **** *
 477:.\Generated_Source\PSoC5/cyfitter_cfg.c **** * Parameters:  
 478:.\Generated_Source\PSoC5/cyfitter_cfg.c **** *   channel - The mux channel input to set as active
 479:.\Generated_Source\PSoC5/cyfitter_cfg.c **** *
 480:.\Generated_Source\PSoC5/cyfitter_cfg.c **** * Return:
 481:.\Generated_Source\PSoC5/cyfitter_cfg.c **** *   void
 482:.\Generated_Source\PSoC5/cyfitter_cfg.c **** *
 483:.\Generated_Source\PSoC5/cyfitter_cfg.c **** *******************************************************************************/
 484:.\Generated_Source\PSoC5/cyfitter_cfg.c **** void AMux_2_Set(uint8 channel)
 485:.\Generated_Source\PSoC5/cyfitter_cfg.c **** {
 969              		.loc 1 485 0
 970              		.cfi_startproc
 971              		@ args = 0, pretend = 0, frame = 16
 972              		@ frame_needed = 1, uses_anonymous_args = 0
 973              		@ link register save eliminated.
 974 0000 80B4     		push	{r7}
 975              		.cfi_def_cfa_offset 4
 976              		.cfi_offset 7, -4
 977 0002 85B0     		sub	sp, sp, #20
 978              		.cfi_def_cfa_offset 24
 979 0004 00AF     		add	r7, sp, #0
 980              		.cfi_def_cfa_register 7
 981 0006 0346     		mov	r3, r0
 982 0008 FB71     		strb	r3, [r7, #7]
 486:.\Generated_Source\PSoC5/cyfitter_cfg.c **** 	uint8 i;
 487:.\Generated_Source\PSoC5/cyfitter_cfg.c **** 	uint16 channelMask = (1UL << channel);
 983              		.loc 1 487 0
 984 000a FB79     		ldrb	r3, [r7, #7]	@ zero_extendqisi2
 985 000c 0122     		movs	r2, #1
 986 000e 02FA03F3 		lsl	r3, r2, r3
ARM GAS  C:\Users\glenn\AppData\Local\Temp\cc8YMqik.s 			page 27


 987 0012 FB81     		strh	r3, [r7, #14]	@ movhi
 488:.\Generated_Source\PSoC5/cyfitter_cfg.c **** 	if ((channel < 9u) && ((AMux_2__armsEnabled & channelMask) == ((uint32)0u)))
 988              		.loc 1 488 0
 989 0014 FB79     		ldrb	r3, [r7, #7]	@ zero_extendqisi2
 990 0016 082B     		cmp	r3, #8
 991 0018 3BD8     		bhi	.L37
 992              		.loc 1 488 0 is_stmt 0 discriminator 1
 993 001a 204B     		ldr	r3, .L40
 994 001c 1A88     		ldrh	r2, [r3]
 995 001e FB89     		ldrh	r3, [r7, #14]	@ movhi
 996 0020 1340     		ands	r3, r3, r2
 997 0022 9BB2     		uxth	r3, r3
 998 0024 002B     		cmp	r3, #0
 999 0026 34D1     		bne	.L37
 489:.\Generated_Source\PSoC5/cyfitter_cfg.c **** 	{
 490:.\Generated_Source\PSoC5/cyfitter_cfg.c **** 		AMux_2__armsEnabled |= channelMask;
 1000              		.loc 1 490 0 is_stmt 1
 1001 0028 1C4B     		ldr	r3, .L40
 1002 002a 1A88     		ldrh	r2, [r3]
 1003 002c FB89     		ldrh	r3, [r7, #14]	@ movhi
 1004 002e 1343     		orrs	r3, r3, r2
 1005 0030 9AB2     		uxth	r2, r3
 1006 0032 1A4B     		ldr	r3, .L40
 1007 0034 1A80     		strh	r2, [r3]	@ movhi
 491:.\Generated_Source\PSoC5/cyfitter_cfg.c **** 		*AMux_2__outerAddr[channel] |= AMux_2__outerMask[channel];
 1008              		.loc 1 491 0
 1009 0036 FB79     		ldrb	r3, [r7, #7]	@ zero_extendqisi2
 1010 0038 194A     		ldr	r2, .L40+4
 1011 003a 52F82330 		ldr	r3, [r2, r3, lsl #2]
 1012 003e FA79     		ldrb	r2, [r7, #7]	@ zero_extendqisi2
 1013 0040 1749     		ldr	r1, .L40+4
 1014 0042 51F82220 		ldr	r2, [r1, r2, lsl #2]
 1015 0046 1178     		ldrb	r1, [r2]	@ zero_extendqisi2
 1016 0048 FA79     		ldrb	r2, [r7, #7]	@ zero_extendqisi2
 1017 004a 1648     		ldr	r0, .L40+8
 1018 004c 825C     		ldrb	r2, [r0, r2]	@ zero_extendqisi2
 1019 004e 0A43     		orrs	r2, r2, r1
 1020 0050 D2B2     		uxtb	r2, r2
 1021 0052 1A70     		strb	r2, [r3]
 492:.\Generated_Source\PSoC5/cyfitter_cfg.c **** 		i = AMux_2__innerMap[channel];
 1022              		.loc 1 492 0
 1023 0054 FB79     		ldrb	r3, [r7, #7]	@ zero_extendqisi2
 1024 0056 144A     		ldr	r2, .L40+12
 1025 0058 D35C     		ldrb	r3, [r2, r3]
 1026 005a 7B73     		strb	r3, [r7, #13]
 493:.\Generated_Source\PSoC5/cyfitter_cfg.c **** 		if (AMux_2__refCnt[i] == 0u)
 1027              		.loc 1 493 0
 1028 005c 7B7B     		ldrb	r3, [r7, #13]	@ zero_extendqisi2
 1029 005e 134A     		ldr	r2, .L40+16
 1030 0060 D35C     		ldrb	r3, [r2, r3]	@ zero_extendqisi2
 1031 0062 002B     		cmp	r3, #0
 1032 0064 0ED1     		bne	.L39
 494:.\Generated_Source\PSoC5/cyfitter_cfg.c **** 		{
 495:.\Generated_Source\PSoC5/cyfitter_cfg.c **** 			*AMux_2__innerAddr[i] |= AMux_2__innerMask[i];
 1033              		.loc 1 495 0
 1034 0066 7B7B     		ldrb	r3, [r7, #13]	@ zero_extendqisi2
 1035 0068 114A     		ldr	r2, .L40+20
ARM GAS  C:\Users\glenn\AppData\Local\Temp\cc8YMqik.s 			page 28


 1036 006a 52F82330 		ldr	r3, [r2, r3, lsl #2]
 1037 006e 7A7B     		ldrb	r2, [r7, #13]	@ zero_extendqisi2
 1038 0070 0F49     		ldr	r1, .L40+20
 1039 0072 51F82220 		ldr	r2, [r1, r2, lsl #2]
 1040 0076 1178     		ldrb	r1, [r2]	@ zero_extendqisi2
 1041 0078 7A7B     		ldrb	r2, [r7, #13]	@ zero_extendqisi2
 1042 007a 0E48     		ldr	r0, .L40+24
 1043 007c 825C     		ldrb	r2, [r0, r2]	@ zero_extendqisi2
 1044 007e 0A43     		orrs	r2, r2, r1
 1045 0080 D2B2     		uxtb	r2, r2
 1046 0082 1A70     		strb	r2, [r3]
 1047              	.L39:
 496:.\Generated_Source\PSoC5/cyfitter_cfg.c **** 		}
 497:.\Generated_Source\PSoC5/cyfitter_cfg.c **** 		AMux_2__refCnt[i]++;
 1048              		.loc 1 497 0
 1049 0084 7B7B     		ldrb	r3, [r7, #13]	@ zero_extendqisi2
 1050 0086 094A     		ldr	r2, .L40+16
 1051 0088 D25C     		ldrb	r2, [r2, r3]	@ zero_extendqisi2
 1052 008a 0132     		adds	r2, r2, #1
 1053 008c D1B2     		uxtb	r1, r2
 1054 008e 074A     		ldr	r2, .L40+16
 1055 0090 D154     		strb	r1, [r2, r3]
 1056              	.L37:
 498:.\Generated_Source\PSoC5/cyfitter_cfg.c **** 	}
 499:.\Generated_Source\PSoC5/cyfitter_cfg.c **** }
 1057              		.loc 1 499 0
 1058 0092 1437     		adds	r7, r7, #20
 1059              		.cfi_def_cfa_offset 4
 1060 0094 BD46     		mov	sp, r7
 1061              		.cfi_def_cfa_register 13
 1062              		@ sp needed
 1063 0096 5DF8047B 		ldr	r7, [sp], #4
 1064              		.cfi_restore 7
 1065              		.cfi_def_cfa_offset 0
 1066 009a 7047     		bx	lr
 1067              	.L41:
 1068              		.align	2
 1069              	.L40:
 1070 009c 00000000 		.word	AMux_2__armsEnabled
 1071 00a0 30000000 		.word	AMux_2__outerAddr
 1072 00a4 54000000 		.word	AMux_2__outerMask
 1073 00a8 74000000 		.word	AMux_2__innerMap
 1074 00ac 04000000 		.word	AMux_2__refCnt
 1075 00b0 60000000 		.word	AMux_2__innerAddr
 1076 00b4 70000000 		.word	AMux_2__innerMask
 1077              		.cfi_endproc
 1078              	.LFE10:
 1079              		.size	AMux_2_Set, .-AMux_2_Set
 1080              		.section	.text.AMux_2_Unset,"ax",%progbits
 1081              		.align	2
 1082              		.global	AMux_2_Unset
 1083              		.thumb
 1084              		.thumb_func
 1085              		.type	AMux_2_Unset, %function
 1086              	AMux_2_Unset:
 1087              	.LFB11:
 500:.\Generated_Source\PSoC5/cyfitter_cfg.c **** 
ARM GAS  C:\Users\glenn\AppData\Local\Temp\cc8YMqik.s 			page 29


 501:.\Generated_Source\PSoC5/cyfitter_cfg.c **** /*******************************************************************************
 502:.\Generated_Source\PSoC5/cyfitter_cfg.c **** * Function Name: AMux_2_Unset
 503:.\Generated_Source\PSoC5/cyfitter_cfg.c **** ********************************************************************************
 504:.\Generated_Source\PSoC5/cyfitter_cfg.c **** * Summary:
 505:.\Generated_Source\PSoC5/cyfitter_cfg.c **** *  This function is used to clear a particular channel from being active on the
 506:.\Generated_Source\PSoC5/cyfitter_cfg.c **** *  AMux.
 507:.\Generated_Source\PSoC5/cyfitter_cfg.c **** *
 508:.\Generated_Source\PSoC5/cyfitter_cfg.c **** * Parameters:  
 509:.\Generated_Source\PSoC5/cyfitter_cfg.c **** *   channel - The mux channel input to mark inactive
 510:.\Generated_Source\PSoC5/cyfitter_cfg.c **** *
 511:.\Generated_Source\PSoC5/cyfitter_cfg.c **** * Return:
 512:.\Generated_Source\PSoC5/cyfitter_cfg.c **** *   void
 513:.\Generated_Source\PSoC5/cyfitter_cfg.c **** *
 514:.\Generated_Source\PSoC5/cyfitter_cfg.c **** *******************************************************************************/
 515:.\Generated_Source\PSoC5/cyfitter_cfg.c **** void AMux_2_Unset(uint8 channel)
 516:.\Generated_Source\PSoC5/cyfitter_cfg.c **** {
 1088              		.loc 1 516 0
 1089              		.cfi_startproc
 1090              		@ args = 0, pretend = 0, frame = 16
 1091              		@ frame_needed = 1, uses_anonymous_args = 0
 1092              		@ link register save eliminated.
 1093 0000 80B4     		push	{r7}
 1094              		.cfi_def_cfa_offset 4
 1095              		.cfi_offset 7, -4
 1096 0002 85B0     		sub	sp, sp, #20
 1097              		.cfi_def_cfa_offset 24
 1098 0004 00AF     		add	r7, sp, #0
 1099              		.cfi_def_cfa_register 7
 1100 0006 0346     		mov	r3, r0
 1101 0008 FB71     		strb	r3, [r7, #7]
 517:.\Generated_Source\PSoC5/cyfitter_cfg.c **** 	uint8 i;
 518:.\Generated_Source\PSoC5/cyfitter_cfg.c **** 	uint16 channelMask = (1UL << channel);
 1102              		.loc 1 518 0
 1103 000a FB79     		ldrb	r3, [r7, #7]	@ zero_extendqisi2
 1104 000c 0122     		movs	r2, #1
 1105 000e 02FA03F3 		lsl	r3, r2, r3
 1106 0012 FB81     		strh	r3, [r7, #14]	@ movhi
 519:.\Generated_Source\PSoC5/cyfitter_cfg.c **** 	if ((channel < 9u) && ((AMux_2__armsEnabled & channelMask) != ((uint32)0u)))
 1107              		.loc 1 519 0
 1108 0014 FB79     		ldrb	r3, [r7, #7]	@ zero_extendqisi2
 1109 0016 082B     		cmp	r3, #8
 1110 0018 41D8     		bhi	.L42
 1111              		.loc 1 519 0 is_stmt 0 discriminator 1
 1112 001a 234B     		ldr	r3, .L44
 1113 001c 1A88     		ldrh	r2, [r3]
 1114 001e FB89     		ldrh	r3, [r7, #14]	@ movhi
 1115 0020 1340     		ands	r3, r3, r2
 1116 0022 9BB2     		uxth	r3, r3
 1117 0024 002B     		cmp	r3, #0
 1118 0026 3AD0     		beq	.L42
 520:.\Generated_Source\PSoC5/cyfitter_cfg.c **** 	{
 521:.\Generated_Source\PSoC5/cyfitter_cfg.c **** 		AMux_2__armsEnabled &= (uint16)~channelMask;
 1119              		.loc 1 521 0 is_stmt 1
 1120 0028 FB89     		ldrh	r3, [r7, #14]	@ movhi
 1121 002a DB43     		mvns	r3, r3
 1122 002c 9AB2     		uxth	r2, r3
 1123 002e 1E4B     		ldr	r3, .L44
ARM GAS  C:\Users\glenn\AppData\Local\Temp\cc8YMqik.s 			page 30


 1124 0030 1B88     		ldrh	r3, [r3]
 1125 0032 1340     		ands	r3, r3, r2
 1126 0034 9AB2     		uxth	r2, r3
 1127 0036 1C4B     		ldr	r3, .L44
 1128 0038 1A80     		strh	r2, [r3]	@ movhi
 522:.\Generated_Source\PSoC5/cyfitter_cfg.c **** 		*AMux_2__outerAddr[channel] &= (uint8)~AMux_2__outerMask[channel];
 1129              		.loc 1 522 0
 1130 003a FB79     		ldrb	r3, [r7, #7]	@ zero_extendqisi2
 1131 003c 1B4A     		ldr	r2, .L44+4
 1132 003e 52F82330 		ldr	r3, [r2, r3, lsl #2]
 1133 0042 FA79     		ldrb	r2, [r7, #7]	@ zero_extendqisi2
 1134 0044 1949     		ldr	r1, .L44+4
 1135 0046 51F82220 		ldr	r2, [r1, r2, lsl #2]
 1136 004a 1178     		ldrb	r1, [r2]	@ zero_extendqisi2
 1137 004c FA79     		ldrb	r2, [r7, #7]	@ zero_extendqisi2
 1138 004e 1848     		ldr	r0, .L44+8
 1139 0050 825C     		ldrb	r2, [r0, r2]	@ zero_extendqisi2
 1140 0052 D243     		mvns	r2, r2
 1141 0054 D2B2     		uxtb	r2, r2
 1142 0056 0A40     		ands	r2, r2, r1
 1143 0058 D2B2     		uxtb	r2, r2
 1144 005a 1A70     		strb	r2, [r3]
 523:.\Generated_Source\PSoC5/cyfitter_cfg.c **** 		i = AMux_2__innerMap[channel];
 1145              		.loc 1 523 0
 1146 005c FB79     		ldrb	r3, [r7, #7]	@ zero_extendqisi2
 1147 005e 154A     		ldr	r2, .L44+12
 1148 0060 D35C     		ldrb	r3, [r2, r3]
 1149 0062 7B73     		strb	r3, [r7, #13]
 524:.\Generated_Source\PSoC5/cyfitter_cfg.c **** 		AMux_2__refCnt[i]--;
 1150              		.loc 1 524 0
 1151 0064 7B7B     		ldrb	r3, [r7, #13]	@ zero_extendqisi2
 1152 0066 144A     		ldr	r2, .L44+16
 1153 0068 D25C     		ldrb	r2, [r2, r3]	@ zero_extendqisi2
 1154 006a 013A     		subs	r2, r2, #1
 1155 006c D1B2     		uxtb	r1, r2
 1156 006e 124A     		ldr	r2, .L44+16
 1157 0070 D154     		strb	r1, [r2, r3]
 525:.\Generated_Source\PSoC5/cyfitter_cfg.c **** 		if (AMux_2__refCnt[i] == 0)
 1158              		.loc 1 525 0
 1159 0072 7B7B     		ldrb	r3, [r7, #13]	@ zero_extendqisi2
 1160 0074 104A     		ldr	r2, .L44+16
 1161 0076 D35C     		ldrb	r3, [r2, r3]	@ zero_extendqisi2
 1162 0078 002B     		cmp	r3, #0
 1163 007a 10D1     		bne	.L42
 526:.\Generated_Source\PSoC5/cyfitter_cfg.c **** 		{
 527:.\Generated_Source\PSoC5/cyfitter_cfg.c **** 			*AMux_2__innerAddr[i] &= (uint8)~AMux_2__innerMask[i];
 1164              		.loc 1 527 0
 1165 007c 7B7B     		ldrb	r3, [r7, #13]	@ zero_extendqisi2
 1166 007e 0F4A     		ldr	r2, .L44+20
 1167 0080 52F82330 		ldr	r3, [r2, r3, lsl #2]
 1168 0084 7A7B     		ldrb	r2, [r7, #13]	@ zero_extendqisi2
 1169 0086 0D49     		ldr	r1, .L44+20
 1170 0088 51F82220 		ldr	r2, [r1, r2, lsl #2]
 1171 008c 1178     		ldrb	r1, [r2]	@ zero_extendqisi2
 1172 008e 7A7B     		ldrb	r2, [r7, #13]	@ zero_extendqisi2
 1173 0090 0B48     		ldr	r0, .L44+24
 1174 0092 825C     		ldrb	r2, [r0, r2]	@ zero_extendqisi2
ARM GAS  C:\Users\glenn\AppData\Local\Temp\cc8YMqik.s 			page 31


 1175 0094 D243     		mvns	r2, r2
 1176 0096 D2B2     		uxtb	r2, r2
 1177 0098 0A40     		ands	r2, r2, r1
 1178 009a D2B2     		uxtb	r2, r2
 1179 009c 1A70     		strb	r2, [r3]
 1180              	.L42:
 528:.\Generated_Source\PSoC5/cyfitter_cfg.c **** 		}
 529:.\Generated_Source\PSoC5/cyfitter_cfg.c **** 	}
 530:.\Generated_Source\PSoC5/cyfitter_cfg.c **** }
 1181              		.loc 1 530 0
 1182 009e 1437     		adds	r7, r7, #20
 1183              		.cfi_def_cfa_offset 4
 1184 00a0 BD46     		mov	sp, r7
 1185              		.cfi_def_cfa_register 13
 1186              		@ sp needed
 1187 00a2 5DF8047B 		ldr	r7, [sp], #4
 1188              		.cfi_restore 7
 1189              		.cfi_def_cfa_offset 0
 1190 00a6 7047     		bx	lr
 1191              	.L45:
 1192              		.align	2
 1193              	.L44:
 1194 00a8 00000000 		.word	AMux_2__armsEnabled
 1195 00ac 30000000 		.word	AMux_2__outerAddr
 1196 00b0 54000000 		.word	AMux_2__outerMask
 1197 00b4 74000000 		.word	AMux_2__innerMap
 1198 00b8 04000000 		.word	AMux_2__refCnt
 1199 00bc 60000000 		.word	AMux_2__innerAddr
 1200 00c0 70000000 		.word	AMux_2__innerMask
 1201              		.cfi_endproc
 1202              	.LFE11:
 1203              		.size	AMux_2_Unset, .-AMux_2_Unset
 1204              		.section	.text.cyfitter_cfg,"ax",%progbits
 1205              		.align	2
 1206              		.global	cyfitter_cfg
 1207              		.thumb
 1208              		.thumb_func
 1209              		.type	cyfitter_cfg, %function
 1210              	cyfitter_cfg:
 1211              	.LFB12:
 531:.\Generated_Source\PSoC5/cyfitter_cfg.c **** 
 532:.\Generated_Source\PSoC5/cyfitter_cfg.c **** 
 533:.\Generated_Source\PSoC5/cyfitter_cfg.c **** 
 534:.\Generated_Source\PSoC5/cyfitter_cfg.c **** /*******************************************************************************
 535:.\Generated_Source\PSoC5/cyfitter_cfg.c **** * Function Name: cyfitter_cfg
 536:.\Generated_Source\PSoC5/cyfitter_cfg.c **** ********************************************************************************
 537:.\Generated_Source\PSoC5/cyfitter_cfg.c **** * Summary:
 538:.\Generated_Source\PSoC5/cyfitter_cfg.c **** *  This function is called by the start-up code for the selected device. It
 539:.\Generated_Source\PSoC5/cyfitter_cfg.c **** *  performs all of the necessary device configuration based on the design
 540:.\Generated_Source\PSoC5/cyfitter_cfg.c **** *  settings.  This includes settings from the Design Wide Resources (DWR) such
 541:.\Generated_Source\PSoC5/cyfitter_cfg.c **** *  as Clocks and Pins as well as any component configuration that is necessary.
 542:.\Generated_Source\PSoC5/cyfitter_cfg.c **** *
 543:.\Generated_Source\PSoC5/cyfitter_cfg.c **** * Parameters:  
 544:.\Generated_Source\PSoC5/cyfitter_cfg.c **** *   void
 545:.\Generated_Source\PSoC5/cyfitter_cfg.c **** *
 546:.\Generated_Source\PSoC5/cyfitter_cfg.c **** * Return:
 547:.\Generated_Source\PSoC5/cyfitter_cfg.c **** *   void
ARM GAS  C:\Users\glenn\AppData\Local\Temp\cc8YMqik.s 			page 32


 548:.\Generated_Source\PSoC5/cyfitter_cfg.c **** *
 549:.\Generated_Source\PSoC5/cyfitter_cfg.c **** *******************************************************************************/
 550:.\Generated_Source\PSoC5/cyfitter_cfg.c **** 
 551:.\Generated_Source\PSoC5/cyfitter_cfg.c **** void cyfitter_cfg(void)
 552:.\Generated_Source\PSoC5/cyfitter_cfg.c **** {
 1212              		.loc 1 552 0
 1213              		.cfi_startproc
 1214              		@ args = 0, pretend = 0, frame = 8
 1215              		@ frame_needed = 1, uses_anonymous_args = 0
 1216 0000 80B5     		push	{r7, lr}
 1217              		.cfi_def_cfa_offset 8
 1218              		.cfi_offset 7, -8
 1219              		.cfi_offset 14, -4
 1220 0002 82B0     		sub	sp, sp, #8
 1221              		.cfi_def_cfa_offset 16
 1222 0004 00AF     		add	r7, sp, #0
 1223              		.cfi_def_cfa_register 7
 553:.\Generated_Source\PSoC5/cyfitter_cfg.c **** 	/* IOPINS0_0 Address: CYREG_PRT0_DM0 Size (bytes): 8 */
 554:.\Generated_Source\PSoC5/cyfitter_cfg.c **** 	static const uint8 CYCODE BS_IOPINS0_0_VAL[] = {
 555:.\Generated_Source\PSoC5/cyfitter_cfg.c **** 		0x00u, 0x00u, 0x00u, 0x00u, 0x00u, 0x00u, 0xFFu, 0x00u};
 556:.\Generated_Source\PSoC5/cyfitter_cfg.c **** 
 557:.\Generated_Source\PSoC5/cyfitter_cfg.c **** 	/* IOPINS0_1 Address: CYREG_PRT1_DR Size (bytes): 10 */
 558:.\Generated_Source\PSoC5/cyfitter_cfg.c **** 	static const uint8 CYCODE BS_IOPINS0_1_VAL[] = {
 559:.\Generated_Source\PSoC5/cyfitter_cfg.c **** 		0x00u, 0x00u, 0x20u, 0xC4u, 0xC0u, 0x00u, 0xC0u, 0x00u, 0x00u, 0x00u};
 560:.\Generated_Source\PSoC5/cyfitter_cfg.c **** 
 561:.\Generated_Source\PSoC5/cyfitter_cfg.c **** 	/* IOPINS0_2 Address: CYREG_PRT2_DR Size (bytes): 10 */
 562:.\Generated_Source\PSoC5/cyfitter_cfg.c **** 	static const uint8 CYCODE BS_IOPINS0_2_VAL[] = {
 563:.\Generated_Source\PSoC5/cyfitter_cfg.c **** 		0x86u, 0x00u, 0x40u, 0xC6u, 0x02u, 0x00u, 0x00u, 0x08u, 0x38u, 0x00u};
 564:.\Generated_Source\PSoC5/cyfitter_cfg.c **** 
 565:.\Generated_Source\PSoC5/cyfitter_cfg.c **** 	/* IOPINS0_3 Address: CYREG_PRT3_DM0 Size (bytes): 8 */
 566:.\Generated_Source\PSoC5/cyfitter_cfg.c **** 	static const uint8 CYCODE BS_IOPINS0_3_VAL[] = {
 567:.\Generated_Source\PSoC5/cyfitter_cfg.c **** 		0x00u, 0x00u, 0x00u, 0x00u, 0x00u, 0x00u, 0xFFu, 0x00u};
 568:.\Generated_Source\PSoC5/cyfitter_cfg.c **** 
 569:.\Generated_Source\PSoC5/cyfitter_cfg.c **** 	/* PHUB_CFGMEM1 Address: CYREG_PHUB_CFGMEM1_CFG0 Size (bytes): 4 */
 570:.\Generated_Source\PSoC5/cyfitter_cfg.c **** 	static const uint8 CYCODE BS_PHUB_CFGMEM1_VAL[] = {
 571:.\Generated_Source\PSoC5/cyfitter_cfg.c **** 		0x00u, 0x01u, 0x00u, 0x00u};
 572:.\Generated_Source\PSoC5/cyfitter_cfg.c **** 
 573:.\Generated_Source\PSoC5/cyfitter_cfg.c **** #ifdef CYGlobalIntDisable
 574:.\Generated_Source\PSoC5/cyfitter_cfg.c **** 	/* Disable interrupts by default. Let user enable if/when they want. */
 575:.\Generated_Source\PSoC5/cyfitter_cfg.c **** 	CYGlobalIntDisable
 1224              		.loc 1 575 0
 1225              	@ 575 ".\Generated_Source\PSoC5\cyfitter_cfg.c" 1
 1226 0006 72B6     		CPSID   i
 1227              	@ 0 "" 2
 576:.\Generated_Source\PSoC5/cyfitter_cfg.c **** #endif
 577:.\Generated_Source\PSoC5/cyfitter_cfg.c **** 
 578:.\Generated_Source\PSoC5/cyfitter_cfg.c **** 	/* Enable/Disable Debug functionality based on settings from System DWR */
 579:.\Generated_Source\PSoC5/cyfitter_cfg.c **** 	CY_SET_XTND_REG8((void CYFAR *)CYREG_MLOGIC_DEBUG, (CY_GET_XTND_REG8((void CYFAR *)CYREG_MLOGIC_DE
 1228              		.loc 1 579 0
 1229              		.thumb
 1230 0008 404A     		ldr	r2, .L49
 1231 000a 404B     		ldr	r3, .L49
 1232 000c 1B78     		ldrb	r3, [r3]
 1233 000e DBB2     		uxtb	r3, r3
 1234 0010 43F00403 		orr	r3, r3, #4
 1235 0014 DBB2     		uxtb	r3, r3
 1236 0016 1370     		strb	r3, [r2]
ARM GAS  C:\Users\glenn\AppData\Local\Temp\cc8YMqik.s 			page 33


 1237              	.LBB3:
 580:.\Generated_Source\PSoC5/cyfitter_cfg.c **** 
 581:.\Generated_Source\PSoC5/cyfitter_cfg.c **** 	{
 582:.\Generated_Source\PSoC5/cyfitter_cfg.c **** 		static const uint32 CYCODE cy_cfg_addr_table[] = {
 583:.\Generated_Source\PSoC5/cyfitter_cfg.c **** 			0x40005201u, /* Base address: 0x40005200 Count: 1 */
 584:.\Generated_Source\PSoC5/cyfitter_cfg.c **** 			0x40005B01u, /* Base address: 0x40005B00 Count: 1 */
 585:.\Generated_Source\PSoC5/cyfitter_cfg.c **** 			0x40006402u, /* Base address: 0x40006400 Count: 2 */
 586:.\Generated_Source\PSoC5/cyfitter_cfg.c **** 			0x40006501u, /* Base address: 0x40006500 Count: 1 */
 587:.\Generated_Source\PSoC5/cyfitter_cfg.c **** 			0x40010102u, /* Base address: 0x40010100 Count: 2 */
 588:.\Generated_Source\PSoC5/cyfitter_cfg.c **** 			0x40010302u, /* Base address: 0x40010300 Count: 2 */
 589:.\Generated_Source\PSoC5/cyfitter_cfg.c **** 			0x40010404u, /* Base address: 0x40010400 Count: 4 */
 590:.\Generated_Source\PSoC5/cyfitter_cfg.c **** 			0x40010502u, /* Base address: 0x40010500 Count: 2 */
 591:.\Generated_Source\PSoC5/cyfitter_cfg.c **** 			0x40010618u, /* Base address: 0x40010600 Count: 24 */
 592:.\Generated_Source\PSoC5/cyfitter_cfg.c **** 			0x40010733u, /* Base address: 0x40010700 Count: 51 */
 593:.\Generated_Source\PSoC5/cyfitter_cfg.c **** 			0x4001082Du, /* Base address: 0x40010800 Count: 45 */
 594:.\Generated_Source\PSoC5/cyfitter_cfg.c **** 			0x4001094Bu, /* Base address: 0x40010900 Count: 75 */
 595:.\Generated_Source\PSoC5/cyfitter_cfg.c **** 			0x40010A15u, /* Base address: 0x40010A00 Count: 21 */
 596:.\Generated_Source\PSoC5/cyfitter_cfg.c **** 			0x40010B3Du, /* Base address: 0x40010B00 Count: 61 */
 597:.\Generated_Source\PSoC5/cyfitter_cfg.c **** 			0x40010C4Fu, /* Base address: 0x40010C00 Count: 79 */
 598:.\Generated_Source\PSoC5/cyfitter_cfg.c **** 			0x40010D42u, /* Base address: 0x40010D00 Count: 66 */
 599:.\Generated_Source\PSoC5/cyfitter_cfg.c **** 			0x40010E32u, /* Base address: 0x40010E00 Count: 50 */
 600:.\Generated_Source\PSoC5/cyfitter_cfg.c **** 			0x40010F35u, /* Base address: 0x40010F00 Count: 53 */
 601:.\Generated_Source\PSoC5/cyfitter_cfg.c **** 			0x40011502u, /* Base address: 0x40011500 Count: 2 */
 602:.\Generated_Source\PSoC5/cyfitter_cfg.c **** 			0x4001160Au, /* Base address: 0x40011600 Count: 10 */
 603:.\Generated_Source\PSoC5/cyfitter_cfg.c **** 			0x40011736u, /* Base address: 0x40011700 Count: 54 */
 604:.\Generated_Source\PSoC5/cyfitter_cfg.c **** 			0x4001183Cu, /* Base address: 0x40011800 Count: 60 */
 605:.\Generated_Source\PSoC5/cyfitter_cfg.c **** 			0x40011947u, /* Base address: 0x40011900 Count: 71 */
 606:.\Generated_Source\PSoC5/cyfitter_cfg.c **** 			0x40011A43u, /* Base address: 0x40011A00 Count: 67 */
 607:.\Generated_Source\PSoC5/cyfitter_cfg.c **** 			0x40011B40u, /* Base address: 0x40011B00 Count: 64 */
 608:.\Generated_Source\PSoC5/cyfitter_cfg.c **** 			0x4001400Fu, /* Base address: 0x40014000 Count: 15 */
 609:.\Generated_Source\PSoC5/cyfitter_cfg.c **** 			0x4001410Du, /* Base address: 0x40014100 Count: 13 */
 610:.\Generated_Source\PSoC5/cyfitter_cfg.c **** 			0x40014206u, /* Base address: 0x40014200 Count: 6 */
 611:.\Generated_Source\PSoC5/cyfitter_cfg.c **** 			0x4001430Au, /* Base address: 0x40014300 Count: 10 */
 612:.\Generated_Source\PSoC5/cyfitter_cfg.c **** 			0x40014402u, /* Base address: 0x40014400 Count: 2 */
 613:.\Generated_Source\PSoC5/cyfitter_cfg.c **** 			0x4001450Bu, /* Base address: 0x40014500 Count: 11 */
 614:.\Generated_Source\PSoC5/cyfitter_cfg.c **** 			0x40014610u, /* Base address: 0x40014600 Count: 16 */
 615:.\Generated_Source\PSoC5/cyfitter_cfg.c **** 			0x40014709u, /* Base address: 0x40014700 Count: 9 */
 616:.\Generated_Source\PSoC5/cyfitter_cfg.c **** 			0x40014808u, /* Base address: 0x40014800 Count: 8 */
 617:.\Generated_Source\PSoC5/cyfitter_cfg.c **** 			0x4001490Eu, /* Base address: 0x40014900 Count: 14 */
 618:.\Generated_Source\PSoC5/cyfitter_cfg.c **** 			0x40014C09u, /* Base address: 0x40014C00 Count: 9 */
 619:.\Generated_Source\PSoC5/cyfitter_cfg.c **** 			0x40014D03u, /* Base address: 0x40014D00 Count: 3 */
 620:.\Generated_Source\PSoC5/cyfitter_cfg.c **** 			0x40015009u, /* Base address: 0x40015000 Count: 9 */
 621:.\Generated_Source\PSoC5/cyfitter_cfg.c **** 			0x40015104u, /* Base address: 0x40015100 Count: 4 */
 622:.\Generated_Source\PSoC5/cyfitter_cfg.c **** 		};
 623:.\Generated_Source\PSoC5/cyfitter_cfg.c **** 
 624:.\Generated_Source\PSoC5/cyfitter_cfg.c **** 		static const cy_cfg_addrvalue_t CYCODE cy_cfg_data_table[] = {
 625:.\Generated_Source\PSoC5/cyfitter_cfg.c **** 			{0x09u, 0x80u},
 626:.\Generated_Source\PSoC5/cyfitter_cfg.c **** 			{0x27u, 0x84u},
 627:.\Generated_Source\PSoC5/cyfitter_cfg.c **** 			{0x89u, 0x72u},
 628:.\Generated_Source\PSoC5/cyfitter_cfg.c **** 			{0x8Fu, 0x0Fu},
 629:.\Generated_Source\PSoC5/cyfitter_cfg.c **** 			{0x8Au, 0x38u},
 630:.\Generated_Source\PSoC5/cyfitter_cfg.c **** 			{0xE2u, 0x08u},
 631:.\Generated_Source\PSoC5/cyfitter_cfg.c **** 			{0xE6u, 0x04u},
 632:.\Generated_Source\PSoC5/cyfitter_cfg.c **** 			{0xEAu, 0x04u},
 633:.\Generated_Source\PSoC5/cyfitter_cfg.c **** 			{0xEEu, 0x04u},
 634:.\Generated_Source\PSoC5/cyfitter_cfg.c **** 			{0x39u, 0x80u},
 635:.\Generated_Source\PSoC5/cyfitter_cfg.c **** 			{0x3Fu, 0x40u},
ARM GAS  C:\Users\glenn\AppData\Local\Temp\cc8YMqik.s 			page 34


 636:.\Generated_Source\PSoC5/cyfitter_cfg.c **** 			{0x59u, 0x04u},
 637:.\Generated_Source\PSoC5/cyfitter_cfg.c **** 			{0x5Fu, 0x01u},
 638:.\Generated_Source\PSoC5/cyfitter_cfg.c **** 			{0x20u, 0x01u},
 639:.\Generated_Source\PSoC5/cyfitter_cfg.c **** 			{0xE4u, 0x10u},
 640:.\Generated_Source\PSoC5/cyfitter_cfg.c **** 			{0x58u, 0x04u},
 641:.\Generated_Source\PSoC5/cyfitter_cfg.c **** 			{0x59u, 0x04u},
 642:.\Generated_Source\PSoC5/cyfitter_cfg.c **** 			{0x5Cu, 0x11u},
 643:.\Generated_Source\PSoC5/cyfitter_cfg.c **** 			{0x5Fu, 0x01u},
 644:.\Generated_Source\PSoC5/cyfitter_cfg.c **** 			{0x81u, 0x04u},
 645:.\Generated_Source\PSoC5/cyfitter_cfg.c **** 			{0x85u, 0x08u},
 646:.\Generated_Source\PSoC5/cyfitter_cfg.c **** 			{0x8Bu, 0x08u},
 647:.\Generated_Source\PSoC5/cyfitter_cfg.c **** 			{0x8Fu, 0x04u},
 648:.\Generated_Source\PSoC5/cyfitter_cfg.c **** 			{0x92u, 0x01u},
 649:.\Generated_Source\PSoC5/cyfitter_cfg.c **** 			{0x93u, 0x02u},
 650:.\Generated_Source\PSoC5/cyfitter_cfg.c **** 			{0x95u, 0x01u},
 651:.\Generated_Source\PSoC5/cyfitter_cfg.c **** 			{0x9Fu, 0x01u},
 652:.\Generated_Source\PSoC5/cyfitter_cfg.c **** 			{0xA3u, 0x10u},
 653:.\Generated_Source\PSoC5/cyfitter_cfg.c **** 			{0xA6u, 0x02u},
 654:.\Generated_Source\PSoC5/cyfitter_cfg.c **** 			{0xA9u, 0x02u},
 655:.\Generated_Source\PSoC5/cyfitter_cfg.c **** 			{0xB2u, 0x01u},
 656:.\Generated_Source\PSoC5/cyfitter_cfg.c **** 			{0xB5u, 0x1Fu},
 657:.\Generated_Source\PSoC5/cyfitter_cfg.c **** 			{0xB6u, 0x02u},
 658:.\Generated_Source\PSoC5/cyfitter_cfg.c **** 			{0xB9u, 0x20u},
 659:.\Generated_Source\PSoC5/cyfitter_cfg.c **** 			{0xBFu, 0x10u},
 660:.\Generated_Source\PSoC5/cyfitter_cfg.c **** 			{0xD8u, 0x04u},
 661:.\Generated_Source\PSoC5/cyfitter_cfg.c **** 			{0xD9u, 0x04u},
 662:.\Generated_Source\PSoC5/cyfitter_cfg.c **** 			{0xDCu, 0x11u},
 663:.\Generated_Source\PSoC5/cyfitter_cfg.c **** 			{0xDFu, 0x01u},
 664:.\Generated_Source\PSoC5/cyfitter_cfg.c **** 			{0x00u, 0x14u},
 665:.\Generated_Source\PSoC5/cyfitter_cfg.c **** 			{0x01u, 0x41u},
 666:.\Generated_Source\PSoC5/cyfitter_cfg.c **** 			{0x05u, 0x40u},
 667:.\Generated_Source\PSoC5/cyfitter_cfg.c **** 			{0x06u, 0x80u},
 668:.\Generated_Source\PSoC5/cyfitter_cfg.c **** 			{0x07u, 0x10u},
 669:.\Generated_Source\PSoC5/cyfitter_cfg.c **** 			{0x08u, 0x02u},
 670:.\Generated_Source\PSoC5/cyfitter_cfg.c **** 			{0x0Au, 0x12u},
 671:.\Generated_Source\PSoC5/cyfitter_cfg.c **** 			{0x0Bu, 0x08u},
 672:.\Generated_Source\PSoC5/cyfitter_cfg.c **** 			{0x0Eu, 0x10u},
 673:.\Generated_Source\PSoC5/cyfitter_cfg.c **** 			{0x12u, 0x10u},
 674:.\Generated_Source\PSoC5/cyfitter_cfg.c **** 			{0x15u, 0x41u},
 675:.\Generated_Source\PSoC5/cyfitter_cfg.c **** 			{0x17u, 0x08u},
 676:.\Generated_Source\PSoC5/cyfitter_cfg.c **** 			{0x19u, 0x40u},
 677:.\Generated_Source\PSoC5/cyfitter_cfg.c **** 			{0x1Au, 0x20u},
 678:.\Generated_Source\PSoC5/cyfitter_cfg.c **** 			{0x1Bu, 0x08u},
 679:.\Generated_Source\PSoC5/cyfitter_cfg.c **** 			{0x20u, 0x04u},
 680:.\Generated_Source\PSoC5/cyfitter_cfg.c **** 			{0x23u, 0x08u},
 681:.\Generated_Source\PSoC5/cyfitter_cfg.c **** 			{0x29u, 0x05u},
 682:.\Generated_Source\PSoC5/cyfitter_cfg.c **** 			{0x2Au, 0x80u},
 683:.\Generated_Source\PSoC5/cyfitter_cfg.c **** 			{0x2Bu, 0x04u},
 684:.\Generated_Source\PSoC5/cyfitter_cfg.c **** 			{0x2Fu, 0x08u},
 685:.\Generated_Source\PSoC5/cyfitter_cfg.c **** 			{0x31u, 0x80u},
 686:.\Generated_Source\PSoC5/cyfitter_cfg.c **** 			{0x32u, 0x22u},
 687:.\Generated_Source\PSoC5/cyfitter_cfg.c **** 			{0x33u, 0x08u},
 688:.\Generated_Source\PSoC5/cyfitter_cfg.c **** 			{0x35u, 0x44u},
 689:.\Generated_Source\PSoC5/cyfitter_cfg.c **** 			{0x36u, 0x20u},
 690:.\Generated_Source\PSoC5/cyfitter_cfg.c **** 			{0x37u, 0x18u},
 691:.\Generated_Source\PSoC5/cyfitter_cfg.c **** 			{0x39u, 0x01u},
 692:.\Generated_Source\PSoC5/cyfitter_cfg.c **** 			{0x3Au, 0x50u},
ARM GAS  C:\Users\glenn\AppData\Local\Temp\cc8YMqik.s 			page 35


 693:.\Generated_Source\PSoC5/cyfitter_cfg.c **** 			{0x3Bu, 0x08u},
 694:.\Generated_Source\PSoC5/cyfitter_cfg.c **** 			{0x3Du, 0x01u},
 695:.\Generated_Source\PSoC5/cyfitter_cfg.c **** 			{0x3Eu, 0x90u},
 696:.\Generated_Source\PSoC5/cyfitter_cfg.c **** 			{0x3Fu, 0x40u},
 697:.\Generated_Source\PSoC5/cyfitter_cfg.c **** 			{0x81u, 0x40u},
 698:.\Generated_Source\PSoC5/cyfitter_cfg.c **** 			{0x82u, 0x10u},
 699:.\Generated_Source\PSoC5/cyfitter_cfg.c **** 			{0x83u, 0x08u},
 700:.\Generated_Source\PSoC5/cyfitter_cfg.c **** 			{0x85u, 0x40u},
 701:.\Generated_Source\PSoC5/cyfitter_cfg.c **** 			{0x87u, 0x04u},
 702:.\Generated_Source\PSoC5/cyfitter_cfg.c **** 			{0x89u, 0x01u},
 703:.\Generated_Source\PSoC5/cyfitter_cfg.c **** 			{0x8Au, 0x03u},
 704:.\Generated_Source\PSoC5/cyfitter_cfg.c **** 			{0x8Bu, 0x40u},
 705:.\Generated_Source\PSoC5/cyfitter_cfg.c **** 			{0x8Eu, 0x10u},
 706:.\Generated_Source\PSoC5/cyfitter_cfg.c **** 			{0xB4u, 0x01u},
 707:.\Generated_Source\PSoC5/cyfitter_cfg.c **** 			{0xC0u, 0xBFu},
 708:.\Generated_Source\PSoC5/cyfitter_cfg.c **** 			{0xC2u, 0x2Fu},
 709:.\Generated_Source\PSoC5/cyfitter_cfg.c **** 			{0xC4u, 0xB4u},
 710:.\Generated_Source\PSoC5/cyfitter_cfg.c **** 			{0xCAu, 0x2Fu},
 711:.\Generated_Source\PSoC5/cyfitter_cfg.c **** 			{0xCCu, 0x7Fu},
 712:.\Generated_Source\PSoC5/cyfitter_cfg.c **** 			{0xCEu, 0xBFu},
 713:.\Generated_Source\PSoC5/cyfitter_cfg.c **** 			{0xE0u, 0x04u},
 714:.\Generated_Source\PSoC5/cyfitter_cfg.c **** 			{0xE4u, 0x0Cu},
 715:.\Generated_Source\PSoC5/cyfitter_cfg.c **** 			{0x01u, 0x40u},
 716:.\Generated_Source\PSoC5/cyfitter_cfg.c **** 			{0x03u, 0x80u},
 717:.\Generated_Source\PSoC5/cyfitter_cfg.c **** 			{0x05u, 0x08u},
 718:.\Generated_Source\PSoC5/cyfitter_cfg.c **** 			{0x0Bu, 0x04u},
 719:.\Generated_Source\PSoC5/cyfitter_cfg.c **** 			{0x0Du, 0x02u},
 720:.\Generated_Source\PSoC5/cyfitter_cfg.c **** 			{0x13u, 0x01u},
 721:.\Generated_Source\PSoC5/cyfitter_cfg.c **** 			{0x15u, 0x20u},
 722:.\Generated_Source\PSoC5/cyfitter_cfg.c **** 			{0x17u, 0x10u},
 723:.\Generated_Source\PSoC5/cyfitter_cfg.c **** 			{0x1Bu, 0x02u},
 724:.\Generated_Source\PSoC5/cyfitter_cfg.c **** 			{0x1Du, 0x10u},
 725:.\Generated_Source\PSoC5/cyfitter_cfg.c **** 			{0x1Fu, 0x20u},
 726:.\Generated_Source\PSoC5/cyfitter_cfg.c **** 			{0x21u, 0x04u},
 727:.\Generated_Source\PSoC5/cyfitter_cfg.c **** 			{0x27u, 0x08u},
 728:.\Generated_Source\PSoC5/cyfitter_cfg.c **** 			{0x29u, 0x01u},
 729:.\Generated_Source\PSoC5/cyfitter_cfg.c **** 			{0x2Du, 0x80u},
 730:.\Generated_Source\PSoC5/cyfitter_cfg.c **** 			{0x2Fu, 0x40u},
 731:.\Generated_Source\PSoC5/cyfitter_cfg.c **** 			{0x33u, 0xFFu},
 732:.\Generated_Source\PSoC5/cyfitter_cfg.c **** 			{0x3Fu, 0x04u},
 733:.\Generated_Source\PSoC5/cyfitter_cfg.c **** 			{0x52u, 0x03u},
 734:.\Generated_Source\PSoC5/cyfitter_cfg.c **** 			{0x53u, 0x02u},
 735:.\Generated_Source\PSoC5/cyfitter_cfg.c **** 			{0x58u, 0x04u},
 736:.\Generated_Source\PSoC5/cyfitter_cfg.c **** 			{0x59u, 0x04u},
 737:.\Generated_Source\PSoC5/cyfitter_cfg.c **** 			{0x5Bu, 0x04u},
 738:.\Generated_Source\PSoC5/cyfitter_cfg.c **** 			{0x5Cu, 0x01u},
 739:.\Generated_Source\PSoC5/cyfitter_cfg.c **** 			{0x5Du, 0x10u},
 740:.\Generated_Source\PSoC5/cyfitter_cfg.c **** 			{0x5Fu, 0x01u},
 741:.\Generated_Source\PSoC5/cyfitter_cfg.c **** 			{0x84u, 0x01u},
 742:.\Generated_Source\PSoC5/cyfitter_cfg.c **** 			{0x85u, 0x01u},
 743:.\Generated_Source\PSoC5/cyfitter_cfg.c **** 			{0x89u, 0x01u},
 744:.\Generated_Source\PSoC5/cyfitter_cfg.c **** 			{0x91u, 0x01u},
 745:.\Generated_Source\PSoC5/cyfitter_cfg.c **** 			{0x9Cu, 0x01u},
 746:.\Generated_Source\PSoC5/cyfitter_cfg.c **** 			{0xA8u, 0x01u},
 747:.\Generated_Source\PSoC5/cyfitter_cfg.c **** 			{0xACu, 0x01u},
 748:.\Generated_Source\PSoC5/cyfitter_cfg.c **** 			{0xB0u, 0x01u},
 749:.\Generated_Source\PSoC5/cyfitter_cfg.c **** 			{0xB3u, 0x01u},
ARM GAS  C:\Users\glenn\AppData\Local\Temp\cc8YMqik.s 			page 36


 750:.\Generated_Source\PSoC5/cyfitter_cfg.c **** 			{0xBBu, 0x02u},
 751:.\Generated_Source\PSoC5/cyfitter_cfg.c **** 			{0xBEu, 0x01u},
 752:.\Generated_Source\PSoC5/cyfitter_cfg.c **** 			{0xD6u, 0x02u},
 753:.\Generated_Source\PSoC5/cyfitter_cfg.c **** 			{0xD7u, 0x13u},
 754:.\Generated_Source\PSoC5/cyfitter_cfg.c **** 			{0xD8u, 0x04u},
 755:.\Generated_Source\PSoC5/cyfitter_cfg.c **** 			{0xD9u, 0x04u},
 756:.\Generated_Source\PSoC5/cyfitter_cfg.c **** 			{0xDBu, 0x04u},
 757:.\Generated_Source\PSoC5/cyfitter_cfg.c **** 			{0xDCu, 0x21u},
 758:.\Generated_Source\PSoC5/cyfitter_cfg.c **** 			{0xDDu, 0x20u},
 759:.\Generated_Source\PSoC5/cyfitter_cfg.c **** 			{0xDFu, 0x01u},
 760:.\Generated_Source\PSoC5/cyfitter_cfg.c **** 			{0x00u, 0x60u},
 761:.\Generated_Source\PSoC5/cyfitter_cfg.c **** 			{0x01u, 0x08u},
 762:.\Generated_Source\PSoC5/cyfitter_cfg.c **** 			{0x05u, 0x80u},
 763:.\Generated_Source\PSoC5/cyfitter_cfg.c **** 			{0x06u, 0x90u},
 764:.\Generated_Source\PSoC5/cyfitter_cfg.c **** 			{0x07u, 0x10u},
 765:.\Generated_Source\PSoC5/cyfitter_cfg.c **** 			{0x08u, 0x28u},
 766:.\Generated_Source\PSoC5/cyfitter_cfg.c **** 			{0x09u, 0x01u},
 767:.\Generated_Source\PSoC5/cyfitter_cfg.c **** 			{0x0Au, 0x02u},
 768:.\Generated_Source\PSoC5/cyfitter_cfg.c **** 			{0x0Cu, 0x0Cu},
 769:.\Generated_Source\PSoC5/cyfitter_cfg.c **** 			{0x0Fu, 0x02u},
 770:.\Generated_Source\PSoC5/cyfitter_cfg.c **** 			{0x10u, 0x40u},
 771:.\Generated_Source\PSoC5/cyfitter_cfg.c **** 			{0x12u, 0x12u},
 772:.\Generated_Source\PSoC5/cyfitter_cfg.c **** 			{0x13u, 0x10u},
 773:.\Generated_Source\PSoC5/cyfitter_cfg.c **** 			{0x14u, 0x01u},
 774:.\Generated_Source\PSoC5/cyfitter_cfg.c **** 			{0x15u, 0x01u},
 775:.\Generated_Source\PSoC5/cyfitter_cfg.c **** 			{0x17u, 0x08u},
 776:.\Generated_Source\PSoC5/cyfitter_cfg.c **** 			{0x19u, 0x01u},
 777:.\Generated_Source\PSoC5/cyfitter_cfg.c **** 			{0x20u, 0x10u},
 778:.\Generated_Source\PSoC5/cyfitter_cfg.c **** 			{0x21u, 0x01u},
 779:.\Generated_Source\PSoC5/cyfitter_cfg.c **** 			{0x22u, 0x02u},
 780:.\Generated_Source\PSoC5/cyfitter_cfg.c **** 			{0x25u, 0x04u},
 781:.\Generated_Source\PSoC5/cyfitter_cfg.c **** 			{0x2Du, 0x20u},
 782:.\Generated_Source\PSoC5/cyfitter_cfg.c **** 			{0x2Eu, 0x41u},
 783:.\Generated_Source\PSoC5/cyfitter_cfg.c **** 			{0x2Fu, 0x20u},
 784:.\Generated_Source\PSoC5/cyfitter_cfg.c **** 			{0x30u, 0x02u},
 785:.\Generated_Source\PSoC5/cyfitter_cfg.c **** 			{0x34u, 0x61u},
 786:.\Generated_Source\PSoC5/cyfitter_cfg.c **** 			{0x35u, 0x82u},
 787:.\Generated_Source\PSoC5/cyfitter_cfg.c **** 			{0x36u, 0x40u},
 788:.\Generated_Source\PSoC5/cyfitter_cfg.c **** 			{0x37u, 0x24u},
 789:.\Generated_Source\PSoC5/cyfitter_cfg.c **** 			{0x39u, 0x24u},
 790:.\Generated_Source\PSoC5/cyfitter_cfg.c **** 			{0x3Cu, 0xA0u},
 791:.\Generated_Source\PSoC5/cyfitter_cfg.c **** 			{0x3Du, 0x03u},
 792:.\Generated_Source\PSoC5/cyfitter_cfg.c **** 			{0x3Eu, 0x04u},
 793:.\Generated_Source\PSoC5/cyfitter_cfg.c **** 			{0x59u, 0x01u},
 794:.\Generated_Source\PSoC5/cyfitter_cfg.c **** 			{0x68u, 0x02u},
 795:.\Generated_Source\PSoC5/cyfitter_cfg.c **** 			{0x69u, 0x24u},
 796:.\Generated_Source\PSoC5/cyfitter_cfg.c **** 			{0x6Eu, 0x20u},
 797:.\Generated_Source\PSoC5/cyfitter_cfg.c **** 			{0x6Fu, 0x02u},
 798:.\Generated_Source\PSoC5/cyfitter_cfg.c **** 			{0x70u, 0x88u},
 799:.\Generated_Source\PSoC5/cyfitter_cfg.c **** 			{0x72u, 0x08u},
 800:.\Generated_Source\PSoC5/cyfitter_cfg.c **** 			{0x80u, 0x40u},
 801:.\Generated_Source\PSoC5/cyfitter_cfg.c **** 			{0x81u, 0x02u},
 802:.\Generated_Source\PSoC5/cyfitter_cfg.c **** 			{0x83u, 0x10u},
 803:.\Generated_Source\PSoC5/cyfitter_cfg.c **** 			{0x84u, 0x08u},
 804:.\Generated_Source\PSoC5/cyfitter_cfg.c **** 			{0x87u, 0x21u},
 805:.\Generated_Source\PSoC5/cyfitter_cfg.c **** 			{0x88u, 0x50u},
 806:.\Generated_Source\PSoC5/cyfitter_cfg.c **** 			{0x8Au, 0x40u},
ARM GAS  C:\Users\glenn\AppData\Local\Temp\cc8YMqik.s 			page 37


 807:.\Generated_Source\PSoC5/cyfitter_cfg.c **** 			{0x8Bu, 0x08u},
 808:.\Generated_Source\PSoC5/cyfitter_cfg.c **** 			{0x8Eu, 0xA0u},
 809:.\Generated_Source\PSoC5/cyfitter_cfg.c **** 			{0x8Fu, 0x20u},
 810:.\Generated_Source\PSoC5/cyfitter_cfg.c **** 			{0x92u, 0x45u},
 811:.\Generated_Source\PSoC5/cyfitter_cfg.c **** 			{0x95u, 0x40u},
 812:.\Generated_Source\PSoC5/cyfitter_cfg.c **** 			{0x97u, 0x08u},
 813:.\Generated_Source\PSoC5/cyfitter_cfg.c **** 			{0x99u, 0x20u},
 814:.\Generated_Source\PSoC5/cyfitter_cfg.c **** 			{0x9Bu, 0x04u},
 815:.\Generated_Source\PSoC5/cyfitter_cfg.c **** 			{0x9Cu, 0x29u},
 816:.\Generated_Source\PSoC5/cyfitter_cfg.c **** 			{0x9Eu, 0x80u},
 817:.\Generated_Source\PSoC5/cyfitter_cfg.c **** 			{0x9Fu, 0x10u},
 818:.\Generated_Source\PSoC5/cyfitter_cfg.c **** 			{0xA0u, 0x50u},
 819:.\Generated_Source\PSoC5/cyfitter_cfg.c **** 			{0xA1u, 0x01u},
 820:.\Generated_Source\PSoC5/cyfitter_cfg.c **** 			{0xA2u, 0x40u},
 821:.\Generated_Source\PSoC5/cyfitter_cfg.c **** 			{0xA6u, 0x10u},
 822:.\Generated_Source\PSoC5/cyfitter_cfg.c **** 			{0xA7u, 0x03u},
 823:.\Generated_Source\PSoC5/cyfitter_cfg.c **** 			{0xB4u, 0x10u},
 824:.\Generated_Source\PSoC5/cyfitter_cfg.c **** 			{0xC0u, 0xB7u},
 825:.\Generated_Source\PSoC5/cyfitter_cfg.c **** 			{0xC2u, 0x8Fu},
 826:.\Generated_Source\PSoC5/cyfitter_cfg.c **** 			{0xC4u, 0xBFu},
 827:.\Generated_Source\PSoC5/cyfitter_cfg.c **** 			{0xCAu, 0xF0u},
 828:.\Generated_Source\PSoC5/cyfitter_cfg.c **** 			{0xCCu, 0xF1u},
 829:.\Generated_Source\PSoC5/cyfitter_cfg.c **** 			{0xCEu, 0xF6u},
 830:.\Generated_Source\PSoC5/cyfitter_cfg.c **** 			{0xD6u, 0x01u},
 831:.\Generated_Source\PSoC5/cyfitter_cfg.c **** 			{0xE2u, 0x20u},
 832:.\Generated_Source\PSoC5/cyfitter_cfg.c **** 			{0xE4u, 0x10u},
 833:.\Generated_Source\PSoC5/cyfitter_cfg.c **** 			{0xE6u, 0xA0u},
 834:.\Generated_Source\PSoC5/cyfitter_cfg.c **** 			{0xECu, 0x10u},
 835:.\Generated_Source\PSoC5/cyfitter_cfg.c **** 			{0x58u, 0x04u},
 836:.\Generated_Source\PSoC5/cyfitter_cfg.c **** 			{0x59u, 0x04u},
 837:.\Generated_Source\PSoC5/cyfitter_cfg.c **** 			{0x5Cu, 0x11u},
 838:.\Generated_Source\PSoC5/cyfitter_cfg.c **** 			{0x5Fu, 0x01u},
 839:.\Generated_Source\PSoC5/cyfitter_cfg.c **** 			{0x8Fu, 0x02u},
 840:.\Generated_Source\PSoC5/cyfitter_cfg.c **** 			{0xA2u, 0x01u},
 841:.\Generated_Source\PSoC5/cyfitter_cfg.c **** 			{0xA5u, 0x01u},
 842:.\Generated_Source\PSoC5/cyfitter_cfg.c **** 			{0xABu, 0x04u},
 843:.\Generated_Source\PSoC5/cyfitter_cfg.c **** 			{0xB1u, 0x02u},
 844:.\Generated_Source\PSoC5/cyfitter_cfg.c **** 			{0xB2u, 0x01u},
 845:.\Generated_Source\PSoC5/cyfitter_cfg.c **** 			{0xB3u, 0x01u},
 846:.\Generated_Source\PSoC5/cyfitter_cfg.c **** 			{0xB7u, 0x04u},
 847:.\Generated_Source\PSoC5/cyfitter_cfg.c **** 			{0xBFu, 0x04u},
 848:.\Generated_Source\PSoC5/cyfitter_cfg.c **** 			{0xD6u, 0x02u},
 849:.\Generated_Source\PSoC5/cyfitter_cfg.c **** 			{0xD7u, 0x35u},
 850:.\Generated_Source\PSoC5/cyfitter_cfg.c **** 			{0xD8u, 0x04u},
 851:.\Generated_Source\PSoC5/cyfitter_cfg.c **** 			{0xD9u, 0x04u},
 852:.\Generated_Source\PSoC5/cyfitter_cfg.c **** 			{0xDBu, 0x0Cu},
 853:.\Generated_Source\PSoC5/cyfitter_cfg.c **** 			{0xDCu, 0x11u},
 854:.\Generated_Source\PSoC5/cyfitter_cfg.c **** 			{0xDDu, 0x10u},
 855:.\Generated_Source\PSoC5/cyfitter_cfg.c **** 			{0xDFu, 0x01u},
 856:.\Generated_Source\PSoC5/cyfitter_cfg.c **** 			{0x00u, 0x20u},
 857:.\Generated_Source\PSoC5/cyfitter_cfg.c **** 			{0x03u, 0x10u},
 858:.\Generated_Source\PSoC5/cyfitter_cfg.c **** 			{0x04u, 0x82u},
 859:.\Generated_Source\PSoC5/cyfitter_cfg.c **** 			{0x07u, 0x10u},
 860:.\Generated_Source\PSoC5/cyfitter_cfg.c **** 			{0x08u, 0x28u},
 861:.\Generated_Source\PSoC5/cyfitter_cfg.c **** 			{0x09u, 0x01u},
 862:.\Generated_Source\PSoC5/cyfitter_cfg.c **** 			{0x0Cu, 0x01u},
 863:.\Generated_Source\PSoC5/cyfitter_cfg.c **** 			{0x0Du, 0x08u},
ARM GAS  C:\Users\glenn\AppData\Local\Temp\cc8YMqik.s 			page 38


 864:.\Generated_Source\PSoC5/cyfitter_cfg.c **** 			{0x0Fu, 0x02u},
 865:.\Generated_Source\PSoC5/cyfitter_cfg.c **** 			{0x10u, 0x41u},
 866:.\Generated_Source\PSoC5/cyfitter_cfg.c **** 			{0x14u, 0x20u},
 867:.\Generated_Source\PSoC5/cyfitter_cfg.c **** 			{0x15u, 0x01u},
 868:.\Generated_Source\PSoC5/cyfitter_cfg.c **** 			{0x1Cu, 0x20u},
 869:.\Generated_Source\PSoC5/cyfitter_cfg.c **** 			{0x1Du, 0x08u},
 870:.\Generated_Source\PSoC5/cyfitter_cfg.c **** 			{0x24u, 0xA2u},
 871:.\Generated_Source\PSoC5/cyfitter_cfg.c **** 			{0x25u, 0x01u},
 872:.\Generated_Source\PSoC5/cyfitter_cfg.c **** 			{0x26u, 0x40u},
 873:.\Generated_Source\PSoC5/cyfitter_cfg.c **** 			{0x28u, 0x28u},
 874:.\Generated_Source\PSoC5/cyfitter_cfg.c **** 			{0x2Du, 0x10u},
 875:.\Generated_Source\PSoC5/cyfitter_cfg.c **** 			{0x2Eu, 0x80u},
 876:.\Generated_Source\PSoC5/cyfitter_cfg.c **** 			{0x2Fu, 0x10u},
 877:.\Generated_Source\PSoC5/cyfitter_cfg.c **** 			{0x30u, 0x01u},
 878:.\Generated_Source\PSoC5/cyfitter_cfg.c **** 			{0x31u, 0x08u},
 879:.\Generated_Source\PSoC5/cyfitter_cfg.c **** 			{0x33u, 0x10u},
 880:.\Generated_Source\PSoC5/cyfitter_cfg.c **** 			{0x34u, 0x49u},
 881:.\Generated_Source\PSoC5/cyfitter_cfg.c **** 			{0x36u, 0x40u},
 882:.\Generated_Source\PSoC5/cyfitter_cfg.c **** 			{0x37u, 0x10u},
 883:.\Generated_Source\PSoC5/cyfitter_cfg.c **** 			{0x38u, 0x82u},
 884:.\Generated_Source\PSoC5/cyfitter_cfg.c **** 			{0x3Cu, 0x20u},
 885:.\Generated_Source\PSoC5/cyfitter_cfg.c **** 			{0x3Du, 0x02u},
 886:.\Generated_Source\PSoC5/cyfitter_cfg.c **** 			{0x3Eu, 0x40u},
 887:.\Generated_Source\PSoC5/cyfitter_cfg.c **** 			{0x5Eu, 0x20u},
 888:.\Generated_Source\PSoC5/cyfitter_cfg.c **** 			{0x67u, 0x08u},
 889:.\Generated_Source\PSoC5/cyfitter_cfg.c **** 			{0x6Du, 0x11u},
 890:.\Generated_Source\PSoC5/cyfitter_cfg.c **** 			{0x6Eu, 0x45u},
 891:.\Generated_Source\PSoC5/cyfitter_cfg.c **** 			{0x6Fu, 0x04u},
 892:.\Generated_Source\PSoC5/cyfitter_cfg.c **** 			{0x74u, 0x40u},
 893:.\Generated_Source\PSoC5/cyfitter_cfg.c **** 			{0x75u, 0x20u},
 894:.\Generated_Source\PSoC5/cyfitter_cfg.c **** 			{0x7Fu, 0x02u},
 895:.\Generated_Source\PSoC5/cyfitter_cfg.c **** 			{0x93u, 0x20u},
 896:.\Generated_Source\PSoC5/cyfitter_cfg.c **** 			{0x94u, 0x02u},
 897:.\Generated_Source\PSoC5/cyfitter_cfg.c **** 			{0x95u, 0x40u},
 898:.\Generated_Source\PSoC5/cyfitter_cfg.c **** 			{0x9Cu, 0x21u},
 899:.\Generated_Source\PSoC5/cyfitter_cfg.c **** 			{0x9Fu, 0x10u},
 900:.\Generated_Source\PSoC5/cyfitter_cfg.c **** 			{0xA5u, 0x09u},
 901:.\Generated_Source\PSoC5/cyfitter_cfg.c **** 			{0xA7u, 0x03u},
 902:.\Generated_Source\PSoC5/cyfitter_cfg.c **** 			{0xACu, 0x04u},
 903:.\Generated_Source\PSoC5/cyfitter_cfg.c **** 			{0xAFu, 0x0Cu},
 904:.\Generated_Source\PSoC5/cyfitter_cfg.c **** 			{0xB0u, 0x04u},
 905:.\Generated_Source\PSoC5/cyfitter_cfg.c **** 			{0xC0u, 0xB6u},
 906:.\Generated_Source\PSoC5/cyfitter_cfg.c **** 			{0xC2u, 0xBEu},
 907:.\Generated_Source\PSoC5/cyfitter_cfg.c **** 			{0xC4u, 0x39u},
 908:.\Generated_Source\PSoC5/cyfitter_cfg.c **** 			{0xCAu, 0x76u},
 909:.\Generated_Source\PSoC5/cyfitter_cfg.c **** 			{0xCCu, 0xF7u},
 910:.\Generated_Source\PSoC5/cyfitter_cfg.c **** 			{0xCEu, 0xB9u},
 911:.\Generated_Source\PSoC5/cyfitter_cfg.c **** 			{0xD6u, 0x20u},
 912:.\Generated_Source\PSoC5/cyfitter_cfg.c **** 			{0xD8u, 0x20u},
 913:.\Generated_Source\PSoC5/cyfitter_cfg.c **** 			{0xDEu, 0x10u},
 914:.\Generated_Source\PSoC5/cyfitter_cfg.c **** 			{0xE4u, 0x10u},
 915:.\Generated_Source\PSoC5/cyfitter_cfg.c **** 			{0xE8u, 0x08u},
 916:.\Generated_Source\PSoC5/cyfitter_cfg.c **** 			{0xEEu, 0x0Au},
 917:.\Generated_Source\PSoC5/cyfitter_cfg.c **** 			{0x05u, 0x51u},
 918:.\Generated_Source\PSoC5/cyfitter_cfg.c **** 			{0x06u, 0x03u},
 919:.\Generated_Source\PSoC5/cyfitter_cfg.c **** 			{0x07u, 0x06u},
 920:.\Generated_Source\PSoC5/cyfitter_cfg.c **** 			{0x0Au, 0x20u},
ARM GAS  C:\Users\glenn\AppData\Local\Temp\cc8YMqik.s 			page 39


 921:.\Generated_Source\PSoC5/cyfitter_cfg.c **** 			{0x0Bu, 0x08u},
 922:.\Generated_Source\PSoC5/cyfitter_cfg.c **** 			{0x0Cu, 0x10u},
 923:.\Generated_Source\PSoC5/cyfitter_cfg.c **** 			{0x0Eu, 0xACu},
 924:.\Generated_Source\PSoC5/cyfitter_cfg.c **** 			{0x14u, 0x09u},
 925:.\Generated_Source\PSoC5/cyfitter_cfg.c **** 			{0x15u, 0x4Cu},
 926:.\Generated_Source\PSoC5/cyfitter_cfg.c **** 			{0x16u, 0xD0u},
 927:.\Generated_Source\PSoC5/cyfitter_cfg.c **** 			{0x17u, 0x13u},
 928:.\Generated_Source\PSoC5/cyfitter_cfg.c **** 			{0x18u, 0xDCu},
 929:.\Generated_Source\PSoC5/cyfitter_cfg.c **** 			{0x1Au, 0x22u},
 930:.\Generated_Source\PSoC5/cyfitter_cfg.c **** 			{0x1Bu, 0x0Cu},
 931:.\Generated_Source\PSoC5/cyfitter_cfg.c **** 			{0x1Cu, 0x0Cu},
 932:.\Generated_Source\PSoC5/cyfitter_cfg.c **** 			{0x1Eu, 0x71u},
 933:.\Generated_Source\PSoC5/cyfitter_cfg.c **** 			{0x21u, 0x51u},
 934:.\Generated_Source\PSoC5/cyfitter_cfg.c **** 			{0x23u, 0x0Eu},
 935:.\Generated_Source\PSoC5/cyfitter_cfg.c **** 			{0x24u, 0x10u},
 936:.\Generated_Source\PSoC5/cyfitter_cfg.c **** 			{0x25u, 0x20u},
 937:.\Generated_Source\PSoC5/cyfitter_cfg.c **** 			{0x26u, 0x40u},
 938:.\Generated_Source\PSoC5/cyfitter_cfg.c **** 			{0x27u, 0x03u},
 939:.\Generated_Source\PSoC5/cyfitter_cfg.c **** 			{0x28u, 0x14u},
 940:.\Generated_Source\PSoC5/cyfitter_cfg.c **** 			{0x33u, 0x0Fu},
 941:.\Generated_Source\PSoC5/cyfitter_cfg.c **** 			{0x34u, 0x1Fu},
 942:.\Generated_Source\PSoC5/cyfitter_cfg.c **** 			{0x35u, 0x30u},
 943:.\Generated_Source\PSoC5/cyfitter_cfg.c **** 			{0x36u, 0xE0u},
 944:.\Generated_Source\PSoC5/cyfitter_cfg.c **** 			{0x37u, 0x40u},
 945:.\Generated_Source\PSoC5/cyfitter_cfg.c **** 			{0x39u, 0xA0u},
 946:.\Generated_Source\PSoC5/cyfitter_cfg.c **** 			{0x3Au, 0x80u},
 947:.\Generated_Source\PSoC5/cyfitter_cfg.c **** 			{0x3Bu, 0x08u},
 948:.\Generated_Source\PSoC5/cyfitter_cfg.c **** 			{0x40u, 0x01u},
 949:.\Generated_Source\PSoC5/cyfitter_cfg.c **** 			{0x46u, 0x40u},
 950:.\Generated_Source\PSoC5/cyfitter_cfg.c **** 			{0x49u, 0xFFu},
 951:.\Generated_Source\PSoC5/cyfitter_cfg.c **** 			{0x4Au, 0x07u},
 952:.\Generated_Source\PSoC5/cyfitter_cfg.c **** 			{0x4Bu, 0xFFu},
 953:.\Generated_Source\PSoC5/cyfitter_cfg.c **** 			{0x4Cu, 0x40u},
 954:.\Generated_Source\PSoC5/cyfitter_cfg.c **** 			{0x4Du, 0x20u},
 955:.\Generated_Source\PSoC5/cyfitter_cfg.c **** 			{0x4Eu, 0xF0u},
 956:.\Generated_Source\PSoC5/cyfitter_cfg.c **** 			{0x4Fu, 0x05u},
 957:.\Generated_Source\PSoC5/cyfitter_cfg.c **** 			{0x50u, 0x08u},
 958:.\Generated_Source\PSoC5/cyfitter_cfg.c **** 			{0x54u, 0x01u},
 959:.\Generated_Source\PSoC5/cyfitter_cfg.c **** 			{0x58u, 0x04u},
 960:.\Generated_Source\PSoC5/cyfitter_cfg.c **** 			{0x59u, 0x04u},
 961:.\Generated_Source\PSoC5/cyfitter_cfg.c **** 			{0x5Au, 0x04u},
 962:.\Generated_Source\PSoC5/cyfitter_cfg.c **** 			{0x5Bu, 0x0Cu},
 963:.\Generated_Source\PSoC5/cyfitter_cfg.c **** 			{0x5Cu, 0x22u},
 964:.\Generated_Source\PSoC5/cyfitter_cfg.c **** 			{0x5Du, 0x12u},
 965:.\Generated_Source\PSoC5/cyfitter_cfg.c **** 			{0x5Fu, 0x01u},
 966:.\Generated_Source\PSoC5/cyfitter_cfg.c **** 			{0x60u, 0x40u},
 967:.\Generated_Source\PSoC5/cyfitter_cfg.c **** 			{0x61u, 0xA8u},
 968:.\Generated_Source\PSoC5/cyfitter_cfg.c **** 			{0x62u, 0x40u},
 969:.\Generated_Source\PSoC5/cyfitter_cfg.c **** 			{0x63u, 0x20u},
 970:.\Generated_Source\PSoC5/cyfitter_cfg.c **** 			{0x81u, 0x01u},
 971:.\Generated_Source\PSoC5/cyfitter_cfg.c **** 			{0x86u, 0x04u},
 972:.\Generated_Source\PSoC5/cyfitter_cfg.c **** 			{0x8Au, 0x08u},
 973:.\Generated_Source\PSoC5/cyfitter_cfg.c **** 			{0x8Du, 0x01u},
 974:.\Generated_Source\PSoC5/cyfitter_cfg.c **** 			{0x90u, 0x18u},
 975:.\Generated_Source\PSoC5/cyfitter_cfg.c **** 			{0x91u, 0x01u},
 976:.\Generated_Source\PSoC5/cyfitter_cfg.c **** 			{0x95u, 0x01u},
 977:.\Generated_Source\PSoC5/cyfitter_cfg.c **** 			{0x96u, 0x01u},
ARM GAS  C:\Users\glenn\AppData\Local\Temp\cc8YMqik.s 			page 40


 978:.\Generated_Source\PSoC5/cyfitter_cfg.c **** 			{0x9Au, 0x02u},
 979:.\Generated_Source\PSoC5/cyfitter_cfg.c **** 			{0x9Bu, 0x01u},
 980:.\Generated_Source\PSoC5/cyfitter_cfg.c **** 			{0xA4u, 0x18u},
 981:.\Generated_Source\PSoC5/cyfitter_cfg.c **** 			{0xA5u, 0x01u},
 982:.\Generated_Source\PSoC5/cyfitter_cfg.c **** 			{0xA8u, 0x10u},
 983:.\Generated_Source\PSoC5/cyfitter_cfg.c **** 			{0xADu, 0x01u},
 984:.\Generated_Source\PSoC5/cyfitter_cfg.c **** 			{0xB0u, 0x18u},
 985:.\Generated_Source\PSoC5/cyfitter_cfg.c **** 			{0xB2u, 0x04u},
 986:.\Generated_Source\PSoC5/cyfitter_cfg.c **** 			{0xB4u, 0x02u},
 987:.\Generated_Source\PSoC5/cyfitter_cfg.c **** 			{0xB5u, 0x01u},
 988:.\Generated_Source\PSoC5/cyfitter_cfg.c **** 			{0xB6u, 0x01u},
 989:.\Generated_Source\PSoC5/cyfitter_cfg.c **** 			{0xB8u, 0x02u},
 990:.\Generated_Source\PSoC5/cyfitter_cfg.c **** 			{0xBEu, 0x01u},
 991:.\Generated_Source\PSoC5/cyfitter_cfg.c **** 			{0xD8u, 0x04u},
 992:.\Generated_Source\PSoC5/cyfitter_cfg.c **** 			{0xD9u, 0x04u},
 993:.\Generated_Source\PSoC5/cyfitter_cfg.c **** 			{0xDBu, 0x04u},
 994:.\Generated_Source\PSoC5/cyfitter_cfg.c **** 			{0xDCu, 0x15u},
 995:.\Generated_Source\PSoC5/cyfitter_cfg.c **** 			{0xDFu, 0x01u},
 996:.\Generated_Source\PSoC5/cyfitter_cfg.c **** 			{0x00u, 0x08u},
 997:.\Generated_Source\PSoC5/cyfitter_cfg.c **** 			{0x03u, 0x08u},
 998:.\Generated_Source\PSoC5/cyfitter_cfg.c **** 			{0x04u, 0x04u},
 999:.\Generated_Source\PSoC5/cyfitter_cfg.c **** 			{0x06u, 0x09u},
1000:.\Generated_Source\PSoC5/cyfitter_cfg.c **** 			{0x08u, 0x04u},
1001:.\Generated_Source\PSoC5/cyfitter_cfg.c **** 			{0x09u, 0x02u},
1002:.\Generated_Source\PSoC5/cyfitter_cfg.c **** 			{0x0Bu, 0x88u},
1003:.\Generated_Source\PSoC5/cyfitter_cfg.c **** 			{0x0Eu, 0x29u},
1004:.\Generated_Source\PSoC5/cyfitter_cfg.c **** 			{0x11u, 0x08u},
1005:.\Generated_Source\PSoC5/cyfitter_cfg.c **** 			{0x12u, 0x08u},
1006:.\Generated_Source\PSoC5/cyfitter_cfg.c **** 			{0x16u, 0x24u},
1007:.\Generated_Source\PSoC5/cyfitter_cfg.c **** 			{0x19u, 0xA6u},
1008:.\Generated_Source\PSoC5/cyfitter_cfg.c **** 			{0x1Cu, 0x04u},
1009:.\Generated_Source\PSoC5/cyfitter_cfg.c **** 			{0x1Eu, 0x01u},
1010:.\Generated_Source\PSoC5/cyfitter_cfg.c **** 			{0x1Fu, 0x50u},
1011:.\Generated_Source\PSoC5/cyfitter_cfg.c **** 			{0x23u, 0x08u},
1012:.\Generated_Source\PSoC5/cyfitter_cfg.c **** 			{0x24u, 0x10u},
1013:.\Generated_Source\PSoC5/cyfitter_cfg.c **** 			{0x25u, 0x40u},
1014:.\Generated_Source\PSoC5/cyfitter_cfg.c **** 			{0x26u, 0x1Cu},
1015:.\Generated_Source\PSoC5/cyfitter_cfg.c **** 			{0x28u, 0x20u},
1016:.\Generated_Source\PSoC5/cyfitter_cfg.c **** 			{0x29u, 0x02u},
1017:.\Generated_Source\PSoC5/cyfitter_cfg.c **** 			{0x2Au, 0x02u},
1018:.\Generated_Source\PSoC5/cyfitter_cfg.c **** 			{0x2Bu, 0x01u},
1019:.\Generated_Source\PSoC5/cyfitter_cfg.c **** 			{0x2Eu, 0x08u},
1020:.\Generated_Source\PSoC5/cyfitter_cfg.c **** 			{0x2Fu, 0x40u},
1021:.\Generated_Source\PSoC5/cyfitter_cfg.c **** 			{0x30u, 0x01u},
1022:.\Generated_Source\PSoC5/cyfitter_cfg.c **** 			{0x31u, 0x08u},
1023:.\Generated_Source\PSoC5/cyfitter_cfg.c **** 			{0x33u, 0x10u},
1024:.\Generated_Source\PSoC5/cyfitter_cfg.c **** 			{0x36u, 0x18u},
1025:.\Generated_Source\PSoC5/cyfitter_cfg.c **** 			{0x38u, 0x82u},
1026:.\Generated_Source\PSoC5/cyfitter_cfg.c **** 			{0x3Du, 0x08u},
1027:.\Generated_Source\PSoC5/cyfitter_cfg.c **** 			{0x3Eu, 0x20u},
1028:.\Generated_Source\PSoC5/cyfitter_cfg.c **** 			{0x46u, 0x02u},
1029:.\Generated_Source\PSoC5/cyfitter_cfg.c **** 			{0x56u, 0x28u},
1030:.\Generated_Source\PSoC5/cyfitter_cfg.c **** 			{0x57u, 0x08u},
1031:.\Generated_Source\PSoC5/cyfitter_cfg.c **** 			{0x59u, 0xA4u},
1032:.\Generated_Source\PSoC5/cyfitter_cfg.c **** 			{0x5Du, 0x40u},
1033:.\Generated_Source\PSoC5/cyfitter_cfg.c **** 			{0x5Eu, 0x40u},
1034:.\Generated_Source\PSoC5/cyfitter_cfg.c **** 			{0x7Fu, 0x02u},
ARM GAS  C:\Users\glenn\AppData\Local\Temp\cc8YMqik.s 			page 41


1035:.\Generated_Source\PSoC5/cyfitter_cfg.c **** 			{0x85u, 0x40u},
1036:.\Generated_Source\PSoC5/cyfitter_cfg.c **** 			{0x90u, 0x80u},
1037:.\Generated_Source\PSoC5/cyfitter_cfg.c **** 			{0x94u, 0x12u},
1038:.\Generated_Source\PSoC5/cyfitter_cfg.c **** 			{0x96u, 0x40u},
1039:.\Generated_Source\PSoC5/cyfitter_cfg.c **** 			{0x9Au, 0x05u},
1040:.\Generated_Source\PSoC5/cyfitter_cfg.c **** 			{0x9Cu, 0x21u},
1041:.\Generated_Source\PSoC5/cyfitter_cfg.c **** 			{0x9Eu, 0x08u},
1042:.\Generated_Source\PSoC5/cyfitter_cfg.c **** 			{0x9Fu, 0x10u},
1043:.\Generated_Source\PSoC5/cyfitter_cfg.c **** 			{0xA1u, 0x04u},
1044:.\Generated_Source\PSoC5/cyfitter_cfg.c **** 			{0xA5u, 0x0Bu},
1045:.\Generated_Source\PSoC5/cyfitter_cfg.c **** 			{0xA6u, 0x10u},
1046:.\Generated_Source\PSoC5/cyfitter_cfg.c **** 			{0xA7u, 0x09u},
1047:.\Generated_Source\PSoC5/cyfitter_cfg.c **** 			{0xA8u, 0x20u},
1048:.\Generated_Source\PSoC5/cyfitter_cfg.c **** 			{0xAAu, 0x50u},
1049:.\Generated_Source\PSoC5/cyfitter_cfg.c **** 			{0xB5u, 0x04u},
1050:.\Generated_Source\PSoC5/cyfitter_cfg.c **** 			{0xB6u, 0x01u},
1051:.\Generated_Source\PSoC5/cyfitter_cfg.c **** 			{0xC0u, 0xE6u},
1052:.\Generated_Source\PSoC5/cyfitter_cfg.c **** 			{0xC2u, 0xEEu},
1053:.\Generated_Source\PSoC5/cyfitter_cfg.c **** 			{0xC4u, 0x66u},
1054:.\Generated_Source\PSoC5/cyfitter_cfg.c **** 			{0xCAu, 0xCAu},
1055:.\Generated_Source\PSoC5/cyfitter_cfg.c **** 			{0xCCu, 0x67u},
1056:.\Generated_Source\PSoC5/cyfitter_cfg.c **** 			{0xCEu, 0x69u},
1057:.\Generated_Source\PSoC5/cyfitter_cfg.c **** 			{0xD0u, 0x10u},
1058:.\Generated_Source\PSoC5/cyfitter_cfg.c **** 			{0xD6u, 0x1Eu},
1059:.\Generated_Source\PSoC5/cyfitter_cfg.c **** 			{0xDEu, 0x10u},
1060:.\Generated_Source\PSoC5/cyfitter_cfg.c **** 			{0xE0u, 0x02u},
1061:.\Generated_Source\PSoC5/cyfitter_cfg.c **** 			{0xEEu, 0x04u},
1062:.\Generated_Source\PSoC5/cyfitter_cfg.c **** 			{0x58u, 0x04u},
1063:.\Generated_Source\PSoC5/cyfitter_cfg.c **** 			{0x59u, 0x04u},
1064:.\Generated_Source\PSoC5/cyfitter_cfg.c **** 			{0x5Cu, 0x11u},
1065:.\Generated_Source\PSoC5/cyfitter_cfg.c **** 			{0x5Fu, 0x01u},
1066:.\Generated_Source\PSoC5/cyfitter_cfg.c **** 			{0x85u, 0x03u},
1067:.\Generated_Source\PSoC5/cyfitter_cfg.c **** 			{0x87u, 0x0Cu},
1068:.\Generated_Source\PSoC5/cyfitter_cfg.c **** 			{0x89u, 0x0Au},
1069:.\Generated_Source\PSoC5/cyfitter_cfg.c **** 			{0x8Au, 0x01u},
1070:.\Generated_Source\PSoC5/cyfitter_cfg.c **** 			{0x8Bu, 0x04u},
1071:.\Generated_Source\PSoC5/cyfitter_cfg.c **** 			{0x90u, 0x01u},
1072:.\Generated_Source\PSoC5/cyfitter_cfg.c **** 			{0x91u, 0x10u},
1073:.\Generated_Source\PSoC5/cyfitter_cfg.c **** 			{0x9Au, 0x01u},
1074:.\Generated_Source\PSoC5/cyfitter_cfg.c **** 			{0x9Bu, 0x08u},
1075:.\Generated_Source\PSoC5/cyfitter_cfg.c **** 			{0xA5u, 0x03u},
1076:.\Generated_Source\PSoC5/cyfitter_cfg.c **** 			{0xA7u, 0x04u},
1077:.\Generated_Source\PSoC5/cyfitter_cfg.c **** 			{0xAAu, 0x01u},
1078:.\Generated_Source\PSoC5/cyfitter_cfg.c **** 			{0xABu, 0x05u},
1079:.\Generated_Source\PSoC5/cyfitter_cfg.c **** 			{0xACu, 0x01u},
1080:.\Generated_Source\PSoC5/cyfitter_cfg.c **** 			{0xADu, 0x03u},
1081:.\Generated_Source\PSoC5/cyfitter_cfg.c **** 			{0xAFu, 0x04u},
1082:.\Generated_Source\PSoC5/cyfitter_cfg.c **** 			{0xB0u, 0x01u},
1083:.\Generated_Source\PSoC5/cyfitter_cfg.c **** 			{0xB3u, 0x0Fu},
1084:.\Generated_Source\PSoC5/cyfitter_cfg.c **** 			{0xB5u, 0x10u},
1085:.\Generated_Source\PSoC5/cyfitter_cfg.c **** 			{0xBBu, 0x08u},
1086:.\Generated_Source\PSoC5/cyfitter_cfg.c **** 			{0xBEu, 0x01u},
1087:.\Generated_Source\PSoC5/cyfitter_cfg.c **** 			{0xBFu, 0x10u},
1088:.\Generated_Source\PSoC5/cyfitter_cfg.c **** 			{0xC0u, 0x12u},
1089:.\Generated_Source\PSoC5/cyfitter_cfg.c **** 			{0xC1u, 0x04u},
1090:.\Generated_Source\PSoC5/cyfitter_cfg.c **** 			{0xC5u, 0xE0u},
1091:.\Generated_Source\PSoC5/cyfitter_cfg.c **** 			{0xC6u, 0xC0u},
ARM GAS  C:\Users\glenn\AppData\Local\Temp\cc8YMqik.s 			page 42


1092:.\Generated_Source\PSoC5/cyfitter_cfg.c **** 			{0xC7u, 0x0Bu},
1093:.\Generated_Source\PSoC5/cyfitter_cfg.c **** 			{0xC8u, 0x1Au},
1094:.\Generated_Source\PSoC5/cyfitter_cfg.c **** 			{0xC9u, 0xFFu},
1095:.\Generated_Source\PSoC5/cyfitter_cfg.c **** 			{0xCAu, 0xFFu},
1096:.\Generated_Source\PSoC5/cyfitter_cfg.c **** 			{0xCBu, 0xFFu},
1097:.\Generated_Source\PSoC5/cyfitter_cfg.c **** 			{0xCEu, 0xF0u},
1098:.\Generated_Source\PSoC5/cyfitter_cfg.c **** 			{0xCFu, 0x44u},
1099:.\Generated_Source\PSoC5/cyfitter_cfg.c **** 			{0xD0u, 0x0Cu},
1100:.\Generated_Source\PSoC5/cyfitter_cfg.c **** 			{0xD4u, 0x01u},
1101:.\Generated_Source\PSoC5/cyfitter_cfg.c **** 			{0xD6u, 0x04u},
1102:.\Generated_Source\PSoC5/cyfitter_cfg.c **** 			{0xD8u, 0x04u},
1103:.\Generated_Source\PSoC5/cyfitter_cfg.c **** 			{0xD9u, 0x04u},
1104:.\Generated_Source\PSoC5/cyfitter_cfg.c **** 			{0xDAu, 0x04u},
1105:.\Generated_Source\PSoC5/cyfitter_cfg.c **** 			{0xDBu, 0x04u},
1106:.\Generated_Source\PSoC5/cyfitter_cfg.c **** 			{0xDCu, 0x21u},
1107:.\Generated_Source\PSoC5/cyfitter_cfg.c **** 			{0xDDu, 0x22u},
1108:.\Generated_Source\PSoC5/cyfitter_cfg.c **** 			{0xDFu, 0x01u},
1109:.\Generated_Source\PSoC5/cyfitter_cfg.c **** 			{0xE6u, 0xC0u},
1110:.\Generated_Source\PSoC5/cyfitter_cfg.c **** 			{0xEAu, 0x40u},
1111:.\Generated_Source\PSoC5/cyfitter_cfg.c **** 			{0xEBu, 0x02u},
1112:.\Generated_Source\PSoC5/cyfitter_cfg.c **** 			{0x03u, 0x10u},
1113:.\Generated_Source\PSoC5/cyfitter_cfg.c **** 			{0x04u, 0x92u},
1114:.\Generated_Source\PSoC5/cyfitter_cfg.c **** 			{0x06u, 0x40u},
1115:.\Generated_Source\PSoC5/cyfitter_cfg.c **** 			{0x07u, 0x10u},
1116:.\Generated_Source\PSoC5/cyfitter_cfg.c **** 			{0x08u, 0x60u},
1117:.\Generated_Source\PSoC5/cyfitter_cfg.c **** 			{0x09u, 0x01u},
1118:.\Generated_Source\PSoC5/cyfitter_cfg.c **** 			{0x0Bu, 0x40u},
1119:.\Generated_Source\PSoC5/cyfitter_cfg.c **** 			{0x0Cu, 0x64u},
1120:.\Generated_Source\PSoC5/cyfitter_cfg.c **** 			{0x0Du, 0x0Au},
1121:.\Generated_Source\PSoC5/cyfitter_cfg.c **** 			{0x0Fu, 0x02u},
1122:.\Generated_Source\PSoC5/cyfitter_cfg.c **** 			{0x10u, 0x05u},
1123:.\Generated_Source\PSoC5/cyfitter_cfg.c **** 			{0x12u, 0x40u},
1124:.\Generated_Source\PSoC5/cyfitter_cfg.c **** 			{0x14u, 0x20u},
1125:.\Generated_Source\PSoC5/cyfitter_cfg.c **** 			{0x16u, 0x09u},
1126:.\Generated_Source\PSoC5/cyfitter_cfg.c **** 			{0x17u, 0x01u},
1127:.\Generated_Source\PSoC5/cyfitter_cfg.c **** 			{0x1Eu, 0x80u},
1128:.\Generated_Source\PSoC5/cyfitter_cfg.c **** 			{0x25u, 0x04u},
1129:.\Generated_Source\PSoC5/cyfitter_cfg.c **** 			{0x27u, 0x08u},
1130:.\Generated_Source\PSoC5/cyfitter_cfg.c **** 			{0x28u, 0x20u},
1131:.\Generated_Source\PSoC5/cyfitter_cfg.c **** 			{0x2Bu, 0x01u},
1132:.\Generated_Source\PSoC5/cyfitter_cfg.c **** 			{0x2Cu, 0x20u},
1133:.\Generated_Source\PSoC5/cyfitter_cfg.c **** 			{0x2Eu, 0x80u},
1134:.\Generated_Source\PSoC5/cyfitter_cfg.c **** 			{0x2Fu, 0x08u},
1135:.\Generated_Source\PSoC5/cyfitter_cfg.c **** 			{0x30u, 0x01u},
1136:.\Generated_Source\PSoC5/cyfitter_cfg.c **** 			{0x31u, 0x08u},
1137:.\Generated_Source\PSoC5/cyfitter_cfg.c **** 			{0x33u, 0x11u},
1138:.\Generated_Source\PSoC5/cyfitter_cfg.c **** 			{0x35u, 0x02u},
1139:.\Generated_Source\PSoC5/cyfitter_cfg.c **** 			{0x36u, 0x10u},
1140:.\Generated_Source\PSoC5/cyfitter_cfg.c **** 			{0x38u, 0x82u},
1141:.\Generated_Source\PSoC5/cyfitter_cfg.c **** 			{0x3Bu, 0x40u},
1142:.\Generated_Source\PSoC5/cyfitter_cfg.c **** 			{0x3Cu, 0x10u},
1143:.\Generated_Source\PSoC5/cyfitter_cfg.c **** 			{0x3Du, 0x08u},
1144:.\Generated_Source\PSoC5/cyfitter_cfg.c **** 			{0x45u, 0x02u},
1145:.\Generated_Source\PSoC5/cyfitter_cfg.c **** 			{0x46u, 0x89u},
1146:.\Generated_Source\PSoC5/cyfitter_cfg.c **** 			{0x4Du, 0x02u},
1147:.\Generated_Source\PSoC5/cyfitter_cfg.c **** 			{0x54u, 0x20u},
1148:.\Generated_Source\PSoC5/cyfitter_cfg.c **** 			{0x56u, 0x04u},
ARM GAS  C:\Users\glenn\AppData\Local\Temp\cc8YMqik.s 			page 43


1149:.\Generated_Source\PSoC5/cyfitter_cfg.c **** 			{0x5Du, 0x02u},
1150:.\Generated_Source\PSoC5/cyfitter_cfg.c **** 			{0x5Eu, 0x90u},
1151:.\Generated_Source\PSoC5/cyfitter_cfg.c **** 			{0x5Fu, 0x08u},
1152:.\Generated_Source\PSoC5/cyfitter_cfg.c **** 			{0x66u, 0x02u},
1153:.\Generated_Source\PSoC5/cyfitter_cfg.c **** 			{0x67u, 0x80u},
1154:.\Generated_Source\PSoC5/cyfitter_cfg.c **** 			{0x82u, 0x02u},
1155:.\Generated_Source\PSoC5/cyfitter_cfg.c **** 			{0x87u, 0x40u},
1156:.\Generated_Source\PSoC5/cyfitter_cfg.c **** 			{0xC0u, 0xF4u},
1157:.\Generated_Source\PSoC5/cyfitter_cfg.c **** 			{0xC2u, 0xFBu},
1158:.\Generated_Source\PSoC5/cyfitter_cfg.c **** 			{0xC4u, 0xFBu},
1159:.\Generated_Source\PSoC5/cyfitter_cfg.c **** 			{0xCAu, 0x7Au},
1160:.\Generated_Source\PSoC5/cyfitter_cfg.c **** 			{0xCCu, 0xA7u},
1161:.\Generated_Source\PSoC5/cyfitter_cfg.c **** 			{0xCEu, 0x69u},
1162:.\Generated_Source\PSoC5/cyfitter_cfg.c **** 			{0xD0u, 0xB0u},
1163:.\Generated_Source\PSoC5/cyfitter_cfg.c **** 			{0xD6u, 0xF0u},
1164:.\Generated_Source\PSoC5/cyfitter_cfg.c **** 			{0xD8u, 0x80u},
1165:.\Generated_Source\PSoC5/cyfitter_cfg.c **** 			{0xE6u, 0x02u},
1166:.\Generated_Source\PSoC5/cyfitter_cfg.c **** 			{0xECu, 0x22u},
1167:.\Generated_Source\PSoC5/cyfitter_cfg.c **** 			{0x58u, 0x04u},
1168:.\Generated_Source\PSoC5/cyfitter_cfg.c **** 			{0x59u, 0x04u},
1169:.\Generated_Source\PSoC5/cyfitter_cfg.c **** 			{0x5Cu, 0x11u},
1170:.\Generated_Source\PSoC5/cyfitter_cfg.c **** 			{0x5Fu, 0x01u},
1171:.\Generated_Source\PSoC5/cyfitter_cfg.c **** 			{0x8Eu, 0x01u},
1172:.\Generated_Source\PSoC5/cyfitter_cfg.c **** 			{0xB2u, 0x01u},
1173:.\Generated_Source\PSoC5/cyfitter_cfg.c **** 			{0xD8u, 0x04u},
1174:.\Generated_Source\PSoC5/cyfitter_cfg.c **** 			{0xD9u, 0x04u},
1175:.\Generated_Source\PSoC5/cyfitter_cfg.c **** 			{0xDCu, 0x11u},
1176:.\Generated_Source\PSoC5/cyfitter_cfg.c **** 			{0xDFu, 0x01u},
1177:.\Generated_Source\PSoC5/cyfitter_cfg.c **** 			{0x01u, 0x01u},
1178:.\Generated_Source\PSoC5/cyfitter_cfg.c **** 			{0x02u, 0x26u},
1179:.\Generated_Source\PSoC5/cyfitter_cfg.c **** 			{0x03u, 0x18u},
1180:.\Generated_Source\PSoC5/cyfitter_cfg.c **** 			{0x05u, 0x40u},
1181:.\Generated_Source\PSoC5/cyfitter_cfg.c **** 			{0x06u, 0x04u},
1182:.\Generated_Source\PSoC5/cyfitter_cfg.c **** 			{0x07u, 0x10u},
1183:.\Generated_Source\PSoC5/cyfitter_cfg.c **** 			{0x0Au, 0x10u},
1184:.\Generated_Source\PSoC5/cyfitter_cfg.c **** 			{0x0Bu, 0x08u},
1185:.\Generated_Source\PSoC5/cyfitter_cfg.c **** 			{0x0Eu, 0x10u},
1186:.\Generated_Source\PSoC5/cyfitter_cfg.c **** 			{0x0Fu, 0x40u},
1187:.\Generated_Source\PSoC5/cyfitter_cfg.c **** 			{0x13u, 0x48u},
1188:.\Generated_Source\PSoC5/cyfitter_cfg.c **** 			{0x15u, 0x01u},
1189:.\Generated_Source\PSoC5/cyfitter_cfg.c **** 			{0x17u, 0x08u},
1190:.\Generated_Source\PSoC5/cyfitter_cfg.c **** 			{0x1Au, 0x10u},
1191:.\Generated_Source\PSoC5/cyfitter_cfg.c **** 			{0x1Bu, 0x04u},
1192:.\Generated_Source\PSoC5/cyfitter_cfg.c **** 			{0x28u, 0x40u},
1193:.\Generated_Source\PSoC5/cyfitter_cfg.c **** 			{0x29u, 0x40u},
1194:.\Generated_Source\PSoC5/cyfitter_cfg.c **** 			{0x2Bu, 0x04u},
1195:.\Generated_Source\PSoC5/cyfitter_cfg.c **** 			{0x2Cu, 0x40u},
1196:.\Generated_Source\PSoC5/cyfitter_cfg.c **** 			{0x2Du, 0x01u},
1197:.\Generated_Source\PSoC5/cyfitter_cfg.c **** 			{0x2Eu, 0x80u},
1198:.\Generated_Source\PSoC5/cyfitter_cfg.c **** 			{0x2Fu, 0x08u},
1199:.\Generated_Source\PSoC5/cyfitter_cfg.c **** 			{0x30u, 0x04u},
1200:.\Generated_Source\PSoC5/cyfitter_cfg.c **** 			{0x32u, 0x20u},
1201:.\Generated_Source\PSoC5/cyfitter_cfg.c **** 			{0x34u, 0x04u},
1202:.\Generated_Source\PSoC5/cyfitter_cfg.c **** 			{0x35u, 0x40u},
1203:.\Generated_Source\PSoC5/cyfitter_cfg.c **** 			{0x36u, 0x20u},
1204:.\Generated_Source\PSoC5/cyfitter_cfg.c **** 			{0x37u, 0x08u},
1205:.\Generated_Source\PSoC5/cyfitter_cfg.c **** 			{0x3Au, 0x04u},
ARM GAS  C:\Users\glenn\AppData\Local\Temp\cc8YMqik.s 			page 44


1206:.\Generated_Source\PSoC5/cyfitter_cfg.c **** 			{0x3Bu, 0x40u},
1207:.\Generated_Source\PSoC5/cyfitter_cfg.c **** 			{0x3Eu, 0x10u},
1208:.\Generated_Source\PSoC5/cyfitter_cfg.c **** 			{0x91u, 0x01u},
1209:.\Generated_Source\PSoC5/cyfitter_cfg.c **** 			{0x93u, 0x48u},
1210:.\Generated_Source\PSoC5/cyfitter_cfg.c **** 			{0x96u, 0x10u},
1211:.\Generated_Source\PSoC5/cyfitter_cfg.c **** 			{0x99u, 0x40u},
1212:.\Generated_Source\PSoC5/cyfitter_cfg.c **** 			{0x9Au, 0x80u},
1213:.\Generated_Source\PSoC5/cyfitter_cfg.c **** 			{0x9Bu, 0x08u},
1214:.\Generated_Source\PSoC5/cyfitter_cfg.c **** 			{0xA2u, 0x22u},
1215:.\Generated_Source\PSoC5/cyfitter_cfg.c **** 			{0xA3u, 0x08u},
1216:.\Generated_Source\PSoC5/cyfitter_cfg.c **** 			{0xA7u, 0x04u},
1217:.\Generated_Source\PSoC5/cyfitter_cfg.c **** 			{0xA8u, 0x10u},
1218:.\Generated_Source\PSoC5/cyfitter_cfg.c **** 			{0xA9u, 0x01u},
1219:.\Generated_Source\PSoC5/cyfitter_cfg.c **** 			{0xAAu, 0x20u},
1220:.\Generated_Source\PSoC5/cyfitter_cfg.c **** 			{0xACu, 0x02u},
1221:.\Generated_Source\PSoC5/cyfitter_cfg.c **** 			{0xADu, 0x80u},
1222:.\Generated_Source\PSoC5/cyfitter_cfg.c **** 			{0xAEu, 0x50u},
1223:.\Generated_Source\PSoC5/cyfitter_cfg.c **** 			{0xC0u, 0xEFu},
1224:.\Generated_Source\PSoC5/cyfitter_cfg.c **** 			{0xC2u, 0x36u},
1225:.\Generated_Source\PSoC5/cyfitter_cfg.c **** 			{0xC4u, 0x35u},
1226:.\Generated_Source\PSoC5/cyfitter_cfg.c **** 			{0xCAu, 0xBDu},
1227:.\Generated_Source\PSoC5/cyfitter_cfg.c **** 			{0xCCu, 0x76u},
1228:.\Generated_Source\PSoC5/cyfitter_cfg.c **** 			{0xCEu, 0x2Au},
1229:.\Generated_Source\PSoC5/cyfitter_cfg.c **** 			{0xEAu, 0x0Eu},
1230:.\Generated_Source\PSoC5/cyfitter_cfg.c **** 			{0xEEu, 0x03u},
1231:.\Generated_Source\PSoC5/cyfitter_cfg.c **** 			{0x56u, 0x08u},
1232:.\Generated_Source\PSoC5/cyfitter_cfg.c **** 			{0x58u, 0x04u},
1233:.\Generated_Source\PSoC5/cyfitter_cfg.c **** 			{0x59u, 0x04u},
1234:.\Generated_Source\PSoC5/cyfitter_cfg.c **** 			{0x5Bu, 0x04u},
1235:.\Generated_Source\PSoC5/cyfitter_cfg.c **** 			{0x5Cu, 0x11u},
1236:.\Generated_Source\PSoC5/cyfitter_cfg.c **** 			{0x5Du, 0x90u},
1237:.\Generated_Source\PSoC5/cyfitter_cfg.c **** 			{0x5Fu, 0x01u},
1238:.\Generated_Source\PSoC5/cyfitter_cfg.c **** 			{0x83u, 0x04u},
1239:.\Generated_Source\PSoC5/cyfitter_cfg.c **** 			{0x85u, 0x3Bu},
1240:.\Generated_Source\PSoC5/cyfitter_cfg.c **** 			{0x89u, 0x3Bu},
1241:.\Generated_Source\PSoC5/cyfitter_cfg.c **** 			{0x8Au, 0x02u},
1242:.\Generated_Source\PSoC5/cyfitter_cfg.c **** 			{0x8Du, 0x08u},
1243:.\Generated_Source\PSoC5/cyfitter_cfg.c **** 			{0x8Eu, 0x01u},
1244:.\Generated_Source\PSoC5/cyfitter_cfg.c **** 			{0x8Fu, 0x30u},
1245:.\Generated_Source\PSoC5/cyfitter_cfg.c **** 			{0x93u, 0x40u},
1246:.\Generated_Source\PSoC5/cyfitter_cfg.c **** 			{0x95u, 0x11u},
1247:.\Generated_Source\PSoC5/cyfitter_cfg.c **** 			{0x97u, 0x0Au},
1248:.\Generated_Source\PSoC5/cyfitter_cfg.c **** 			{0x99u, 0x40u},
1249:.\Generated_Source\PSoC5/cyfitter_cfg.c **** 			{0x9Au, 0x02u},
1250:.\Generated_Source\PSoC5/cyfitter_cfg.c **** 			{0x9Fu, 0x04u},
1251:.\Generated_Source\PSoC5/cyfitter_cfg.c **** 			{0xA1u, 0x40u},
1252:.\Generated_Source\PSoC5/cyfitter_cfg.c **** 			{0xA7u, 0x40u},
1253:.\Generated_Source\PSoC5/cyfitter_cfg.c **** 			{0xA9u, 0x22u},
1254:.\Generated_Source\PSoC5/cyfitter_cfg.c **** 			{0xABu, 0x09u},
1255:.\Generated_Source\PSoC5/cyfitter_cfg.c **** 			{0xB1u, 0x38u},
1256:.\Generated_Source\PSoC5/cyfitter_cfg.c **** 			{0xB3u, 0x03u},
1257:.\Generated_Source\PSoC5/cyfitter_cfg.c **** 			{0xB4u, 0x03u},
1258:.\Generated_Source\PSoC5/cyfitter_cfg.c **** 			{0xB5u, 0x04u},
1259:.\Generated_Source\PSoC5/cyfitter_cfg.c **** 			{0xB7u, 0x40u},
1260:.\Generated_Source\PSoC5/cyfitter_cfg.c **** 			{0xB9u, 0x80u},
1261:.\Generated_Source\PSoC5/cyfitter_cfg.c **** 			{0xBEu, 0x10u},
1262:.\Generated_Source\PSoC5/cyfitter_cfg.c **** 			{0xBFu, 0x10u},
ARM GAS  C:\Users\glenn\AppData\Local\Temp\cc8YMqik.s 			page 45


1263:.\Generated_Source\PSoC5/cyfitter_cfg.c **** 			{0xC0u, 0x63u},
1264:.\Generated_Source\PSoC5/cyfitter_cfg.c **** 			{0xC1u, 0x04u},
1265:.\Generated_Source\PSoC5/cyfitter_cfg.c **** 			{0xC2u, 0x05u},
1266:.\Generated_Source\PSoC5/cyfitter_cfg.c **** 			{0xC4u, 0x02u},
1267:.\Generated_Source\PSoC5/cyfitter_cfg.c **** 			{0xC7u, 0xCEu},
1268:.\Generated_Source\PSoC5/cyfitter_cfg.c **** 			{0xC8u, 0x30u},
1269:.\Generated_Source\PSoC5/cyfitter_cfg.c **** 			{0xC9u, 0xFFu},
1270:.\Generated_Source\PSoC5/cyfitter_cfg.c **** 			{0xCAu, 0xFFu},
1271:.\Generated_Source\PSoC5/cyfitter_cfg.c **** 			{0xCBu, 0xFFu},
1272:.\Generated_Source\PSoC5/cyfitter_cfg.c **** 			{0xCCu, 0x62u},
1273:.\Generated_Source\PSoC5/cyfitter_cfg.c **** 			{0xCDu, 0xA0u},
1274:.\Generated_Source\PSoC5/cyfitter_cfg.c **** 			{0xCEu, 0xF0u},
1275:.\Generated_Source\PSoC5/cyfitter_cfg.c **** 			{0xCFu, 0x41u},
1276:.\Generated_Source\PSoC5/cyfitter_cfg.c **** 			{0xD0u, 0x0Cu},
1277:.\Generated_Source\PSoC5/cyfitter_cfg.c **** 			{0xD8u, 0x04u},
1278:.\Generated_Source\PSoC5/cyfitter_cfg.c **** 			{0xD9u, 0x04u},
1279:.\Generated_Source\PSoC5/cyfitter_cfg.c **** 			{0xDAu, 0x04u},
1280:.\Generated_Source\PSoC5/cyfitter_cfg.c **** 			{0xDCu, 0x21u},
1281:.\Generated_Source\PSoC5/cyfitter_cfg.c **** 			{0xDDu, 0x02u},
1282:.\Generated_Source\PSoC5/cyfitter_cfg.c **** 			{0xDFu, 0x01u},
1283:.\Generated_Source\PSoC5/cyfitter_cfg.c **** 			{0xE6u, 0x40u},
1284:.\Generated_Source\PSoC5/cyfitter_cfg.c **** 			{0xE7u, 0x02u},
1285:.\Generated_Source\PSoC5/cyfitter_cfg.c **** 			{0xE9u, 0x10u},
1286:.\Generated_Source\PSoC5/cyfitter_cfg.c **** 			{0xEAu, 0x30u},
1287:.\Generated_Source\PSoC5/cyfitter_cfg.c **** 			{0xEBu, 0x10u},
1288:.\Generated_Source\PSoC5/cyfitter_cfg.c **** 			{0xEDu, 0x10u},
1289:.\Generated_Source\PSoC5/cyfitter_cfg.c **** 			{0xEEu, 0x10u},
1290:.\Generated_Source\PSoC5/cyfitter_cfg.c **** 			{0xEFu, 0x12u},
1291:.\Generated_Source\PSoC5/cyfitter_cfg.c **** 			{0x01u, 0x02u},
1292:.\Generated_Source\PSoC5/cyfitter_cfg.c **** 			{0x02u, 0x02u},
1293:.\Generated_Source\PSoC5/cyfitter_cfg.c **** 			{0x03u, 0x14u},
1294:.\Generated_Source\PSoC5/cyfitter_cfg.c **** 			{0x05u, 0x02u},
1295:.\Generated_Source\PSoC5/cyfitter_cfg.c **** 			{0x07u, 0x10u},
1296:.\Generated_Source\PSoC5/cyfitter_cfg.c **** 			{0x08u, 0x08u},
1297:.\Generated_Source\PSoC5/cyfitter_cfg.c **** 			{0x09u, 0x01u},
1298:.\Generated_Source\PSoC5/cyfitter_cfg.c **** 			{0x0Au, 0x48u},
1299:.\Generated_Source\PSoC5/cyfitter_cfg.c **** 			{0x0Cu, 0x40u},
1300:.\Generated_Source\PSoC5/cyfitter_cfg.c **** 			{0x0Eu, 0x40u},
1301:.\Generated_Source\PSoC5/cyfitter_cfg.c **** 			{0x10u, 0x42u},
1302:.\Generated_Source\PSoC5/cyfitter_cfg.c **** 			{0x13u, 0x08u},
1303:.\Generated_Source\PSoC5/cyfitter_cfg.c **** 			{0x14u, 0x08u},
1304:.\Generated_Source\PSoC5/cyfitter_cfg.c **** 			{0x16u, 0x80u},
1305:.\Generated_Source\PSoC5/cyfitter_cfg.c **** 			{0x17u, 0x08u},
1306:.\Generated_Source\PSoC5/cyfitter_cfg.c **** 			{0x18u, 0x04u},
1307:.\Generated_Source\PSoC5/cyfitter_cfg.c **** 			{0x20u, 0x40u},
1308:.\Generated_Source\PSoC5/cyfitter_cfg.c **** 			{0x22u, 0x26u},
1309:.\Generated_Source\PSoC5/cyfitter_cfg.c **** 			{0x23u, 0x02u},
1310:.\Generated_Source\PSoC5/cyfitter_cfg.c **** 			{0x28u, 0x80u},
1311:.\Generated_Source\PSoC5/cyfitter_cfg.c **** 			{0x29u, 0x28u},
1312:.\Generated_Source\PSoC5/cyfitter_cfg.c **** 			{0x2Cu, 0x42u},
1313:.\Generated_Source\PSoC5/cyfitter_cfg.c **** 			{0x2Eu, 0x80u},
1314:.\Generated_Source\PSoC5/cyfitter_cfg.c **** 			{0x2Fu, 0x20u},
1315:.\Generated_Source\PSoC5/cyfitter_cfg.c **** 			{0x31u, 0x50u},
1316:.\Generated_Source\PSoC5/cyfitter_cfg.c **** 			{0x32u, 0x01u},
1317:.\Generated_Source\PSoC5/cyfitter_cfg.c **** 			{0x33u, 0x04u},
1318:.\Generated_Source\PSoC5/cyfitter_cfg.c **** 			{0x35u, 0x02u},
1319:.\Generated_Source\PSoC5/cyfitter_cfg.c **** 			{0x37u, 0x18u},
ARM GAS  C:\Users\glenn\AppData\Local\Temp\cc8YMqik.s 			page 46


1320:.\Generated_Source\PSoC5/cyfitter_cfg.c **** 			{0x38u, 0x40u},
1321:.\Generated_Source\PSoC5/cyfitter_cfg.c **** 			{0x39u, 0x24u},
1322:.\Generated_Source\PSoC5/cyfitter_cfg.c **** 			{0x3Au, 0x01u},
1323:.\Generated_Source\PSoC5/cyfitter_cfg.c **** 			{0x3Du, 0x02u},
1324:.\Generated_Source\PSoC5/cyfitter_cfg.c **** 			{0x40u, 0x94u},
1325:.\Generated_Source\PSoC5/cyfitter_cfg.c **** 			{0x41u, 0x01u},
1326:.\Generated_Source\PSoC5/cyfitter_cfg.c **** 			{0x49u, 0x50u},
1327:.\Generated_Source\PSoC5/cyfitter_cfg.c **** 			{0x4Bu, 0x10u},
1328:.\Generated_Source\PSoC5/cyfitter_cfg.c **** 			{0x4Du, 0x20u},
1329:.\Generated_Source\PSoC5/cyfitter_cfg.c **** 			{0x4Eu, 0x04u},
1330:.\Generated_Source\PSoC5/cyfitter_cfg.c **** 			{0x52u, 0x05u},
1331:.\Generated_Source\PSoC5/cyfitter_cfg.c **** 			{0x5Fu, 0x40u},
1332:.\Generated_Source\PSoC5/cyfitter_cfg.c **** 			{0x67u, 0x01u},
1333:.\Generated_Source\PSoC5/cyfitter_cfg.c **** 			{0x88u, 0x02u},
1334:.\Generated_Source\PSoC5/cyfitter_cfg.c **** 			{0x8Au, 0x20u},
1335:.\Generated_Source\PSoC5/cyfitter_cfg.c **** 			{0x90u, 0x10u},
1336:.\Generated_Source\PSoC5/cyfitter_cfg.c **** 			{0x91u, 0x26u},
1337:.\Generated_Source\PSoC5/cyfitter_cfg.c **** 			{0x95u, 0x40u},
1338:.\Generated_Source\PSoC5/cyfitter_cfg.c **** 			{0x96u, 0x02u},
1339:.\Generated_Source\PSoC5/cyfitter_cfg.c **** 			{0x97u, 0x18u},
1340:.\Generated_Source\PSoC5/cyfitter_cfg.c **** 			{0x98u, 0x4Cu},
1341:.\Generated_Source\PSoC5/cyfitter_cfg.c **** 			{0x99u, 0x02u},
1342:.\Generated_Source\PSoC5/cyfitter_cfg.c **** 			{0x9Au, 0xA8u},
1343:.\Generated_Source\PSoC5/cyfitter_cfg.c **** 			{0x9Bu, 0x18u},
1344:.\Generated_Source\PSoC5/cyfitter_cfg.c **** 			{0x9Du, 0x08u},
1345:.\Generated_Source\PSoC5/cyfitter_cfg.c **** 			{0xA0u, 0x80u},
1346:.\Generated_Source\PSoC5/cyfitter_cfg.c **** 			{0xA1u, 0x01u},
1347:.\Generated_Source\PSoC5/cyfitter_cfg.c **** 			{0xA2u, 0x10u},
1348:.\Generated_Source\PSoC5/cyfitter_cfg.c **** 			{0xA3u, 0x22u},
1349:.\Generated_Source\PSoC5/cyfitter_cfg.c **** 			{0xA9u, 0x05u},
1350:.\Generated_Source\PSoC5/cyfitter_cfg.c **** 			{0xADu, 0x20u},
1351:.\Generated_Source\PSoC5/cyfitter_cfg.c **** 			{0xAEu, 0x05u},
1352:.\Generated_Source\PSoC5/cyfitter_cfg.c **** 			{0xC0u, 0x3Fu},
1353:.\Generated_Source\PSoC5/cyfitter_cfg.c **** 			{0xC2u, 0x9Eu},
1354:.\Generated_Source\PSoC5/cyfitter_cfg.c **** 			{0xC4u, 0x7Du},
1355:.\Generated_Source\PSoC5/cyfitter_cfg.c **** 			{0xCAu, 0xD7u},
1356:.\Generated_Source\PSoC5/cyfitter_cfg.c **** 			{0xCCu, 0xEFu},
1357:.\Generated_Source\PSoC5/cyfitter_cfg.c **** 			{0xCEu, 0x8Fu},
1358:.\Generated_Source\PSoC5/cyfitter_cfg.c **** 			{0xD0u, 0x07u},
1359:.\Generated_Source\PSoC5/cyfitter_cfg.c **** 			{0xD2u, 0x0Cu},
1360:.\Generated_Source\PSoC5/cyfitter_cfg.c **** 			{0xD6u, 0x10u},
1361:.\Generated_Source\PSoC5/cyfitter_cfg.c **** 			{0xD8u, 0x10u},
1362:.\Generated_Source\PSoC5/cyfitter_cfg.c **** 			{0x00u, 0x3Fu},
1363:.\Generated_Source\PSoC5/cyfitter_cfg.c **** 			{0x01u, 0x67u},
1364:.\Generated_Source\PSoC5/cyfitter_cfg.c **** 			{0x03u, 0x18u},
1365:.\Generated_Source\PSoC5/cyfitter_cfg.c **** 			{0x04u, 0x06u},
1366:.\Generated_Source\PSoC5/cyfitter_cfg.c **** 			{0x05u, 0x08u},
1367:.\Generated_Source\PSoC5/cyfitter_cfg.c **** 			{0x06u, 0x39u},
1368:.\Generated_Source\PSoC5/cyfitter_cfg.c **** 			{0x0Au, 0x39u},
1369:.\Generated_Source\PSoC5/cyfitter_cfg.c **** 			{0x0Bu, 0x63u},
1370:.\Generated_Source\PSoC5/cyfitter_cfg.c **** 			{0x0Cu, 0x30u},
1371:.\Generated_Source\PSoC5/cyfitter_cfg.c **** 			{0x0Du, 0x24u},
1372:.\Generated_Source\PSoC5/cyfitter_cfg.c **** 			{0x0Fu, 0x80u},
1373:.\Generated_Source\PSoC5/cyfitter_cfg.c **** 			{0x10u, 0x10u},
1374:.\Generated_Source\PSoC5/cyfitter_cfg.c **** 			{0x11u, 0x1Cu},
1375:.\Generated_Source\PSoC5/cyfitter_cfg.c **** 			{0x13u, 0x62u},
1376:.\Generated_Source\PSoC5/cyfitter_cfg.c **** 			{0x14u, 0x39u},
ARM GAS  C:\Users\glenn\AppData\Local\Temp\cc8YMqik.s 			page 47


1377:.\Generated_Source\PSoC5/cyfitter_cfg.c **** 			{0x15u, 0x40u},
1378:.\Generated_Source\PSoC5/cyfitter_cfg.c **** 			{0x16u, 0x06u},
1379:.\Generated_Source\PSoC5/cyfitter_cfg.c **** 			{0x18u, 0x20u},
1380:.\Generated_Source\PSoC5/cyfitter_cfg.c **** 			{0x1Bu, 0x04u},
1381:.\Generated_Source\PSoC5/cyfitter_cfg.c **** 			{0x1Cu, 0x07u},
1382:.\Generated_Source\PSoC5/cyfitter_cfg.c **** 			{0x1Du, 0x10u},
1383:.\Generated_Source\PSoC5/cyfitter_cfg.c **** 			{0x1Eu, 0x38u},
1384:.\Generated_Source\PSoC5/cyfitter_cfg.c **** 			{0x20u, 0x04u},
1385:.\Generated_Source\PSoC5/cyfitter_cfg.c **** 			{0x21u, 0x7Fu},
1386:.\Generated_Source\PSoC5/cyfitter_cfg.c **** 			{0x24u, 0x02u},
1387:.\Generated_Source\PSoC5/cyfitter_cfg.c **** 			{0x25u, 0x7Cu},
1388:.\Generated_Source\PSoC5/cyfitter_cfg.c **** 			{0x27u, 0x01u},
1389:.\Generated_Source\PSoC5/cyfitter_cfg.c **** 			{0x28u, 0x06u},
1390:.\Generated_Source\PSoC5/cyfitter_cfg.c **** 			{0x29u, 0x18u},
1391:.\Generated_Source\PSoC5/cyfitter_cfg.c **** 			{0x2Du, 0x60u},
1392:.\Generated_Source\PSoC5/cyfitter_cfg.c **** 			{0x30u, 0x30u},
1393:.\Generated_Source\PSoC5/cyfitter_cfg.c **** 			{0x31u, 0x1Fu},
1394:.\Generated_Source\PSoC5/cyfitter_cfg.c **** 			{0x32u, 0x0Eu},
1395:.\Generated_Source\PSoC5/cyfitter_cfg.c **** 			{0x33u, 0x78u},
1396:.\Generated_Source\PSoC5/cyfitter_cfg.c **** 			{0x35u, 0x80u},
1397:.\Generated_Source\PSoC5/cyfitter_cfg.c **** 			{0x36u, 0x07u},
1398:.\Generated_Source\PSoC5/cyfitter_cfg.c **** 			{0x3Au, 0x08u},
1399:.\Generated_Source\PSoC5/cyfitter_cfg.c **** 			{0x3Bu, 0x0Au},
1400:.\Generated_Source\PSoC5/cyfitter_cfg.c **** 			{0x54u, 0x18u},
1401:.\Generated_Source\PSoC5/cyfitter_cfg.c **** 			{0x56u, 0x04u},
1402:.\Generated_Source\PSoC5/cyfitter_cfg.c **** 			{0x58u, 0x04u},
1403:.\Generated_Source\PSoC5/cyfitter_cfg.c **** 			{0x59u, 0x04u},
1404:.\Generated_Source\PSoC5/cyfitter_cfg.c **** 			{0x5Bu, 0x04u},
1405:.\Generated_Source\PSoC5/cyfitter_cfg.c **** 			{0x5Cu, 0x22u},
1406:.\Generated_Source\PSoC5/cyfitter_cfg.c **** 			{0x5Du, 0x20u},
1407:.\Generated_Source\PSoC5/cyfitter_cfg.c **** 			{0x5Fu, 0x01u},
1408:.\Generated_Source\PSoC5/cyfitter_cfg.c **** 			{0x84u, 0x04u},
1409:.\Generated_Source\PSoC5/cyfitter_cfg.c **** 			{0x8Au, 0x08u},
1410:.\Generated_Source\PSoC5/cyfitter_cfg.c **** 			{0x8Eu, 0x08u},
1411:.\Generated_Source\PSoC5/cyfitter_cfg.c **** 			{0x92u, 0x01u},
1412:.\Generated_Source\PSoC5/cyfitter_cfg.c **** 			{0x94u, 0x04u},
1413:.\Generated_Source\PSoC5/cyfitter_cfg.c **** 			{0x99u, 0x01u},
1414:.\Generated_Source\PSoC5/cyfitter_cfg.c **** 			{0x9Eu, 0x02u},
1415:.\Generated_Source\PSoC5/cyfitter_cfg.c **** 			{0xA3u, 0x03u},
1416:.\Generated_Source\PSoC5/cyfitter_cfg.c **** 			{0xACu, 0x01u},
1417:.\Generated_Source\PSoC5/cyfitter_cfg.c **** 			{0xB0u, 0x03u},
1418:.\Generated_Source\PSoC5/cyfitter_cfg.c **** 			{0xB1u, 0x01u},
1419:.\Generated_Source\PSoC5/cyfitter_cfg.c **** 			{0xB2u, 0x04u},
1420:.\Generated_Source\PSoC5/cyfitter_cfg.c **** 			{0xB3u, 0x02u},
1421:.\Generated_Source\PSoC5/cyfitter_cfg.c **** 			{0xB4u, 0x08u},
1422:.\Generated_Source\PSoC5/cyfitter_cfg.c **** 			{0xB6u, 0x03u},
1423:.\Generated_Source\PSoC5/cyfitter_cfg.c **** 			{0xB8u, 0x08u},
1424:.\Generated_Source\PSoC5/cyfitter_cfg.c **** 			{0xBEu, 0x14u},
1425:.\Generated_Source\PSoC5/cyfitter_cfg.c **** 			{0xD8u, 0x04u},
1426:.\Generated_Source\PSoC5/cyfitter_cfg.c **** 			{0xD9u, 0x0Cu},
1427:.\Generated_Source\PSoC5/cyfitter_cfg.c **** 			{0xDCu, 0x19u},
1428:.\Generated_Source\PSoC5/cyfitter_cfg.c **** 			{0xDFu, 0x01u},
1429:.\Generated_Source\PSoC5/cyfitter_cfg.c **** 			{0x00u, 0x10u},
1430:.\Generated_Source\PSoC5/cyfitter_cfg.c **** 			{0x01u, 0x8Au},
1431:.\Generated_Source\PSoC5/cyfitter_cfg.c **** 			{0x02u, 0x02u},
1432:.\Generated_Source\PSoC5/cyfitter_cfg.c **** 			{0x06u, 0x24u},
1433:.\Generated_Source\PSoC5/cyfitter_cfg.c **** 			{0x07u, 0x02u},
ARM GAS  C:\Users\glenn\AppData\Local\Temp\cc8YMqik.s 			page 48


1434:.\Generated_Source\PSoC5/cyfitter_cfg.c **** 			{0x0Au, 0x0Au},
1435:.\Generated_Source\PSoC5/cyfitter_cfg.c **** 			{0x0Bu, 0x90u},
1436:.\Generated_Source\PSoC5/cyfitter_cfg.c **** 			{0x0Eu, 0xA0u},
1437:.\Generated_Source\PSoC5/cyfitter_cfg.c **** 			{0x0Fu, 0x01u},
1438:.\Generated_Source\PSoC5/cyfitter_cfg.c **** 			{0x10u, 0x84u},
1439:.\Generated_Source\PSoC5/cyfitter_cfg.c **** 			{0x11u, 0x04u},
1440:.\Generated_Source\PSoC5/cyfitter_cfg.c **** 			{0x15u, 0x40u},
1441:.\Generated_Source\PSoC5/cyfitter_cfg.c **** 			{0x17u, 0x40u},
1442:.\Generated_Source\PSoC5/cyfitter_cfg.c **** 			{0x19u, 0x49u},
1443:.\Generated_Source\PSoC5/cyfitter_cfg.c **** 			{0x1Cu, 0x04u},
1444:.\Generated_Source\PSoC5/cyfitter_cfg.c **** 			{0x1Eu, 0x80u},
1445:.\Generated_Source\PSoC5/cyfitter_cfg.c **** 			{0x1Fu, 0x84u},
1446:.\Generated_Source\PSoC5/cyfitter_cfg.c **** 			{0x22u, 0x11u},
1447:.\Generated_Source\PSoC5/cyfitter_cfg.c **** 			{0x23u, 0x10u},
1448:.\Generated_Source\PSoC5/cyfitter_cfg.c **** 			{0x27u, 0x50u},
1449:.\Generated_Source\PSoC5/cyfitter_cfg.c **** 			{0x28u, 0x84u},
1450:.\Generated_Source\PSoC5/cyfitter_cfg.c **** 			{0x29u, 0x8Au},
1451:.\Generated_Source\PSoC5/cyfitter_cfg.c **** 			{0x2Fu, 0x80u},
1452:.\Generated_Source\PSoC5/cyfitter_cfg.c **** 			{0x30u, 0x80u},
1453:.\Generated_Source\PSoC5/cyfitter_cfg.c **** 			{0x32u, 0x15u},
1454:.\Generated_Source\PSoC5/cyfitter_cfg.c **** 			{0x37u, 0x10u},
1455:.\Generated_Source\PSoC5/cyfitter_cfg.c **** 			{0x38u, 0x10u},
1456:.\Generated_Source\PSoC5/cyfitter_cfg.c **** 			{0x39u, 0x85u},
1457:.\Generated_Source\PSoC5/cyfitter_cfg.c **** 			{0x3Au, 0x08u},
1458:.\Generated_Source\PSoC5/cyfitter_cfg.c **** 			{0x3Bu, 0x80u},
1459:.\Generated_Source\PSoC5/cyfitter_cfg.c **** 			{0x59u, 0x01u},
1460:.\Generated_Source\PSoC5/cyfitter_cfg.c **** 			{0x60u, 0x06u},
1461:.\Generated_Source\PSoC5/cyfitter_cfg.c **** 			{0x63u, 0x40u},
1462:.\Generated_Source\PSoC5/cyfitter_cfg.c **** 			{0x7Fu, 0x02u},
1463:.\Generated_Source\PSoC5/cyfitter_cfg.c **** 			{0x85u, 0x01u},
1464:.\Generated_Source\PSoC5/cyfitter_cfg.c **** 			{0x87u, 0x50u},
1465:.\Generated_Source\PSoC5/cyfitter_cfg.c **** 			{0x90u, 0x10u},
1466:.\Generated_Source\PSoC5/cyfitter_cfg.c **** 			{0x91u, 0x80u},
1467:.\Generated_Source\PSoC5/cyfitter_cfg.c **** 			{0x92u, 0x08u},
1468:.\Generated_Source\PSoC5/cyfitter_cfg.c **** 			{0x93u, 0x01u},
1469:.\Generated_Source\PSoC5/cyfitter_cfg.c **** 			{0x95u, 0x40u},
1470:.\Generated_Source\PSoC5/cyfitter_cfg.c **** 			{0x96u, 0x02u},
1471:.\Generated_Source\PSoC5/cyfitter_cfg.c **** 			{0x97u, 0x18u},
1472:.\Generated_Source\PSoC5/cyfitter_cfg.c **** 			{0x98u, 0x86u},
1473:.\Generated_Source\PSoC5/cyfitter_cfg.c **** 			{0x9Au, 0x2Cu},
1474:.\Generated_Source\PSoC5/cyfitter_cfg.c **** 			{0x9Bu, 0x02u},
1475:.\Generated_Source\PSoC5/cyfitter_cfg.c **** 			{0x9Du, 0x48u},
1476:.\Generated_Source\PSoC5/cyfitter_cfg.c **** 			{0xA0u, 0x80u},
1477:.\Generated_Source\PSoC5/cyfitter_cfg.c **** 			{0xA2u, 0x12u},
1478:.\Generated_Source\PSoC5/cyfitter_cfg.c **** 			{0xA3u, 0x02u},
1479:.\Generated_Source\PSoC5/cyfitter_cfg.c **** 			{0xA9u, 0x40u},
1480:.\Generated_Source\PSoC5/cyfitter_cfg.c **** 			{0xABu, 0x04u},
1481:.\Generated_Source\PSoC5/cyfitter_cfg.c **** 			{0xAFu, 0x40u},
1482:.\Generated_Source\PSoC5/cyfitter_cfg.c **** 			{0xC0u, 0xEFu},
1483:.\Generated_Source\PSoC5/cyfitter_cfg.c **** 			{0xC2u, 0xBFu},
1484:.\Generated_Source\PSoC5/cyfitter_cfg.c **** 			{0xC4u, 0x8Eu},
1485:.\Generated_Source\PSoC5/cyfitter_cfg.c **** 			{0xCAu, 0x8Fu},
1486:.\Generated_Source\PSoC5/cyfitter_cfg.c **** 			{0xCCu, 0x2Fu},
1487:.\Generated_Source\PSoC5/cyfitter_cfg.c **** 			{0xCEu, 0x0Fu},
1488:.\Generated_Source\PSoC5/cyfitter_cfg.c **** 			{0xD6u, 0x01u},
1489:.\Generated_Source\PSoC5/cyfitter_cfg.c **** 			{0xD8u, 0x0Du},
1490:.\Generated_Source\PSoC5/cyfitter_cfg.c **** 			{0xDEu, 0x10u},
ARM GAS  C:\Users\glenn\AppData\Local\Temp\cc8YMqik.s 			page 49


1491:.\Generated_Source\PSoC5/cyfitter_cfg.c **** 			{0xEAu, 0x01u},
1492:.\Generated_Source\PSoC5/cyfitter_cfg.c **** 			{0xECu, 0x20u},
1493:.\Generated_Source\PSoC5/cyfitter_cfg.c **** 			{0x10u, 0x10u},
1494:.\Generated_Source\PSoC5/cyfitter_cfg.c **** 			{0x16u, 0x80u},
1495:.\Generated_Source\PSoC5/cyfitter_cfg.c **** 			{0x32u, 0x20u},
1496:.\Generated_Source\PSoC5/cyfitter_cfg.c **** 			{0x33u, 0x02u},
1497:.\Generated_Source\PSoC5/cyfitter_cfg.c **** 			{0x34u, 0x04u},
1498:.\Generated_Source\PSoC5/cyfitter_cfg.c **** 			{0x35u, 0x80u},
1499:.\Generated_Source\PSoC5/cyfitter_cfg.c **** 			{0x3Bu, 0x42u},
1500:.\Generated_Source\PSoC5/cyfitter_cfg.c **** 			{0x3Eu, 0x80u},
1501:.\Generated_Source\PSoC5/cyfitter_cfg.c **** 			{0x83u, 0x80u},
1502:.\Generated_Source\PSoC5/cyfitter_cfg.c **** 			{0x85u, 0x80u},
1503:.\Generated_Source\PSoC5/cyfitter_cfg.c **** 			{0xC4u, 0x30u},
1504:.\Generated_Source\PSoC5/cyfitter_cfg.c **** 			{0xCCu, 0xF0u},
1505:.\Generated_Source\PSoC5/cyfitter_cfg.c **** 			{0xCEu, 0x70u},
1506:.\Generated_Source\PSoC5/cyfitter_cfg.c **** 			{0xE2u, 0x10u},
1507:.\Generated_Source\PSoC5/cyfitter_cfg.c **** 			{0xE6u, 0x20u},
1508:.\Generated_Source\PSoC5/cyfitter_cfg.c **** 			{0x32u, 0x08u},
1509:.\Generated_Source\PSoC5/cyfitter_cfg.c **** 			{0x33u, 0x80u},
1510:.\Generated_Source\PSoC5/cyfitter_cfg.c **** 			{0x35u, 0x40u},
1511:.\Generated_Source\PSoC5/cyfitter_cfg.c **** 			{0x36u, 0x04u},
1512:.\Generated_Source\PSoC5/cyfitter_cfg.c **** 			{0x97u, 0x40u},
1513:.\Generated_Source\PSoC5/cyfitter_cfg.c **** 			{0x98u, 0x10u},
1514:.\Generated_Source\PSoC5/cyfitter_cfg.c **** 			{0x9Cu, 0x04u},
1515:.\Generated_Source\PSoC5/cyfitter_cfg.c **** 			{0xA3u, 0x80u},
1516:.\Generated_Source\PSoC5/cyfitter_cfg.c **** 			{0xA6u, 0x20u},
1517:.\Generated_Source\PSoC5/cyfitter_cfg.c **** 			{0xABu, 0x03u},
1518:.\Generated_Source\PSoC5/cyfitter_cfg.c **** 			{0xCCu, 0xF0u},
1519:.\Generated_Source\PSoC5/cyfitter_cfg.c **** 			{0xEAu, 0x20u},
1520:.\Generated_Source\PSoC5/cyfitter_cfg.c **** 			{0xEEu, 0x20u},
1521:.\Generated_Source\PSoC5/cyfitter_cfg.c **** 			{0x8Cu, 0x01u},
1522:.\Generated_Source\PSoC5/cyfitter_cfg.c **** 			{0x97u, 0x40u},
1523:.\Generated_Source\PSoC5/cyfitter_cfg.c **** 			{0x98u, 0x10u},
1524:.\Generated_Source\PSoC5/cyfitter_cfg.c **** 			{0x9Cu, 0x04u},
1525:.\Generated_Source\PSoC5/cyfitter_cfg.c **** 			{0x9Du, 0x40u},
1526:.\Generated_Source\PSoC5/cyfitter_cfg.c **** 			{0xA6u, 0x2Cu},
1527:.\Generated_Source\PSoC5/cyfitter_cfg.c **** 			{0x26u, 0x08u},
1528:.\Generated_Source\PSoC5/cyfitter_cfg.c **** 			{0x2Cu, 0x04u},
1529:.\Generated_Source\PSoC5/cyfitter_cfg.c **** 			{0x94u, 0x01u},
1530:.\Generated_Source\PSoC5/cyfitter_cfg.c **** 			{0x97u, 0x40u},
1531:.\Generated_Source\PSoC5/cyfitter_cfg.c **** 			{0x98u, 0x10u},
1532:.\Generated_Source\PSoC5/cyfitter_cfg.c **** 			{0x9Cu, 0x04u},
1533:.\Generated_Source\PSoC5/cyfitter_cfg.c **** 			{0x9Du, 0x40u},
1534:.\Generated_Source\PSoC5/cyfitter_cfg.c **** 			{0xA6u, 0x2Cu},
1535:.\Generated_Source\PSoC5/cyfitter_cfg.c **** 			{0xC8u, 0x80u},
1536:.\Generated_Source\PSoC5/cyfitter_cfg.c **** 			{0xCAu, 0x20u},
1537:.\Generated_Source\PSoC5/cyfitter_cfg.c **** 			{0x7Cu, 0x01u},
1538:.\Generated_Source\PSoC5/cyfitter_cfg.c **** 			{0xDEu, 0x01u},
1539:.\Generated_Source\PSoC5/cyfitter_cfg.c **** 			{0x01u, 0x10u},
1540:.\Generated_Source\PSoC5/cyfitter_cfg.c **** 			{0x08u, 0x10u},
1541:.\Generated_Source\PSoC5/cyfitter_cfg.c **** 			{0x0Eu, 0x01u},
1542:.\Generated_Source\PSoC5/cyfitter_cfg.c **** 			{0x52u, 0x08u},
1543:.\Generated_Source\PSoC5/cyfitter_cfg.c **** 			{0x87u, 0x01u},
1544:.\Generated_Source\PSoC5/cyfitter_cfg.c **** 			{0x94u, 0x01u},
1545:.\Generated_Source\PSoC5/cyfitter_cfg.c **** 			{0xA7u, 0x04u},
1546:.\Generated_Source\PSoC5/cyfitter_cfg.c **** 			{0xABu, 0x04u},
1547:.\Generated_Source\PSoC5/cyfitter_cfg.c **** 			{0xC0u, 0x02u},
ARM GAS  C:\Users\glenn\AppData\Local\Temp\cc8YMqik.s 			page 50


1548:.\Generated_Source\PSoC5/cyfitter_cfg.c **** 			{0xC2u, 0x03u},
1549:.\Generated_Source\PSoC5/cyfitter_cfg.c **** 			{0xD4u, 0x04u},
1550:.\Generated_Source\PSoC5/cyfitter_cfg.c **** 			{0x1Bu, 0x04u},
1551:.\Generated_Source\PSoC5/cyfitter_cfg.c **** 			{0x26u, 0x08u},
1552:.\Generated_Source\PSoC5/cyfitter_cfg.c **** 			{0x45u, 0x02u},
1553:.\Generated_Source\PSoC5/cyfitter_cfg.c **** 			{0x8Du, 0x02u},
1554:.\Generated_Source\PSoC5/cyfitter_cfg.c **** 			{0x94u, 0x01u},
1555:.\Generated_Source\PSoC5/cyfitter_cfg.c **** 			{0x9Bu, 0x01u},
1556:.\Generated_Source\PSoC5/cyfitter_cfg.c **** 			{0xA7u, 0x04u},
1557:.\Generated_Source\PSoC5/cyfitter_cfg.c **** 			{0xACu, 0x10u},
1558:.\Generated_Source\PSoC5/cyfitter_cfg.c **** 			{0xADu, 0x10u},
1559:.\Generated_Source\PSoC5/cyfitter_cfg.c **** 			{0xAEu, 0x08u},
1560:.\Generated_Source\PSoC5/cyfitter_cfg.c **** 			{0xB2u, 0x01u},
1561:.\Generated_Source\PSoC5/cyfitter_cfg.c **** 			{0xC6u, 0x08u},
1562:.\Generated_Source\PSoC5/cyfitter_cfg.c **** 			{0xC8u, 0x01u},
1563:.\Generated_Source\PSoC5/cyfitter_cfg.c **** 			{0xD0u, 0x01u},
1564:.\Generated_Source\PSoC5/cyfitter_cfg.c **** 			{0xE4u, 0x08u},
1565:.\Generated_Source\PSoC5/cyfitter_cfg.c **** 			{0xEEu, 0x01u},
1566:.\Generated_Source\PSoC5/cyfitter_cfg.c **** 			{0x44u, 0x01u},
1567:.\Generated_Source\PSoC5/cyfitter_cfg.c **** 			{0x8Eu, 0x08u},
1568:.\Generated_Source\PSoC5/cyfitter_cfg.c **** 			{0x90u, 0x04u},
1569:.\Generated_Source\PSoC5/cyfitter_cfg.c **** 			{0x9Bu, 0x01u},
1570:.\Generated_Source\PSoC5/cyfitter_cfg.c **** 			{0xA2u, 0x08u},
1571:.\Generated_Source\PSoC5/cyfitter_cfg.c **** 			{0xB4u, 0x05u},
1572:.\Generated_Source\PSoC5/cyfitter_cfg.c **** 			{0xD0u, 0x04u},
1573:.\Generated_Source\PSoC5/cyfitter_cfg.c **** 			{0xE6u, 0x02u},
1574:.\Generated_Source\PSoC5/cyfitter_cfg.c **** 			{0xECu, 0x0Au},
1575:.\Generated_Source\PSoC5/cyfitter_cfg.c **** 			{0x20u, 0x80u},
1576:.\Generated_Source\PSoC5/cyfitter_cfg.c **** 			{0x24u, 0x01u},
1577:.\Generated_Source\PSoC5/cyfitter_cfg.c **** 			{0x94u, 0x01u},
1578:.\Generated_Source\PSoC5/cyfitter_cfg.c **** 			{0x97u, 0x40u},
1579:.\Generated_Source\PSoC5/cyfitter_cfg.c **** 			{0x98u, 0x10u},
1580:.\Generated_Source\PSoC5/cyfitter_cfg.c **** 			{0x9Du, 0x40u},
1581:.\Generated_Source\PSoC5/cyfitter_cfg.c **** 			{0xA6u, 0x24u},
1582:.\Generated_Source\PSoC5/cyfitter_cfg.c **** 			{0xC8u, 0x60u},
1583:.\Generated_Source\PSoC5/cyfitter_cfg.c **** 			{0x19u, 0x10u},
1584:.\Generated_Source\PSoC5/cyfitter_cfg.c **** 			{0x1Du, 0x40u},
1585:.\Generated_Source\PSoC5/cyfitter_cfg.c **** 			{0x81u, 0x10u},
1586:.\Generated_Source\PSoC5/cyfitter_cfg.c **** 			{0x82u, 0x04u},
1587:.\Generated_Source\PSoC5/cyfitter_cfg.c **** 			{0x86u, 0x20u},
1588:.\Generated_Source\PSoC5/cyfitter_cfg.c **** 			{0x87u, 0x40u},
1589:.\Generated_Source\PSoC5/cyfitter_cfg.c **** 			{0x97u, 0x40u},
1590:.\Generated_Source\PSoC5/cyfitter_cfg.c **** 			{0x9Du, 0x40u},
1591:.\Generated_Source\PSoC5/cyfitter_cfg.c **** 			{0xA6u, 0x24u},
1592:.\Generated_Source\PSoC5/cyfitter_cfg.c **** 			{0xACu, 0x10u},
1593:.\Generated_Source\PSoC5/cyfitter_cfg.c **** 			{0xB0u, 0x40u},
1594:.\Generated_Source\PSoC5/cyfitter_cfg.c **** 			{0xC6u, 0xC0u},
1595:.\Generated_Source\PSoC5/cyfitter_cfg.c **** 			{0xE6u, 0x40u},
1596:.\Generated_Source\PSoC5/cyfitter_cfg.c **** 			{0xECu, 0x40u},
1597:.\Generated_Source\PSoC5/cyfitter_cfg.c **** 			{0x0Cu, 0x08u},
1598:.\Generated_Source\PSoC5/cyfitter_cfg.c **** 			{0x5Bu, 0x01u},
1599:.\Generated_Source\PSoC5/cyfitter_cfg.c **** 			{0x60u, 0x04u},
1600:.\Generated_Source\PSoC5/cyfitter_cfg.c **** 			{0x90u, 0x04u},
1601:.\Generated_Source\PSoC5/cyfitter_cfg.c **** 			{0x9Bu, 0x01u},
1602:.\Generated_Source\PSoC5/cyfitter_cfg.c **** 			{0x9Cu, 0x01u},
1603:.\Generated_Source\PSoC5/cyfitter_cfg.c **** 			{0xC2u, 0x04u},
1604:.\Generated_Source\PSoC5/cyfitter_cfg.c **** 			{0xD6u, 0x02u},
ARM GAS  C:\Users\glenn\AppData\Local\Temp\cc8YMqik.s 			page 51


1605:.\Generated_Source\PSoC5/cyfitter_cfg.c **** 			{0xD8u, 0x02u},
1606:.\Generated_Source\PSoC5/cyfitter_cfg.c **** 			{0xA8u, 0x08u},
1607:.\Generated_Source\PSoC5/cyfitter_cfg.c **** 			{0xB0u, 0x01u},
1608:.\Generated_Source\PSoC5/cyfitter_cfg.c **** 			{0xECu, 0x04u},
1609:.\Generated_Source\PSoC5/cyfitter_cfg.c **** 			{0x00u, 0x26u},
1610:.\Generated_Source\PSoC5/cyfitter_cfg.c **** 			{0x0Au, 0x02u},
1611:.\Generated_Source\PSoC5/cyfitter_cfg.c **** 			{0x0Cu, 0x06u},
1612:.\Generated_Source\PSoC5/cyfitter_cfg.c **** 			{0x0Eu, 0x26u},
1613:.\Generated_Source\PSoC5/cyfitter_cfg.c **** 			{0x10u, 0x06u},
1614:.\Generated_Source\PSoC5/cyfitter_cfg.c **** 			{0x11u, 0x01u},
1615:.\Generated_Source\PSoC5/cyfitter_cfg.c **** 			{0x1Au, 0x02u},
1616:.\Generated_Source\PSoC5/cyfitter_cfg.c **** 			{0x1Cu, 0x06u},
1617:.\Generated_Source\PSoC5/cyfitter_cfg.c **** 			{0x1Du, 0x01u},
1618:.\Generated_Source\PSoC5/cyfitter_cfg.c **** 			{0x00u, 0xBFu},
1619:.\Generated_Source\PSoC5/cyfitter_cfg.c **** 			{0x01u, 0xBFu},
1620:.\Generated_Source\PSoC5/cyfitter_cfg.c **** 			{0x02u, 0x03u},
1621:.\Generated_Source\PSoC5/cyfitter_cfg.c **** 			{0x10u, 0x0Au},
1622:.\Generated_Source\PSoC5/cyfitter_cfg.c **** 		};
1623:.\Generated_Source\PSoC5/cyfitter_cfg.c **** 
1624:.\Generated_Source\PSoC5/cyfitter_cfg.c **** 
1625:.\Generated_Source\PSoC5/cyfitter_cfg.c **** 
1626:.\Generated_Source\PSoC5/cyfitter_cfg.c **** 		CYPACKED typedef struct {
1627:.\Generated_Source\PSoC5/cyfitter_cfg.c **** 			void CYFAR *address;
1628:.\Generated_Source\PSoC5/cyfitter_cfg.c **** 			uint16 size;
1629:.\Generated_Source\PSoC5/cyfitter_cfg.c **** 		} CYPACKED_ATTR cfg_memset_t;
1630:.\Generated_Source\PSoC5/cyfitter_cfg.c **** 
1631:.\Generated_Source\PSoC5/cyfitter_cfg.c **** 		static const cfg_memset_t CYCODE cfg_memset_list [] = {
1632:.\Generated_Source\PSoC5/cyfitter_cfg.c **** 			/* address, size */
1633:.\Generated_Source\PSoC5/cyfitter_cfg.c **** 			{(void CYFAR *)(CYREG_PRT4_DR), 48u},
1634:.\Generated_Source\PSoC5/cyfitter_cfg.c **** 			{(void CYFAR *)(CYREG_PRT12_DR), 16u},
1635:.\Generated_Source\PSoC5/cyfitter_cfg.c **** 			{(void CYFAR *)(CYREG_PRT15_DR), 16u},
1636:.\Generated_Source\PSoC5/cyfitter_cfg.c **** 			{(void CYFAR *)(CYDEV_UCFG_B0_P0_U0_BASE), 4096u},
1637:.\Generated_Source\PSoC5/cyfitter_cfg.c **** 			{(void CYFAR *)(CYDEV_UCFG_B1_P2_U0_BASE), 2048u},
1638:.\Generated_Source\PSoC5/cyfitter_cfg.c **** 			{(void CYFAR *)(CYDEV_UCFG_DSI0_BASE), 2560u},
1639:.\Generated_Source\PSoC5/cyfitter_cfg.c **** 			{(void CYFAR *)(CYDEV_UCFG_DSI12_BASE), 512u},
1640:.\Generated_Source\PSoC5/cyfitter_cfg.c **** 			{(void CYFAR *)(CYREG_BCTL0_MDCLK_EN), 32u},
1641:.\Generated_Source\PSoC5/cyfitter_cfg.c **** 		};
1642:.\Generated_Source\PSoC5/cyfitter_cfg.c **** 
1643:.\Generated_Source\PSoC5/cyfitter_cfg.c **** 		uint8 CYDATA i;
1644:.\Generated_Source\PSoC5/cyfitter_cfg.c **** 
1645:.\Generated_Source\PSoC5/cyfitter_cfg.c **** 		/* Zero out critical memory blocks before beginning configuration */
1646:.\Generated_Source\PSoC5/cyfitter_cfg.c **** 		for (i = 0u; i < (sizeof(cfg_memset_list)/sizeof(cfg_memset_list[0])); i++)
 1238              		.loc 1 1646 0
 1239 0018 0023     		movs	r3, #0
 1240 001a FB71     		strb	r3, [r7, #7]
 1241 001c 13E0     		b	.L47
 1242              	.L48:
 1243              	.LBB4:
1647:.\Generated_Source\PSoC5/cyfitter_cfg.c **** 		{
1648:.\Generated_Source\PSoC5/cyfitter_cfg.c **** 			const cfg_memset_t CYCODE * CYDATA ms = &cfg_memset_list[i];
 1244              		.loc 1 1648 0 discriminator 3
 1245 001e FA79     		ldrb	r2, [r7, #7]	@ zero_extendqisi2
 1246 0020 1346     		mov	r3, r2
 1247 0022 5B00     		lsls	r3, r3, #1
 1248 0024 1344     		add	r3, r3, r2
 1249 0026 5B00     		lsls	r3, r3, #1
 1250 0028 394A     		ldr	r2, .L49+4
ARM GAS  C:\Users\glenn\AppData\Local\Temp\cc8YMqik.s 			page 52


 1251 002a 1344     		add	r3, r3, r2
 1252 002c 3B60     		str	r3, [r7]
1649:.\Generated_Source\PSoC5/cyfitter_cfg.c **** 			CYMEMZERO(ms->address, (size_t)(uint32)(ms->size));
 1253              		.loc 1 1649 0 discriminator 3
 1254 002e 3B68     		ldr	r3, [r7]
 1255 0030 1A68     		ldr	r2, [r3]	@ unaligned
 1256 0032 3B68     		ldr	r3, [r7]
 1257 0034 9B88     		ldrh	r3, [r3, #4]	@ unaligned
 1258 0036 9BB2     		uxth	r3, r3
 1259 0038 1046     		mov	r0, r2
 1260 003a 1946     		mov	r1, r3
 1261 003c FFF7FEFF 		bl	CYMEMZERO
 1262              	.LBE4:
1646:.\Generated_Source\PSoC5/cyfitter_cfg.c **** 		{
 1263              		.loc 1 1646 0 discriminator 3
 1264 0040 FB79     		ldrb	r3, [r7, #7]	@ zero_extendqisi2
 1265 0042 0133     		adds	r3, r3, #1
 1266 0044 FB71     		strb	r3, [r7, #7]
 1267              	.L47:
1646:.\Generated_Source\PSoC5/cyfitter_cfg.c **** 		{
 1268              		.loc 1 1646 0 is_stmt 0 discriminator 1
 1269 0046 FB79     		ldrb	r3, [r7, #7]	@ zero_extendqisi2
 1270 0048 072B     		cmp	r3, #7
 1271 004a E8D9     		bls	.L48
1650:.\Generated_Source\PSoC5/cyfitter_cfg.c **** 		}
1651:.\Generated_Source\PSoC5/cyfitter_cfg.c **** 
1652:.\Generated_Source\PSoC5/cyfitter_cfg.c **** 		cfg_write_bytes32(cy_cfg_addr_table, cy_cfg_data_table);
 1272              		.loc 1 1652 0 is_stmt 1
 1273 004c 3148     		ldr	r0, .L49+8
 1274 004e 3249     		ldr	r1, .L49+12
 1275 0050 FFF7FEFF 		bl	cfg_write_bytes32
1653:.\Generated_Source\PSoC5/cyfitter_cfg.c **** 
1654:.\Generated_Source\PSoC5/cyfitter_cfg.c **** 		/* Perform normal device configuration. Order is not critical for these items. */
1655:.\Generated_Source\PSoC5/cyfitter_cfg.c **** 		CY_SET_XTND_REG8((void CYFAR *)(CYREG_DSM0_CR3), 0x0Au);
 1276              		.loc 1 1655 0
 1277 0054 314B     		ldr	r3, .L49+16
 1278 0056 0A22     		movs	r2, #10
 1279 0058 1A70     		strb	r2, [r3]
1656:.\Generated_Source\PSoC5/cyfitter_cfg.c **** 		CYMEMZERO((void CYFAR *)(CYREG_PHUB_CFGMEM0_CFG0), 4u);
 1280              		.loc 1 1656 0
 1281 005a 3148     		ldr	r0, .L49+20
 1282 005c 0421     		movs	r1, #4
 1283 005e FFF7FEFF 		bl	CYMEMZERO
1657:.\Generated_Source\PSoC5/cyfitter_cfg.c **** 		CYCONFIGCPYCODE((void CYFAR *)(CYREG_PHUB_CFGMEM1_CFG0), (const void CYCODE *)(BS_PHUB_CFGMEM1_VA
 1284              		.loc 1 1657 0
 1285 0062 3048     		ldr	r0, .L49+24
 1286 0064 3049     		ldr	r1, .L49+28
 1287 0066 0422     		movs	r2, #4
 1288 0068 FFF7FEFF 		bl	CYCONFIGCPYCODE
1658:.\Generated_Source\PSoC5/cyfitter_cfg.c **** 
1659:.\Generated_Source\PSoC5/cyfitter_cfg.c **** 		/* Enable digital routing */
1660:.\Generated_Source\PSoC5/cyfitter_cfg.c **** 		CY_SET_XTND_REG8((void CYFAR *)CYREG_BCTL0_BANK_CTL, CY_GET_XTND_REG8((void CYFAR *)CYREG_BCTL0_B
 1289              		.loc 1 1660 0
 1290 006c 2F4A     		ldr	r2, .L49+32
 1291 006e 2F4B     		ldr	r3, .L49+32
 1292 0070 1B78     		ldrb	r3, [r3]
 1293 0072 DBB2     		uxtb	r3, r3
ARM GAS  C:\Users\glenn\AppData\Local\Temp\cc8YMqik.s 			page 53


 1294 0074 43F00203 		orr	r3, r3, #2
 1295 0078 DBB2     		uxtb	r3, r3
 1296 007a 1370     		strb	r3, [r2]
1661:.\Generated_Source\PSoC5/cyfitter_cfg.c **** 		CY_SET_XTND_REG8((void CYFAR *)CYREG_BCTL1_BANK_CTL, CY_GET_XTND_REG8((void CYFAR *)CYREG_BCTL1_B
 1297              		.loc 1 1661 0
 1298 007c 2C4A     		ldr	r2, .L49+36
 1299 007e 2C4B     		ldr	r3, .L49+36
 1300 0080 1B78     		ldrb	r3, [r3]
 1301 0082 DBB2     		uxtb	r3, r3
 1302 0084 43F00203 		orr	r3, r3, #2
 1303 0088 DBB2     		uxtb	r3, r3
 1304 008a 1370     		strb	r3, [r2]
1662:.\Generated_Source\PSoC5/cyfitter_cfg.c **** 
1663:.\Generated_Source\PSoC5/cyfitter_cfg.c **** 		/* Enable UDB array */
1664:.\Generated_Source\PSoC5/cyfitter_cfg.c **** 		CY_SET_XTND_REG8((void CYFAR *)CYREG_PM_ACT_CFG0, CY_GET_XTND_REG8((void CYFAR *)CYREG_PM_ACT_CFG
 1305              		.loc 1 1664 0
 1306 008c 294A     		ldr	r2, .L49+40
 1307 008e 294B     		ldr	r3, .L49+40
 1308 0090 1B78     		ldrb	r3, [r3]
 1309 0092 DBB2     		uxtb	r3, r3
 1310 0094 43F04003 		orr	r3, r3, #64
 1311 0098 DBB2     		uxtb	r3, r3
 1312 009a 1370     		strb	r3, [r2]
1665:.\Generated_Source\PSoC5/cyfitter_cfg.c **** 		CY_SET_XTND_REG8((void CYFAR *)CYREG_PM_AVAIL_CR2, CY_GET_XTND_REG8((void CYFAR *)CYREG_PM_AVAIL_
 1313              		.loc 1 1665 0
 1314 009c 264A     		ldr	r2, .L49+44
 1315 009e 264B     		ldr	r3, .L49+44
 1316 00a0 1B78     		ldrb	r3, [r3]
 1317 00a2 DBB2     		uxtb	r3, r3
 1318 00a4 43F01003 		orr	r3, r3, #16
 1319 00a8 DBB2     		uxtb	r3, r3
 1320 00aa 1370     		strb	r3, [r2]
 1321              	.LBE3:
1666:.\Generated_Source\PSoC5/cyfitter_cfg.c **** 	}
1667:.\Generated_Source\PSoC5/cyfitter_cfg.c **** 
1668:.\Generated_Source\PSoC5/cyfitter_cfg.c **** 
1669:.\Generated_Source\PSoC5/cyfitter_cfg.c **** 	/* Perform second pass device configuration. These items must be configured in specific order afte
1670:.\Generated_Source\PSoC5/cyfitter_cfg.c **** 	CYCONFIGCPYCODE((void CYFAR *)(CYREG_PRT0_DM0), (const void CYCODE *)(BS_IOPINS0_0_VAL), 8u);
 1322              		.loc 1 1670 0
 1323 00ac 2348     		ldr	r0, .L49+48
 1324 00ae 2449     		ldr	r1, .L49+52
 1325 00b0 0822     		movs	r2, #8
 1326 00b2 FFF7FEFF 		bl	CYCONFIGCPYCODE
1671:.\Generated_Source\PSoC5/cyfitter_cfg.c **** 	CYCONFIGCPYCODE((void CYFAR *)(CYREG_PRT1_DR), (const void CYCODE *)(BS_IOPINS0_1_VAL), 10u);
 1327              		.loc 1 1671 0
 1328 00b6 2348     		ldr	r0, .L49+56
 1329 00b8 2349     		ldr	r1, .L49+60
 1330 00ba 0A22     		movs	r2, #10
 1331 00bc FFF7FEFF 		bl	CYCONFIGCPYCODE
1672:.\Generated_Source\PSoC5/cyfitter_cfg.c **** 	CYCONFIGCPYCODE((void CYFAR *)(CYREG_PRT2_DR), (const void CYCODE *)(BS_IOPINS0_2_VAL), 10u);
 1332              		.loc 1 1672 0
 1333 00c0 2248     		ldr	r0, .L49+64
 1334 00c2 2349     		ldr	r1, .L49+68
 1335 00c4 0A22     		movs	r2, #10
 1336 00c6 FFF7FEFF 		bl	CYCONFIGCPYCODE
1673:.\Generated_Source\PSoC5/cyfitter_cfg.c **** 	CYCONFIGCPYCODE((void CYFAR *)(CYREG_PRT3_DM0), (const void CYCODE *)(BS_IOPINS0_3_VAL), 8u);
 1337              		.loc 1 1673 0
ARM GAS  C:\Users\glenn\AppData\Local\Temp\cc8YMqik.s 			page 54


 1338 00ca 2248     		ldr	r0, .L49+72
 1339 00cc 2249     		ldr	r1, .L49+76
 1340 00ce 0822     		movs	r2, #8
 1341 00d0 FFF7FEFF 		bl	CYCONFIGCPYCODE
1674:.\Generated_Source\PSoC5/cyfitter_cfg.c **** 	/* Switch Boost to the precision bandgap reference from its internal reference */
1675:.\Generated_Source\PSoC5/cyfitter_cfg.c **** 	CY_SET_REG8((void CYXDATA *)CYREG_BOOST_CR2, (CY_GET_REG8((void CYXDATA *)CYREG_BOOST_CR2) | 0x08u
 1342              		.loc 1 1675 0
 1343 00d4 214A     		ldr	r2, .L49+80
 1344 00d6 214B     		ldr	r3, .L49+80
 1345 00d8 1B78     		ldrb	r3, [r3]
 1346 00da DBB2     		uxtb	r3, r3
 1347 00dc 43F00803 		orr	r3, r3, #8
 1348 00e0 DBB2     		uxtb	r3, r3
 1349 00e2 1370     		strb	r3, [r2]
1676:.\Generated_Source\PSoC5/cyfitter_cfg.c **** 
1677:.\Generated_Source\PSoC5/cyfitter_cfg.c **** 	/* Set Flash Cycles based on max possible frequency in case a glitch occurs during ClockSetup(). *
1678:.\Generated_Source\PSoC5/cyfitter_cfg.c **** 	CY_SET_XTND_REG8((void CYFAR *)(CYREG_CACHE_CC_CTL), (((CYDEV_INSTRUCT_CACHE_ENABLED) != 0) ? 0x61
 1350              		.loc 1 1678 0
 1351 00e4 1E4B     		ldr	r3, .L49+84
 1352 00e6 6022     		movs	r2, #96
 1353 00e8 1A70     		strb	r2, [r3]
1679:.\Generated_Source\PSoC5/cyfitter_cfg.c **** 	/* Setup clocks based on selections from Clock DWR */
1680:.\Generated_Source\PSoC5/cyfitter_cfg.c **** 	ClockSetup();
 1354              		.loc 1 1680 0
 1355 00ea FFF7FEFF 		bl	ClockSetup
1681:.\Generated_Source\PSoC5/cyfitter_cfg.c **** 	/* Set Flash Cycles based on newly configured 64.00MHz Bus Clock. */
1682:.\Generated_Source\PSoC5/cyfitter_cfg.c **** 	CY_SET_XTND_REG8((void CYFAR *)(CYREG_CACHE_CC_CTL), (((CYDEV_INSTRUCT_CACHE_ENABLED) != 0) ? 0x01
 1356              		.loc 1 1682 0
 1357 00ee 1C4B     		ldr	r3, .L49+84
 1358 00f0 0022     		movs	r2, #0
 1359 00f2 1A70     		strb	r2, [r3]
1683:.\Generated_Source\PSoC5/cyfitter_cfg.c **** 
1684:.\Generated_Source\PSoC5/cyfitter_cfg.c **** 	CyEEPROM_Start(); /* Start EEPROM since it is used in DWR */
 1360              		.loc 1 1684 0
 1361 00f4 FFF7FEFF 		bl	CyEEPROM_Start
1685:.\Generated_Source\PSoC5/cyfitter_cfg.c **** 
1686:.\Generated_Source\PSoC5/cyfitter_cfg.c **** 	/* Perform basic analog initialization to defaults */
1687:.\Generated_Source\PSoC5/cyfitter_cfg.c **** 	AnalogSetDefault();
 1362              		.loc 1 1687 0
 1363 00f8 FFF7FEFF 		bl	AnalogSetDefault
1688:.\Generated_Source\PSoC5/cyfitter_cfg.c **** 
1689:.\Generated_Source\PSoC5/cyfitter_cfg.c **** 	/* Configure alternate active mode */
1690:.\Generated_Source\PSoC5/cyfitter_cfg.c **** 	CYCONFIGCPY((void CYFAR *)CYDEV_PM_STBY_BASE, (const void CYFAR *)CYDEV_PM_ACT_BASE, 14u);
 1364              		.loc 1 1690 0
 1365 00fc 1948     		ldr	r0, .L49+88
 1366 00fe 0D49     		ldr	r1, .L49+40
 1367 0100 0E22     		movs	r2, #14
 1368 0102 FFF7FEFF 		bl	CYCONFIGCPY
1691:.\Generated_Source\PSoC5/cyfitter_cfg.c **** }
 1369              		.loc 1 1691 0
 1370 0106 0837     		adds	r7, r7, #8
 1371              		.cfi_def_cfa_offset 8
 1372 0108 BD46     		mov	sp, r7
 1373              		.cfi_def_cfa_register 13
 1374              		@ sp needed
 1375 010a 80BD     		pop	{r7, pc}
 1376              	.L50:
ARM GAS  C:\Users\glenn\AppData\Local\Temp\cc8YMqik.s 			page 55


 1377              		.align	2
 1378              	.L49:
 1379 010c E8460040 		.word	1073759976
 1380 0110 84000000 		.word	cfg_memset_list.4933
 1381 0114 B4000000 		.word	cy_cfg_addr_table.4927
 1382 0118 50010000 		.word	cy_cfg_data_table.4928
 1383 011c 83580040 		.word	1073764483
 1384 0120 00760040 		.word	1073772032
 1385 0124 08760040 		.word	1073772040
 1386 0128 1C090000 		.word	BS_PHUB_CFGMEM1_VAL.4926
 1387 012c 03500140 		.word	1073827843
 1388 0130 13500140 		.word	1073827859
 1389 0134 A0430040 		.word	1073759136
 1390 0138 C2430040 		.word	1073759170
 1391 013c 02510040 		.word	1073762562
 1392 0140 20090000 		.word	BS_IOPINS0_0_VAL.4922
 1393 0144 10510040 		.word	1073762576
 1394 0148 28090000 		.word	BS_IOPINS0_1_VAL.4923
 1395 014c 20510040 		.word	1073762592
 1396 0150 34090000 		.word	BS_IOPINS0_2_VAL.4924
 1397 0154 32510040 		.word	1073762610
 1398 0158 40090000 		.word	BS_IOPINS0_3_VAL.4925
 1399 015c 22430040 		.word	1073759010
 1400 0160 00480040 		.word	1073760256
 1401 0164 B0430040 		.word	1073759152
 1402              		.cfi_endproc
 1403              	.LFE12:
 1404              		.size	cyfitter_cfg, .-cyfitter_cfg
 1405              		.section	.rodata
 1406 007d 000000   		.align	2
 1407              		.type	BS_CYDEV_CLKDIST_ACFG0_CFG0_VAL.4872, %object
 1408              		.size	BS_CYDEV_CLKDIST_ACFG0_CFG0_VAL.4872, 4
 1409              	BS_CYDEV_CLKDIST_ACFG0_CFG0_VAL.4872:
 1410 0080 14       		.byte	20
 1411 0081 00       		.byte	0
 1412 0082 18       		.byte	24
 1413 0083 01       		.byte	1
 1414              		.align	2
 1415              		.type	cfg_memset_list.4933, %object
 1416              		.size	cfg_memset_list.4933, 48
 1417              	cfg_memset_list.4933:
 1418 0084 40510040 		.word	1073762624
 1419 0088 3000     		.short	48
 1420 008a C0510040 		.4byte	1073762752
 1421 008e 1000     		.short	16
 1422 0090 F0510040 		.word	1073762800
 1423 0094 1000     		.short	16
 1424 0096 00000140 		.4byte	1073807360
 1425 009a 0010     		.short	4096
 1426 009c 00140140 		.word	1073812480
 1427 00a0 0008     		.short	2048
 1428 00a2 00400140 		.4byte	1073823744
 1429 00a6 000A     		.short	2560
 1430 00a8 004C0140 		.word	1073826816
 1431 00ac 0002     		.short	512
 1432 00ae 00500140 		.4byte	1073827840
 1433 00b2 2000     		.short	32
ARM GAS  C:\Users\glenn\AppData\Local\Temp\cc8YMqik.s 			page 56


 1434              		.align	2
 1435              		.type	cy_cfg_addr_table.4927, %object
 1436              		.size	cy_cfg_addr_table.4927, 156
 1437              	cy_cfg_addr_table.4927:
 1438 00b4 01520040 		.word	1073762817
 1439 00b8 015B0040 		.word	1073765121
 1440 00bc 02640040 		.word	1073767426
 1441 00c0 01650040 		.word	1073767681
 1442 00c4 02010140 		.word	1073807618
 1443 00c8 02030140 		.word	1073808130
 1444 00cc 04040140 		.word	1073808388
 1445 00d0 02050140 		.word	1073808642
 1446 00d4 18060140 		.word	1073808920
 1447 00d8 33070140 		.word	1073809203
 1448 00dc 2D080140 		.word	1073809453
 1449 00e0 4B090140 		.word	1073809739
 1450 00e4 150A0140 		.word	1073809941
 1451 00e8 3D0B0140 		.word	1073810237
 1452 00ec 4F0C0140 		.word	1073810511
 1453 00f0 420D0140 		.word	1073810754
 1454 00f4 320E0140 		.word	1073810994
 1455 00f8 350F0140 		.word	1073811253
 1456 00fc 02150140 		.word	1073812738
 1457 0100 0A160140 		.word	1073813002
 1458 0104 36170140 		.word	1073813302
 1459 0108 3C180140 		.word	1073813564
 1460 010c 47190140 		.word	1073813831
 1461 0110 431A0140 		.word	1073814083
 1462 0114 401B0140 		.word	1073814336
 1463 0118 0F400140 		.word	1073823759
 1464 011c 0D410140 		.word	1073824013
 1465 0120 06420140 		.word	1073824262
 1466 0124 0A430140 		.word	1073824522
 1467 0128 02440140 		.word	1073824770
 1468 012c 0B450140 		.word	1073825035
 1469 0130 10460140 		.word	1073825296
 1470 0134 09470140 		.word	1073825545
 1471 0138 08480140 		.word	1073825800
 1472 013c 0E490140 		.word	1073826062
 1473 0140 094C0140 		.word	1073826825
 1474 0144 034D0140 		.word	1073827075
 1475 0148 09500140 		.word	1073827849
 1476 014c 04510140 		.word	1073828100
 1477              		.align	2
 1478              		.type	cy_cfg_data_table.4928, %object
 1479              		.size	cy_cfg_data_table.4928, 1994
 1480              	cy_cfg_data_table.4928:
 1481 0150 09       		.byte	9
 1482 0151 80       		.byte	-128
 1483 0152 27       		.byte	39
 1484 0153 84       		.byte	-124
 1485 0154 89       		.byte	-119
 1486 0155 72       		.byte	114
 1487 0156 8F       		.byte	-113
 1488 0157 0F       		.byte	15
 1489 0158 8A       		.byte	-118
 1490 0159 38       		.byte	56
ARM GAS  C:\Users\glenn\AppData\Local\Temp\cc8YMqik.s 			page 57


 1491 015a E2       		.byte	-30
 1492 015b 08       		.byte	8
 1493 015c E6       		.byte	-26
 1494 015d 04       		.byte	4
 1495 015e EA       		.byte	-22
 1496 015f 04       		.byte	4
 1497 0160 EE       		.byte	-18
 1498 0161 04       		.byte	4
 1499 0162 39       		.byte	57
 1500 0163 80       		.byte	-128
 1501 0164 3F       		.byte	63
 1502 0165 40       		.byte	64
 1503 0166 59       		.byte	89
 1504 0167 04       		.byte	4
 1505 0168 5F       		.byte	95
 1506 0169 01       		.byte	1
 1507 016a 20       		.byte	32
 1508 016b 01       		.byte	1
 1509 016c E4       		.byte	-28
 1510 016d 10       		.byte	16
 1511 016e 58       		.byte	88
 1512 016f 04       		.byte	4
 1513 0170 59       		.byte	89
 1514 0171 04       		.byte	4
 1515 0172 5C       		.byte	92
 1516 0173 11       		.byte	17
 1517 0174 5F       		.byte	95
 1518 0175 01       		.byte	1
 1519 0176 81       		.byte	-127
 1520 0177 04       		.byte	4
 1521 0178 85       		.byte	-123
 1522 0179 08       		.byte	8
 1523 017a 8B       		.byte	-117
 1524 017b 08       		.byte	8
 1525 017c 8F       		.byte	-113
 1526 017d 04       		.byte	4
 1527 017e 92       		.byte	-110
 1528 017f 01       		.byte	1
 1529 0180 93       		.byte	-109
 1530 0181 02       		.byte	2
 1531 0182 95       		.byte	-107
 1532 0183 01       		.byte	1
 1533 0184 9F       		.byte	-97
 1534 0185 01       		.byte	1
 1535 0186 A3       		.byte	-93
 1536 0187 10       		.byte	16
 1537 0188 A6       		.byte	-90
 1538 0189 02       		.byte	2
 1539 018a A9       		.byte	-87
 1540 018b 02       		.byte	2
 1541 018c B2       		.byte	-78
 1542 018d 01       		.byte	1
 1543 018e B5       		.byte	-75
 1544 018f 1F       		.byte	31
 1545 0190 B6       		.byte	-74
 1546 0191 02       		.byte	2
 1547 0192 B9       		.byte	-71
ARM GAS  C:\Users\glenn\AppData\Local\Temp\cc8YMqik.s 			page 58


 1548 0193 20       		.byte	32
 1549 0194 BF       		.byte	-65
 1550 0195 10       		.byte	16
 1551 0196 D8       		.byte	-40
 1552 0197 04       		.byte	4
 1553 0198 D9       		.byte	-39
 1554 0199 04       		.byte	4
 1555 019a DC       		.byte	-36
 1556 019b 11       		.byte	17
 1557 019c DF       		.byte	-33
 1558 019d 01       		.byte	1
 1559 019e 00       		.byte	0
 1560 019f 14       		.byte	20
 1561 01a0 01       		.byte	1
 1562 01a1 41       		.byte	65
 1563 01a2 05       		.byte	5
 1564 01a3 40       		.byte	64
 1565 01a4 06       		.byte	6
 1566 01a5 80       		.byte	-128
 1567 01a6 07       		.byte	7
 1568 01a7 10       		.byte	16
 1569 01a8 08       		.byte	8
 1570 01a9 02       		.byte	2
 1571 01aa 0A       		.byte	10
 1572 01ab 12       		.byte	18
 1573 01ac 0B       		.byte	11
 1574 01ad 08       		.byte	8
 1575 01ae 0E       		.byte	14
 1576 01af 10       		.byte	16
 1577 01b0 12       		.byte	18
 1578 01b1 10       		.byte	16
 1579 01b2 15       		.byte	21
 1580 01b3 41       		.byte	65
 1581 01b4 17       		.byte	23
 1582 01b5 08       		.byte	8
 1583 01b6 19       		.byte	25
 1584 01b7 40       		.byte	64
 1585 01b8 1A       		.byte	26
 1586 01b9 20       		.byte	32
 1587 01ba 1B       		.byte	27
 1588 01bb 08       		.byte	8
 1589 01bc 20       		.byte	32
 1590 01bd 04       		.byte	4
 1591 01be 23       		.byte	35
 1592 01bf 08       		.byte	8
 1593 01c0 29       		.byte	41
 1594 01c1 05       		.byte	5
 1595 01c2 2A       		.byte	42
 1596 01c3 80       		.byte	-128
 1597 01c4 2B       		.byte	43
 1598 01c5 04       		.byte	4
 1599 01c6 2F       		.byte	47
 1600 01c7 08       		.byte	8
 1601 01c8 31       		.byte	49
 1602 01c9 80       		.byte	-128
 1603 01ca 32       		.byte	50
 1604 01cb 22       		.byte	34
ARM GAS  C:\Users\glenn\AppData\Local\Temp\cc8YMqik.s 			page 59


 1605 01cc 33       		.byte	51
 1606 01cd 08       		.byte	8
 1607 01ce 35       		.byte	53
 1608 01cf 44       		.byte	68
 1609 01d0 36       		.byte	54
 1610 01d1 20       		.byte	32
 1611 01d2 37       		.byte	55
 1612 01d3 18       		.byte	24
 1613 01d4 39       		.byte	57
 1614 01d5 01       		.byte	1
 1615 01d6 3A       		.byte	58
 1616 01d7 50       		.byte	80
 1617 01d8 3B       		.byte	59
 1618 01d9 08       		.byte	8
 1619 01da 3D       		.byte	61
 1620 01db 01       		.byte	1
 1621 01dc 3E       		.byte	62
 1622 01dd 90       		.byte	-112
 1623 01de 3F       		.byte	63
 1624 01df 40       		.byte	64
 1625 01e0 81       		.byte	-127
 1626 01e1 40       		.byte	64
 1627 01e2 82       		.byte	-126
 1628 01e3 10       		.byte	16
 1629 01e4 83       		.byte	-125
 1630 01e5 08       		.byte	8
 1631 01e6 85       		.byte	-123
 1632 01e7 40       		.byte	64
 1633 01e8 87       		.byte	-121
 1634 01e9 04       		.byte	4
 1635 01ea 89       		.byte	-119
 1636 01eb 01       		.byte	1
 1637 01ec 8A       		.byte	-118
 1638 01ed 03       		.byte	3
 1639 01ee 8B       		.byte	-117
 1640 01ef 40       		.byte	64
 1641 01f0 8E       		.byte	-114
 1642 01f1 10       		.byte	16
 1643 01f2 B4       		.byte	-76
 1644 01f3 01       		.byte	1
 1645 01f4 C0       		.byte	-64
 1646 01f5 BF       		.byte	-65
 1647 01f6 C2       		.byte	-62
 1648 01f7 2F       		.byte	47
 1649 01f8 C4       		.byte	-60
 1650 01f9 B4       		.byte	-76
 1651 01fa CA       		.byte	-54
 1652 01fb 2F       		.byte	47
 1653 01fc CC       		.byte	-52
 1654 01fd 7F       		.byte	127
 1655 01fe CE       		.byte	-50
 1656 01ff BF       		.byte	-65
 1657 0200 E0       		.byte	-32
 1658 0201 04       		.byte	4
 1659 0202 E4       		.byte	-28
 1660 0203 0C       		.byte	12
 1661 0204 01       		.byte	1
ARM GAS  C:\Users\glenn\AppData\Local\Temp\cc8YMqik.s 			page 60


 1662 0205 40       		.byte	64
 1663 0206 03       		.byte	3
 1664 0207 80       		.byte	-128
 1665 0208 05       		.byte	5
 1666 0209 08       		.byte	8
 1667 020a 0B       		.byte	11
 1668 020b 04       		.byte	4
 1669 020c 0D       		.byte	13
 1670 020d 02       		.byte	2
 1671 020e 13       		.byte	19
 1672 020f 01       		.byte	1
 1673 0210 15       		.byte	21
 1674 0211 20       		.byte	32
 1675 0212 17       		.byte	23
 1676 0213 10       		.byte	16
 1677 0214 1B       		.byte	27
 1678 0215 02       		.byte	2
 1679 0216 1D       		.byte	29
 1680 0217 10       		.byte	16
 1681 0218 1F       		.byte	31
 1682 0219 20       		.byte	32
 1683 021a 21       		.byte	33
 1684 021b 04       		.byte	4
 1685 021c 27       		.byte	39
 1686 021d 08       		.byte	8
 1687 021e 29       		.byte	41
 1688 021f 01       		.byte	1
 1689 0220 2D       		.byte	45
 1690 0221 80       		.byte	-128
 1691 0222 2F       		.byte	47
 1692 0223 40       		.byte	64
 1693 0224 33       		.byte	51
 1694 0225 FF       		.byte	-1
 1695 0226 3F       		.byte	63
 1696 0227 04       		.byte	4
 1697 0228 52       		.byte	82
 1698 0229 03       		.byte	3
 1699 022a 53       		.byte	83
 1700 022b 02       		.byte	2
 1701 022c 58       		.byte	88
 1702 022d 04       		.byte	4
 1703 022e 59       		.byte	89
 1704 022f 04       		.byte	4
 1705 0230 5B       		.byte	91
 1706 0231 04       		.byte	4
 1707 0232 5C       		.byte	92
 1708 0233 01       		.byte	1
 1709 0234 5D       		.byte	93
 1710 0235 10       		.byte	16
 1711 0236 5F       		.byte	95
 1712 0237 01       		.byte	1
 1713 0238 84       		.byte	-124
 1714 0239 01       		.byte	1
 1715 023a 85       		.byte	-123
 1716 023b 01       		.byte	1
 1717 023c 89       		.byte	-119
 1718 023d 01       		.byte	1
ARM GAS  C:\Users\glenn\AppData\Local\Temp\cc8YMqik.s 			page 61


 1719 023e 91       		.byte	-111
 1720 023f 01       		.byte	1
 1721 0240 9C       		.byte	-100
 1722 0241 01       		.byte	1
 1723 0242 A8       		.byte	-88
 1724 0243 01       		.byte	1
 1725 0244 AC       		.byte	-84
 1726 0245 01       		.byte	1
 1727 0246 B0       		.byte	-80
 1728 0247 01       		.byte	1
 1729 0248 B3       		.byte	-77
 1730 0249 01       		.byte	1
 1731 024a BB       		.byte	-69
 1732 024b 02       		.byte	2
 1733 024c BE       		.byte	-66
 1734 024d 01       		.byte	1
 1735 024e D6       		.byte	-42
 1736 024f 02       		.byte	2
 1737 0250 D7       		.byte	-41
 1738 0251 13       		.byte	19
 1739 0252 D8       		.byte	-40
 1740 0253 04       		.byte	4
 1741 0254 D9       		.byte	-39
 1742 0255 04       		.byte	4
 1743 0256 DB       		.byte	-37
 1744 0257 04       		.byte	4
 1745 0258 DC       		.byte	-36
 1746 0259 21       		.byte	33
 1747 025a DD       		.byte	-35
 1748 025b 20       		.byte	32
 1749 025c DF       		.byte	-33
 1750 025d 01       		.byte	1
 1751 025e 00       		.byte	0
 1752 025f 60       		.byte	96
 1753 0260 01       		.byte	1
 1754 0261 08       		.byte	8
 1755 0262 05       		.byte	5
 1756 0263 80       		.byte	-128
 1757 0264 06       		.byte	6
 1758 0265 90       		.byte	-112
 1759 0266 07       		.byte	7
 1760 0267 10       		.byte	16
 1761 0268 08       		.byte	8
 1762 0269 28       		.byte	40
 1763 026a 09       		.byte	9
 1764 026b 01       		.byte	1
 1765 026c 0A       		.byte	10
 1766 026d 02       		.byte	2
 1767 026e 0C       		.byte	12
 1768 026f 0C       		.byte	12
 1769 0270 0F       		.byte	15
 1770 0271 02       		.byte	2
 1771 0272 10       		.byte	16
 1772 0273 40       		.byte	64
 1773 0274 12       		.byte	18
 1774 0275 12       		.byte	18
 1775 0276 13       		.byte	19
ARM GAS  C:\Users\glenn\AppData\Local\Temp\cc8YMqik.s 			page 62


 1776 0277 10       		.byte	16
 1777 0278 14       		.byte	20
 1778 0279 01       		.byte	1
 1779 027a 15       		.byte	21
 1780 027b 01       		.byte	1
 1781 027c 17       		.byte	23
 1782 027d 08       		.byte	8
 1783 027e 19       		.byte	25
 1784 027f 01       		.byte	1
 1785 0280 20       		.byte	32
 1786 0281 10       		.byte	16
 1787 0282 21       		.byte	33
 1788 0283 01       		.byte	1
 1789 0284 22       		.byte	34
 1790 0285 02       		.byte	2
 1791 0286 25       		.byte	37
 1792 0287 04       		.byte	4
 1793 0288 2D       		.byte	45
 1794 0289 20       		.byte	32
 1795 028a 2E       		.byte	46
 1796 028b 41       		.byte	65
 1797 028c 2F       		.byte	47
 1798 028d 20       		.byte	32
 1799 028e 30       		.byte	48
 1800 028f 02       		.byte	2
 1801 0290 34       		.byte	52
 1802 0291 61       		.byte	97
 1803 0292 35       		.byte	53
 1804 0293 82       		.byte	-126
 1805 0294 36       		.byte	54
 1806 0295 40       		.byte	64
 1807 0296 37       		.byte	55
 1808 0297 24       		.byte	36
 1809 0298 39       		.byte	57
 1810 0299 24       		.byte	36
 1811 029a 3C       		.byte	60
 1812 029b A0       		.byte	-96
 1813 029c 3D       		.byte	61
 1814 029d 03       		.byte	3
 1815 029e 3E       		.byte	62
 1816 029f 04       		.byte	4
 1817 02a0 59       		.byte	89
 1818 02a1 01       		.byte	1
 1819 02a2 68       		.byte	104
 1820 02a3 02       		.byte	2
 1821 02a4 69       		.byte	105
 1822 02a5 24       		.byte	36
 1823 02a6 6E       		.byte	110
 1824 02a7 20       		.byte	32
 1825 02a8 6F       		.byte	111
 1826 02a9 02       		.byte	2
 1827 02aa 70       		.byte	112
 1828 02ab 88       		.byte	-120
 1829 02ac 72       		.byte	114
 1830 02ad 08       		.byte	8
 1831 02ae 80       		.byte	-128
 1832 02af 40       		.byte	64
ARM GAS  C:\Users\glenn\AppData\Local\Temp\cc8YMqik.s 			page 63


 1833 02b0 81       		.byte	-127
 1834 02b1 02       		.byte	2
 1835 02b2 83       		.byte	-125
 1836 02b3 10       		.byte	16
 1837 02b4 84       		.byte	-124
 1838 02b5 08       		.byte	8
 1839 02b6 87       		.byte	-121
 1840 02b7 21       		.byte	33
 1841 02b8 88       		.byte	-120
 1842 02b9 50       		.byte	80
 1843 02ba 8A       		.byte	-118
 1844 02bb 40       		.byte	64
 1845 02bc 8B       		.byte	-117
 1846 02bd 08       		.byte	8
 1847 02be 8E       		.byte	-114
 1848 02bf A0       		.byte	-96
 1849 02c0 8F       		.byte	-113
 1850 02c1 20       		.byte	32
 1851 02c2 92       		.byte	-110
 1852 02c3 45       		.byte	69
 1853 02c4 95       		.byte	-107
 1854 02c5 40       		.byte	64
 1855 02c6 97       		.byte	-105
 1856 02c7 08       		.byte	8
 1857 02c8 99       		.byte	-103
 1858 02c9 20       		.byte	32
 1859 02ca 9B       		.byte	-101
 1860 02cb 04       		.byte	4
 1861 02cc 9C       		.byte	-100
 1862 02cd 29       		.byte	41
 1863 02ce 9E       		.byte	-98
 1864 02cf 80       		.byte	-128
 1865 02d0 9F       		.byte	-97
 1866 02d1 10       		.byte	16
 1867 02d2 A0       		.byte	-96
 1868 02d3 50       		.byte	80
 1869 02d4 A1       		.byte	-95
 1870 02d5 01       		.byte	1
 1871 02d6 A2       		.byte	-94
 1872 02d7 40       		.byte	64
 1873 02d8 A6       		.byte	-90
 1874 02d9 10       		.byte	16
 1875 02da A7       		.byte	-89
 1876 02db 03       		.byte	3
 1877 02dc B4       		.byte	-76
 1878 02dd 10       		.byte	16
 1879 02de C0       		.byte	-64
 1880 02df B7       		.byte	-73
 1881 02e0 C2       		.byte	-62
 1882 02e1 8F       		.byte	-113
 1883 02e2 C4       		.byte	-60
 1884 02e3 BF       		.byte	-65
 1885 02e4 CA       		.byte	-54
 1886 02e5 F0       		.byte	-16
 1887 02e6 CC       		.byte	-52
 1888 02e7 F1       		.byte	-15
 1889 02e8 CE       		.byte	-50
ARM GAS  C:\Users\glenn\AppData\Local\Temp\cc8YMqik.s 			page 64


 1890 02e9 F6       		.byte	-10
 1891 02ea D6       		.byte	-42
 1892 02eb 01       		.byte	1
 1893 02ec E2       		.byte	-30
 1894 02ed 20       		.byte	32
 1895 02ee E4       		.byte	-28
 1896 02ef 10       		.byte	16
 1897 02f0 E6       		.byte	-26
 1898 02f1 A0       		.byte	-96
 1899 02f2 EC       		.byte	-20
 1900 02f3 10       		.byte	16
 1901 02f4 58       		.byte	88
 1902 02f5 04       		.byte	4
 1903 02f6 59       		.byte	89
 1904 02f7 04       		.byte	4
 1905 02f8 5C       		.byte	92
 1906 02f9 11       		.byte	17
 1907 02fa 5F       		.byte	95
 1908 02fb 01       		.byte	1
 1909 02fc 8F       		.byte	-113
 1910 02fd 02       		.byte	2
 1911 02fe A2       		.byte	-94
 1912 02ff 01       		.byte	1
 1913 0300 A5       		.byte	-91
 1914 0301 01       		.byte	1
 1915 0302 AB       		.byte	-85
 1916 0303 04       		.byte	4
 1917 0304 B1       		.byte	-79
 1918 0305 02       		.byte	2
 1919 0306 B2       		.byte	-78
 1920 0307 01       		.byte	1
 1921 0308 B3       		.byte	-77
 1922 0309 01       		.byte	1
 1923 030a B7       		.byte	-73
 1924 030b 04       		.byte	4
 1925 030c BF       		.byte	-65
 1926 030d 04       		.byte	4
 1927 030e D6       		.byte	-42
 1928 030f 02       		.byte	2
 1929 0310 D7       		.byte	-41
 1930 0311 35       		.byte	53
 1931 0312 D8       		.byte	-40
 1932 0313 04       		.byte	4
 1933 0314 D9       		.byte	-39
 1934 0315 04       		.byte	4
 1935 0316 DB       		.byte	-37
 1936 0317 0C       		.byte	12
 1937 0318 DC       		.byte	-36
 1938 0319 11       		.byte	17
 1939 031a DD       		.byte	-35
 1940 031b 10       		.byte	16
 1941 031c DF       		.byte	-33
 1942 031d 01       		.byte	1
 1943 031e 00       		.byte	0
 1944 031f 20       		.byte	32
 1945 0320 03       		.byte	3
 1946 0321 10       		.byte	16
ARM GAS  C:\Users\glenn\AppData\Local\Temp\cc8YMqik.s 			page 65


 1947 0322 04       		.byte	4
 1948 0323 82       		.byte	-126
 1949 0324 07       		.byte	7
 1950 0325 10       		.byte	16
 1951 0326 08       		.byte	8
 1952 0327 28       		.byte	40
 1953 0328 09       		.byte	9
 1954 0329 01       		.byte	1
 1955 032a 0C       		.byte	12
 1956 032b 01       		.byte	1
 1957 032c 0D       		.byte	13
 1958 032d 08       		.byte	8
 1959 032e 0F       		.byte	15
 1960 032f 02       		.byte	2
 1961 0330 10       		.byte	16
 1962 0331 41       		.byte	65
 1963 0332 14       		.byte	20
 1964 0333 20       		.byte	32
 1965 0334 15       		.byte	21
 1966 0335 01       		.byte	1
 1967 0336 1C       		.byte	28
 1968 0337 20       		.byte	32
 1969 0338 1D       		.byte	29
 1970 0339 08       		.byte	8
 1971 033a 24       		.byte	36
 1972 033b A2       		.byte	-94
 1973 033c 25       		.byte	37
 1974 033d 01       		.byte	1
 1975 033e 26       		.byte	38
 1976 033f 40       		.byte	64
 1977 0340 28       		.byte	40
 1978 0341 28       		.byte	40
 1979 0342 2D       		.byte	45
 1980 0343 10       		.byte	16
 1981 0344 2E       		.byte	46
 1982 0345 80       		.byte	-128
 1983 0346 2F       		.byte	47
 1984 0347 10       		.byte	16
 1985 0348 30       		.byte	48
 1986 0349 01       		.byte	1
 1987 034a 31       		.byte	49
 1988 034b 08       		.byte	8
 1989 034c 33       		.byte	51
 1990 034d 10       		.byte	16
 1991 034e 34       		.byte	52
 1992 034f 49       		.byte	73
 1993 0350 36       		.byte	54
 1994 0351 40       		.byte	64
 1995 0352 37       		.byte	55
 1996 0353 10       		.byte	16
 1997 0354 38       		.byte	56
 1998 0355 82       		.byte	-126
 1999 0356 3C       		.byte	60
 2000 0357 20       		.byte	32
 2001 0358 3D       		.byte	61
 2002 0359 02       		.byte	2
 2003 035a 3E       		.byte	62
ARM GAS  C:\Users\glenn\AppData\Local\Temp\cc8YMqik.s 			page 66


 2004 035b 40       		.byte	64
 2005 035c 5E       		.byte	94
 2006 035d 20       		.byte	32
 2007 035e 67       		.byte	103
 2008 035f 08       		.byte	8
 2009 0360 6D       		.byte	109
 2010 0361 11       		.byte	17
 2011 0362 6E       		.byte	110
 2012 0363 45       		.byte	69
 2013 0364 6F       		.byte	111
 2014 0365 04       		.byte	4
 2015 0366 74       		.byte	116
 2016 0367 40       		.byte	64
 2017 0368 75       		.byte	117
 2018 0369 20       		.byte	32
 2019 036a 7F       		.byte	127
 2020 036b 02       		.byte	2
 2021 036c 93       		.byte	-109
 2022 036d 20       		.byte	32
 2023 036e 94       		.byte	-108
 2024 036f 02       		.byte	2
 2025 0370 95       		.byte	-107
 2026 0371 40       		.byte	64
 2027 0372 9C       		.byte	-100
 2028 0373 21       		.byte	33
 2029 0374 9F       		.byte	-97
 2030 0375 10       		.byte	16
 2031 0376 A5       		.byte	-91
 2032 0377 09       		.byte	9
 2033 0378 A7       		.byte	-89
 2034 0379 03       		.byte	3
 2035 037a AC       		.byte	-84
 2036 037b 04       		.byte	4
 2037 037c AF       		.byte	-81
 2038 037d 0C       		.byte	12
 2039 037e B0       		.byte	-80
 2040 037f 04       		.byte	4
 2041 0380 C0       		.byte	-64
 2042 0381 B6       		.byte	-74
 2043 0382 C2       		.byte	-62
 2044 0383 BE       		.byte	-66
 2045 0384 C4       		.byte	-60
 2046 0385 39       		.byte	57
 2047 0386 CA       		.byte	-54
 2048 0387 76       		.byte	118
 2049 0388 CC       		.byte	-52
 2050 0389 F7       		.byte	-9
 2051 038a CE       		.byte	-50
 2052 038b B9       		.byte	-71
 2053 038c D6       		.byte	-42
 2054 038d 20       		.byte	32
 2055 038e D8       		.byte	-40
 2056 038f 20       		.byte	32
 2057 0390 DE       		.byte	-34
 2058 0391 10       		.byte	16
 2059 0392 E4       		.byte	-28
 2060 0393 10       		.byte	16
ARM GAS  C:\Users\glenn\AppData\Local\Temp\cc8YMqik.s 			page 67


 2061 0394 E8       		.byte	-24
 2062 0395 08       		.byte	8
 2063 0396 EE       		.byte	-18
 2064 0397 0A       		.byte	10
 2065 0398 05       		.byte	5
 2066 0399 51       		.byte	81
 2067 039a 06       		.byte	6
 2068 039b 03       		.byte	3
 2069 039c 07       		.byte	7
 2070 039d 06       		.byte	6
 2071 039e 0A       		.byte	10
 2072 039f 20       		.byte	32
 2073 03a0 0B       		.byte	11
 2074 03a1 08       		.byte	8
 2075 03a2 0C       		.byte	12
 2076 03a3 10       		.byte	16
 2077 03a4 0E       		.byte	14
 2078 03a5 AC       		.byte	-84
 2079 03a6 14       		.byte	20
 2080 03a7 09       		.byte	9
 2081 03a8 15       		.byte	21
 2082 03a9 4C       		.byte	76
 2083 03aa 16       		.byte	22
 2084 03ab D0       		.byte	-48
 2085 03ac 17       		.byte	23
 2086 03ad 13       		.byte	19
 2087 03ae 18       		.byte	24
 2088 03af DC       		.byte	-36
 2089 03b0 1A       		.byte	26
 2090 03b1 22       		.byte	34
 2091 03b2 1B       		.byte	27
 2092 03b3 0C       		.byte	12
 2093 03b4 1C       		.byte	28
 2094 03b5 0C       		.byte	12
 2095 03b6 1E       		.byte	30
 2096 03b7 71       		.byte	113
 2097 03b8 21       		.byte	33
 2098 03b9 51       		.byte	81
 2099 03ba 23       		.byte	35
 2100 03bb 0E       		.byte	14
 2101 03bc 24       		.byte	36
 2102 03bd 10       		.byte	16
 2103 03be 25       		.byte	37
 2104 03bf 20       		.byte	32
 2105 03c0 26       		.byte	38
 2106 03c1 40       		.byte	64
 2107 03c2 27       		.byte	39
 2108 03c3 03       		.byte	3
 2109 03c4 28       		.byte	40
 2110 03c5 14       		.byte	20
 2111 03c6 33       		.byte	51
 2112 03c7 0F       		.byte	15
 2113 03c8 34       		.byte	52
 2114 03c9 1F       		.byte	31
 2115 03ca 35       		.byte	53
 2116 03cb 30       		.byte	48
 2117 03cc 36       		.byte	54
ARM GAS  C:\Users\glenn\AppData\Local\Temp\cc8YMqik.s 			page 68


 2118 03cd E0       		.byte	-32
 2119 03ce 37       		.byte	55
 2120 03cf 40       		.byte	64
 2121 03d0 39       		.byte	57
 2122 03d1 A0       		.byte	-96
 2123 03d2 3A       		.byte	58
 2124 03d3 80       		.byte	-128
 2125 03d4 3B       		.byte	59
 2126 03d5 08       		.byte	8
 2127 03d6 40       		.byte	64
 2128 03d7 01       		.byte	1
 2129 03d8 46       		.byte	70
 2130 03d9 40       		.byte	64
 2131 03da 49       		.byte	73
 2132 03db FF       		.byte	-1
 2133 03dc 4A       		.byte	74
 2134 03dd 07       		.byte	7
 2135 03de 4B       		.byte	75
 2136 03df FF       		.byte	-1
 2137 03e0 4C       		.byte	76
 2138 03e1 40       		.byte	64
 2139 03e2 4D       		.byte	77
 2140 03e3 20       		.byte	32
 2141 03e4 4E       		.byte	78
 2142 03e5 F0       		.byte	-16
 2143 03e6 4F       		.byte	79
 2144 03e7 05       		.byte	5
 2145 03e8 50       		.byte	80
 2146 03e9 08       		.byte	8
 2147 03ea 54       		.byte	84
 2148 03eb 01       		.byte	1
 2149 03ec 58       		.byte	88
 2150 03ed 04       		.byte	4
 2151 03ee 59       		.byte	89
 2152 03ef 04       		.byte	4
 2153 03f0 5A       		.byte	90
 2154 03f1 04       		.byte	4
 2155 03f2 5B       		.byte	91
 2156 03f3 0C       		.byte	12
 2157 03f4 5C       		.byte	92
 2158 03f5 22       		.byte	34
 2159 03f6 5D       		.byte	93
 2160 03f7 12       		.byte	18
 2161 03f8 5F       		.byte	95
 2162 03f9 01       		.byte	1
 2163 03fa 60       		.byte	96
 2164 03fb 40       		.byte	64
 2165 03fc 61       		.byte	97
 2166 03fd A8       		.byte	-88
 2167 03fe 62       		.byte	98
 2168 03ff 40       		.byte	64
 2169 0400 63       		.byte	99
 2170 0401 20       		.byte	32
 2171 0402 81       		.byte	-127
 2172 0403 01       		.byte	1
 2173 0404 86       		.byte	-122
 2174 0405 04       		.byte	4
ARM GAS  C:\Users\glenn\AppData\Local\Temp\cc8YMqik.s 			page 69


 2175 0406 8A       		.byte	-118
 2176 0407 08       		.byte	8
 2177 0408 8D       		.byte	-115
 2178 0409 01       		.byte	1
 2179 040a 90       		.byte	-112
 2180 040b 18       		.byte	24
 2181 040c 91       		.byte	-111
 2182 040d 01       		.byte	1
 2183 040e 95       		.byte	-107
 2184 040f 01       		.byte	1
 2185 0410 96       		.byte	-106
 2186 0411 01       		.byte	1
 2187 0412 9A       		.byte	-102
 2188 0413 02       		.byte	2
 2189 0414 9B       		.byte	-101
 2190 0415 01       		.byte	1
 2191 0416 A4       		.byte	-92
 2192 0417 18       		.byte	24
 2193 0418 A5       		.byte	-91
 2194 0419 01       		.byte	1
 2195 041a A8       		.byte	-88
 2196 041b 10       		.byte	16
 2197 041c AD       		.byte	-83
 2198 041d 01       		.byte	1
 2199 041e B0       		.byte	-80
 2200 041f 18       		.byte	24
 2201 0420 B2       		.byte	-78
 2202 0421 04       		.byte	4
 2203 0422 B4       		.byte	-76
 2204 0423 02       		.byte	2
 2205 0424 B5       		.byte	-75
 2206 0425 01       		.byte	1
 2207 0426 B6       		.byte	-74
 2208 0427 01       		.byte	1
 2209 0428 B8       		.byte	-72
 2210 0429 02       		.byte	2
 2211 042a BE       		.byte	-66
 2212 042b 01       		.byte	1
 2213 042c D8       		.byte	-40
 2214 042d 04       		.byte	4
 2215 042e D9       		.byte	-39
 2216 042f 04       		.byte	4
 2217 0430 DB       		.byte	-37
 2218 0431 04       		.byte	4
 2219 0432 DC       		.byte	-36
 2220 0433 15       		.byte	21
 2221 0434 DF       		.byte	-33
 2222 0435 01       		.byte	1
 2223 0436 00       		.byte	0
 2224 0437 08       		.byte	8
 2225 0438 03       		.byte	3
 2226 0439 08       		.byte	8
 2227 043a 04       		.byte	4
 2228 043b 04       		.byte	4
 2229 043c 06       		.byte	6
 2230 043d 09       		.byte	9
 2231 043e 08       		.byte	8
ARM GAS  C:\Users\glenn\AppData\Local\Temp\cc8YMqik.s 			page 70


 2232 043f 04       		.byte	4
 2233 0440 09       		.byte	9
 2234 0441 02       		.byte	2
 2235 0442 0B       		.byte	11
 2236 0443 88       		.byte	-120
 2237 0444 0E       		.byte	14
 2238 0445 29       		.byte	41
 2239 0446 11       		.byte	17
 2240 0447 08       		.byte	8
 2241 0448 12       		.byte	18
 2242 0449 08       		.byte	8
 2243 044a 16       		.byte	22
 2244 044b 24       		.byte	36
 2245 044c 19       		.byte	25
 2246 044d A6       		.byte	-90
 2247 044e 1C       		.byte	28
 2248 044f 04       		.byte	4
 2249 0450 1E       		.byte	30
 2250 0451 01       		.byte	1
 2251 0452 1F       		.byte	31
 2252 0453 50       		.byte	80
 2253 0454 23       		.byte	35
 2254 0455 08       		.byte	8
 2255 0456 24       		.byte	36
 2256 0457 10       		.byte	16
 2257 0458 25       		.byte	37
 2258 0459 40       		.byte	64
 2259 045a 26       		.byte	38
 2260 045b 1C       		.byte	28
 2261 045c 28       		.byte	40
 2262 045d 20       		.byte	32
 2263 045e 29       		.byte	41
 2264 045f 02       		.byte	2
 2265 0460 2A       		.byte	42
 2266 0461 02       		.byte	2
 2267 0462 2B       		.byte	43
 2268 0463 01       		.byte	1
 2269 0464 2E       		.byte	46
 2270 0465 08       		.byte	8
 2271 0466 2F       		.byte	47
 2272 0467 40       		.byte	64
 2273 0468 30       		.byte	48
 2274 0469 01       		.byte	1
 2275 046a 31       		.byte	49
 2276 046b 08       		.byte	8
 2277 046c 33       		.byte	51
 2278 046d 10       		.byte	16
 2279 046e 36       		.byte	54
 2280 046f 18       		.byte	24
 2281 0470 38       		.byte	56
 2282 0471 82       		.byte	-126
 2283 0472 3D       		.byte	61
 2284 0473 08       		.byte	8
 2285 0474 3E       		.byte	62
 2286 0475 20       		.byte	32
 2287 0476 46       		.byte	70
 2288 0477 02       		.byte	2
ARM GAS  C:\Users\glenn\AppData\Local\Temp\cc8YMqik.s 			page 71


 2289 0478 56       		.byte	86
 2290 0479 28       		.byte	40
 2291 047a 57       		.byte	87
 2292 047b 08       		.byte	8
 2293 047c 59       		.byte	89
 2294 047d A4       		.byte	-92
 2295 047e 5D       		.byte	93
 2296 047f 40       		.byte	64
 2297 0480 5E       		.byte	94
 2298 0481 40       		.byte	64
 2299 0482 7F       		.byte	127
 2300 0483 02       		.byte	2
 2301 0484 85       		.byte	-123
 2302 0485 40       		.byte	64
 2303 0486 90       		.byte	-112
 2304 0487 80       		.byte	-128
 2305 0488 94       		.byte	-108
 2306 0489 12       		.byte	18
 2307 048a 96       		.byte	-106
 2308 048b 40       		.byte	64
 2309 048c 9A       		.byte	-102
 2310 048d 05       		.byte	5
 2311 048e 9C       		.byte	-100
 2312 048f 21       		.byte	33
 2313 0490 9E       		.byte	-98
 2314 0491 08       		.byte	8
 2315 0492 9F       		.byte	-97
 2316 0493 10       		.byte	16
 2317 0494 A1       		.byte	-95
 2318 0495 04       		.byte	4
 2319 0496 A5       		.byte	-91
 2320 0497 0B       		.byte	11
 2321 0498 A6       		.byte	-90
 2322 0499 10       		.byte	16
 2323 049a A7       		.byte	-89
 2324 049b 09       		.byte	9
 2325 049c A8       		.byte	-88
 2326 049d 20       		.byte	32
 2327 049e AA       		.byte	-86
 2328 049f 50       		.byte	80
 2329 04a0 B5       		.byte	-75
 2330 04a1 04       		.byte	4
 2331 04a2 B6       		.byte	-74
 2332 04a3 01       		.byte	1
 2333 04a4 C0       		.byte	-64
 2334 04a5 E6       		.byte	-26
 2335 04a6 C2       		.byte	-62
 2336 04a7 EE       		.byte	-18
 2337 04a8 C4       		.byte	-60
 2338 04a9 66       		.byte	102
 2339 04aa CA       		.byte	-54
 2340 04ab CA       		.byte	-54
 2341 04ac CC       		.byte	-52
 2342 04ad 67       		.byte	103
 2343 04ae CE       		.byte	-50
 2344 04af 69       		.byte	105
 2345 04b0 D0       		.byte	-48
ARM GAS  C:\Users\glenn\AppData\Local\Temp\cc8YMqik.s 			page 72


 2346 04b1 10       		.byte	16
 2347 04b2 D6       		.byte	-42
 2348 04b3 1E       		.byte	30
 2349 04b4 DE       		.byte	-34
 2350 04b5 10       		.byte	16
 2351 04b6 E0       		.byte	-32
 2352 04b7 02       		.byte	2
 2353 04b8 EE       		.byte	-18
 2354 04b9 04       		.byte	4
 2355 04ba 58       		.byte	88
 2356 04bb 04       		.byte	4
 2357 04bc 59       		.byte	89
 2358 04bd 04       		.byte	4
 2359 04be 5C       		.byte	92
 2360 04bf 11       		.byte	17
 2361 04c0 5F       		.byte	95
 2362 04c1 01       		.byte	1
 2363 04c2 85       		.byte	-123
 2364 04c3 03       		.byte	3
 2365 04c4 87       		.byte	-121
 2366 04c5 0C       		.byte	12
 2367 04c6 89       		.byte	-119
 2368 04c7 0A       		.byte	10
 2369 04c8 8A       		.byte	-118
 2370 04c9 01       		.byte	1
 2371 04ca 8B       		.byte	-117
 2372 04cb 04       		.byte	4
 2373 04cc 90       		.byte	-112
 2374 04cd 01       		.byte	1
 2375 04ce 91       		.byte	-111
 2376 04cf 10       		.byte	16
 2377 04d0 9A       		.byte	-102
 2378 04d1 01       		.byte	1
 2379 04d2 9B       		.byte	-101
 2380 04d3 08       		.byte	8
 2381 04d4 A5       		.byte	-91
 2382 04d5 03       		.byte	3
 2383 04d6 A7       		.byte	-89
 2384 04d7 04       		.byte	4
 2385 04d8 AA       		.byte	-86
 2386 04d9 01       		.byte	1
 2387 04da AB       		.byte	-85
 2388 04db 05       		.byte	5
 2389 04dc AC       		.byte	-84
 2390 04dd 01       		.byte	1
 2391 04de AD       		.byte	-83
 2392 04df 03       		.byte	3
 2393 04e0 AF       		.byte	-81
 2394 04e1 04       		.byte	4
 2395 04e2 B0       		.byte	-80
 2396 04e3 01       		.byte	1
 2397 04e4 B3       		.byte	-77
 2398 04e5 0F       		.byte	15
 2399 04e6 B5       		.byte	-75
 2400 04e7 10       		.byte	16
 2401 04e8 BB       		.byte	-69
 2402 04e9 08       		.byte	8
ARM GAS  C:\Users\glenn\AppData\Local\Temp\cc8YMqik.s 			page 73


 2403 04ea BE       		.byte	-66
 2404 04eb 01       		.byte	1
 2405 04ec BF       		.byte	-65
 2406 04ed 10       		.byte	16
 2407 04ee C0       		.byte	-64
 2408 04ef 12       		.byte	18
 2409 04f0 C1       		.byte	-63
 2410 04f1 04       		.byte	4
 2411 04f2 C5       		.byte	-59
 2412 04f3 E0       		.byte	-32
 2413 04f4 C6       		.byte	-58
 2414 04f5 C0       		.byte	-64
 2415 04f6 C7       		.byte	-57
 2416 04f7 0B       		.byte	11
 2417 04f8 C8       		.byte	-56
 2418 04f9 1A       		.byte	26
 2419 04fa C9       		.byte	-55
 2420 04fb FF       		.byte	-1
 2421 04fc CA       		.byte	-54
 2422 04fd FF       		.byte	-1
 2423 04fe CB       		.byte	-53
 2424 04ff FF       		.byte	-1
 2425 0500 CE       		.byte	-50
 2426 0501 F0       		.byte	-16
 2427 0502 CF       		.byte	-49
 2428 0503 44       		.byte	68
 2429 0504 D0       		.byte	-48
 2430 0505 0C       		.byte	12
 2431 0506 D4       		.byte	-44
 2432 0507 01       		.byte	1
 2433 0508 D6       		.byte	-42
 2434 0509 04       		.byte	4
 2435 050a D8       		.byte	-40
 2436 050b 04       		.byte	4
 2437 050c D9       		.byte	-39
 2438 050d 04       		.byte	4
 2439 050e DA       		.byte	-38
 2440 050f 04       		.byte	4
 2441 0510 DB       		.byte	-37
 2442 0511 04       		.byte	4
 2443 0512 DC       		.byte	-36
 2444 0513 21       		.byte	33
 2445 0514 DD       		.byte	-35
 2446 0515 22       		.byte	34
 2447 0516 DF       		.byte	-33
 2448 0517 01       		.byte	1
 2449 0518 E6       		.byte	-26
 2450 0519 C0       		.byte	-64
 2451 051a EA       		.byte	-22
 2452 051b 40       		.byte	64
 2453 051c EB       		.byte	-21
 2454 051d 02       		.byte	2
 2455 051e 03       		.byte	3
 2456 051f 10       		.byte	16
 2457 0520 04       		.byte	4
 2458 0521 92       		.byte	-110
 2459 0522 06       		.byte	6
ARM GAS  C:\Users\glenn\AppData\Local\Temp\cc8YMqik.s 			page 74


 2460 0523 40       		.byte	64
 2461 0524 07       		.byte	7
 2462 0525 10       		.byte	16
 2463 0526 08       		.byte	8
 2464 0527 60       		.byte	96
 2465 0528 09       		.byte	9
 2466 0529 01       		.byte	1
 2467 052a 0B       		.byte	11
 2468 052b 40       		.byte	64
 2469 052c 0C       		.byte	12
 2470 052d 64       		.byte	100
 2471 052e 0D       		.byte	13
 2472 052f 0A       		.byte	10
 2473 0530 0F       		.byte	15
 2474 0531 02       		.byte	2
 2475 0532 10       		.byte	16
 2476 0533 05       		.byte	5
 2477 0534 12       		.byte	18
 2478 0535 40       		.byte	64
 2479 0536 14       		.byte	20
 2480 0537 20       		.byte	32
 2481 0538 16       		.byte	22
 2482 0539 09       		.byte	9
 2483 053a 17       		.byte	23
 2484 053b 01       		.byte	1
 2485 053c 1E       		.byte	30
 2486 053d 80       		.byte	-128
 2487 053e 25       		.byte	37
 2488 053f 04       		.byte	4
 2489 0540 27       		.byte	39
 2490 0541 08       		.byte	8
 2491 0542 28       		.byte	40
 2492 0543 20       		.byte	32
 2493 0544 2B       		.byte	43
 2494 0545 01       		.byte	1
 2495 0546 2C       		.byte	44
 2496 0547 20       		.byte	32
 2497 0548 2E       		.byte	46
 2498 0549 80       		.byte	-128
 2499 054a 2F       		.byte	47
 2500 054b 08       		.byte	8
 2501 054c 30       		.byte	48
 2502 054d 01       		.byte	1
 2503 054e 31       		.byte	49
 2504 054f 08       		.byte	8
 2505 0550 33       		.byte	51
 2506 0551 11       		.byte	17
 2507 0552 35       		.byte	53
 2508 0553 02       		.byte	2
 2509 0554 36       		.byte	54
 2510 0555 10       		.byte	16
 2511 0556 38       		.byte	56
 2512 0557 82       		.byte	-126
 2513 0558 3B       		.byte	59
 2514 0559 40       		.byte	64
 2515 055a 3C       		.byte	60
 2516 055b 10       		.byte	16
ARM GAS  C:\Users\glenn\AppData\Local\Temp\cc8YMqik.s 			page 75


 2517 055c 3D       		.byte	61
 2518 055d 08       		.byte	8
 2519 055e 45       		.byte	69
 2520 055f 02       		.byte	2
 2521 0560 46       		.byte	70
 2522 0561 89       		.byte	-119
 2523 0562 4D       		.byte	77
 2524 0563 02       		.byte	2
 2525 0564 54       		.byte	84
 2526 0565 20       		.byte	32
 2527 0566 56       		.byte	86
 2528 0567 04       		.byte	4
 2529 0568 5D       		.byte	93
 2530 0569 02       		.byte	2
 2531 056a 5E       		.byte	94
 2532 056b 90       		.byte	-112
 2533 056c 5F       		.byte	95
 2534 056d 08       		.byte	8
 2535 056e 66       		.byte	102
 2536 056f 02       		.byte	2
 2537 0570 67       		.byte	103
 2538 0571 80       		.byte	-128
 2539 0572 82       		.byte	-126
 2540 0573 02       		.byte	2
 2541 0574 87       		.byte	-121
 2542 0575 40       		.byte	64
 2543 0576 C0       		.byte	-64
 2544 0577 F4       		.byte	-12
 2545 0578 C2       		.byte	-62
 2546 0579 FB       		.byte	-5
 2547 057a C4       		.byte	-60
 2548 057b FB       		.byte	-5
 2549 057c CA       		.byte	-54
 2550 057d 7A       		.byte	122
 2551 057e CC       		.byte	-52
 2552 057f A7       		.byte	-89
 2553 0580 CE       		.byte	-50
 2554 0581 69       		.byte	105
 2555 0582 D0       		.byte	-48
 2556 0583 B0       		.byte	-80
 2557 0584 D6       		.byte	-42
 2558 0585 F0       		.byte	-16
 2559 0586 D8       		.byte	-40
 2560 0587 80       		.byte	-128
 2561 0588 E6       		.byte	-26
 2562 0589 02       		.byte	2
 2563 058a EC       		.byte	-20
 2564 058b 22       		.byte	34
 2565 058c 58       		.byte	88
 2566 058d 04       		.byte	4
 2567 058e 59       		.byte	89
 2568 058f 04       		.byte	4
 2569 0590 5C       		.byte	92
 2570 0591 11       		.byte	17
 2571 0592 5F       		.byte	95
 2572 0593 01       		.byte	1
 2573 0594 8E       		.byte	-114
ARM GAS  C:\Users\glenn\AppData\Local\Temp\cc8YMqik.s 			page 76


 2574 0595 01       		.byte	1
 2575 0596 B2       		.byte	-78
 2576 0597 01       		.byte	1
 2577 0598 D8       		.byte	-40
 2578 0599 04       		.byte	4
 2579 059a D9       		.byte	-39
 2580 059b 04       		.byte	4
 2581 059c DC       		.byte	-36
 2582 059d 11       		.byte	17
 2583 059e DF       		.byte	-33
 2584 059f 01       		.byte	1
 2585 05a0 01       		.byte	1
 2586 05a1 01       		.byte	1
 2587 05a2 02       		.byte	2
 2588 05a3 26       		.byte	38
 2589 05a4 03       		.byte	3
 2590 05a5 18       		.byte	24
 2591 05a6 05       		.byte	5
 2592 05a7 40       		.byte	64
 2593 05a8 06       		.byte	6
 2594 05a9 04       		.byte	4
 2595 05aa 07       		.byte	7
 2596 05ab 10       		.byte	16
 2597 05ac 0A       		.byte	10
 2598 05ad 10       		.byte	16
 2599 05ae 0B       		.byte	11
 2600 05af 08       		.byte	8
 2601 05b0 0E       		.byte	14
 2602 05b1 10       		.byte	16
 2603 05b2 0F       		.byte	15
 2604 05b3 40       		.byte	64
 2605 05b4 13       		.byte	19
 2606 05b5 48       		.byte	72
 2607 05b6 15       		.byte	21
 2608 05b7 01       		.byte	1
 2609 05b8 17       		.byte	23
 2610 05b9 08       		.byte	8
 2611 05ba 1A       		.byte	26
 2612 05bb 10       		.byte	16
 2613 05bc 1B       		.byte	27
 2614 05bd 04       		.byte	4
 2615 05be 28       		.byte	40
 2616 05bf 40       		.byte	64
 2617 05c0 29       		.byte	41
 2618 05c1 40       		.byte	64
 2619 05c2 2B       		.byte	43
 2620 05c3 04       		.byte	4
 2621 05c4 2C       		.byte	44
 2622 05c5 40       		.byte	64
 2623 05c6 2D       		.byte	45
 2624 05c7 01       		.byte	1
 2625 05c8 2E       		.byte	46
 2626 05c9 80       		.byte	-128
 2627 05ca 2F       		.byte	47
 2628 05cb 08       		.byte	8
 2629 05cc 30       		.byte	48
 2630 05cd 04       		.byte	4
ARM GAS  C:\Users\glenn\AppData\Local\Temp\cc8YMqik.s 			page 77


 2631 05ce 32       		.byte	50
 2632 05cf 20       		.byte	32
 2633 05d0 34       		.byte	52
 2634 05d1 04       		.byte	4
 2635 05d2 35       		.byte	53
 2636 05d3 40       		.byte	64
 2637 05d4 36       		.byte	54
 2638 05d5 20       		.byte	32
 2639 05d6 37       		.byte	55
 2640 05d7 08       		.byte	8
 2641 05d8 3A       		.byte	58
 2642 05d9 04       		.byte	4
 2643 05da 3B       		.byte	59
 2644 05db 40       		.byte	64
 2645 05dc 3E       		.byte	62
 2646 05dd 10       		.byte	16
 2647 05de 91       		.byte	-111
 2648 05df 01       		.byte	1
 2649 05e0 93       		.byte	-109
 2650 05e1 48       		.byte	72
 2651 05e2 96       		.byte	-106
 2652 05e3 10       		.byte	16
 2653 05e4 99       		.byte	-103
 2654 05e5 40       		.byte	64
 2655 05e6 9A       		.byte	-102
 2656 05e7 80       		.byte	-128
 2657 05e8 9B       		.byte	-101
 2658 05e9 08       		.byte	8
 2659 05ea A2       		.byte	-94
 2660 05eb 22       		.byte	34
 2661 05ec A3       		.byte	-93
 2662 05ed 08       		.byte	8
 2663 05ee A7       		.byte	-89
 2664 05ef 04       		.byte	4
 2665 05f0 A8       		.byte	-88
 2666 05f1 10       		.byte	16
 2667 05f2 A9       		.byte	-87
 2668 05f3 01       		.byte	1
 2669 05f4 AA       		.byte	-86
 2670 05f5 20       		.byte	32
 2671 05f6 AC       		.byte	-84
 2672 05f7 02       		.byte	2
 2673 05f8 AD       		.byte	-83
 2674 05f9 80       		.byte	-128
 2675 05fa AE       		.byte	-82
 2676 05fb 50       		.byte	80
 2677 05fc C0       		.byte	-64
 2678 05fd EF       		.byte	-17
 2679 05fe C2       		.byte	-62
 2680 05ff 36       		.byte	54
 2681 0600 C4       		.byte	-60
 2682 0601 35       		.byte	53
 2683 0602 CA       		.byte	-54
 2684 0603 BD       		.byte	-67
 2685 0604 CC       		.byte	-52
 2686 0605 76       		.byte	118
 2687 0606 CE       		.byte	-50
ARM GAS  C:\Users\glenn\AppData\Local\Temp\cc8YMqik.s 			page 78


 2688 0607 2A       		.byte	42
 2689 0608 EA       		.byte	-22
 2690 0609 0E       		.byte	14
 2691 060a EE       		.byte	-18
 2692 060b 03       		.byte	3
 2693 060c 56       		.byte	86
 2694 060d 08       		.byte	8
 2695 060e 58       		.byte	88
 2696 060f 04       		.byte	4
 2697 0610 59       		.byte	89
 2698 0611 04       		.byte	4
 2699 0612 5B       		.byte	91
 2700 0613 04       		.byte	4
 2701 0614 5C       		.byte	92
 2702 0615 11       		.byte	17
 2703 0616 5D       		.byte	93
 2704 0617 90       		.byte	-112
 2705 0618 5F       		.byte	95
 2706 0619 01       		.byte	1
 2707 061a 83       		.byte	-125
 2708 061b 04       		.byte	4
 2709 061c 85       		.byte	-123
 2710 061d 3B       		.byte	59
 2711 061e 89       		.byte	-119
 2712 061f 3B       		.byte	59
 2713 0620 8A       		.byte	-118
 2714 0621 02       		.byte	2
 2715 0622 8D       		.byte	-115
 2716 0623 08       		.byte	8
 2717 0624 8E       		.byte	-114
 2718 0625 01       		.byte	1
 2719 0626 8F       		.byte	-113
 2720 0627 30       		.byte	48
 2721 0628 93       		.byte	-109
 2722 0629 40       		.byte	64
 2723 062a 95       		.byte	-107
 2724 062b 11       		.byte	17
 2725 062c 97       		.byte	-105
 2726 062d 0A       		.byte	10
 2727 062e 99       		.byte	-103
 2728 062f 40       		.byte	64
 2729 0630 9A       		.byte	-102
 2730 0631 02       		.byte	2
 2731 0632 9F       		.byte	-97
 2732 0633 04       		.byte	4
 2733 0634 A1       		.byte	-95
 2734 0635 40       		.byte	64
 2735 0636 A7       		.byte	-89
 2736 0637 40       		.byte	64
 2737 0638 A9       		.byte	-87
 2738 0639 22       		.byte	34
 2739 063a AB       		.byte	-85
 2740 063b 09       		.byte	9
 2741 063c B1       		.byte	-79
 2742 063d 38       		.byte	56
 2743 063e B3       		.byte	-77
 2744 063f 03       		.byte	3
ARM GAS  C:\Users\glenn\AppData\Local\Temp\cc8YMqik.s 			page 79


 2745 0640 B4       		.byte	-76
 2746 0641 03       		.byte	3
 2747 0642 B5       		.byte	-75
 2748 0643 04       		.byte	4
 2749 0644 B7       		.byte	-73
 2750 0645 40       		.byte	64
 2751 0646 B9       		.byte	-71
 2752 0647 80       		.byte	-128
 2753 0648 BE       		.byte	-66
 2754 0649 10       		.byte	16
 2755 064a BF       		.byte	-65
 2756 064b 10       		.byte	16
 2757 064c C0       		.byte	-64
 2758 064d 63       		.byte	99
 2759 064e C1       		.byte	-63
 2760 064f 04       		.byte	4
 2761 0650 C2       		.byte	-62
 2762 0651 05       		.byte	5
 2763 0652 C4       		.byte	-60
 2764 0653 02       		.byte	2
 2765 0654 C7       		.byte	-57
 2766 0655 CE       		.byte	-50
 2767 0656 C8       		.byte	-56
 2768 0657 30       		.byte	48
 2769 0658 C9       		.byte	-55
 2770 0659 FF       		.byte	-1
 2771 065a CA       		.byte	-54
 2772 065b FF       		.byte	-1
 2773 065c CB       		.byte	-53
 2774 065d FF       		.byte	-1
 2775 065e CC       		.byte	-52
 2776 065f 62       		.byte	98
 2777 0660 CD       		.byte	-51
 2778 0661 A0       		.byte	-96
 2779 0662 CE       		.byte	-50
 2780 0663 F0       		.byte	-16
 2781 0664 CF       		.byte	-49
 2782 0665 41       		.byte	65
 2783 0666 D0       		.byte	-48
 2784 0667 0C       		.byte	12
 2785 0668 D8       		.byte	-40
 2786 0669 04       		.byte	4
 2787 066a D9       		.byte	-39
 2788 066b 04       		.byte	4
 2789 066c DA       		.byte	-38
 2790 066d 04       		.byte	4
 2791 066e DC       		.byte	-36
 2792 066f 21       		.byte	33
 2793 0670 DD       		.byte	-35
 2794 0671 02       		.byte	2
 2795 0672 DF       		.byte	-33
 2796 0673 01       		.byte	1
 2797 0674 E6       		.byte	-26
 2798 0675 40       		.byte	64
 2799 0676 E7       		.byte	-25
 2800 0677 02       		.byte	2
 2801 0678 E9       		.byte	-23
ARM GAS  C:\Users\glenn\AppData\Local\Temp\cc8YMqik.s 			page 80


 2802 0679 10       		.byte	16
 2803 067a EA       		.byte	-22
 2804 067b 30       		.byte	48
 2805 067c EB       		.byte	-21
 2806 067d 10       		.byte	16
 2807 067e ED       		.byte	-19
 2808 067f 10       		.byte	16
 2809 0680 EE       		.byte	-18
 2810 0681 10       		.byte	16
 2811 0682 EF       		.byte	-17
 2812 0683 12       		.byte	18
 2813 0684 01       		.byte	1
 2814 0685 02       		.byte	2
 2815 0686 02       		.byte	2
 2816 0687 02       		.byte	2
 2817 0688 03       		.byte	3
 2818 0689 14       		.byte	20
 2819 068a 05       		.byte	5
 2820 068b 02       		.byte	2
 2821 068c 07       		.byte	7
 2822 068d 10       		.byte	16
 2823 068e 08       		.byte	8
 2824 068f 08       		.byte	8
 2825 0690 09       		.byte	9
 2826 0691 01       		.byte	1
 2827 0692 0A       		.byte	10
 2828 0693 48       		.byte	72
 2829 0694 0C       		.byte	12
 2830 0695 40       		.byte	64
 2831 0696 0E       		.byte	14
 2832 0697 40       		.byte	64
 2833 0698 10       		.byte	16
 2834 0699 42       		.byte	66
 2835 069a 13       		.byte	19
 2836 069b 08       		.byte	8
 2837 069c 14       		.byte	20
 2838 069d 08       		.byte	8
 2839 069e 16       		.byte	22
 2840 069f 80       		.byte	-128
 2841 06a0 17       		.byte	23
 2842 06a1 08       		.byte	8
 2843 06a2 18       		.byte	24
 2844 06a3 04       		.byte	4
 2845 06a4 20       		.byte	32
 2846 06a5 40       		.byte	64
 2847 06a6 22       		.byte	34
 2848 06a7 26       		.byte	38
 2849 06a8 23       		.byte	35
 2850 06a9 02       		.byte	2
 2851 06aa 28       		.byte	40
 2852 06ab 80       		.byte	-128
 2853 06ac 29       		.byte	41
 2854 06ad 28       		.byte	40
 2855 06ae 2C       		.byte	44
 2856 06af 42       		.byte	66
 2857 06b0 2E       		.byte	46
 2858 06b1 80       		.byte	-128
ARM GAS  C:\Users\glenn\AppData\Local\Temp\cc8YMqik.s 			page 81


 2859 06b2 2F       		.byte	47
 2860 06b3 20       		.byte	32
 2861 06b4 31       		.byte	49
 2862 06b5 50       		.byte	80
 2863 06b6 32       		.byte	50
 2864 06b7 01       		.byte	1
 2865 06b8 33       		.byte	51
 2866 06b9 04       		.byte	4
 2867 06ba 35       		.byte	53
 2868 06bb 02       		.byte	2
 2869 06bc 37       		.byte	55
 2870 06bd 18       		.byte	24
 2871 06be 38       		.byte	56
 2872 06bf 40       		.byte	64
 2873 06c0 39       		.byte	57
 2874 06c1 24       		.byte	36
 2875 06c2 3A       		.byte	58
 2876 06c3 01       		.byte	1
 2877 06c4 3D       		.byte	61
 2878 06c5 02       		.byte	2
 2879 06c6 40       		.byte	64
 2880 06c7 94       		.byte	-108
 2881 06c8 41       		.byte	65
 2882 06c9 01       		.byte	1
 2883 06ca 49       		.byte	73
 2884 06cb 50       		.byte	80
 2885 06cc 4B       		.byte	75
 2886 06cd 10       		.byte	16
 2887 06ce 4D       		.byte	77
 2888 06cf 20       		.byte	32
 2889 06d0 4E       		.byte	78
 2890 06d1 04       		.byte	4
 2891 06d2 52       		.byte	82
 2892 06d3 05       		.byte	5
 2893 06d4 5F       		.byte	95
 2894 06d5 40       		.byte	64
 2895 06d6 67       		.byte	103
 2896 06d7 01       		.byte	1
 2897 06d8 88       		.byte	-120
 2898 06d9 02       		.byte	2
 2899 06da 8A       		.byte	-118
 2900 06db 20       		.byte	32
 2901 06dc 90       		.byte	-112
 2902 06dd 10       		.byte	16
 2903 06de 91       		.byte	-111
 2904 06df 26       		.byte	38
 2905 06e0 95       		.byte	-107
 2906 06e1 40       		.byte	64
 2907 06e2 96       		.byte	-106
 2908 06e3 02       		.byte	2
 2909 06e4 97       		.byte	-105
 2910 06e5 18       		.byte	24
 2911 06e6 98       		.byte	-104
 2912 06e7 4C       		.byte	76
 2913 06e8 99       		.byte	-103
 2914 06e9 02       		.byte	2
 2915 06ea 9A       		.byte	-102
ARM GAS  C:\Users\glenn\AppData\Local\Temp\cc8YMqik.s 			page 82


 2916 06eb A8       		.byte	-88
 2917 06ec 9B       		.byte	-101
 2918 06ed 18       		.byte	24
 2919 06ee 9D       		.byte	-99
 2920 06ef 08       		.byte	8
 2921 06f0 A0       		.byte	-96
 2922 06f1 80       		.byte	-128
 2923 06f2 A1       		.byte	-95
 2924 06f3 01       		.byte	1
 2925 06f4 A2       		.byte	-94
 2926 06f5 10       		.byte	16
 2927 06f6 A3       		.byte	-93
 2928 06f7 22       		.byte	34
 2929 06f8 A9       		.byte	-87
 2930 06f9 05       		.byte	5
 2931 06fa AD       		.byte	-83
 2932 06fb 20       		.byte	32
 2933 06fc AE       		.byte	-82
 2934 06fd 05       		.byte	5
 2935 06fe C0       		.byte	-64
 2936 06ff 3F       		.byte	63
 2937 0700 C2       		.byte	-62
 2938 0701 9E       		.byte	-98
 2939 0702 C4       		.byte	-60
 2940 0703 7D       		.byte	125
 2941 0704 CA       		.byte	-54
 2942 0705 D7       		.byte	-41
 2943 0706 CC       		.byte	-52
 2944 0707 EF       		.byte	-17
 2945 0708 CE       		.byte	-50
 2946 0709 8F       		.byte	-113
 2947 070a D0       		.byte	-48
 2948 070b 07       		.byte	7
 2949 070c D2       		.byte	-46
 2950 070d 0C       		.byte	12
 2951 070e D6       		.byte	-42
 2952 070f 10       		.byte	16
 2953 0710 D8       		.byte	-40
 2954 0711 10       		.byte	16
 2955 0712 00       		.byte	0
 2956 0713 3F       		.byte	63
 2957 0714 01       		.byte	1
 2958 0715 67       		.byte	103
 2959 0716 03       		.byte	3
 2960 0717 18       		.byte	24
 2961 0718 04       		.byte	4
 2962 0719 06       		.byte	6
 2963 071a 05       		.byte	5
 2964 071b 08       		.byte	8
 2965 071c 06       		.byte	6
 2966 071d 39       		.byte	57
 2967 071e 0A       		.byte	10
 2968 071f 39       		.byte	57
 2969 0720 0B       		.byte	11
 2970 0721 63       		.byte	99
 2971 0722 0C       		.byte	12
 2972 0723 30       		.byte	48
ARM GAS  C:\Users\glenn\AppData\Local\Temp\cc8YMqik.s 			page 83


 2973 0724 0D       		.byte	13
 2974 0725 24       		.byte	36
 2975 0726 0F       		.byte	15
 2976 0727 80       		.byte	-128
 2977 0728 10       		.byte	16
 2978 0729 10       		.byte	16
 2979 072a 11       		.byte	17
 2980 072b 1C       		.byte	28
 2981 072c 13       		.byte	19
 2982 072d 62       		.byte	98
 2983 072e 14       		.byte	20
 2984 072f 39       		.byte	57
 2985 0730 15       		.byte	21
 2986 0731 40       		.byte	64
 2987 0732 16       		.byte	22
 2988 0733 06       		.byte	6
 2989 0734 18       		.byte	24
 2990 0735 20       		.byte	32
 2991 0736 1B       		.byte	27
 2992 0737 04       		.byte	4
 2993 0738 1C       		.byte	28
 2994 0739 07       		.byte	7
 2995 073a 1D       		.byte	29
 2996 073b 10       		.byte	16
 2997 073c 1E       		.byte	30
 2998 073d 38       		.byte	56
 2999 073e 20       		.byte	32
 3000 073f 04       		.byte	4
 3001 0740 21       		.byte	33
 3002 0741 7F       		.byte	127
 3003 0742 24       		.byte	36
 3004 0743 02       		.byte	2
 3005 0744 25       		.byte	37
 3006 0745 7C       		.byte	124
 3007 0746 27       		.byte	39
 3008 0747 01       		.byte	1
 3009 0748 28       		.byte	40
 3010 0749 06       		.byte	6
 3011 074a 29       		.byte	41
 3012 074b 18       		.byte	24
 3013 074c 2D       		.byte	45
 3014 074d 60       		.byte	96
 3015 074e 30       		.byte	48
 3016 074f 30       		.byte	48
 3017 0750 31       		.byte	49
 3018 0751 1F       		.byte	31
 3019 0752 32       		.byte	50
 3020 0753 0E       		.byte	14
 3021 0754 33       		.byte	51
 3022 0755 78       		.byte	120
 3023 0756 35       		.byte	53
 3024 0757 80       		.byte	-128
 3025 0758 36       		.byte	54
 3026 0759 07       		.byte	7
 3027 075a 3A       		.byte	58
 3028 075b 08       		.byte	8
 3029 075c 3B       		.byte	59
ARM GAS  C:\Users\glenn\AppData\Local\Temp\cc8YMqik.s 			page 84


 3030 075d 0A       		.byte	10
 3031 075e 54       		.byte	84
 3032 075f 18       		.byte	24
 3033 0760 56       		.byte	86
 3034 0761 04       		.byte	4
 3035 0762 58       		.byte	88
 3036 0763 04       		.byte	4
 3037 0764 59       		.byte	89
 3038 0765 04       		.byte	4
 3039 0766 5B       		.byte	91
 3040 0767 04       		.byte	4
 3041 0768 5C       		.byte	92
 3042 0769 22       		.byte	34
 3043 076a 5D       		.byte	93
 3044 076b 20       		.byte	32
 3045 076c 5F       		.byte	95
 3046 076d 01       		.byte	1
 3047 076e 84       		.byte	-124
 3048 076f 04       		.byte	4
 3049 0770 8A       		.byte	-118
 3050 0771 08       		.byte	8
 3051 0772 8E       		.byte	-114
 3052 0773 08       		.byte	8
 3053 0774 92       		.byte	-110
 3054 0775 01       		.byte	1
 3055 0776 94       		.byte	-108
 3056 0777 04       		.byte	4
 3057 0778 99       		.byte	-103
 3058 0779 01       		.byte	1
 3059 077a 9E       		.byte	-98
 3060 077b 02       		.byte	2
 3061 077c A3       		.byte	-93
 3062 077d 03       		.byte	3
 3063 077e AC       		.byte	-84
 3064 077f 01       		.byte	1
 3065 0780 B0       		.byte	-80
 3066 0781 03       		.byte	3
 3067 0782 B1       		.byte	-79
 3068 0783 01       		.byte	1
 3069 0784 B2       		.byte	-78
 3070 0785 04       		.byte	4
 3071 0786 B3       		.byte	-77
 3072 0787 02       		.byte	2
 3073 0788 B4       		.byte	-76
 3074 0789 08       		.byte	8
 3075 078a B6       		.byte	-74
 3076 078b 03       		.byte	3
 3077 078c B8       		.byte	-72
 3078 078d 08       		.byte	8
 3079 078e BE       		.byte	-66
 3080 078f 14       		.byte	20
 3081 0790 D8       		.byte	-40
 3082 0791 04       		.byte	4
 3083 0792 D9       		.byte	-39
 3084 0793 0C       		.byte	12
 3085 0794 DC       		.byte	-36
 3086 0795 19       		.byte	25
ARM GAS  C:\Users\glenn\AppData\Local\Temp\cc8YMqik.s 			page 85


 3087 0796 DF       		.byte	-33
 3088 0797 01       		.byte	1
 3089 0798 00       		.byte	0
 3090 0799 10       		.byte	16
 3091 079a 01       		.byte	1
 3092 079b 8A       		.byte	-118
 3093 079c 02       		.byte	2
 3094 079d 02       		.byte	2
 3095 079e 06       		.byte	6
 3096 079f 24       		.byte	36
 3097 07a0 07       		.byte	7
 3098 07a1 02       		.byte	2
 3099 07a2 0A       		.byte	10
 3100 07a3 0A       		.byte	10
 3101 07a4 0B       		.byte	11
 3102 07a5 90       		.byte	-112
 3103 07a6 0E       		.byte	14
 3104 07a7 A0       		.byte	-96
 3105 07a8 0F       		.byte	15
 3106 07a9 01       		.byte	1
 3107 07aa 10       		.byte	16
 3108 07ab 84       		.byte	-124
 3109 07ac 11       		.byte	17
 3110 07ad 04       		.byte	4
 3111 07ae 15       		.byte	21
 3112 07af 40       		.byte	64
 3113 07b0 17       		.byte	23
 3114 07b1 40       		.byte	64
 3115 07b2 19       		.byte	25
 3116 07b3 49       		.byte	73
 3117 07b4 1C       		.byte	28
 3118 07b5 04       		.byte	4
 3119 07b6 1E       		.byte	30
 3120 07b7 80       		.byte	-128
 3121 07b8 1F       		.byte	31
 3122 07b9 84       		.byte	-124
 3123 07ba 22       		.byte	34
 3124 07bb 11       		.byte	17
 3125 07bc 23       		.byte	35
 3126 07bd 10       		.byte	16
 3127 07be 27       		.byte	39
 3128 07bf 50       		.byte	80
 3129 07c0 28       		.byte	40
 3130 07c1 84       		.byte	-124
 3131 07c2 29       		.byte	41
 3132 07c3 8A       		.byte	-118
 3133 07c4 2F       		.byte	47
 3134 07c5 80       		.byte	-128
 3135 07c6 30       		.byte	48
 3136 07c7 80       		.byte	-128
 3137 07c8 32       		.byte	50
 3138 07c9 15       		.byte	21
 3139 07ca 37       		.byte	55
 3140 07cb 10       		.byte	16
 3141 07cc 38       		.byte	56
 3142 07cd 10       		.byte	16
 3143 07ce 39       		.byte	57
ARM GAS  C:\Users\glenn\AppData\Local\Temp\cc8YMqik.s 			page 86


 3144 07cf 85       		.byte	-123
 3145 07d0 3A       		.byte	58
 3146 07d1 08       		.byte	8
 3147 07d2 3B       		.byte	59
 3148 07d3 80       		.byte	-128
 3149 07d4 59       		.byte	89
 3150 07d5 01       		.byte	1
 3151 07d6 60       		.byte	96
 3152 07d7 06       		.byte	6
 3153 07d8 63       		.byte	99
 3154 07d9 40       		.byte	64
 3155 07da 7F       		.byte	127
 3156 07db 02       		.byte	2
 3157 07dc 85       		.byte	-123
 3158 07dd 01       		.byte	1
 3159 07de 87       		.byte	-121
 3160 07df 50       		.byte	80
 3161 07e0 90       		.byte	-112
 3162 07e1 10       		.byte	16
 3163 07e2 91       		.byte	-111
 3164 07e3 80       		.byte	-128
 3165 07e4 92       		.byte	-110
 3166 07e5 08       		.byte	8
 3167 07e6 93       		.byte	-109
 3168 07e7 01       		.byte	1
 3169 07e8 95       		.byte	-107
 3170 07e9 40       		.byte	64
 3171 07ea 96       		.byte	-106
 3172 07eb 02       		.byte	2
 3173 07ec 97       		.byte	-105
 3174 07ed 18       		.byte	24
 3175 07ee 98       		.byte	-104
 3176 07ef 86       		.byte	-122
 3177 07f0 9A       		.byte	-102
 3178 07f1 2C       		.byte	44
 3179 07f2 9B       		.byte	-101
 3180 07f3 02       		.byte	2
 3181 07f4 9D       		.byte	-99
 3182 07f5 48       		.byte	72
 3183 07f6 A0       		.byte	-96
 3184 07f7 80       		.byte	-128
 3185 07f8 A2       		.byte	-94
 3186 07f9 12       		.byte	18
 3187 07fa A3       		.byte	-93
 3188 07fb 02       		.byte	2
 3189 07fc A9       		.byte	-87
 3190 07fd 40       		.byte	64
 3191 07fe AB       		.byte	-85
 3192 07ff 04       		.byte	4
 3193 0800 AF       		.byte	-81
 3194 0801 40       		.byte	64
 3195 0802 C0       		.byte	-64
 3196 0803 EF       		.byte	-17
 3197 0804 C2       		.byte	-62
 3198 0805 BF       		.byte	-65
 3199 0806 C4       		.byte	-60
 3200 0807 8E       		.byte	-114
ARM GAS  C:\Users\glenn\AppData\Local\Temp\cc8YMqik.s 			page 87


 3201 0808 CA       		.byte	-54
 3202 0809 8F       		.byte	-113
 3203 080a CC       		.byte	-52
 3204 080b 2F       		.byte	47
 3205 080c CE       		.byte	-50
 3206 080d 0F       		.byte	15
 3207 080e D6       		.byte	-42
 3208 080f 01       		.byte	1
 3209 0810 D8       		.byte	-40
 3210 0811 0D       		.byte	13
 3211 0812 DE       		.byte	-34
 3212 0813 10       		.byte	16
 3213 0814 EA       		.byte	-22
 3214 0815 01       		.byte	1
 3215 0816 EC       		.byte	-20
 3216 0817 20       		.byte	32
 3217 0818 10       		.byte	16
 3218 0819 10       		.byte	16
 3219 081a 16       		.byte	22
 3220 081b 80       		.byte	-128
 3221 081c 32       		.byte	50
 3222 081d 20       		.byte	32
 3223 081e 33       		.byte	51
 3224 081f 02       		.byte	2
 3225 0820 34       		.byte	52
 3226 0821 04       		.byte	4
 3227 0822 35       		.byte	53
 3228 0823 80       		.byte	-128
 3229 0824 3B       		.byte	59
 3230 0825 42       		.byte	66
 3231 0826 3E       		.byte	62
 3232 0827 80       		.byte	-128
 3233 0828 83       		.byte	-125
 3234 0829 80       		.byte	-128
 3235 082a 85       		.byte	-123
 3236 082b 80       		.byte	-128
 3237 082c C4       		.byte	-60
 3238 082d 30       		.byte	48
 3239 082e CC       		.byte	-52
 3240 082f F0       		.byte	-16
 3241 0830 CE       		.byte	-50
 3242 0831 70       		.byte	112
 3243 0832 E2       		.byte	-30
 3244 0833 10       		.byte	16
 3245 0834 E6       		.byte	-26
 3246 0835 20       		.byte	32
 3247 0836 32       		.byte	50
 3248 0837 08       		.byte	8
 3249 0838 33       		.byte	51
 3250 0839 80       		.byte	-128
 3251 083a 35       		.byte	53
 3252 083b 40       		.byte	64
 3253 083c 36       		.byte	54
 3254 083d 04       		.byte	4
 3255 083e 97       		.byte	-105
 3256 083f 40       		.byte	64
 3257 0840 98       		.byte	-104
ARM GAS  C:\Users\glenn\AppData\Local\Temp\cc8YMqik.s 			page 88


 3258 0841 10       		.byte	16
 3259 0842 9C       		.byte	-100
 3260 0843 04       		.byte	4
 3261 0844 A3       		.byte	-93
 3262 0845 80       		.byte	-128
 3263 0846 A6       		.byte	-90
 3264 0847 20       		.byte	32
 3265 0848 AB       		.byte	-85
 3266 0849 03       		.byte	3
 3267 084a CC       		.byte	-52
 3268 084b F0       		.byte	-16
 3269 084c EA       		.byte	-22
 3270 084d 20       		.byte	32
 3271 084e EE       		.byte	-18
 3272 084f 20       		.byte	32
 3273 0850 8C       		.byte	-116
 3274 0851 01       		.byte	1
 3275 0852 97       		.byte	-105
 3276 0853 40       		.byte	64
 3277 0854 98       		.byte	-104
 3278 0855 10       		.byte	16
 3279 0856 9C       		.byte	-100
 3280 0857 04       		.byte	4
 3281 0858 9D       		.byte	-99
 3282 0859 40       		.byte	64
 3283 085a A6       		.byte	-90
 3284 085b 2C       		.byte	44
 3285 085c 26       		.byte	38
 3286 085d 08       		.byte	8
 3287 085e 2C       		.byte	44
 3288 085f 04       		.byte	4
 3289 0860 94       		.byte	-108
 3290 0861 01       		.byte	1
 3291 0862 97       		.byte	-105
 3292 0863 40       		.byte	64
 3293 0864 98       		.byte	-104
 3294 0865 10       		.byte	16
 3295 0866 9C       		.byte	-100
 3296 0867 04       		.byte	4
 3297 0868 9D       		.byte	-99
 3298 0869 40       		.byte	64
 3299 086a A6       		.byte	-90
 3300 086b 2C       		.byte	44
 3301 086c C8       		.byte	-56
 3302 086d 80       		.byte	-128
 3303 086e CA       		.byte	-54
 3304 086f 20       		.byte	32
 3305 0870 7C       		.byte	124
 3306 0871 01       		.byte	1
 3307 0872 DE       		.byte	-34
 3308 0873 01       		.byte	1
 3309 0874 01       		.byte	1
 3310 0875 10       		.byte	16
 3311 0876 08       		.byte	8
 3312 0877 10       		.byte	16
 3313 0878 0E       		.byte	14
 3314 0879 01       		.byte	1
ARM GAS  C:\Users\glenn\AppData\Local\Temp\cc8YMqik.s 			page 89


 3315 087a 52       		.byte	82
 3316 087b 08       		.byte	8
 3317 087c 87       		.byte	-121
 3318 087d 01       		.byte	1
 3319 087e 94       		.byte	-108
 3320 087f 01       		.byte	1
 3321 0880 A7       		.byte	-89
 3322 0881 04       		.byte	4
 3323 0882 AB       		.byte	-85
 3324 0883 04       		.byte	4
 3325 0884 C0       		.byte	-64
 3326 0885 02       		.byte	2
 3327 0886 C2       		.byte	-62
 3328 0887 03       		.byte	3
 3329 0888 D4       		.byte	-44
 3330 0889 04       		.byte	4
 3331 088a 1B       		.byte	27
 3332 088b 04       		.byte	4
 3333 088c 26       		.byte	38
 3334 088d 08       		.byte	8
 3335 088e 45       		.byte	69
 3336 088f 02       		.byte	2
 3337 0890 8D       		.byte	-115
 3338 0891 02       		.byte	2
 3339 0892 94       		.byte	-108
 3340 0893 01       		.byte	1
 3341 0894 9B       		.byte	-101
 3342 0895 01       		.byte	1
 3343 0896 A7       		.byte	-89
 3344 0897 04       		.byte	4
 3345 0898 AC       		.byte	-84
 3346 0899 10       		.byte	16
 3347 089a AD       		.byte	-83
 3348 089b 10       		.byte	16
 3349 089c AE       		.byte	-82
 3350 089d 08       		.byte	8
 3351 089e B2       		.byte	-78
 3352 089f 01       		.byte	1
 3353 08a0 C6       		.byte	-58
 3354 08a1 08       		.byte	8
 3355 08a2 C8       		.byte	-56
 3356 08a3 01       		.byte	1
 3357 08a4 D0       		.byte	-48
 3358 08a5 01       		.byte	1
 3359 08a6 E4       		.byte	-28
 3360 08a7 08       		.byte	8
 3361 08a8 EE       		.byte	-18
