ARM GAS  C:\Users\glenn\AppData\Local\Temp\ccasp4sL.s 			page 1


   1              		.syntax unified
   2              		.cpu cortex-m3
   3              		.fpu softvfp
   4              		.eabi_attribute 20, 1
   5              		.eabi_attribute 21, 1
   6              		.eabi_attribute 23, 3
   7              		.eabi_attribute 24, 1
   8              		.eabi_attribute 25, 1
   9              		.eabi_attribute 26, 1
  10              		.eabi_attribute 30, 6
  11              		.eabi_attribute 34, 1
  12              		.eabi_attribute 18, 4
  13              		.thumb
  14              		.file	"digitial_io.c"
  15              		.text
  16              	.Ltext0:
  17              		.cfi_sections	.debug_frame
  18              		.section	.text.read_board_switch,"ax",%progbits
  19              		.align	2
  20              		.global	read_board_switch
  21              		.thumb
  22              		.thumb_func
  23              		.type	read_board_switch, %function
  24              	read_board_switch:
  25              	.LFB63:
  26              		.file 1 "..\\..\\utilities\\digitial_io.c"
   1:..\..\utilities/digitial_io.c **** /*
   2:..\..\utilities/digitial_io.c **** File: digital_io.c
   3:..\..\utilities/digitial_io.c **** 
   4:..\..\utilities/digitial_io.c **** Digital functions
   5:..\..\utilities/digitial_io.c **** 
   6:..\..\utilities/digitial_io.c **** */
   7:..\..\utilities/digitial_io.c **** 
   8:..\..\utilities/digitial_io.c **** 
   9:..\..\utilities/digitial_io.c **** #include <device.h>
  10:..\..\utilities/digitial_io.c **** #include "digitial_io.h"
  11:..\..\utilities/digitial_io.c **** 
  12:..\..\utilities/digitial_io.c **** // status registers bit definitions
  13:..\..\utilities/digitial_io.c **** #define  LOG_PIN       1
  14:..\..\utilities/digitial_io.c **** #define  BOARD_SWITCH  2
  15:..\..\utilities/digitial_io.c **** #define  ACTIVE_PIN    4
  16:..\..\utilities/digitial_io.c **** 
  17:..\..\utilities/digitial_io.c **** 
  18:..\..\utilities/digitial_io.c **** 
  19:..\..\utilities/digitial_io.c **** 
  20:..\..\utilities/digitial_io.c **** 
  21:..\..\utilities/digitial_io.c **** 
  22:..\..\utilities/digitial_io.c **** uint32 read_board_switch( void )
  23:..\..\utilities/digitial_io.c **** {
  27              		.loc 1 23 0
  28              		.cfi_startproc
  29              		@ args = 0, pretend = 0, frame = 8
  30              		@ frame_needed = 1, uses_anonymous_args = 0
  31 0000 80B5     		push	{r7, lr}
  32              		.cfi_def_cfa_offset 8
  33              		.cfi_offset 7, -8
  34              		.cfi_offset 14, -4
ARM GAS  C:\Users\glenn\AppData\Local\Temp\ccasp4sL.s 			page 2


  35 0002 82B0     		sub	sp, sp, #8
  36              		.cfi_def_cfa_offset 16
  37 0004 00AF     		add	r7, sp, #0
  38              		.cfi_def_cfa_register 7
  24:..\..\utilities/digitial_io.c ****     uint32 return_value;
  25:..\..\utilities/digitial_io.c ****     
  26:..\..\utilities/digitial_io.c ****     if( Status_Reg_1_Read() & BOARD_SWITCH )
  39              		.loc 1 26 0
  40 0006 FFF7FEFF 		bl	Status_Reg_1_Read
  41 000a 0346     		mov	r3, r0
  42 000c 03F00203 		and	r3, r3, #2
  43 0010 002B     		cmp	r3, #0
  44 0012 02D0     		beq	.L2
  27:..\..\utilities/digitial_io.c ****     {
  28:..\..\utilities/digitial_io.c ****         return_value = 1;
  45              		.loc 1 28 0
  46 0014 0123     		movs	r3, #1
  47 0016 7B60     		str	r3, [r7, #4]
  48 0018 01E0     		b	.L3
  49              	.L2:
  29:..\..\utilities/digitial_io.c ****     }
  30:..\..\utilities/digitial_io.c ****     else
  31:..\..\utilities/digitial_io.c ****     {
  32:..\..\utilities/digitial_io.c ****         return_value = 0;
  50              		.loc 1 32 0
  51 001a 0023     		movs	r3, #0
  52 001c 7B60     		str	r3, [r7, #4]
  53              	.L3:
  33:..\..\utilities/digitial_io.c ****     }
  34:..\..\utilities/digitial_io.c ****     return return_value;
  54              		.loc 1 34 0
  55 001e 7B68     		ldr	r3, [r7, #4]
  35:..\..\utilities/digitial_io.c **** 
  36:..\..\utilities/digitial_io.c ****     
  37:..\..\utilities/digitial_io.c **** }
  56              		.loc 1 37 0
  57 0020 1846     		mov	r0, r3
  58 0022 0837     		adds	r7, r7, #8
  59              		.cfi_def_cfa_offset 8
  60 0024 BD46     		mov	sp, r7
  61              		.cfi_def_cfa_register 13
  62              		@ sp needed
  63 0026 80BD     		pop	{r7, pc}
  64              		.cfi_endproc
  65              	.LFE63:
  66              		.size	read_board_switch, .-read_board_switch
  67              		.section	.text.read_log_pin,"ax",%progbits
  68              		.align	2
  69              		.global	read_log_pin
  70              		.thumb
  71              		.thumb_func
  72              		.type	read_log_pin, %function
  73              	read_log_pin:
  74              	.LFB64:
  38:..\..\utilities/digitial_io.c **** 
  39:..\..\utilities/digitial_io.c **** uint32 read_log_pin( void )
  40:..\..\utilities/digitial_io.c **** {
ARM GAS  C:\Users\glenn\AppData\Local\Temp\ccasp4sL.s 			page 3


  75              		.loc 1 40 0
  76              		.cfi_startproc
  77              		@ args = 0, pretend = 0, frame = 8
  78              		@ frame_needed = 1, uses_anonymous_args = 0
  79 0000 80B5     		push	{r7, lr}
  80              		.cfi_def_cfa_offset 8
  81              		.cfi_offset 7, -8
  82              		.cfi_offset 14, -4
  83 0002 82B0     		sub	sp, sp, #8
  84              		.cfi_def_cfa_offset 16
  85 0004 00AF     		add	r7, sp, #0
  86              		.cfi_def_cfa_register 7
  41:..\..\utilities/digitial_io.c ****     uint32 return_value;
  42:..\..\utilities/digitial_io.c ****     if( Status_Reg_1_Read() & LOG_PIN )
  87              		.loc 1 42 0
  88 0006 FFF7FEFF 		bl	Status_Reg_1_Read
  89 000a 0346     		mov	r3, r0
  90 000c 03F00103 		and	r3, r3, #1
  91 0010 002B     		cmp	r3, #0
  92 0012 02D0     		beq	.L6
  43:..\..\utilities/digitial_io.c ****     {
  44:..\..\utilities/digitial_io.c ****         return_value = 1;
  93              		.loc 1 44 0
  94 0014 0123     		movs	r3, #1
  95 0016 7B60     		str	r3, [r7, #4]
  96 0018 01E0     		b	.L7
  97              	.L6:
  45:..\..\utilities/digitial_io.c ****     }
  46:..\..\utilities/digitial_io.c ****     else
  47:..\..\utilities/digitial_io.c ****     {
  48:..\..\utilities/digitial_io.c ****         return_value = 0;
  98              		.loc 1 48 0
  99 001a 0023     		movs	r3, #0
 100 001c 7B60     		str	r3, [r7, #4]
 101              	.L7:
  49:..\..\utilities/digitial_io.c ****     }
  50:..\..\utilities/digitial_io.c ****     return return_value;
 102              		.loc 1 50 0
 103 001e 7B68     		ldr	r3, [r7, #4]
  51:..\..\utilities/digitial_io.c **** 
  52:..\..\utilities/digitial_io.c ****     
  53:..\..\utilities/digitial_io.c **** }
 104              		.loc 1 53 0
 105 0020 1846     		mov	r0, r3
 106 0022 0837     		adds	r7, r7, #8
 107              		.cfi_def_cfa_offset 8
 108 0024 BD46     		mov	sp, r7
 109              		.cfi_def_cfa_register 13
 110              		@ sp needed
 111 0026 80BD     		pop	{r7, pc}
 112              		.cfi_endproc
 113              	.LFE64:
 114              		.size	read_log_pin, .-read_log_pin
 115              		.section	.text.read_active_pin,"ax",%progbits
 116              		.align	2
 117              		.global	read_active_pin
 118              		.thumb
ARM GAS  C:\Users\glenn\AppData\Local\Temp\ccasp4sL.s 			page 4


 119              		.thumb_func
 120              		.type	read_active_pin, %function
 121              	read_active_pin:
 122              	.LFB65:
  54:..\..\utilities/digitial_io.c **** 
  55:..\..\utilities/digitial_io.c **** 
  56:..\..\utilities/digitial_io.c **** 
  57:..\..\utilities/digitial_io.c **** 
  58:..\..\utilities/digitial_io.c **** uint32 read_active_pin( void )
  59:..\..\utilities/digitial_io.c **** {
 123              		.loc 1 59 0
 124              		.cfi_startproc
 125              		@ args = 0, pretend = 0, frame = 8
 126              		@ frame_needed = 1, uses_anonymous_args = 0
 127 0000 80B5     		push	{r7, lr}
 128              		.cfi_def_cfa_offset 8
 129              		.cfi_offset 7, -8
 130              		.cfi_offset 14, -4
 131 0002 82B0     		sub	sp, sp, #8
 132              		.cfi_def_cfa_offset 16
 133 0004 00AF     		add	r7, sp, #0
 134              		.cfi_def_cfa_register 7
  60:..\..\utilities/digitial_io.c ****     uint32 return_value;
  61:..\..\utilities/digitial_io.c ****     if( Status_Reg_1_Read() & ACTIVE_PIN )
 135              		.loc 1 61 0
 136 0006 FFF7FEFF 		bl	Status_Reg_1_Read
 137 000a 0346     		mov	r3, r0
 138 000c 03F00403 		and	r3, r3, #4
 139 0010 002B     		cmp	r3, #0
 140 0012 02D0     		beq	.L10
  62:..\..\utilities/digitial_io.c ****     {
  63:..\..\utilities/digitial_io.c ****         return_value = 1;
 141              		.loc 1 63 0
 142 0014 0123     		movs	r3, #1
 143 0016 7B60     		str	r3, [r7, #4]
 144 0018 01E0     		b	.L11
 145              	.L10:
  64:..\..\utilities/digitial_io.c ****     }
  65:..\..\utilities/digitial_io.c ****     else
  66:..\..\utilities/digitial_io.c ****     {
  67:..\..\utilities/digitial_io.c ****         return_value = 0;
 146              		.loc 1 67 0
 147 001a 0023     		movs	r3, #0
 148 001c 7B60     		str	r3, [r7, #4]
 149              	.L11:
  68:..\..\utilities/digitial_io.c ****     }
  69:..\..\utilities/digitial_io.c ****     return return_value;
 150              		.loc 1 69 0
 151 001e 7B68     		ldr	r3, [r7, #4]
  70:..\..\utilities/digitial_io.c **** 
  71:..\..\utilities/digitial_io.c ****     
  72:..\..\utilities/digitial_io.c **** }
 152              		.loc 1 72 0
 153 0020 1846     		mov	r0, r3
 154 0022 0837     		adds	r7, r7, #8
 155              		.cfi_def_cfa_offset 8
 156 0024 BD46     		mov	sp, r7
ARM GAS  C:\Users\glenn\AppData\Local\Temp\ccasp4sL.s 			page 5


 157              		.cfi_def_cfa_register 13
 158              		@ sp needed
 159 0026 80BD     		pop	{r7, pc}
 160              		.cfi_endproc
 161              	.LFE65:
 162              		.size	read_active_pin, .-read_active_pin
 163              		.text
 164              	.Letext0:
 165              		.file 2 "c:\\program files (x86)\\cypress\\psoc creator\\3.3\\psoc creator\\import\\gnu\\arm\\4.9.
 166              		.file 3 "c:\\program files (x86)\\cypress\\psoc creator\\3.3\\psoc creator\\import\\gnu\\arm\\4.9.
 167              		.file 4 "Generated_Source\\PSoC5/cytypes.h"
 168              		.file 5 "Generated_Source\\PSoC5/core_cm3.h"