ARM GAS  C:\Users\glenn\AppData\Local\Temp\cc2nihb2.s 			page 1


   1              		.syntax unified
   2              		.cpu cortex-m3
   3              		.fpu softvfp
   4              		.eabi_attribute 20, 1
   5              		.eabi_attribute 21, 1
   6              		.eabi_attribute 23, 3
   7              		.eabi_attribute 24, 1
   8              		.eabi_attribute 25, 1
   9              		.eabi_attribute 26, 1
  10              		.eabi_attribute 30, 6
  11              		.eabi_attribute 34, 1
  12              		.eabi_attribute 18, 4
  13              		.thumb
  14              		.file	"IDAC8_2.c"
  15              		.text
  16              	.Ltext0:
  17              		.cfi_sections	.debug_frame
  18              		.global	IDAC8_2_initVar
  19              		.bss
  20              		.type	IDAC8_2_initVar, %object
  21              		.size	IDAC8_2_initVar, 1
  22              	IDAC8_2_initVar:
  23 0000 00       		.space	1
  24              		.section	.text.IDAC8_2_Init,"ax",%progbits
  25              		.align	2
  26              		.global	IDAC8_2_Init
  27              		.thumb
  28              		.thumb_func
  29              		.type	IDAC8_2_Init, %function
  30              	IDAC8_2_Init:
  31              	.LFB0:
  32              		.file 1 ".\\Generated_Source\\PSoC5\\IDAC8_2.c"
   1:.\Generated_Source\PSoC5/IDAC8_2.c **** /*******************************************************************************
   2:.\Generated_Source\PSoC5/IDAC8_2.c **** * File Name: IDAC8_2.c
   3:.\Generated_Source\PSoC5/IDAC8_2.c **** * Version 2.0
   4:.\Generated_Source\PSoC5/IDAC8_2.c **** *
   5:.\Generated_Source\PSoC5/IDAC8_2.c **** * Description:
   6:.\Generated_Source\PSoC5/IDAC8_2.c **** *  This file provides the source code to the API for the 8-bit Current 
   7:.\Generated_Source\PSoC5/IDAC8_2.c **** *  DAC (IDAC8) User Module.
   8:.\Generated_Source\PSoC5/IDAC8_2.c **** *
   9:.\Generated_Source\PSoC5/IDAC8_2.c **** * Note:
  10:.\Generated_Source\PSoC5/IDAC8_2.c **** *  None
  11:.\Generated_Source\PSoC5/IDAC8_2.c **** *
  12:.\Generated_Source\PSoC5/IDAC8_2.c **** ********************************************************************************
  13:.\Generated_Source\PSoC5/IDAC8_2.c **** * Copyright 2008-2012, Cypress Semiconductor Corporation.  All rights reserved.
  14:.\Generated_Source\PSoC5/IDAC8_2.c **** * You may use this file only in accordance with the license, terms, conditions, 
  15:.\Generated_Source\PSoC5/IDAC8_2.c **** * disclaimers, and limitations in the end user license agreement accompanying 
  16:.\Generated_Source\PSoC5/IDAC8_2.c **** * the software package with which this file was provided.
  17:.\Generated_Source\PSoC5/IDAC8_2.c **** *******************************************************************************/
  18:.\Generated_Source\PSoC5/IDAC8_2.c **** 
  19:.\Generated_Source\PSoC5/IDAC8_2.c **** #include "cytypes.h"
  20:.\Generated_Source\PSoC5/IDAC8_2.c **** #include "IDAC8_2.h"   
  21:.\Generated_Source\PSoC5/IDAC8_2.c **** 
  22:.\Generated_Source\PSoC5/IDAC8_2.c **** #if (CY_PSOC5A)
  23:.\Generated_Source\PSoC5/IDAC8_2.c ****     #include <CyLib.h>
  24:.\Generated_Source\PSoC5/IDAC8_2.c **** #endif /* CY_PSOC5A */
  25:.\Generated_Source\PSoC5/IDAC8_2.c **** 
ARM GAS  C:\Users\glenn\AppData\Local\Temp\cc2nihb2.s 			page 2


  26:.\Generated_Source\PSoC5/IDAC8_2.c **** 
  27:.\Generated_Source\PSoC5/IDAC8_2.c **** uint8 IDAC8_2_initVar = 0u;
  28:.\Generated_Source\PSoC5/IDAC8_2.c **** 
  29:.\Generated_Source\PSoC5/IDAC8_2.c **** 
  30:.\Generated_Source\PSoC5/IDAC8_2.c **** #if (CY_PSOC5A)
  31:.\Generated_Source\PSoC5/IDAC8_2.c ****     static IDAC8_2_LOWPOWER_BACKUP_STRUCT  IDAC8_2_lowPowerBackup;
  32:.\Generated_Source\PSoC5/IDAC8_2.c **** #endif /* CY_PSOC5A */
  33:.\Generated_Source\PSoC5/IDAC8_2.c **** 
  34:.\Generated_Source\PSoC5/IDAC8_2.c **** /* Variable to decide whether or not to restore control register in Enable()
  35:.\Generated_Source\PSoC5/IDAC8_2.c ****    API. This valid only for PSoC5A */
  36:.\Generated_Source\PSoC5/IDAC8_2.c **** #if (CY_PSOC5A)
  37:.\Generated_Source\PSoC5/IDAC8_2.c ****     static uint8 IDAC8_2_restoreReg = 0u;
  38:.\Generated_Source\PSoC5/IDAC8_2.c **** #endif /* CY_PSOC5A */
  39:.\Generated_Source\PSoC5/IDAC8_2.c **** 
  40:.\Generated_Source\PSoC5/IDAC8_2.c **** 
  41:.\Generated_Source\PSoC5/IDAC8_2.c **** /*******************************************************************************
  42:.\Generated_Source\PSoC5/IDAC8_2.c **** * Function Name: IDAC8_2_Init
  43:.\Generated_Source\PSoC5/IDAC8_2.c **** ********************************************************************************
  44:.\Generated_Source\PSoC5/IDAC8_2.c **** * Summary:
  45:.\Generated_Source\PSoC5/IDAC8_2.c **** *  Initialize to the schematic state.
  46:.\Generated_Source\PSoC5/IDAC8_2.c **** * 
  47:.\Generated_Source\PSoC5/IDAC8_2.c **** * Parameters:
  48:.\Generated_Source\PSoC5/IDAC8_2.c **** *  void:
  49:.\Generated_Source\PSoC5/IDAC8_2.c **** *
  50:.\Generated_Source\PSoC5/IDAC8_2.c **** * Return:
  51:.\Generated_Source\PSoC5/IDAC8_2.c **** *  (void)
  52:.\Generated_Source\PSoC5/IDAC8_2.c **** *
  53:.\Generated_Source\PSoC5/IDAC8_2.c **** * Theory:
  54:.\Generated_Source\PSoC5/IDAC8_2.c **** *
  55:.\Generated_Source\PSoC5/IDAC8_2.c **** * Side Effects:
  56:.\Generated_Source\PSoC5/IDAC8_2.c **** *
  57:.\Generated_Source\PSoC5/IDAC8_2.c **** *******************************************************************************/
  58:.\Generated_Source\PSoC5/IDAC8_2.c **** void IDAC8_2_Init(void) 
  59:.\Generated_Source\PSoC5/IDAC8_2.c **** {
  33              		.loc 1 59 0
  34              		.cfi_startproc
  35              		@ args = 0, pretend = 0, frame = 0
  36              		@ frame_needed = 1, uses_anonymous_args = 0
  37 0000 80B5     		push	{r7, lr}
  38              		.cfi_def_cfa_offset 8
  39              		.cfi_offset 7, -8
  40              		.cfi_offset 14, -4
  41 0002 00AF     		add	r7, sp, #0
  42              		.cfi_def_cfa_register 7
  60:.\Generated_Source\PSoC5/IDAC8_2.c ****     IDAC8_2_CR0 = (IDAC8_2_MODE_I | IDAC8_2_DEFAULT_RANGE );
  43              		.loc 1 60 0
  44 0004 094B     		ldr	r3, .L2
  45 0006 1022     		movs	r2, #16
  46 0008 1A70     		strb	r2, [r3]
  61:.\Generated_Source\PSoC5/IDAC8_2.c **** 
  62:.\Generated_Source\PSoC5/IDAC8_2.c ****     /* Set default data source */
  63:.\Generated_Source\PSoC5/IDAC8_2.c ****     #if(IDAC8_2_DEFAULT_DATA_SRC != 0u )    
  64:.\Generated_Source\PSoC5/IDAC8_2.c ****         IDAC8_2_CR1 = (IDAC8_2_DEFAULT_CNTL | IDAC8_2_DACBUS_ENABLE);
  65:.\Generated_Source\PSoC5/IDAC8_2.c ****     #else
  66:.\Generated_Source\PSoC5/IDAC8_2.c ****         IDAC8_2_CR1 = (IDAC8_2_DEFAULT_CNTL | IDAC8_2_DACBUS_DISABLE);
  47              		.loc 1 66 0
  48 000a 094B     		ldr	r3, .L2+4
ARM GAS  C:\Users\glenn\AppData\Local\Temp\cc2nihb2.s 			page 3


  49 000c 0022     		movs	r2, #0
  50 000e 1A70     		strb	r2, [r3]
  67:.\Generated_Source\PSoC5/IDAC8_2.c ****     #endif /* (IDAC8_2_DEFAULT_DATA_SRC != 0u ) */
  68:.\Generated_Source\PSoC5/IDAC8_2.c ****     
  69:.\Generated_Source\PSoC5/IDAC8_2.c ****     /*Controls polarity from UDB Control*/
  70:.\Generated_Source\PSoC5/IDAC8_2.c ****     #if(IDAC8_2_DEFAULT_POLARITY == IDAC8_2_HARDWARE_CONTROLLED)
  71:.\Generated_Source\PSoC5/IDAC8_2.c ****         IDAC8_2_CR1 |= IDAC8_2_IDIR_SRC_UDB;
  72:.\Generated_Source\PSoC5/IDAC8_2.c ****     #else
  73:.\Generated_Source\PSoC5/IDAC8_2.c ****         IDAC8_2_CR1 |= IDAC8_2_DEFAULT_POLARITY;
  51              		.loc 1 73 0
  52 0010 074A     		ldr	r2, .L2+4
  53 0012 074B     		ldr	r3, .L2+4
  54 0014 1B78     		ldrb	r3, [r3]
  55 0016 DBB2     		uxtb	r3, r3
  56 0018 43F00403 		orr	r3, r3, #4
  57 001c DBB2     		uxtb	r3, r3
  58 001e 1370     		strb	r3, [r2]
  74:.\Generated_Source\PSoC5/IDAC8_2.c ****     #endif/* (IDAC8_2_DEFAULT_POLARITY == IDAC8_2_HARDWARE_CONTROLLED) */
  75:.\Generated_Source\PSoC5/IDAC8_2.c ****     /*Controls Current Source from UDB Control*/
  76:.\Generated_Source\PSoC5/IDAC8_2.c ****     #if(IDAC8_2_HARDWARE_ENABLE != 0u ) 
  77:.\Generated_Source\PSoC5/IDAC8_2.c ****         IDAC8_2_CR1 |= IDAC8_2_IDIR_CTL_UDB;
  78:.\Generated_Source\PSoC5/IDAC8_2.c ****     #endif /* (IDAC8_2_HARDWARE_ENABLE != 0u ) */ 
  79:.\Generated_Source\PSoC5/IDAC8_2.c ****     
  80:.\Generated_Source\PSoC5/IDAC8_2.c ****     /* Set default strobe mode */
  81:.\Generated_Source\PSoC5/IDAC8_2.c ****     #if(IDAC8_2_DEFAULT_STRB != 0u)
  82:.\Generated_Source\PSoC5/IDAC8_2.c ****         IDAC8_2_Strobe |= IDAC8_2_STRB_EN;
  83:.\Generated_Source\PSoC5/IDAC8_2.c ****     #endif /* (IDAC8_2_DEFAULT_STRB != 0u) */
  84:.\Generated_Source\PSoC5/IDAC8_2.c ****     
  85:.\Generated_Source\PSoC5/IDAC8_2.c ****     /* Set default speed */
  86:.\Generated_Source\PSoC5/IDAC8_2.c ****     IDAC8_2_SetSpeed(IDAC8_2_DEFAULT_SPEED);
  59              		.loc 1 86 0
  60 0020 0020     		movs	r0, #0
  61 0022 FFF7FEFF 		bl	IDAC8_2_SetSpeed
  87:.\Generated_Source\PSoC5/IDAC8_2.c ****     
  88:.\Generated_Source\PSoC5/IDAC8_2.c ****     /* Set proper DAC trim */
  89:.\Generated_Source\PSoC5/IDAC8_2.c ****     IDAC8_2_DacTrim();
  62              		.loc 1 89 0
  63 0026 FFF7FEFF 		bl	IDAC8_2_DacTrim
  90:.\Generated_Source\PSoC5/IDAC8_2.c ****     
  91:.\Generated_Source\PSoC5/IDAC8_2.c **** }
  64              		.loc 1 91 0
  65 002a 80BD     		pop	{r7, pc}
  66              	.L3:
  67              		.align	2
  68              	.L2:
  69 002c 28580040 		.word	1073764392
  70 0030 29580040 		.word	1073764393
  71              		.cfi_endproc
  72              	.LFE0:
  73              		.size	IDAC8_2_Init, .-IDAC8_2_Init
  74              		.section	.text.IDAC8_2_Enable,"ax",%progbits
  75              		.align	2
  76              		.global	IDAC8_2_Enable
  77              		.thumb
  78              		.thumb_func
  79              		.type	IDAC8_2_Enable, %function
  80              	IDAC8_2_Enable:
ARM GAS  C:\Users\glenn\AppData\Local\Temp\cc2nihb2.s 			page 4


  81              	.LFB1:
  92:.\Generated_Source\PSoC5/IDAC8_2.c **** 
  93:.\Generated_Source\PSoC5/IDAC8_2.c **** 
  94:.\Generated_Source\PSoC5/IDAC8_2.c **** /*******************************************************************************
  95:.\Generated_Source\PSoC5/IDAC8_2.c **** * Function Name: IDAC8_2_Enable
  96:.\Generated_Source\PSoC5/IDAC8_2.c **** ********************************************************************************
  97:.\Generated_Source\PSoC5/IDAC8_2.c **** * Summary:
  98:.\Generated_Source\PSoC5/IDAC8_2.c **** *  Enable the IDAC8
  99:.\Generated_Source\PSoC5/IDAC8_2.c **** * 
 100:.\Generated_Source\PSoC5/IDAC8_2.c **** * Parameters:
 101:.\Generated_Source\PSoC5/IDAC8_2.c **** *  void:
 102:.\Generated_Source\PSoC5/IDAC8_2.c **** *
 103:.\Generated_Source\PSoC5/IDAC8_2.c **** * Return:
 104:.\Generated_Source\PSoC5/IDAC8_2.c **** *  (void)
 105:.\Generated_Source\PSoC5/IDAC8_2.c **** *
 106:.\Generated_Source\PSoC5/IDAC8_2.c **** * Theory:
 107:.\Generated_Source\PSoC5/IDAC8_2.c **** *
 108:.\Generated_Source\PSoC5/IDAC8_2.c **** * Side Effects:
 109:.\Generated_Source\PSoC5/IDAC8_2.c **** *
 110:.\Generated_Source\PSoC5/IDAC8_2.c **** *******************************************************************************/
 111:.\Generated_Source\PSoC5/IDAC8_2.c **** void IDAC8_2_Enable(void) 
 112:.\Generated_Source\PSoC5/IDAC8_2.c **** {
  82              		.loc 1 112 0
  83              		.cfi_startproc
  84              		@ args = 0, pretend = 0, frame = 0
  85              		@ frame_needed = 1, uses_anonymous_args = 0
  86              		@ link register save eliminated.
  87 0000 80B4     		push	{r7}
  88              		.cfi_def_cfa_offset 4
  89              		.cfi_offset 7, -4
  90 0002 00AF     		add	r7, sp, #0
  91              		.cfi_def_cfa_register 7
 113:.\Generated_Source\PSoC5/IDAC8_2.c ****     IDAC8_2_PWRMGR |= IDAC8_2_ACT_PWR_EN;
  92              		.loc 1 113 0
  93 0004 094A     		ldr	r2, .L5
  94 0006 094B     		ldr	r3, .L5
  95 0008 1B78     		ldrb	r3, [r3]
  96 000a DBB2     		uxtb	r3, r3
  97 000c 43F00403 		orr	r3, r3, #4
  98 0010 DBB2     		uxtb	r3, r3
  99 0012 1370     		strb	r3, [r2]
 114:.\Generated_Source\PSoC5/IDAC8_2.c ****     IDAC8_2_STBY_PWRMGR |= IDAC8_2_STBY_PWR_EN;
 100              		.loc 1 114 0
 101 0014 064A     		ldr	r2, .L5+4
 102 0016 064B     		ldr	r3, .L5+4
 103 0018 1B78     		ldrb	r3, [r3]
 104 001a DBB2     		uxtb	r3, r3
 105 001c 43F00403 		orr	r3, r3, #4
 106 0020 DBB2     		uxtb	r3, r3
 107 0022 1370     		strb	r3, [r2]
 115:.\Generated_Source\PSoC5/IDAC8_2.c **** 
 116:.\Generated_Source\PSoC5/IDAC8_2.c ****     /* This is to restore the value of register CR0 which is saved 
 117:.\Generated_Source\PSoC5/IDAC8_2.c ****       in prior to the modification in stop() API */
 118:.\Generated_Source\PSoC5/IDAC8_2.c ****     #if (CY_PSOC5A)
 119:.\Generated_Source\PSoC5/IDAC8_2.c ****         if(IDAC8_2_restoreReg == 1u)
 120:.\Generated_Source\PSoC5/IDAC8_2.c ****         {
 121:.\Generated_Source\PSoC5/IDAC8_2.c ****             IDAC8_2_CR0 = IDAC8_2_lowPowerBackup.DACCR0Reg;
ARM GAS  C:\Users\glenn\AppData\Local\Temp\cc2nihb2.s 			page 5


 122:.\Generated_Source\PSoC5/IDAC8_2.c **** 
 123:.\Generated_Source\PSoC5/IDAC8_2.c ****             /* Clear the flag */
 124:.\Generated_Source\PSoC5/IDAC8_2.c ****             IDAC8_2_restoreReg = 0u;
 125:.\Generated_Source\PSoC5/IDAC8_2.c ****         }
 126:.\Generated_Source\PSoC5/IDAC8_2.c ****     #endif /* CY_PSOC5A */
 127:.\Generated_Source\PSoC5/IDAC8_2.c **** }
 108              		.loc 1 127 0
 109 0024 BD46     		mov	sp, r7
 110              		.cfi_def_cfa_register 13
 111              		@ sp needed
 112 0026 5DF8047B 		ldr	r7, [sp], #4
 113              		.cfi_restore 7
 114              		.cfi_def_cfa_offset 0
 115 002a 7047     		bx	lr
 116              	.L6:
 117              		.align	2
 118              	.L5:
 119 002c A8430040 		.word	1073759144
 120 0030 B8430040 		.word	1073759160
 121              		.cfi_endproc
 122              	.LFE1:
 123              		.size	IDAC8_2_Enable, .-IDAC8_2_Enable
 124              		.section	.text.IDAC8_2_Start,"ax",%progbits
 125              		.align	2
 126              		.global	IDAC8_2_Start
 127              		.thumb
 128              		.thumb_func
 129              		.type	IDAC8_2_Start, %function
 130              	IDAC8_2_Start:
 131              	.LFB2:
 128:.\Generated_Source\PSoC5/IDAC8_2.c **** 
 129:.\Generated_Source\PSoC5/IDAC8_2.c **** 
 130:.\Generated_Source\PSoC5/IDAC8_2.c **** /*******************************************************************************
 131:.\Generated_Source\PSoC5/IDAC8_2.c **** * Function Name: IDAC8_2_Start
 132:.\Generated_Source\PSoC5/IDAC8_2.c **** ********************************************************************************
 133:.\Generated_Source\PSoC5/IDAC8_2.c **** * Summary:
 134:.\Generated_Source\PSoC5/IDAC8_2.c **** *  Set power level then turn on IDAC8.
 135:.\Generated_Source\PSoC5/IDAC8_2.c **** *
 136:.\Generated_Source\PSoC5/IDAC8_2.c **** * Parameters:  
 137:.\Generated_Source\PSoC5/IDAC8_2.c **** *  power: Sets power level between off (0) and (3) high power
 138:.\Generated_Source\PSoC5/IDAC8_2.c **** *
 139:.\Generated_Source\PSoC5/IDAC8_2.c **** * Return:
 140:.\Generated_Source\PSoC5/IDAC8_2.c **** *  (void)
 141:.\Generated_Source\PSoC5/IDAC8_2.c **** *
 142:.\Generated_Source\PSoC5/IDAC8_2.c **** * Global variables:
 143:.\Generated_Source\PSoC5/IDAC8_2.c **** *  IDAC8_2_initVar: Is modified when this function is called for 
 144:.\Generated_Source\PSoC5/IDAC8_2.c **** *   the first time. Is used to ensure that initialization happens only once.
 145:.\Generated_Source\PSoC5/IDAC8_2.c **** *
 146:.\Generated_Source\PSoC5/IDAC8_2.c **** *******************************************************************************/
 147:.\Generated_Source\PSoC5/IDAC8_2.c **** void IDAC8_2_Start(void) 
 148:.\Generated_Source\PSoC5/IDAC8_2.c **** {
 132              		.loc 1 148 0
 133              		.cfi_startproc
 134              		@ args = 0, pretend = 0, frame = 0
 135              		@ frame_needed = 1, uses_anonymous_args = 0
 136 0000 80B5     		push	{r7, lr}
 137              		.cfi_def_cfa_offset 8
ARM GAS  C:\Users\glenn\AppData\Local\Temp\cc2nihb2.s 			page 6


 138              		.cfi_offset 7, -8
 139              		.cfi_offset 14, -4
 140 0002 00AF     		add	r7, sp, #0
 141              		.cfi_def_cfa_register 7
 149:.\Generated_Source\PSoC5/IDAC8_2.c ****     /* Hardware initiazation only needs to occur the first time */
 150:.\Generated_Source\PSoC5/IDAC8_2.c ****     if ( IDAC8_2_initVar == 0u)  
 142              		.loc 1 150 0
 143 0004 074B     		ldr	r3, .L9
 144 0006 1B78     		ldrb	r3, [r3]	@ zero_extendqisi2
 145 0008 002B     		cmp	r3, #0
 146 000a 04D1     		bne	.L8
 151:.\Generated_Source\PSoC5/IDAC8_2.c ****     {
 152:.\Generated_Source\PSoC5/IDAC8_2.c ****         IDAC8_2_Init();
 147              		.loc 1 152 0
 148 000c FFF7FEFF 		bl	IDAC8_2_Init
 153:.\Generated_Source\PSoC5/IDAC8_2.c ****         
 154:.\Generated_Source\PSoC5/IDAC8_2.c ****         IDAC8_2_initVar = 1u;
 149              		.loc 1 154 0
 150 0010 044B     		ldr	r3, .L9
 151 0012 0122     		movs	r2, #1
 152 0014 1A70     		strb	r2, [r3]
 153              	.L8:
 155:.\Generated_Source\PSoC5/IDAC8_2.c ****     }
 156:.\Generated_Source\PSoC5/IDAC8_2.c ****    
 157:.\Generated_Source\PSoC5/IDAC8_2.c ****     /* Enable power to DAC */
 158:.\Generated_Source\PSoC5/IDAC8_2.c ****     IDAC8_2_Enable();
 154              		.loc 1 158 0
 155 0016 FFF7FEFF 		bl	IDAC8_2_Enable
 159:.\Generated_Source\PSoC5/IDAC8_2.c **** 
 160:.\Generated_Source\PSoC5/IDAC8_2.c ****     /* Set default value */
 161:.\Generated_Source\PSoC5/IDAC8_2.c ****     IDAC8_2_SetValue(IDAC8_2_DEFAULT_DATA);
 156              		.loc 1 161 0
 157 001a 7820     		movs	r0, #120
 158 001c FFF7FEFF 		bl	IDAC8_2_SetValue
 162:.\Generated_Source\PSoC5/IDAC8_2.c **** 
 163:.\Generated_Source\PSoC5/IDAC8_2.c **** }
 159              		.loc 1 163 0
 160 0020 80BD     		pop	{r7, pc}
 161              	.L10:
 162 0022 00BF     		.align	2
 163              	.L9:
 164 0024 00000000 		.word	IDAC8_2_initVar
 165              		.cfi_endproc
 166              	.LFE2:
 167              		.size	IDAC8_2_Start, .-IDAC8_2_Start
 168              		.section	.text.IDAC8_2_Stop,"ax",%progbits
 169              		.align	2
 170              		.global	IDAC8_2_Stop
 171              		.thumb
 172              		.thumb_func
 173              		.type	IDAC8_2_Stop, %function
 174              	IDAC8_2_Stop:
 175              	.LFB3:
 164:.\Generated_Source\PSoC5/IDAC8_2.c **** 
 165:.\Generated_Source\PSoC5/IDAC8_2.c **** 
 166:.\Generated_Source\PSoC5/IDAC8_2.c **** /*******************************************************************************
 167:.\Generated_Source\PSoC5/IDAC8_2.c **** * Function Name: IDAC8_2_Stop
ARM GAS  C:\Users\glenn\AppData\Local\Temp\cc2nihb2.s 			page 7


 168:.\Generated_Source\PSoC5/IDAC8_2.c **** ********************************************************************************
 169:.\Generated_Source\PSoC5/IDAC8_2.c **** * Summary:
 170:.\Generated_Source\PSoC5/IDAC8_2.c **** *  Powers down IDAC8 to lowest power state.
 171:.\Generated_Source\PSoC5/IDAC8_2.c **** *
 172:.\Generated_Source\PSoC5/IDAC8_2.c **** * Parameters:
 173:.\Generated_Source\PSoC5/IDAC8_2.c **** *  (void)
 174:.\Generated_Source\PSoC5/IDAC8_2.c **** *
 175:.\Generated_Source\PSoC5/IDAC8_2.c **** * Return:
 176:.\Generated_Source\PSoC5/IDAC8_2.c **** *  (void)
 177:.\Generated_Source\PSoC5/IDAC8_2.c **** *
 178:.\Generated_Source\PSoC5/IDAC8_2.c **** * Theory:
 179:.\Generated_Source\PSoC5/IDAC8_2.c **** *
 180:.\Generated_Source\PSoC5/IDAC8_2.c **** * Side Effects:
 181:.\Generated_Source\PSoC5/IDAC8_2.c **** *
 182:.\Generated_Source\PSoC5/IDAC8_2.c **** *******************************************************************************/
 183:.\Generated_Source\PSoC5/IDAC8_2.c **** void IDAC8_2_Stop(void) 
 184:.\Generated_Source\PSoC5/IDAC8_2.c **** {
 176              		.loc 1 184 0
 177              		.cfi_startproc
 178              		@ args = 0, pretend = 0, frame = 0
 179              		@ frame_needed = 1, uses_anonymous_args = 0
 180              		@ link register save eliminated.
 181 0000 80B4     		push	{r7}
 182              		.cfi_def_cfa_offset 4
 183              		.cfi_offset 7, -4
 184 0002 00AF     		add	r7, sp, #0
 185              		.cfi_def_cfa_register 7
 185:.\Generated_Source\PSoC5/IDAC8_2.c ****     /* Disble power to DAC */
 186:.\Generated_Source\PSoC5/IDAC8_2.c ****     IDAC8_2_PWRMGR &= (uint8)(~IDAC8_2_ACT_PWR_EN);
 186              		.loc 1 186 0
 187 0004 094A     		ldr	r2, .L12
 188 0006 094B     		ldr	r3, .L12
 189 0008 1B78     		ldrb	r3, [r3]
 190 000a DBB2     		uxtb	r3, r3
 191 000c 23F00403 		bic	r3, r3, #4
 192 0010 DBB2     		uxtb	r3, r3
 193 0012 1370     		strb	r3, [r2]
 187:.\Generated_Source\PSoC5/IDAC8_2.c ****     IDAC8_2_STBY_PWRMGR &= (uint8)(~IDAC8_2_STBY_PWR_EN);
 194              		.loc 1 187 0
 195 0014 064A     		ldr	r2, .L12+4
 196 0016 064B     		ldr	r3, .L12+4
 197 0018 1B78     		ldrb	r3, [r3]
 198 001a DBB2     		uxtb	r3, r3
 199 001c 23F00403 		bic	r3, r3, #4
 200 0020 DBB2     		uxtb	r3, r3
 201 0022 1370     		strb	r3, [r2]
 188:.\Generated_Source\PSoC5/IDAC8_2.c ****     
 189:.\Generated_Source\PSoC5/IDAC8_2.c ****     #if (CY_PSOC5A)
 190:.\Generated_Source\PSoC5/IDAC8_2.c ****     
 191:.\Generated_Source\PSoC5/IDAC8_2.c ****         /* Set the global variable  */
 192:.\Generated_Source\PSoC5/IDAC8_2.c ****         IDAC8_2_restoreReg = 1u;
 193:.\Generated_Source\PSoC5/IDAC8_2.c **** 
 194:.\Generated_Source\PSoC5/IDAC8_2.c ****         /* Save the control register and then Clear it. */
 195:.\Generated_Source\PSoC5/IDAC8_2.c ****         IDAC8_2_lowPowerBackup.DACCR0Reg = IDAC8_2_CR0;
 196:.\Generated_Source\PSoC5/IDAC8_2.c ****         IDAC8_2_CR0 = (IDAC8_2_MODE_I | IDAC8_2_RANGE_3 | IDAC8_2_HS_HIGHSPEED);
 197:.\Generated_Source\PSoC5/IDAC8_2.c ****     #endif /* CY_PSOC5A */
 198:.\Generated_Source\PSoC5/IDAC8_2.c **** }
ARM GAS  C:\Users\glenn\AppData\Local\Temp\cc2nihb2.s 			page 8


 202              		.loc 1 198 0
 203 0024 BD46     		mov	sp, r7
 204              		.cfi_def_cfa_register 13
 205              		@ sp needed
 206 0026 5DF8047B 		ldr	r7, [sp], #4
 207              		.cfi_restore 7
 208              		.cfi_def_cfa_offset 0
 209 002a 7047     		bx	lr
 210              	.L13:
 211              		.align	2
 212              	.L12:
 213 002c A8430040 		.word	1073759144
 214 0030 B8430040 		.word	1073759160
 215              		.cfi_endproc
 216              	.LFE3:
 217              		.size	IDAC8_2_Stop, .-IDAC8_2_Stop
 218              		.section	.text.IDAC8_2_SetSpeed,"ax",%progbits
 219              		.align	2
 220              		.global	IDAC8_2_SetSpeed
 221              		.thumb
 222              		.thumb_func
 223              		.type	IDAC8_2_SetSpeed, %function
 224              	IDAC8_2_SetSpeed:
 225              	.LFB4:
 199:.\Generated_Source\PSoC5/IDAC8_2.c **** 
 200:.\Generated_Source\PSoC5/IDAC8_2.c **** 
 201:.\Generated_Source\PSoC5/IDAC8_2.c **** /*******************************************************************************
 202:.\Generated_Source\PSoC5/IDAC8_2.c **** * Function Name: IDAC8_2_SetSpeed
 203:.\Generated_Source\PSoC5/IDAC8_2.c **** ********************************************************************************
 204:.\Generated_Source\PSoC5/IDAC8_2.c **** * Summary:
 205:.\Generated_Source\PSoC5/IDAC8_2.c **** *  Set DAC speed
 206:.\Generated_Source\PSoC5/IDAC8_2.c **** *
 207:.\Generated_Source\PSoC5/IDAC8_2.c **** * Parameters:
 208:.\Generated_Source\PSoC5/IDAC8_2.c **** *  power: Sets speed value
 209:.\Generated_Source\PSoC5/IDAC8_2.c **** *
 210:.\Generated_Source\PSoC5/IDAC8_2.c **** * Return:
 211:.\Generated_Source\PSoC5/IDAC8_2.c **** *  (void)
 212:.\Generated_Source\PSoC5/IDAC8_2.c **** *
 213:.\Generated_Source\PSoC5/IDAC8_2.c **** * Theory:
 214:.\Generated_Source\PSoC5/IDAC8_2.c **** *
 215:.\Generated_Source\PSoC5/IDAC8_2.c **** * Side Effects:
 216:.\Generated_Source\PSoC5/IDAC8_2.c **** *
 217:.\Generated_Source\PSoC5/IDAC8_2.c **** *******************************************************************************/
 218:.\Generated_Source\PSoC5/IDAC8_2.c **** void IDAC8_2_SetSpeed(uint8 speed) 
 219:.\Generated_Source\PSoC5/IDAC8_2.c **** {
 226              		.loc 1 219 0
 227              		.cfi_startproc
 228              		@ args = 0, pretend = 0, frame = 8
 229              		@ frame_needed = 1, uses_anonymous_args = 0
 230              		@ link register save eliminated.
 231 0000 80B4     		push	{r7}
 232              		.cfi_def_cfa_offset 4
 233              		.cfi_offset 7, -4
 234 0002 83B0     		sub	sp, sp, #12
 235              		.cfi_def_cfa_offset 16
 236 0004 00AF     		add	r7, sp, #0
 237              		.cfi_def_cfa_register 7
ARM GAS  C:\Users\glenn\AppData\Local\Temp\cc2nihb2.s 			page 9


 238 0006 0346     		mov	r3, r0
 239 0008 FB71     		strb	r3, [r7, #7]
 220:.\Generated_Source\PSoC5/IDAC8_2.c ****     /* Clear power mask then write in new value */
 221:.\Generated_Source\PSoC5/IDAC8_2.c ****     IDAC8_2_CR0 &= (uint8)(~IDAC8_2_HS_MASK);
 240              		.loc 1 221 0
 241 000a 0C4A     		ldr	r2, .L15
 242 000c 0B4B     		ldr	r3, .L15
 243 000e 1B78     		ldrb	r3, [r3]
 244 0010 DBB2     		uxtb	r3, r3
 245 0012 23F00203 		bic	r3, r3, #2
 246 0016 DBB2     		uxtb	r3, r3
 247 0018 1370     		strb	r3, [r2]
 222:.\Generated_Source\PSoC5/IDAC8_2.c ****     IDAC8_2_CR0 |=  ( speed & IDAC8_2_HS_MASK);
 248              		.loc 1 222 0
 249 001a 0849     		ldr	r1, .L15
 250 001c 074B     		ldr	r3, .L15
 251 001e 1B78     		ldrb	r3, [r3]
 252 0020 DAB2     		uxtb	r2, r3
 253 0022 FB79     		ldrb	r3, [r7, #7]
 254 0024 03F00203 		and	r3, r3, #2
 255 0028 DBB2     		uxtb	r3, r3
 256 002a 1343     		orrs	r3, r3, r2
 257 002c DBB2     		uxtb	r3, r3
 258 002e 0B70     		strb	r3, [r1]
 223:.\Generated_Source\PSoC5/IDAC8_2.c **** }
 259              		.loc 1 223 0
 260 0030 0C37     		adds	r7, r7, #12
 261              		.cfi_def_cfa_offset 4
 262 0032 BD46     		mov	sp, r7
 263              		.cfi_def_cfa_register 13
 264              		@ sp needed
 265 0034 5DF8047B 		ldr	r7, [sp], #4
 266              		.cfi_restore 7
 267              		.cfi_def_cfa_offset 0
 268 0038 7047     		bx	lr
 269              	.L16:
 270 003a 00BF     		.align	2
 271              	.L15:
 272 003c 28580040 		.word	1073764392
 273              		.cfi_endproc
 274              	.LFE4:
 275              		.size	IDAC8_2_SetSpeed, .-IDAC8_2_SetSpeed
 276              		.section	.text.IDAC8_2_SetPolarity,"ax",%progbits
 277              		.align	2
 278              		.global	IDAC8_2_SetPolarity
 279              		.thumb
 280              		.thumb_func
 281              		.type	IDAC8_2_SetPolarity, %function
 282              	IDAC8_2_SetPolarity:
 283              	.LFB5:
 224:.\Generated_Source\PSoC5/IDAC8_2.c **** 
 225:.\Generated_Source\PSoC5/IDAC8_2.c **** 
 226:.\Generated_Source\PSoC5/IDAC8_2.c **** /*******************************************************************************
 227:.\Generated_Source\PSoC5/IDAC8_2.c **** * Function Name: IDAC8_2_SetPolarity
 228:.\Generated_Source\PSoC5/IDAC8_2.c **** ********************************************************************************
 229:.\Generated_Source\PSoC5/IDAC8_2.c **** * Summary:
 230:.\Generated_Source\PSoC5/IDAC8_2.c **** *  Sets IDAC to Sink or Source current.
ARM GAS  C:\Users\glenn\AppData\Local\Temp\cc2nihb2.s 			page 10


 231:.\Generated_Source\PSoC5/IDAC8_2.c **** *  
 232:.\Generated_Source\PSoC5/IDAC8_2.c **** * Parameters:
 233:.\Generated_Source\PSoC5/IDAC8_2.c **** *  Polarity: Sets the IDAC to Sink or Source 
 234:.\Generated_Source\PSoC5/IDAC8_2.c **** *  0x00 - Source
 235:.\Generated_Source\PSoC5/IDAC8_2.c **** *  0x04 - Sink
 236:.\Generated_Source\PSoC5/IDAC8_2.c **** *
 237:.\Generated_Source\PSoC5/IDAC8_2.c **** * Return:
 238:.\Generated_Source\PSoC5/IDAC8_2.c **** *  (void)
 239:.\Generated_Source\PSoC5/IDAC8_2.c **** *
 240:.\Generated_Source\PSoC5/IDAC8_2.c **** * Theory:
 241:.\Generated_Source\PSoC5/IDAC8_2.c **** *
 242:.\Generated_Source\PSoC5/IDAC8_2.c **** * Side Effects:
 243:.\Generated_Source\PSoC5/IDAC8_2.c **** *
 244:.\Generated_Source\PSoC5/IDAC8_2.c **** *******************************************************************************/
 245:.\Generated_Source\PSoC5/IDAC8_2.c **** #if(IDAC8_2_DEFAULT_POLARITY != IDAC8_2_HARDWARE_CONTROLLED)
 246:.\Generated_Source\PSoC5/IDAC8_2.c ****     void IDAC8_2_SetPolarity(uint8 polarity) 
 247:.\Generated_Source\PSoC5/IDAC8_2.c ****     {
 284              		.loc 1 247 0
 285              		.cfi_startproc
 286              		@ args = 0, pretend = 0, frame = 8
 287              		@ frame_needed = 1, uses_anonymous_args = 0
 288 0000 80B5     		push	{r7, lr}
 289              		.cfi_def_cfa_offset 8
 290              		.cfi_offset 7, -8
 291              		.cfi_offset 14, -4
 292 0002 82B0     		sub	sp, sp, #8
 293              		.cfi_def_cfa_offset 16
 294 0004 00AF     		add	r7, sp, #0
 295              		.cfi_def_cfa_register 7
 296 0006 0346     		mov	r3, r0
 297 0008 FB71     		strb	r3, [r7, #7]
 248:.\Generated_Source\PSoC5/IDAC8_2.c ****         IDAC8_2_CR1 &= (uint8)(~IDAC8_2_IDIR_MASK);                /* clear polarity bit */
 298              		.loc 1 248 0
 299 000a 0C4A     		ldr	r2, .L18
 300 000c 0B4B     		ldr	r3, .L18
 301 000e 1B78     		ldrb	r3, [r3]
 302 0010 DBB2     		uxtb	r3, r3
 303 0012 23F00403 		bic	r3, r3, #4
 304 0016 DBB2     		uxtb	r3, r3
 305 0018 1370     		strb	r3, [r2]
 249:.\Generated_Source\PSoC5/IDAC8_2.c ****         IDAC8_2_CR1 |= (polarity & IDAC8_2_IDIR_MASK);             /* set new value */
 306              		.loc 1 249 0
 307 001a 0849     		ldr	r1, .L18
 308 001c 074B     		ldr	r3, .L18
 309 001e 1B78     		ldrb	r3, [r3]
 310 0020 DAB2     		uxtb	r2, r3
 311 0022 FB79     		ldrb	r3, [r7, #7]
 312 0024 03F00403 		and	r3, r3, #4
 313 0028 DBB2     		uxtb	r3, r3
 314 002a 1343     		orrs	r3, r3, r2
 315 002c DBB2     		uxtb	r3, r3
 316 002e 0B70     		strb	r3, [r1]
 250:.\Generated_Source\PSoC5/IDAC8_2.c ****     
 251:.\Generated_Source\PSoC5/IDAC8_2.c ****         IDAC8_2_DacTrim();
 317              		.loc 1 251 0
 318 0030 FFF7FEFF 		bl	IDAC8_2_DacTrim
 252:.\Generated_Source\PSoC5/IDAC8_2.c ****     }
ARM GAS  C:\Users\glenn\AppData\Local\Temp\cc2nihb2.s 			page 11


 319              		.loc 1 252 0
 320 0034 0837     		adds	r7, r7, #8
 321              		.cfi_def_cfa_offset 8
 322 0036 BD46     		mov	sp, r7
 323              		.cfi_def_cfa_register 13
 324              		@ sp needed
 325 0038 80BD     		pop	{r7, pc}
 326              	.L19:
 327 003a 00BF     		.align	2
 328              	.L18:
 329 003c 29580040 		.word	1073764393
 330              		.cfi_endproc
 331              	.LFE5:
 332              		.size	IDAC8_2_SetPolarity, .-IDAC8_2_SetPolarity
 333              		.section	.text.IDAC8_2_SetRange,"ax",%progbits
 334              		.align	2
 335              		.global	IDAC8_2_SetRange
 336              		.thumb
 337              		.thumb_func
 338              		.type	IDAC8_2_SetRange, %function
 339              	IDAC8_2_SetRange:
 340              	.LFB6:
 253:.\Generated_Source\PSoC5/IDAC8_2.c **** #endif/*(IDAC8_2_DEFAULT_POLARITY != IDAC8_2_HARDWARE_CONTROLLED)*/
 254:.\Generated_Source\PSoC5/IDAC8_2.c **** 
 255:.\Generated_Source\PSoC5/IDAC8_2.c **** 
 256:.\Generated_Source\PSoC5/IDAC8_2.c **** /*******************************************************************************
 257:.\Generated_Source\PSoC5/IDAC8_2.c **** * Function Name: IDAC8_2_SetRange
 258:.\Generated_Source\PSoC5/IDAC8_2.c **** ********************************************************************************
 259:.\Generated_Source\PSoC5/IDAC8_2.c **** * Summary:
 260:.\Generated_Source\PSoC5/IDAC8_2.c **** *  Set current range
 261:.\Generated_Source\PSoC5/IDAC8_2.c **** *
 262:.\Generated_Source\PSoC5/IDAC8_2.c **** * Parameters:
 263:.\Generated_Source\PSoC5/IDAC8_2.c **** *  Range: Sets on of four valid ranges.
 264:.\Generated_Source\PSoC5/IDAC8_2.c **** *
 265:.\Generated_Source\PSoC5/IDAC8_2.c **** * Return:
 266:.\Generated_Source\PSoC5/IDAC8_2.c **** *  (void)
 267:.\Generated_Source\PSoC5/IDAC8_2.c **** *
 268:.\Generated_Source\PSoC5/IDAC8_2.c **** * Theory:
 269:.\Generated_Source\PSoC5/IDAC8_2.c **** *
 270:.\Generated_Source\PSoC5/IDAC8_2.c **** * Side Effects:
 271:.\Generated_Source\PSoC5/IDAC8_2.c **** *
 272:.\Generated_Source\PSoC5/IDAC8_2.c **** *******************************************************************************/
 273:.\Generated_Source\PSoC5/IDAC8_2.c **** void IDAC8_2_SetRange(uint8 range) 
 274:.\Generated_Source\PSoC5/IDAC8_2.c **** {
 341              		.loc 1 274 0
 342              		.cfi_startproc
 343              		@ args = 0, pretend = 0, frame = 8
 344              		@ frame_needed = 1, uses_anonymous_args = 0
 345 0000 80B5     		push	{r7, lr}
 346              		.cfi_def_cfa_offset 8
 347              		.cfi_offset 7, -8
 348              		.cfi_offset 14, -4
 349 0002 82B0     		sub	sp, sp, #8
 350              		.cfi_def_cfa_offset 16
 351 0004 00AF     		add	r7, sp, #0
 352              		.cfi_def_cfa_register 7
 353 0006 0346     		mov	r3, r0
ARM GAS  C:\Users\glenn\AppData\Local\Temp\cc2nihb2.s 			page 12


 354 0008 FB71     		strb	r3, [r7, #7]
 275:.\Generated_Source\PSoC5/IDAC8_2.c ****     IDAC8_2_CR0 &= (uint8)(~IDAC8_2_RANGE_MASK);       /* Clear existing mode */
 355              		.loc 1 275 0
 356 000a 0C4A     		ldr	r2, .L21
 357 000c 0B4B     		ldr	r3, .L21
 358 000e 1B78     		ldrb	r3, [r3]
 359 0010 DBB2     		uxtb	r3, r3
 360 0012 23F00C03 		bic	r3, r3, #12
 361 0016 DBB2     		uxtb	r3, r3
 362 0018 1370     		strb	r3, [r2]
 276:.\Generated_Source\PSoC5/IDAC8_2.c ****     IDAC8_2_CR0 |= ( range & IDAC8_2_RANGE_MASK );     /*  Set Range  */
 363              		.loc 1 276 0
 364 001a 0849     		ldr	r1, .L21
 365 001c 074B     		ldr	r3, .L21
 366 001e 1B78     		ldrb	r3, [r3]
 367 0020 DAB2     		uxtb	r2, r3
 368 0022 FB79     		ldrb	r3, [r7, #7]
 369 0024 03F00C03 		and	r3, r3, #12
 370 0028 DBB2     		uxtb	r3, r3
 371 002a 1343     		orrs	r3, r3, r2
 372 002c DBB2     		uxtb	r3, r3
 373 002e 0B70     		strb	r3, [r1]
 277:.\Generated_Source\PSoC5/IDAC8_2.c ****     IDAC8_2_DacTrim();
 374              		.loc 1 277 0
 375 0030 FFF7FEFF 		bl	IDAC8_2_DacTrim
 278:.\Generated_Source\PSoC5/IDAC8_2.c **** }
 376              		.loc 1 278 0
 377 0034 0837     		adds	r7, r7, #8
 378              		.cfi_def_cfa_offset 8
 379 0036 BD46     		mov	sp, r7
 380              		.cfi_def_cfa_register 13
 381              		@ sp needed
 382 0038 80BD     		pop	{r7, pc}
 383              	.L22:
 384 003a 00BF     		.align	2
 385              	.L21:
 386 003c 28580040 		.word	1073764392
 387              		.cfi_endproc
 388              	.LFE6:
 389              		.size	IDAC8_2_SetRange, .-IDAC8_2_SetRange
 390              		.section	.text.IDAC8_2_SetValue,"ax",%progbits
 391              		.align	2
 392              		.global	IDAC8_2_SetValue
 393              		.thumb
 394              		.thumb_func
 395              		.type	IDAC8_2_SetValue, %function
 396              	IDAC8_2_SetValue:
 397              	.LFB7:
 279:.\Generated_Source\PSoC5/IDAC8_2.c **** 
 280:.\Generated_Source\PSoC5/IDAC8_2.c **** 
 281:.\Generated_Source\PSoC5/IDAC8_2.c **** /*******************************************************************************
 282:.\Generated_Source\PSoC5/IDAC8_2.c **** * Function Name: IDAC8_2_SetValue
 283:.\Generated_Source\PSoC5/IDAC8_2.c **** ********************************************************************************
 284:.\Generated_Source\PSoC5/IDAC8_2.c **** * Summary:
 285:.\Generated_Source\PSoC5/IDAC8_2.c **** *  Set DAC value
 286:.\Generated_Source\PSoC5/IDAC8_2.c **** *
 287:.\Generated_Source\PSoC5/IDAC8_2.c **** * Parameters:
ARM GAS  C:\Users\glenn\AppData\Local\Temp\cc2nihb2.s 			page 13


 288:.\Generated_Source\PSoC5/IDAC8_2.c **** *  value: Sets DAC value between 0 and 255.
 289:.\Generated_Source\PSoC5/IDAC8_2.c **** *
 290:.\Generated_Source\PSoC5/IDAC8_2.c **** * Return:
 291:.\Generated_Source\PSoC5/IDAC8_2.c **** *  (void)
 292:.\Generated_Source\PSoC5/IDAC8_2.c **** *
 293:.\Generated_Source\PSoC5/IDAC8_2.c **** * Theory:
 294:.\Generated_Source\PSoC5/IDAC8_2.c **** *
 295:.\Generated_Source\PSoC5/IDAC8_2.c **** * Side Effects:
 296:.\Generated_Source\PSoC5/IDAC8_2.c **** *
 297:.\Generated_Source\PSoC5/IDAC8_2.c **** *******************************************************************************/
 298:.\Generated_Source\PSoC5/IDAC8_2.c **** void IDAC8_2_SetValue(uint8 value) 
 299:.\Generated_Source\PSoC5/IDAC8_2.c **** {
 398              		.loc 1 299 0
 399              		.cfi_startproc
 400              		@ args = 0, pretend = 0, frame = 8
 401              		@ frame_needed = 1, uses_anonymous_args = 0
 402              		@ link register save eliminated.
 403 0000 80B4     		push	{r7}
 404              		.cfi_def_cfa_offset 4
 405              		.cfi_offset 7, -4
 406 0002 83B0     		sub	sp, sp, #12
 407              		.cfi_def_cfa_offset 16
 408 0004 00AF     		add	r7, sp, #0
 409              		.cfi_def_cfa_register 7
 410 0006 0346     		mov	r3, r0
 411 0008 FB71     		strb	r3, [r7, #7]
 300:.\Generated_Source\PSoC5/IDAC8_2.c **** 
 301:.\Generated_Source\PSoC5/IDAC8_2.c ****     #if (CY_PSOC5A)
 302:.\Generated_Source\PSoC5/IDAC8_2.c ****         uint8 IDAC8_2_intrStatus = CyEnterCriticalSection();
 303:.\Generated_Source\PSoC5/IDAC8_2.c ****     #endif /* CY_PSOC5A */
 304:.\Generated_Source\PSoC5/IDAC8_2.c **** 
 305:.\Generated_Source\PSoC5/IDAC8_2.c ****     IDAC8_2_Data = value;         /*  Set Value  */
 412              		.loc 1 305 0
 413 000a 044A     		ldr	r2, .L24
 414 000c FB79     		ldrb	r3, [r7, #7]
 415 000e 1370     		strb	r3, [r2]
 306:.\Generated_Source\PSoC5/IDAC8_2.c ****     
 307:.\Generated_Source\PSoC5/IDAC8_2.c ****     /* PSOC5A silicons require a double write */
 308:.\Generated_Source\PSoC5/IDAC8_2.c ****     #if (CY_PSOC5A)
 309:.\Generated_Source\PSoC5/IDAC8_2.c ****         IDAC8_2_Data = value;
 310:.\Generated_Source\PSoC5/IDAC8_2.c ****         CyExitCriticalSection(IDAC8_2_intrStatus);
 311:.\Generated_Source\PSoC5/IDAC8_2.c ****     #endif /* CY_PSOC5A */
 312:.\Generated_Source\PSoC5/IDAC8_2.c **** }
 416              		.loc 1 312 0
 417 0010 0C37     		adds	r7, r7, #12
 418              		.cfi_def_cfa_offset 4
 419 0012 BD46     		mov	sp, r7
 420              		.cfi_def_cfa_register 13
 421              		@ sp needed
 422 0014 5DF8047B 		ldr	r7, [sp], #4
 423              		.cfi_restore 7
 424              		.cfi_def_cfa_offset 0
 425 0018 7047     		bx	lr
 426              	.L25:
 427 001a 00BF     		.align	2
 428              	.L24:
 429 001c 825B0040 		.word	1073765250
ARM GAS  C:\Users\glenn\AppData\Local\Temp\cc2nihb2.s 			page 14


 430              		.cfi_endproc
 431              	.LFE7:
 432              		.size	IDAC8_2_SetValue, .-IDAC8_2_SetValue
 433              		.section	.text.IDAC8_2_DacTrim,"ax",%progbits
 434              		.align	2
 435              		.global	IDAC8_2_DacTrim
 436              		.thumb
 437              		.thumb_func
 438              		.type	IDAC8_2_DacTrim, %function
 439              	IDAC8_2_DacTrim:
 440              	.LFB8:
 313:.\Generated_Source\PSoC5/IDAC8_2.c **** 
 314:.\Generated_Source\PSoC5/IDAC8_2.c **** 
 315:.\Generated_Source\PSoC5/IDAC8_2.c **** /*******************************************************************************
 316:.\Generated_Source\PSoC5/IDAC8_2.c **** * Function Name: IDAC8_2_DacTrim
 317:.\Generated_Source\PSoC5/IDAC8_2.c **** ********************************************************************************
 318:.\Generated_Source\PSoC5/IDAC8_2.c **** * Summary:
 319:.\Generated_Source\PSoC5/IDAC8_2.c **** *  Set the trim value for the given range.
 320:.\Generated_Source\PSoC5/IDAC8_2.c **** *
 321:.\Generated_Source\PSoC5/IDAC8_2.c **** * Parameters:
 322:.\Generated_Source\PSoC5/IDAC8_2.c **** *  None
 323:.\Generated_Source\PSoC5/IDAC8_2.c **** *
 324:.\Generated_Source\PSoC5/IDAC8_2.c **** * Return:
 325:.\Generated_Source\PSoC5/IDAC8_2.c **** *  (void) 
 326:.\Generated_Source\PSoC5/IDAC8_2.c **** *
 327:.\Generated_Source\PSoC5/IDAC8_2.c **** * Theory:
 328:.\Generated_Source\PSoC5/IDAC8_2.c **** *  Trim values for the IDAC blocks are stored in the "Customer Table" area in 
 329:.\Generated_Source\PSoC5/IDAC8_2.c **** *  Row 1 of the Hidden Flash.  There are 8 bytes of trim data for each 
 330:.\Generated_Source\PSoC5/IDAC8_2.c **** *  IDAC block.
 331:.\Generated_Source\PSoC5/IDAC8_2.c **** *  The values are:
 332:.\Generated_Source\PSoC5/IDAC8_2.c **** *       I Gain offset, min range, Sourcing
 333:.\Generated_Source\PSoC5/IDAC8_2.c **** *       I Gain offset, min range, Sinking
 334:.\Generated_Source\PSoC5/IDAC8_2.c **** *       I Gain offset, med range, Sourcing
 335:.\Generated_Source\PSoC5/IDAC8_2.c **** *       I Gain offset, med range, Sinking
 336:.\Generated_Source\PSoC5/IDAC8_2.c **** *       I Gain offset, max range, Sourcing
 337:.\Generated_Source\PSoC5/IDAC8_2.c **** *       I Gain offset, max range, Sinking
 338:.\Generated_Source\PSoC5/IDAC8_2.c **** *       V Gain offset, 1V range
 339:.\Generated_Source\PSoC5/IDAC8_2.c **** *       V Gain offset, 4V range
 340:.\Generated_Source\PSoC5/IDAC8_2.c **** *
 341:.\Generated_Source\PSoC5/IDAC8_2.c **** * Side Effects:
 342:.\Generated_Source\PSoC5/IDAC8_2.c **** *
 343:.\Generated_Source\PSoC5/IDAC8_2.c **** *******************************************************************************/
 344:.\Generated_Source\PSoC5/IDAC8_2.c **** void IDAC8_2_DacTrim(void) 
 345:.\Generated_Source\PSoC5/IDAC8_2.c **** {
 441              		.loc 1 345 0
 442              		.cfi_startproc
 443              		@ args = 0, pretend = 0, frame = 8
 444              		@ frame_needed = 1, uses_anonymous_args = 0
 445              		@ link register save eliminated.
 446 0000 80B4     		push	{r7}
 447              		.cfi_def_cfa_offset 4
 448              		.cfi_offset 7, -4
 449 0002 83B0     		sub	sp, sp, #12
 450              		.cfi_def_cfa_offset 16
 451 0004 00AF     		add	r7, sp, #0
 452              		.cfi_def_cfa_register 7
 346:.\Generated_Source\PSoC5/IDAC8_2.c ****     uint8 mode;
ARM GAS  C:\Users\glenn\AppData\Local\Temp\cc2nihb2.s 			page 15


 347:.\Generated_Source\PSoC5/IDAC8_2.c **** 
 348:.\Generated_Source\PSoC5/IDAC8_2.c ****     mode = ((IDAC8_2_CR0 & IDAC8_2_RANGE_MASK) >> 1u);
 453              		.loc 1 348 0
 454 0006 104B     		ldr	r3, .L28
 455 0008 1B78     		ldrb	r3, [r3]
 456 000a DBB2     		uxtb	r3, r3
 457 000c 03F00C03 		and	r3, r3, #12
 458 0010 5B08     		lsrs	r3, r3, #1
 459 0012 FB71     		strb	r3, [r7, #7]
 349:.\Generated_Source\PSoC5/IDAC8_2.c ****     
 350:.\Generated_Source\PSoC5/IDAC8_2.c ****     if((IDAC8_2_IDIR_MASK & IDAC8_2_CR1) == IDAC8_2_IDIR_SINK)
 460              		.loc 1 350 0
 461 0014 0D4B     		ldr	r3, .L28+4
 462 0016 1B78     		ldrb	r3, [r3]
 463 0018 DBB2     		uxtb	r3, r3
 464 001a 03F00403 		and	r3, r3, #4
 465 001e DBB2     		uxtb	r3, r3
 466 0020 002B     		cmp	r3, #0
 467 0022 02D0     		beq	.L27
 351:.\Generated_Source\PSoC5/IDAC8_2.c ****     {
 352:.\Generated_Source\PSoC5/IDAC8_2.c ****         mode++;
 468              		.loc 1 352 0
 469 0024 FB79     		ldrb	r3, [r7, #7]	@ zero_extendqisi2
 470 0026 0133     		adds	r3, r3, #1
 471 0028 FB71     		strb	r3, [r7, #7]
 472              	.L27:
 353:.\Generated_Source\PSoC5/IDAC8_2.c ****     }
 354:.\Generated_Source\PSoC5/IDAC8_2.c **** 
 355:.\Generated_Source\PSoC5/IDAC8_2.c ****     IDAC8_2_TR = CY_GET_XTND_REG8((uint8 *)(IDAC8_2_DAC_TRIM_BASE + mode));
 473              		.loc 1 355 0
 474 002a 094A     		ldr	r2, .L28+8
 475 002c FB79     		ldrb	r3, [r7, #7]	@ zero_extendqisi2
 476 002e 03F19243 		add	r3, r3, #1224736768
 477 0032 03F59473 		add	r3, r3, #296
 478 0036 1B78     		ldrb	r3, [r3]
 479 0038 DBB2     		uxtb	r3, r3
 480 003a 1370     		strb	r3, [r2]
 356:.\Generated_Source\PSoC5/IDAC8_2.c **** }
 481              		.loc 1 356 0
 482 003c 0C37     		adds	r7, r7, #12
 483              		.cfi_def_cfa_offset 4
 484 003e BD46     		mov	sp, r7
 485              		.cfi_def_cfa_register 13
 486              		@ sp needed
 487 0040 5DF8047B 		ldr	r7, [sp], #4
 488              		.cfi_restore 7
 489              		.cfi_def_cfa_offset 0
 490 0044 7047     		bx	lr
 491              	.L29:
 492 0046 00BF     		.align	2
 493              	.L28:
 494 0048 28580040 		.word	1073764392
 495 004c 29580040 		.word	1073764393
 496 0050 0A460040 		.word	1073759754
 497              		.cfi_endproc
 498              	.LFE8:
 499              		.size	IDAC8_2_DacTrim, .-IDAC8_2_DacTrim
ARM GAS  C:\Users\glenn\AppData\Local\Temp\cc2nihb2.s 			page 16


 500              		.text
 501              	.Letext0:
 502              		.file 2 ".\\Generated_Source\\PSoC5\\cytypes.h"