ARM GAS  C:\Users\Glenn\AppData\Local\Temp\ccPIOeip.s 			page 1


   1              		.syntax unified
   2              		.cpu cortex-m3
   3              		.fpu softvfp
   4              		.eabi_attribute 20, 1
   5              		.eabi_attribute 21, 1
   6              		.eabi_attribute 23, 3
   7              		.eabi_attribute 24, 1
   8              		.eabi_attribute 25, 1
   9              		.eabi_attribute 26, 1
  10              		.eabi_attribute 30, 6
  11              		.eabi_attribute 34, 1
  12              		.eabi_attribute 18, 4
  13              		.thumb
  14              		.file	"modbus_slave.c"
  15              		.text
  16              	.Ltext0:
  17              		.cfi_sections	.debug_frame
  18              		.section	.text.initialize_modbus_slave,"ax",%progbits
  19              		.align	2
  20              		.global	initialize_modbus_slave
  21              		.thumb
  22              		.thumb_func
  23              		.type	initialize_modbus_slave, %function
  24              	initialize_modbus_slave:
  25              	.LFB63:
  26              		.file 1 ".\\modbus_slave.c"
   1:.\modbus_slave.c **** /* ========================================
   2:.\modbus_slave.c ****  *
   3:.\modbus_slave.c ****  * Copyright YOUR COMPANY, THE YEAR
   4:.\modbus_slave.c ****  * All Rights Reserved
   5:.\modbus_slave.c ****  * UNPUBLISHED, LICENSED SOFTWARE.
   6:.\modbus_slave.c ****  *
   7:.\modbus_slave.c ****  * CONFIDENTIAL AND PROPRIETARY INFORMATION
   8:.\modbus_slave.c ****  * WHICH IS THE PROPERTY OF your company.
   9:.\modbus_slave.c ****  *
  10:.\modbus_slave.c ****  * ========================================
  11:.\modbus_slave.c **** */
  12:.\modbus_slave.c **** #include "device.h"
  13:.\modbus_slave.c **** #include <stdlib.h>
  14:.\modbus_slave.c **** #include "modbus_slave.h"
  15:.\modbus_slave.c **** 
  16:.\modbus_slave.c **** void initialize_modbus_slave( void )
  17:.\modbus_slave.c **** {
  27              		.loc 1 17 0
  28              		.cfi_startproc
  29              		@ args = 0, pretend = 0, frame = 0
  30              		@ frame_needed = 1, uses_anonymous_args = 0
  31              		@ link register save eliminated.
  32 0000 80B4     		push	{r7}
  33              		.cfi_def_cfa_offset 4
  34              		.cfi_offset 7, -4
  35 0002 00AF     		add	r7, sp, #0
  36              		.cfi_def_cfa_register 7
  18:.\modbus_slave.c ****     ;
  19:.\modbus_slave.c **** }
  37              		.loc 1 19 0
  38 0004 BD46     		mov	sp, r7
ARM GAS  C:\Users\Glenn\AppData\Local\Temp\ccPIOeip.s 			page 2


  39              		.cfi_def_cfa_register 13
  40              		@ sp needed
  41 0006 5DF8047B 		ldr	r7, [sp], #4
  42              		.cfi_restore 7
  43              		.cfi_def_cfa_offset 0
  44 000a 7047     		bx	lr
  45              		.cfi_endproc
  46              	.LFE63:
  47              		.size	initialize_modbus_slave, .-initialize_modbus_slave
  48              		.section	.text.store_modbus_registers,"ax",%progbits
  49              		.align	2
  50              		.global	store_modbus_registers
  51              		.thumb
  52              		.thumb_func
  53              		.type	store_modbus_registers, %function
  54              	store_modbus_registers:
  55              	.LFB64:
  20:.\modbus_slave.c ****     
  21:.\modbus_slave.c **** void store_modbus_registers( int number, int starting_reg, int *values )
  22:.\modbus_slave.c **** {
  56              		.loc 1 22 0
  57              		.cfi_startproc
  58              		@ args = 0, pretend = 0, frame = 16
  59              		@ frame_needed = 1, uses_anonymous_args = 0
  60              		@ link register save eliminated.
  61 0000 80B4     		push	{r7}
  62              		.cfi_def_cfa_offset 4
  63              		.cfi_offset 7, -4
  64 0002 85B0     		sub	sp, sp, #20
  65              		.cfi_def_cfa_offset 24
  66 0004 00AF     		add	r7, sp, #0
  67              		.cfi_def_cfa_register 7
  68 0006 F860     		str	r0, [r7, #12]
  69 0008 B960     		str	r1, [r7, #8]
  70 000a 7A60     		str	r2, [r7, #4]
  23:.\modbus_slave.c ****  ;   
  24:.\modbus_slave.c **** }
  71              		.loc 1 24 0
  72 000c 1437     		adds	r7, r7, #20
  73              		.cfi_def_cfa_offset 4
  74 000e BD46     		mov	sp, r7
  75              		.cfi_def_cfa_register 13
  76              		@ sp needed
  77 0010 5DF8047B 		ldr	r7, [sp], #4
  78              		.cfi_restore 7
  79              		.cfi_def_cfa_offset 0
  80 0014 7047     		bx	lr
  81              		.cfi_endproc
  82              	.LFE64:
  83              		.size	store_modbus_registers, .-store_modbus_registers
  84 0016 00BF     		.section	.text.get_modbus_registers,"ax",%progbits
  85              		.align	2
  86              		.global	get_modbus_registers
  87              		.thumb
  88              		.thumb_func
  89              		.type	get_modbus_registers, %function
  90              	get_modbus_registers:
ARM GAS  C:\Users\Glenn\AppData\Local\Temp\ccPIOeip.s 			page 3


  91              	.LFB65:
  25:.\modbus_slave.c **** 
  26:.\modbus_slave.c **** // return actual_number
  27:.\modbus_slave.c **** int get_modbus_registers( int number, int starting_reg, int values )
  28:.\modbus_slave.c **** {
  92              		.loc 1 28 0
  93              		.cfi_startproc
  94              		@ args = 0, pretend = 0, frame = 16
  95              		@ frame_needed = 1, uses_anonymous_args = 0
  96              		@ link register save eliminated.
  97 0000 80B4     		push	{r7}
  98              		.cfi_def_cfa_offset 4
  99              		.cfi_offset 7, -4
 100 0002 85B0     		sub	sp, sp, #20
 101              		.cfi_def_cfa_offset 24
 102 0004 00AF     		add	r7, sp, #0
 103              		.cfi_def_cfa_register 7
 104 0006 F860     		str	r0, [r7, #12]
 105 0008 B960     		str	r1, [r7, #8]
 106 000a 7A60     		str	r2, [r7, #4]
  29:.\modbus_slave.c ****   return 0; 
 107              		.loc 1 29 0
 108 000c 0023     		movs	r3, #0
  30:.\modbus_slave.c **** }
 109              		.loc 1 30 0
 110 000e 1846     		mov	r0, r3
 111 0010 1437     		adds	r7, r7, #20
 112              		.cfi_def_cfa_offset 4
 113 0012 BD46     		mov	sp, r7
 114              		.cfi_def_cfa_register 13
 115              		@ sp needed
 116 0014 5DF8047B 		ldr	r7, [sp], #4
 117              		.cfi_restore 7
 118              		.cfi_def_cfa_offset 0
 119 0018 7047     		bx	lr
 120              		.cfi_endproc
 121              	.LFE65:
 122              		.size	get_modbus_registers, .-get_modbus_registers
 123 001a 00BF     		.section	.text.process_modbus_message,"ax",%progbits
 124              		.align	2
 125              		.global	process_modbus_message
 126              		.thumb
 127              		.thumb_func
 128              		.type	process_modbus_message, %function
 129              	process_modbus_message:
 130              	.LFB66:
  31:.\modbus_slave.c ****     
  32:.\modbus_slave.c **** 
  33:.\modbus_slave.c **** int process_modbus_message( int address_type, int addres, int input_number, uint8* input_buffer, in
  34:.\modbus_slave.c **** {
 131              		.loc 1 34 0
 132              		.cfi_startproc
 133              		@ args = 8, pretend = 0, frame = 24
 134              		@ frame_needed = 1, uses_anonymous_args = 0
 135              		@ link register save eliminated.
 136 0000 80B4     		push	{r7}
 137              		.cfi_def_cfa_offset 4
ARM GAS  C:\Users\Glenn\AppData\Local\Temp\ccPIOeip.s 			page 4


 138              		.cfi_offset 7, -4
 139 0002 87B0     		sub	sp, sp, #28
 140              		.cfi_def_cfa_offset 32
 141 0004 00AF     		add	r7, sp, #0
 142              		.cfi_def_cfa_register 7
 143 0006 F860     		str	r0, [r7, #12]
 144 0008 B960     		str	r1, [r7, #8]
 145 000a 7A60     		str	r2, [r7, #4]
 146 000c 3B60     		str	r3, [r7]
  35:.\modbus_slave.c ****     int i;
  36:.\modbus_slave.c ****     if( input_number > max_out_size )
 147              		.loc 1 36 0
 148 000e 7A68     		ldr	r2, [r7, #4]
 149 0010 3B6A     		ldr	r3, [r7, #32]
 150 0012 9A42     		cmp	r2, r3
 151 0014 01DD     		ble	.L6
  37:.\modbus_slave.c ****     {
  38:.\modbus_slave.c ****         input_number = max_out_size;
 152              		.loc 1 38 0
 153 0016 3B6A     		ldr	r3, [r7, #32]
 154 0018 7B60     		str	r3, [r7, #4]
 155              	.L6:
  39:.\modbus_slave.c ****     }
  40:.\modbus_slave.c ****     for( i=0;i<input_number; i++)
 156              		.loc 1 40 0
 157 001a 0023     		movs	r3, #0
 158 001c 7B61     		str	r3, [r7, #20]
 159 001e 0AE0     		b	.L7
 160              	.L8:
  41:.\modbus_slave.c ****     {
  42:.\modbus_slave.c ****         *output_buffer++ = *input_buffer++;
 161              		.loc 1 42 0 discriminator 3
 162 0020 7B6A     		ldr	r3, [r7, #36]
 163 0022 5A1C     		adds	r2, r3, #1
 164 0024 7A62     		str	r2, [r7, #36]
 165 0026 3A68     		ldr	r2, [r7]
 166 0028 511C     		adds	r1, r2, #1
 167 002a 3960     		str	r1, [r7]
 168 002c 1278     		ldrb	r2, [r2]	@ zero_extendqisi2
 169 002e 1A70     		strb	r2, [r3]
  40:.\modbus_slave.c ****     {
 170              		.loc 1 40 0 discriminator 3
 171 0030 7B69     		ldr	r3, [r7, #20]
 172 0032 0133     		adds	r3, r3, #1
 173 0034 7B61     		str	r3, [r7, #20]
 174              	.L7:
  40:.\modbus_slave.c ****     {
 175              		.loc 1 40 0 is_stmt 0 discriminator 1
 176 0036 7A69     		ldr	r2, [r7, #20]
 177 0038 7B68     		ldr	r3, [r7, #4]
 178 003a 9A42     		cmp	r2, r3
 179 003c F0DB     		blt	.L8
  43:.\modbus_slave.c ****     }
  44:.\modbus_slave.c ****     return input_number;
 180              		.loc 1 44 0 is_stmt 1
 181 003e 7B68     		ldr	r3, [r7, #4]
  45:.\modbus_slave.c **** }
ARM GAS  C:\Users\Glenn\AppData\Local\Temp\ccPIOeip.s 			page 5


 182              		.loc 1 45 0
 183 0040 1846     		mov	r0, r3
 184 0042 1C37     		adds	r7, r7, #28
 185              		.cfi_def_cfa_offset 4
 186 0044 BD46     		mov	sp, r7
 187              		.cfi_def_cfa_register 13
 188              		@ sp needed
 189 0046 5DF8047B 		ldr	r7, [sp], #4
 190              		.cfi_restore 7
 191              		.cfi_def_cfa_offset 0
 192 004a 7047     		bx	lr
 193              		.cfi_endproc
 194              	.LFE66:
 195              		.size	process_modbus_message, .-process_modbus_message
 196              		.text
 197              	.Letext0:
 198              		.file 2 "c:\\program files (x86)\\cypress\\psoc creator\\3.3\\psoc creator\\import\\gnu\\arm\\4.9.
 199              		.file 3 "c:\\program files (x86)\\cypress\\psoc creator\\3.3\\psoc creator\\import\\gnu\\arm\\4.9.
 200              		.file 4 "Generated_Source\\PSoC5/cytypes.h"
 201              		.file 5 "Generated_Source\\PSoC5/core_cm3.h"