ARM GAS  C:\Users\glenn\AppData\Local\Temp\ccUqkK4j.s 			page 1


   1              		.syntax unified
   2              		.cpu cortex-m3
   3              		.fpu softvfp
   4              		.eabi_attribute 20, 1
   5              		.eabi_attribute 21, 1
   6              		.eabi_attribute 23, 3
   7              		.eabi_attribute 24, 1
   8              		.eabi_attribute 25, 1
   9              		.eabi_attribute 26, 1
  10              		.eabi_attribute 30, 6
  11              		.eabi_attribute 34, 1
  12              		.eabi_attribute 18, 4
  13              		.thumb
  14              		.file	"process_modbus_message.c"
  15              		.text
  16              	.Ltext0:
  17              		.cfi_sections	.debug_frame
  18              		.section	.rodata
  19              		.align	1
  20              		.type	software_id, %object
  21              		.size	software_id, 2
  22              	software_id:
  23 0000 0102     		.short	513
  24              		.bss
  25              		.align	2
  26              	modbus_registers:
  27 0000 00000000 		.space	256
  27      00000000 
  27      00000000 
  27      00000000 
  27      00000000 
  28              		.global	logging_flag
  29              		.section	.rodata
  30              		.align	1
  31              		.type	logging_flag, %object
  32              		.size	logging_flag, 2
  33              	logging_flag:
  34 0002 0000     		.space	2
  35              		.global	sampling_interval
  36              		.align	1
  37              		.type	sampling_interval, %object
  38              		.size	sampling_interval, 2
  39              	sampling_interval:
  40 0004 0200     		.short	2
  41              		.global	moisture_configuration_data
  42 0006 0000     		.align	2
  43              		.type	moisture_configuration_data, %object
  44              		.size	moisture_configuration_data, 16
  45              	moisture_configuration_data:
  46 0008 00000000 		.space	16
  46      00000000 
  46      00000000 
  46      00000000 
  47              		.global	modbus_address_data
  48              		.align	2
  49              		.type	modbus_address_data, %object
  50              		.size	modbus_address_data, 4
ARM GAS  C:\Users\glenn\AppData\Local\Temp\ccUqkK4j.s 			page 2


  51              	modbus_address_data:
  52 0018 1E00     		.short	30
  53 001a C000     		.short	192
  54              		.section	.text.initialize_modbus_registers,"ax",%progbits
  55              		.align	2
  56              		.global	initialize_modbus_registers
  57              		.thumb
  58              		.thumb_func
  59              		.type	initialize_modbus_registers, %function
  60              	initialize_modbus_registers:
  61              	.LFB65:
  62              		.file 1 ".\\rtu_modbus\\process_modbus_message.c"
   1:.\rtu_modbus/process_modbus_message.c **** /*
   2:.\rtu_modbus/process_modbus_message.c **** **
   3:.\rtu_modbus/process_modbus_message.c **** ** File: process_modbus_message.c
   4:.\rtu_modbus/process_modbus_message.c **** ** This file processes the modbus message from
   5:.\rtu_modbus/process_modbus_message.c **** ** either the usb or serial handler
   6:.\rtu_modbus/process_modbus_message.c **** **
   7:.\rtu_modbus/process_modbus_message.c **** */
   8:.\rtu_modbus/process_modbus_message.c **** 
   9:.\rtu_modbus/process_modbus_message.c **** 
  10:.\rtu_modbus/process_modbus_message.c **** #include <device.h>
  11:.\rtu_modbus/process_modbus_message.c **** #include <assert.h>
  12:.\rtu_modbus/process_modbus_message.c **** 
  13:.\rtu_modbus/process_modbus_message.c **** #include "process_crc.h"
  14:.\rtu_modbus/process_modbus_message.c **** #include "process_type_3_message.h"
  15:.\rtu_modbus/process_modbus_message.c **** #include "process_type_16_message.h"
  16:.\rtu_modbus/process_modbus_message.c **** #include "process_type_24_message.h"
  17:.\rtu_modbus/process_modbus_message.c **** 
  18:.\rtu_modbus/process_modbus_message.c **** #include "process_modbus_message.h"
  19:.\rtu_modbus/process_modbus_message.c **** #include "cb_logging.h"
  20:.\rtu_modbus/process_modbus_message.c **** 
  21:.\rtu_modbus/process_modbus_message.c **** 
  22:.\rtu_modbus/process_modbus_message.c **** // logging interval is in minutes
  23:.\rtu_modbus/process_modbus_message.c **** // default sampling Interval is one hour
  24:.\rtu_modbus/process_modbus_message.c **** 
  25:.\rtu_modbus/process_modbus_message.c **** #define SAMPLING_INTERVAL   60 
  26:.\rtu_modbus/process_modbus_message.c **** static const uint16 software_id  = 0x0201;
  27:.\rtu_modbus/process_modbus_message.c **** static uint16 modbus_registers[ MODBUS_REGISTER_LENGTH ];
  28:.\rtu_modbus/process_modbus_message.c **** 
  29:.\rtu_modbus/process_modbus_message.c **** uint16 const logging_flag        = 0;
  30:.\rtu_modbus/process_modbus_message.c **** uint16 const sampling_interval   = 2;  // for production use 60 or 1 hour
  31:.\rtu_modbus/process_modbus_message.c **** 
  32:.\rtu_modbus/process_modbus_message.c **** const uint16 moisture_configuration_data[ MOISTURE_SENSOR_NUMBER ] =
  33:.\rtu_modbus/process_modbus_message.c **** {
  34:.\rtu_modbus/process_modbus_message.c ****     NOT_POPULATED,
  35:.\rtu_modbus/process_modbus_message.c ****     NOT_POPULATED,
  36:.\rtu_modbus/process_modbus_message.c ****     NOT_POPULATED,
  37:.\rtu_modbus/process_modbus_message.c ****     NOT_POPULATED,
  38:.\rtu_modbus/process_modbus_message.c ****     NOT_POPULATED,
  39:.\rtu_modbus/process_modbus_message.c ****     NOT_POPULATED,
  40:.\rtu_modbus/process_modbus_message.c ****     NOT_POPULATED,
  41:.\rtu_modbus/process_modbus_message.c ****     NOT_POPULATED,
  42:.\rtu_modbus/process_modbus_message.c **** };
  43:.\rtu_modbus/process_modbus_message.c **** 
  44:.\rtu_modbus/process_modbus_message.c **** 
  45:.\rtu_modbus/process_modbus_message.c **** 
ARM GAS  C:\Users\glenn\AppData\Local\Temp\ccUqkK4j.s 			page 3


  46:.\rtu_modbus/process_modbus_message.c **** const uint16 modbus_address_data[2] =
  47:.\rtu_modbus/process_modbus_message.c **** {
  48:.\rtu_modbus/process_modbus_message.c ****     30,     // modbus address 
  49:.\rtu_modbus/process_modbus_message.c ****     0xc0    // commissioning address
  50:.\rtu_modbus/process_modbus_message.c **** };
  51:.\rtu_modbus/process_modbus_message.c **** 
  52:.\rtu_modbus/process_modbus_message.c **** 
  53:.\rtu_modbus/process_modbus_message.c **** void initialize_modbus_registers( void )
  54:.\rtu_modbus/process_modbus_message.c **** {
  63              		.loc 1 54 0
  64              		.cfi_startproc
  65              		@ args = 0, pretend = 0, frame = 8
  66              		@ frame_needed = 1, uses_anonymous_args = 0
  67 0000 80B5     		push	{r7, lr}
  68              		.cfi_def_cfa_offset 8
  69              		.cfi_offset 7, -8
  70              		.cfi_offset 14, -4
  71 0002 82B0     		sub	sp, sp, #8
  72              		.cfi_def_cfa_offset 16
  73 0004 00AF     		add	r7, sp, #0
  74              		.cfi_def_cfa_register 7
  55:.\rtu_modbus/process_modbus_message.c ****     uint16 temp;
  56:.\rtu_modbus/process_modbus_message.c **** 
  57:.\rtu_modbus/process_modbus_message.c ****  
  58:.\rtu_modbus/process_modbus_message.c ****     memset( modbus_registers, 0, sizeof(modbus_registers));
  75              		.loc 1 58 0
  76 0006 1948     		ldr	r0, .L2
  77 0008 0021     		movs	r1, #0
  78 000a 4FF48072 		mov	r2, #256
  79 000e FFF7FEFF 		bl	memset
  59:.\rtu_modbus/process_modbus_message.c **** 
  60:.\rtu_modbus/process_modbus_message.c ****     temp = 1;
  80              		.loc 1 60 0
  81 0012 0123     		movs	r3, #1
  82 0014 FB80     		strh	r3, [r7, #6]	@ movhi
  61:.\rtu_modbus/process_modbus_message.c ****     store_modbus_data_registers( MOD_RTU_WATCH_DOG_FLAG, 1, &temp);
  83              		.loc 1 61 0
  84 0016 BB1D     		adds	r3, r7, #6
  85 0018 0220     		movs	r0, #2
  86 001a 0121     		movs	r1, #1
  87 001c 1A46     		mov	r2, r3
  88 001e FFF7FEFF 		bl	store_modbus_data_registers
  62:.\rtu_modbus/process_modbus_message.c ****     store_modbus_data_registers( MOD_UNIT_ID, 1,(uint16 *) &software_id ); 
  89              		.loc 1 62 0
  90 0022 0020     		movs	r0, #0
  91 0024 0121     		movs	r1, #1
  92 0026 124A     		ldr	r2, .L2+4
  93 0028 FFF7FEFF 		bl	store_modbus_data_registers
  63:.\rtu_modbus/process_modbus_message.c ****     store_modbus_data_registers( LOGGING_RATE  , 1,(uint16 *) &sampling_interval );  
  94              		.loc 1 63 0
  95 002c 2020     		movs	r0, #32
  96 002e 0121     		movs	r1, #1
  97 0030 104A     		ldr	r2, .L2+8
  98 0032 FFF7FEFF 		bl	store_modbus_data_registers
  64:.\rtu_modbus/process_modbus_message.c ****     store_modbus_data_registers( MOISTURE_SENSOR_1_CONFIGURATION , sizeof(moisture_configuration_da
  99              		.loc 1 64 0
 100 0036 5020     		movs	r0, #80
ARM GAS  C:\Users\glenn\AppData\Local\Temp\ccUqkK4j.s 			page 4


 101 0038 0821     		movs	r1, #8
 102 003a 0F4A     		ldr	r2, .L2+12
 103 003c FFF7FEFF 		bl	store_modbus_data_registers
  65:.\rtu_modbus/process_modbus_message.c ****     store_modbus_data_registers( LOGGING_FLAG , 1,(uint16 *) &logging_flag );
 104              		.loc 1 65 0
 105 0040 1E20     		movs	r0, #30
 106 0042 0121     		movs	r1, #1
 107 0044 0D4A     		ldr	r2, .L2+16
 108 0046 FFF7FEFF 		bl	store_modbus_data_registers
  66:.\rtu_modbus/process_modbus_message.c ****     temp = 0;
 109              		.loc 1 66 0
 110 004a 0023     		movs	r3, #0
 111 004c FB80     		strh	r3, [r7, #6]	@ movhi
  67:.\rtu_modbus/process_modbus_message.c ****     store_modbus_data_registers( LOGGING_INDEX, 1, (uint16 *) &temp ); 
 112              		.loc 1 67 0
 113 004e BB1D     		adds	r3, r7, #6
 114 0050 1F20     		movs	r0, #31
 115 0052 0121     		movs	r1, #1
 116 0054 1A46     		mov	r2, r3
 117 0056 FFF7FEFF 		bl	store_modbus_data_registers
  68:.\rtu_modbus/process_modbus_message.c ****     initialize_eeprom_logging( MOISTURE_SENSOR_NUMBER, sampling_interval );
 118              		.loc 1 68 0
 119 005a 0223     		movs	r3, #2
 120 005c 0820     		movs	r0, #8
 121 005e 1946     		mov	r1, r3
 122 0060 FFF7FEFF 		bl	initialize_eeprom_logging
  69:.\rtu_modbus/process_modbus_message.c ****     
  70:.\rtu_modbus/process_modbus_message.c **** }
 123              		.loc 1 70 0
 124 0064 0837     		adds	r7, r7, #8
 125              		.cfi_def_cfa_offset 8
 126 0066 BD46     		mov	sp, r7
 127              		.cfi_def_cfa_register 13
 128              		@ sp needed
 129 0068 80BD     		pop	{r7, pc}
 130              	.L3:
 131 006a 00BF     		.align	2
 132              	.L2:
 133 006c 00000000 		.word	modbus_registers
 134 0070 00000000 		.word	software_id
 135 0074 00000000 		.word	sampling_interval
 136 0078 00000000 		.word	moisture_configuration_data
 137 007c 00000000 		.word	logging_flag
 138              		.cfi_endproc
 139              	.LFE65:
 140              		.size	initialize_modbus_registers, .-initialize_modbus_registers
 141              		.section	.text.store_modbus_data_registers,"ax",%progbits
 142              		.align	2
 143              		.global	store_modbus_data_registers
 144              		.thumb
 145              		.thumb_func
 146              		.type	store_modbus_data_registers, %function
 147              	store_modbus_data_registers:
 148              	.LFB66:
  71:.\rtu_modbus/process_modbus_message.c ****   
  72:.\rtu_modbus/process_modbus_message.c **** 
  73:.\rtu_modbus/process_modbus_message.c **** 
ARM GAS  C:\Users\glenn\AppData\Local\Temp\ccUqkK4j.s 			page 5


  74:.\rtu_modbus/process_modbus_message.c **** int store_modbus_data_registers( unsigned index, unsigned length, uint16 *buffer)
  75:.\rtu_modbus/process_modbus_message.c **** {
 149              		.loc 1 75 0
 150              		.cfi_startproc
 151              		@ args = 0, pretend = 0, frame = 24
 152              		@ frame_needed = 1, uses_anonymous_args = 0
 153 0000 80B5     		push	{r7, lr}
 154              		.cfi_def_cfa_offset 8
 155              		.cfi_offset 7, -8
 156              		.cfi_offset 14, -4
 157 0002 86B0     		sub	sp, sp, #24
 158              		.cfi_def_cfa_offset 32
 159 0004 00AF     		add	r7, sp, #0
 160              		.cfi_def_cfa_register 7
 161 0006 F860     		str	r0, [r7, #12]
 162 0008 B960     		str	r1, [r7, #8]
 163 000a 7A60     		str	r2, [r7, #4]
  76:.\rtu_modbus/process_modbus_message.c ****     int return_value;
  77:.\rtu_modbus/process_modbus_message.c ****     if( (index + length ) < MODBUS_REGISTER_LENGTH )
 164              		.loc 1 77 0
 165 000c FA68     		ldr	r2, [r7, #12]
 166 000e BB68     		ldr	r3, [r7, #8]
 167 0010 1344     		add	r3, r3, r2
 168 0012 7F2B     		cmp	r3, #127
 169 0014 0DD8     		bhi	.L5
  78:.\rtu_modbus/process_modbus_message.c ****     {
  79:.\rtu_modbus/process_modbus_message.c ****         memcpy(  modbus_registers+index,buffer, length*sizeof(uint16));
 170              		.loc 1 79 0
 171 0016 FB68     		ldr	r3, [r7, #12]
 172 0018 5B00     		lsls	r3, r3, #1
 173 001a 094A     		ldr	r2, .L8
 174 001c 1A44     		add	r2, r2, r3
 175 001e BB68     		ldr	r3, [r7, #8]
 176 0020 5B00     		lsls	r3, r3, #1
 177 0022 1046     		mov	r0, r2
 178 0024 7968     		ldr	r1, [r7, #4]
 179 0026 1A46     		mov	r2, r3
 180 0028 FFF7FEFF 		bl	memcpy
  80:.\rtu_modbus/process_modbus_message.c ****         return_value = 1;
 181              		.loc 1 80 0
 182 002c 0123     		movs	r3, #1
 183 002e 7B61     		str	r3, [r7, #20]
 184 0030 01E0     		b	.L6
 185              	.L5:
  81:.\rtu_modbus/process_modbus_message.c ****     }
  82:.\rtu_modbus/process_modbus_message.c ****     else
  83:.\rtu_modbus/process_modbus_message.c ****     {
  84:.\rtu_modbus/process_modbus_message.c ****         return_value = 0;
 186              		.loc 1 84 0
 187 0032 0023     		movs	r3, #0
 188 0034 7B61     		str	r3, [r7, #20]
 189              	.L6:
  85:.\rtu_modbus/process_modbus_message.c ****     }
  86:.\rtu_modbus/process_modbus_message.c ****     return return_value;
 190              		.loc 1 86 0
 191 0036 7B69     		ldr	r3, [r7, #20]
  87:.\rtu_modbus/process_modbus_message.c **** }
ARM GAS  C:\Users\glenn\AppData\Local\Temp\ccUqkK4j.s 			page 6


 192              		.loc 1 87 0
 193 0038 1846     		mov	r0, r3
 194 003a 1837     		adds	r7, r7, #24
 195              		.cfi_def_cfa_offset 8
 196 003c BD46     		mov	sp, r7
 197              		.cfi_def_cfa_register 13
 198              		@ sp needed
 199 003e 80BD     		pop	{r7, pc}
 200              	.L9:
 201              		.align	2
 202              	.L8:
 203 0040 00000000 		.word	modbus_registers
 204              		.cfi_endproc
 205              	.LFE66:
 206              		.size	store_modbus_data_registers, .-store_modbus_data_registers
 207              		.section	.text.get_modbus_data_registers,"ax",%progbits
 208              		.align	2
 209              		.global	get_modbus_data_registers
 210              		.thumb
 211              		.thumb_func
 212              		.type	get_modbus_data_registers, %function
 213              	get_modbus_data_registers:
 214              	.LFB67:
  88:.\rtu_modbus/process_modbus_message.c ****     
  89:.\rtu_modbus/process_modbus_message.c ****     
  90:.\rtu_modbus/process_modbus_message.c **** int get_modbus_data_registers( unsigned index, unsigned length, uint16 *buffer )
  91:.\rtu_modbus/process_modbus_message.c **** {
 215              		.loc 1 91 0
 216              		.cfi_startproc
 217              		@ args = 0, pretend = 0, frame = 24
 218              		@ frame_needed = 1, uses_anonymous_args = 0
 219 0000 80B5     		push	{r7, lr}
 220              		.cfi_def_cfa_offset 8
 221              		.cfi_offset 7, -8
 222              		.cfi_offset 14, -4
 223 0002 86B0     		sub	sp, sp, #24
 224              		.cfi_def_cfa_offset 32
 225 0004 00AF     		add	r7, sp, #0
 226              		.cfi_def_cfa_register 7
 227 0006 F860     		str	r0, [r7, #12]
 228 0008 B960     		str	r1, [r7, #8]
 229 000a 7A60     		str	r2, [r7, #4]
  92:.\rtu_modbus/process_modbus_message.c ****     int return_value;
  93:.\rtu_modbus/process_modbus_message.c ****     if( (index + length ) < MODBUS_REGISTER_LENGTH )
 230              		.loc 1 93 0
 231 000c FA68     		ldr	r2, [r7, #12]
 232 000e BB68     		ldr	r3, [r7, #8]
 233 0010 1344     		add	r3, r3, r2
 234 0012 7F2B     		cmp	r3, #127
 235 0014 0DD8     		bhi	.L11
  94:.\rtu_modbus/process_modbus_message.c ****     {
  95:.\rtu_modbus/process_modbus_message.c ****         memcpy( buffer, modbus_registers+index, length*sizeof(uint16));
 236              		.loc 1 95 0
 237 0016 FB68     		ldr	r3, [r7, #12]
 238 0018 5B00     		lsls	r3, r3, #1
 239 001a 094A     		ldr	r2, .L14
 240 001c 1A44     		add	r2, r2, r3
ARM GAS  C:\Users\glenn\AppData\Local\Temp\ccUqkK4j.s 			page 7


 241 001e BB68     		ldr	r3, [r7, #8]
 242 0020 5B00     		lsls	r3, r3, #1
 243 0022 7868     		ldr	r0, [r7, #4]
 244 0024 1146     		mov	r1, r2
 245 0026 1A46     		mov	r2, r3
 246 0028 FFF7FEFF 		bl	memcpy
  96:.\rtu_modbus/process_modbus_message.c ****         return_value = 1;
 247              		.loc 1 96 0
 248 002c 0123     		movs	r3, #1
 249 002e 7B61     		str	r3, [r7, #20]
 250 0030 01E0     		b	.L12
 251              	.L11:
  97:.\rtu_modbus/process_modbus_message.c ****         
  98:.\rtu_modbus/process_modbus_message.c ****     }
  99:.\rtu_modbus/process_modbus_message.c ****     else
 100:.\rtu_modbus/process_modbus_message.c ****     {
 101:.\rtu_modbus/process_modbus_message.c ****         return_value = 0;
 252              		.loc 1 101 0
 253 0032 0023     		movs	r3, #0
 254 0034 7B61     		str	r3, [r7, #20]
 255              	.L12:
 102:.\rtu_modbus/process_modbus_message.c ****     }
 103:.\rtu_modbus/process_modbus_message.c ****     return return_value;
 256              		.loc 1 103 0
 257 0036 7B69     		ldr	r3, [r7, #20]
 104:.\rtu_modbus/process_modbus_message.c **** }
 258              		.loc 1 104 0
 259 0038 1846     		mov	r0, r3
 260 003a 1837     		adds	r7, r7, #24
 261              		.cfi_def_cfa_offset 8
 262 003c BD46     		mov	sp, r7
 263              		.cfi_def_cfa_register 13
 264              		@ sp needed
 265 003e 80BD     		pop	{r7, pc}
 266              	.L15:
 267              		.align	2
 268              	.L14:
 269 0040 00000000 		.word	modbus_registers
 270              		.cfi_endproc
 271              	.LFE67:
 272              		.size	get_modbus_data_registers, .-get_modbus_data_registers
 273              		.section	.text.process_modbus_message,"ax",%progbits
 274              		.align	2
 275              		.global	process_modbus_message
 276              		.thumb
 277              		.thumb_func
 278              		.type	process_modbus_message, %function
 279              	process_modbus_message:
 280              	.LFB68:
 105:.\rtu_modbus/process_modbus_message.c **** 
 106:.\rtu_modbus/process_modbus_message.c **** 
 107:.\rtu_modbus/process_modbus_message.c **** 
 108:.\rtu_modbus/process_modbus_message.c **** int process_modbus_message( int in_length, uint8 *in_buffer, 
 109:.\rtu_modbus/process_modbus_message.c ****                             int out_buffer_length, uint8 *out_buffer )
 110:.\rtu_modbus/process_modbus_message.c **** {
 281              		.loc 1 110 0
 282              		.cfi_startproc
ARM GAS  C:\Users\glenn\AppData\Local\Temp\ccUqkK4j.s 			page 8


 283              		@ args = 0, pretend = 0, frame = 32
 284              		@ frame_needed = 1, uses_anonymous_args = 0
 285 0000 90B5     		push	{r4, r7, lr}
 286              		.cfi_def_cfa_offset 12
 287              		.cfi_offset 4, -12
 288              		.cfi_offset 7, -8
 289              		.cfi_offset 14, -4
 290 0002 8BB0     		sub	sp, sp, #44
 291              		.cfi_def_cfa_offset 56
 292 0004 02AF     		add	r7, sp, #8
 293              		.cfi_def_cfa 7, 48
 294 0006 F860     		str	r0, [r7, #12]
 295 0008 B960     		str	r1, [r7, #8]
 296 000a 7A60     		str	r2, [r7, #4]
 297 000c 3B60     		str	r3, [r7]
 111:.\rtu_modbus/process_modbus_message.c **** 	
 112:.\rtu_modbus/process_modbus_message.c **** 	int function_code    = 0;
 298              		.loc 1 112 0
 299 000e 0023     		movs	r3, #0
 300 0010 BB61     		str	r3, [r7, #24]
 113:.\rtu_modbus/process_modbus_message.c ****     int crc_ok           = 0;
 301              		.loc 1 113 0
 302 0012 0023     		movs	r3, #0
 303 0014 7B61     		str	r3, [r7, #20]
 114:.\rtu_modbus/process_modbus_message.c ****     int out_length       = 0;
 304              		.loc 1 114 0
 305 0016 0023     		movs	r3, #0
 306 0018 FB61     		str	r3, [r7, #28]
 115:.\rtu_modbus/process_modbus_message.c **** 
 116:.\rtu_modbus/process_modbus_message.c ****     if( in_length < 5 ){ return 0; }
 307              		.loc 1 116 0
 308 001a FB68     		ldr	r3, [r7, #12]
 309 001c 042B     		cmp	r3, #4
 310 001e 01DC     		bgt	.L17
 311              		.loc 1 116 0 is_stmt 0 discriminator 1
 312 0020 0023     		movs	r3, #0
 313 0022 ADE0     		b	.L18
 314              	.L17:
 117:.\rtu_modbus/process_modbus_message.c ****     
 118:.\rtu_modbus/process_modbus_message.c **** 	
 119:.\rtu_modbus/process_modbus_message.c ****     crc_ok =  compute_crc( in_length, in_buffer);
 315              		.loc 1 119 0 is_stmt 1
 316 0024 F868     		ldr	r0, [r7, #12]
 317 0026 B968     		ldr	r1, [r7, #8]
 318 0028 FFF7FEFF 		bl	compute_crc
 319 002c 7861     		str	r0, [r7, #20]
 120:.\rtu_modbus/process_modbus_message.c **** 
 121:.\rtu_modbus/process_modbus_message.c **** 	if( crc_ok != 0)
 320              		.loc 1 121 0
 321 002e 7B69     		ldr	r3, [r7, #20]
 322 0030 002B     		cmp	r3, #0
 323 0032 00F08F80 		beq	.L19
 122:.\rtu_modbus/process_modbus_message.c **** 	{
 123:.\rtu_modbus/process_modbus_message.c **** 		function_code = in_buffer[1];
 324              		.loc 1 123 0
 325 0036 BB68     		ldr	r3, [r7, #8]
 326 0038 0133     		adds	r3, r3, #1
ARM GAS  C:\Users\glenn\AppData\Local\Temp\ccUqkK4j.s 			page 9


 327 003a 1B78     		ldrb	r3, [r3]	@ zero_extendqisi2
 328 003c BB61     		str	r3, [r7, #24]
 124:.\rtu_modbus/process_modbus_message.c ****         out_buffer[0] = in_buffer[0];  // returning slave address
 329              		.loc 1 124 0
 330 003e BB68     		ldr	r3, [r7, #8]
 331 0040 1A78     		ldrb	r2, [r3]	@ zero_extendqisi2
 332 0042 3B68     		ldr	r3, [r7]
 333 0044 1A70     		strb	r2, [r3]
 125:.\rtu_modbus/process_modbus_message.c ****         out_buffer[1] = in_buffer[1]; // returning function code
 334              		.loc 1 125 0
 335 0046 3B68     		ldr	r3, [r7]
 336 0048 0133     		adds	r3, r3, #1
 337 004a BA68     		ldr	r2, [r7, #8]
 338 004c 5278     		ldrb	r2, [r2, #1]	@ zero_extendqisi2
 339 004e 1A70     		strb	r2, [r3]
 126:.\rtu_modbus/process_modbus_message.c ****         out_buffer_length -=2;
 340              		.loc 1 126 0
 341 0050 7B68     		ldr	r3, [r7, #4]
 342 0052 023B     		subs	r3, r3, #2
 343 0054 7B60     		str	r3, [r7, #4]
 127:.\rtu_modbus/process_modbus_message.c ****         in_length         -=4;  // removing slave address, function code and 16 bit crc
 344              		.loc 1 127 0
 345 0056 FB68     		ldr	r3, [r7, #12]
 346 0058 043B     		subs	r3, r3, #4
 347 005a FB60     		str	r3, [r7, #12]
 128:.\rtu_modbus/process_modbus_message.c **** 		// extract function code
 129:.\rtu_modbus/process_modbus_message.c **** 		switch( function_code )
 348              		.loc 1 129 0
 349 005c BB69     		ldr	r3, [r7, #24]
 350 005e 033B     		subs	r3, r3, #3
 351 0060 1F2B     		cmp	r3, #31
 352 0062 73D8     		bhi	.L20
 353 0064 01A2     		adr	r2, .L22
 354 0066 52F823F0 		ldr	pc, [r2, r3, lsl #2]
 355 006a 00BF     		.p2align 2
 356              	.L22:
 357 006c ED000000 		.word	.L21+1
 358 0070 4D010000 		.word	.L20+1
 359 0074 4D010000 		.word	.L20+1
 360 0078 4D010000 		.word	.L20+1
 361 007c 4D010000 		.word	.L20+1
 362 0080 4D010000 		.word	.L20+1
 363 0084 4D010000 		.word	.L20+1
 364 0088 4D010000 		.word	.L20+1
 365 008c 4D010000 		.word	.L20+1
 366 0090 4D010000 		.word	.L20+1
 367 0094 4D010000 		.word	.L20+1
 368 0098 4D010000 		.word	.L20+1
 369 009c 4D010000 		.word	.L20+1
 370 00a0 09010000 		.word	.L23+1
 371 00a4 4D010000 		.word	.L20+1
 372 00a8 4D010000 		.word	.L20+1
 373 00ac 4D010000 		.word	.L20+1
 374 00b0 4D010000 		.word	.L20+1
 375 00b4 4D010000 		.word	.L20+1
 376 00b8 4D010000 		.word	.L20+1
 377 00bc 4D010000 		.word	.L20+1
ARM GAS  C:\Users\glenn\AppData\Local\Temp\ccUqkK4j.s 			page 10


 378 00c0 1F010000 		.word	.L24+1
 379 00c4 4D010000 		.word	.L20+1
 380 00c8 4D010000 		.word	.L20+1
 381 00cc 4D010000 		.word	.L20+1
 382 00d0 4D010000 		.word	.L20+1
 383 00d4 4D010000 		.word	.L20+1
 384 00d8 4D010000 		.word	.L20+1
 385 00dc 4D010000 		.word	.L20+1
 386 00e0 4D010000 		.word	.L20+1
 387 00e4 4D010000 		.word	.L20+1
 388 00e8 35010000 		.word	.L25+1
 389              		.p2align 1
 390              	.L21:
 130:.\rtu_modbus/process_modbus_message.c **** 		{
 131:.\rtu_modbus/process_modbus_message.c ****             case 3:
 132:.\rtu_modbus/process_modbus_message.c ****                     out_length = process_type_3_34_message( function_code, in_length, &in_buffer[2]
 391              		.loc 1 132 0
 392 00ec BB68     		ldr	r3, [r7, #8]
 393 00ee 9A1C     		adds	r2, r3, #2
 394 00f0 7B68     		ldr	r3, [r7, #4]
 395 00f2 9C1E     		subs	r4, r3, #2
 396 00f4 3B68     		ldr	r3, [r7]
 397 00f6 0233     		adds	r3, r3, #2
 398 00f8 0093     		str	r3, [sp]
 399 00fa B869     		ldr	r0, [r7, #24]
 400 00fc F968     		ldr	r1, [r7, #12]
 401 00fe 2346     		mov	r3, r4
 402 0100 FFF7FEFF 		bl	process_type_3_34_message
 403 0104 F861     		str	r0, [r7, #28]
 133:.\rtu_modbus/process_modbus_message.c ****                                                      &out_buffer[2]);
 134:.\rtu_modbus/process_modbus_message.c ****                     break;
 404              		.loc 1 134 0
 405 0106 24E0     		b	.L26
 406              	.L23:
 135:.\rtu_modbus/process_modbus_message.c ****             
 136:.\rtu_modbus/process_modbus_message.c ****             case 16:
 137:.\rtu_modbus/process_modbus_message.c ****                     out_length = process_type_16_message( in_length, &in_buffer[2],out_buffer_lengt
 407              		.loc 1 137 0
 408 0108 BB68     		ldr	r3, [r7, #8]
 409 010a 991C     		adds	r1, r3, #2
 410 010c 7B68     		ldr	r3, [r7, #4]
 411 010e 9A1E     		subs	r2, r3, #2
 412 0110 3B68     		ldr	r3, [r7]
 413 0112 0233     		adds	r3, r3, #2
 414 0114 F868     		ldr	r0, [r7, #12]
 415 0116 FFF7FEFF 		bl	process_type_16_message
 416 011a F861     		str	r0, [r7, #28]
 138:.\rtu_modbus/process_modbus_message.c ****                                                      &out_buffer[2]);
 139:.\rtu_modbus/process_modbus_message.c ****                     
 140:.\rtu_modbus/process_modbus_message.c ****                     break;
 417              		.loc 1 140 0
 418 011c 19E0     		b	.L26
 419              	.L24:
 141:.\rtu_modbus/process_modbus_message.c ****             
 142:.\rtu_modbus/process_modbus_message.c ****             case 24:
 143:.\rtu_modbus/process_modbus_message.c ****                     out_length = process_type_24_message( in_length, &in_buffer[2], out_buffer_leng
 420              		.loc 1 143 0
ARM GAS  C:\Users\glenn\AppData\Local\Temp\ccUqkK4j.s 			page 11


 421 011e BB68     		ldr	r3, [r7, #8]
 422 0120 9A1C     		adds	r2, r3, #2
 423 0122 3B68     		ldr	r3, [r7]
 424 0124 0233     		adds	r3, r3, #2
 425 0126 F868     		ldr	r0, [r7, #12]
 426 0128 1146     		mov	r1, r2
 427 012a 7A68     		ldr	r2, [r7, #4]
 428 012c FFF7FEFF 		bl	process_type_24_message
 429 0130 F861     		str	r0, [r7, #28]
 144:.\rtu_modbus/process_modbus_message.c ****                                    &out_buffer[2]);
 145:.\rtu_modbus/process_modbus_message.c ****                     break;
 430              		.loc 1 145 0
 431 0132 0EE0     		b	.L26
 432              	.L25:
 146:.\rtu_modbus/process_modbus_message.c ****             case 34:
 147:.\rtu_modbus/process_modbus_message.c ****                     out_length = process_type_3_34_message( function_code, in_length, &in_buffer[2]
 433              		.loc 1 147 0
 434 0134 BB68     		ldr	r3, [r7, #8]
 435 0136 9A1C     		adds	r2, r3, #2
 436 0138 3B68     		ldr	r3, [r7]
 437 013a 0233     		adds	r3, r3, #2
 438 013c 0093     		str	r3, [sp]
 439 013e B869     		ldr	r0, [r7, #24]
 440 0140 F968     		ldr	r1, [r7, #12]
 441 0142 7B68     		ldr	r3, [r7, #4]
 442 0144 FFF7FEFF 		bl	process_type_3_34_message
 443 0148 F861     		str	r0, [r7, #28]
 148:.\rtu_modbus/process_modbus_message.c ****                                    &out_buffer[2]);
 149:.\rtu_modbus/process_modbus_message.c ****                     break;
 444              		.loc 1 149 0
 445 014a 02E0     		b	.L26
 446              	.L20:
 150:.\rtu_modbus/process_modbus_message.c **** 
 151:.\rtu_modbus/process_modbus_message.c ****                     
 152:.\rtu_modbus/process_modbus_message.c ****                      
 153:.\rtu_modbus/process_modbus_message.c ****             default:
 154:.\rtu_modbus/process_modbus_message.c ****                     out_length = 0; // unrecognized function code
 447              		.loc 1 154 0
 448 014c 0023     		movs	r3, #0
 449 014e FB61     		str	r3, [r7, #28]
 450 0150 02E0     		b	.L27
 451              	.L26:
 452 0152 01E0     		b	.L27
 453              	.L19:
 155:.\rtu_modbus/process_modbus_message.c ****      
 156:.\rtu_modbus/process_modbus_message.c ****            }         
 157:.\rtu_modbus/process_modbus_message.c ****         
 158:.\rtu_modbus/process_modbus_message.c ****         }
 159:.\rtu_modbus/process_modbus_message.c ****         else
 160:.\rtu_modbus/process_modbus_message.c ****         {
 161:.\rtu_modbus/process_modbus_message.c ****             out_length = 0; // bad crc
 454              		.loc 1 161 0
 455 0154 0023     		movs	r3, #0
 456 0156 FB61     		str	r3, [r7, #28]
 457              	.L27:
 162:.\rtu_modbus/process_modbus_message.c ****         }
 163:.\rtu_modbus/process_modbus_message.c ****         if( out_length > 200 )
ARM GAS  C:\Users\glenn\AppData\Local\Temp\ccUqkK4j.s 			page 12


 458              		.loc 1 163 0
 459 0158 FB69     		ldr	r3, [r7, #28]
 460 015a C82B     		cmp	r3, #200
 461 015c 02DD     		ble	.L28
 164:.\rtu_modbus/process_modbus_message.c ****          {
 165:.\rtu_modbus/process_modbus_message.c ****             CYASSERT(0);
 462              		.loc 1 165 0 discriminator 1
 463 015e 0020     		movs	r0, #0
 464 0160 FFF7FEFF 		bl	CyHalt
 465              	.L28:
 166:.\rtu_modbus/process_modbus_message.c ****          }
 167:.\rtu_modbus/process_modbus_message.c **** 
 168:.\rtu_modbus/process_modbus_message.c ****         if(  out_length >= 0 )
 466              		.loc 1 168 0
 467 0164 FB69     		ldr	r3, [r7, #28]
 468 0166 002B     		cmp	r3, #0
 469 0168 09DB     		blt	.L29
 169:.\rtu_modbus/process_modbus_message.c ****         {
 170:.\rtu_modbus/process_modbus_message.c ****             out_length += 2; // putting back slave and function id into count
 470              		.loc 1 170 0
 471 016a FB69     		ldr	r3, [r7, #28]
 472 016c 0233     		adds	r3, r3, #2
 473 016e FB61     		str	r3, [r7, #28]
 171:.\rtu_modbus/process_modbus_message.c ****             append_crc( out_length,out_buffer);
 474              		.loc 1 171 0
 475 0170 F869     		ldr	r0, [r7, #28]
 476 0172 3968     		ldr	r1, [r7]
 477 0174 FFF7FEFF 		bl	append_crc
 172:.\rtu_modbus/process_modbus_message.c ****             out_length += 2; // adding crc
 478              		.loc 1 172 0
 479 0178 FB69     		ldr	r3, [r7, #28]
 480 017a 0233     		adds	r3, r3, #2
 481 017c FB61     		str	r3, [r7, #28]
 482              	.L29:
 173:.\rtu_modbus/process_modbus_message.c ****         }
 174:.\rtu_modbus/process_modbus_message.c ****         
 175:.\rtu_modbus/process_modbus_message.c ****         
 176:.\rtu_modbus/process_modbus_message.c ****     
 177:.\rtu_modbus/process_modbus_message.c **** 
 178:.\rtu_modbus/process_modbus_message.c ****          return out_length;
 483              		.loc 1 178 0
 484 017e FB69     		ldr	r3, [r7, #28]
 485              	.L18:
 179:.\rtu_modbus/process_modbus_message.c ****     
 180:.\rtu_modbus/process_modbus_message.c **** }    
 486              		.loc 1 180 0
 487 0180 1846     		mov	r0, r3
 488 0182 2437     		adds	r7, r7, #36
 489              		.cfi_def_cfa_offset 12
 490 0184 BD46     		mov	sp, r7
 491              		.cfi_def_cfa_register 13
 492              		@ sp needed
 493 0186 90BD     		pop	{r4, r7, pc}
 494              		.cfi_endproc
 495              	.LFE68:
 496              		.size	process_modbus_message, .-process_modbus_message
 497              		.text
ARM GAS  C:\Users\glenn\AppData\Local\Temp\ccUqkK4j.s 			page 13


 498              	.Letext0:
 499              		.file 2 "c:\\program files (x86)\\cypress\\psoc creator\\3.3\\psoc creator\\import\\gnu\\arm\\4.9.
 500              		.file 3 "c:\\program files (x86)\\cypress\\psoc creator\\3.3\\psoc creator\\import\\gnu\\arm\\4.9.
 501              		.file 4 "Generated_Source\\PSoC5/cytypes.h"
 502              		.file 5 "Generated_Source\\PSoC5/core_cm3.h"
 503              		.file 6 ".\\rtu_modbus\\process_modbus_message.h"