ARM GAS  C:\Users\glenn\AppData\Local\Temp\cctQtnvc.s 			page 1


   1              		.syntax unified
   2              		.cpu cortex-m3
   3              		.fpu softvfp
   4              		.eabi_attribute 20, 1
   5              		.eabi_attribute 21, 1
   6              		.eabi_attribute 23, 3
   7              		.eabi_attribute 24, 1
   8              		.eabi_attribute 25, 1
   9              		.eabi_attribute 26, 1
  10              		.eabi_attribute 30, 6
  11              		.eabi_attribute 34, 1
  12              		.eabi_attribute 18, 4
  13              		.thumb
  14              		.file	"process_type_34_messages.c"
  15              		.text
  16              	.Ltext0:
  17              		.cfi_sections	.debug_frame
  18              		.section	.text.process_type_34_message,"ax",%progbits
  19              		.align	2
  20              		.global	process_type_34_message
  21              		.thumb
  22              		.thumb_func
  23              		.type	process_type_34_message, %function
  24              	process_type_34_message:
  25              	.LFB65:
  26              		.file 1 ".\\rtu_modbus\\process_type_34_messages.c"
   1:.\rtu_modbus/process_type_34_messages.c **** /*
   2:.\rtu_modbus/process_type_34_messages.c **** **
   3:.\rtu_modbus/process_type_34_messages.c **** ** File: process_type_34_message.c
   4:.\rtu_modbus/process_type_34_messages.c **** 
   5:.\rtu_modbus/process_type_34_messages.c **** Type 34 message
   6:.\rtu_modbus/process_type_34_messages.c **** Query
   7:.\rtu_modbus/process_type_34_messages.c **** Field Name (Hex)
   8:.\rtu_modbus/process_type_34_messages.c **** Slave Address 11
   9:.\rtu_modbus/process_type_34_messages.c **** Function 03
  10:.\rtu_modbus/process_type_34_messages.c **** Starting Address Hi 00  Offset in EEPROM
  11:.\rtu_modbus/process_type_34_messages.c **** Starting Address Lo 6B  
  12:.\rtu_modbus/process_type_34_messages.c **** No. of Points Hi 00      Number of words  
  13:.\rtu_modbus/process_type_34_messages.c **** No. of Points Lo 03
  14:.\rtu_modbus/process_type_34_messages.c **** Error Check (LRC or CRC) ––
  15:.\rtu_modbus/process_type_34_messages.c **** 
  16:.\rtu_modbus/process_type_34_messages.c ****     
  17:.\rtu_modbus/process_type_34_messages.c **** Response
  18:.\rtu_modbus/process_type_34_messages.c **** Slave Address 11
  19:.\rtu_modbus/process_type_34_messages.c **** Function 03
  20:.\rtu_modbus/process_type_34_messages.c **** Byte Count 06
  21:.\rtu_modbus/process_type_34_messages.c **** Data Hi (Register 40108) 02
  22:.\rtu_modbus/process_type_34_messages.c **** Data Lo (Register 40108) 2B
  23:.\rtu_modbus/process_type_34_messages.c **** Data Hi (Register 40109) 00
  24:.\rtu_modbus/process_type_34_messages.c **** Data Lo (Register 40109) 00
  25:.\rtu_modbus/process_type_34_messages.c **** Data Hi (Register 40110) 00
  26:.\rtu_modbus/process_type_34_messages.c **** Data Lo (Register 40110) 64
  27:.\rtu_modbus/process_type_34_messages.c **** Error Check (LRC or CRC) ––
  28:.\rtu_modbus/process_type_34_messages.c **** 
  29:.\rtu_modbus/process_type_34_messages.c **** **
  30:.\rtu_modbus/process_type_34_messages.c **** **
  31:.\rtu_modbus/process_type_34_messages.c **** */
ARM GAS  C:\Users\glenn\AppData\Local\Temp\cctQtnvc.s 			page 2


  32:.\rtu_modbus/process_type_34_messages.c ****  
  33:.\rtu_modbus/process_type_34_messages.c **** 
  34:.\rtu_modbus/process_type_34_messages.c **** #include <device.h>
  35:.\rtu_modbus/process_type_34_messages.c **** #include "EEPROM_1.h"
  36:.\rtu_modbus/process_type_34_messages.c **** #include "modbus_utilities.h"
  37:.\rtu_modbus/process_type_34_messages.c **** #include "process_type_34_messages.h" 
  38:.\rtu_modbus/process_type_34_messages.c **** 
  39:.\rtu_modbus/process_type_34_messages.c **** 
  40:.\rtu_modbus/process_type_34_messages.c **** 
  41:.\rtu_modbus/process_type_34_messages.c **** 
  42:.\rtu_modbus/process_type_34_messages.c **** 
  43:.\rtu_modbus/process_type_34_messages.c **** #define TABLE_LENGTH 
  44:.\rtu_modbus/process_type_34_messages.c **** 
  45:.\rtu_modbus/process_type_34_messages.c **** int process_type_34_message( int in_length, uint8 *in, int out_length, uint8 *out )
  46:.\rtu_modbus/process_type_34_messages.c **** {
  27              		.loc 1 46 0
  28              		.cfi_startproc
  29              		@ args = 0, pretend = 0, frame = 40
  30              		@ frame_needed = 1, uses_anonymous_args = 0
  31 0000 90B5     		push	{r4, r7, lr}
  32              		.cfi_def_cfa_offset 12
  33              		.cfi_offset 4, -12
  34              		.cfi_offset 7, -8
  35              		.cfi_offset 14, -4
  36 0002 8BB0     		sub	sp, sp, #44
  37              		.cfi_def_cfa_offset 56
  38 0004 00AF     		add	r7, sp, #0
  39              		.cfi_def_cfa_register 7
  40 0006 F860     		str	r0, [r7, #12]
  41 0008 B960     		str	r1, [r7, #8]
  42 000a 7A60     		str	r2, [r7, #4]
  43 000c 3B60     		str	r3, [r7]
  47:.\rtu_modbus/process_type_34_messages.c **** 
  48:.\rtu_modbus/process_type_34_messages.c ****     unsigned working_offset;  // offset of eeprom
  49:.\rtu_modbus/process_type_34_messages.c ****     unsigned number_of_registers;
  50:.\rtu_modbus/process_type_34_messages.c ****     unsigned i;
  51:.\rtu_modbus/process_type_34_messages.c ****     unsigned eeprom_count;
  52:.\rtu_modbus/process_type_34_messages.c ****     unsigned eeprom_offset;
  53:.\rtu_modbus/process_type_34_messages.c ****     
  54:.\rtu_modbus/process_type_34_messages.c ****     
  55:.\rtu_modbus/process_type_34_messages.c ****     
  56:.\rtu_modbus/process_type_34_messages.c ****     working_offset = (*in++)*256;
  44              		.loc 1 56 0
  45 000e BB68     		ldr	r3, [r7, #8]
  46 0010 5A1C     		adds	r2, r3, #1
  47 0012 BA60     		str	r2, [r7, #8]
  48 0014 1B78     		ldrb	r3, [r3]	@ zero_extendqisi2
  49 0016 1B02     		lsls	r3, r3, #8
  50 0018 3B62     		str	r3, [r7, #32]
  57:.\rtu_modbus/process_type_34_messages.c ****     working_offset += (*in++);
  51              		.loc 1 57 0
  52 001a BB68     		ldr	r3, [r7, #8]
  53 001c 5A1C     		adds	r2, r3, #1
  54 001e BA60     		str	r2, [r7, #8]
  55 0020 1B78     		ldrb	r3, [r3]	@ zero_extendqisi2
  56 0022 1A46     		mov	r2, r3
  57 0024 3B6A     		ldr	r3, [r7, #32]
ARM GAS  C:\Users\glenn\AppData\Local\Temp\cctQtnvc.s 			page 3


  58 0026 1344     		add	r3, r3, r2
  59 0028 3B62     		str	r3, [r7, #32]
  58:.\rtu_modbus/process_type_34_messages.c ****     number_of_registers = (*in++)*256;
  60              		.loc 1 58 0
  61 002a BB68     		ldr	r3, [r7, #8]
  62 002c 5A1C     		adds	r2, r3, #1
  63 002e BA60     		str	r2, [r7, #8]
  64 0030 1B78     		ldrb	r3, [r3]	@ zero_extendqisi2
  65 0032 1B02     		lsls	r3, r3, #8
  66 0034 FB61     		str	r3, [r7, #28]
  59:.\rtu_modbus/process_type_34_messages.c ****     number_of_registers += (*in++);
  67              		.loc 1 59 0
  68 0036 BB68     		ldr	r3, [r7, #8]
  69 0038 5A1C     		adds	r2, r3, #1
  70 003a BA60     		str	r2, [r7, #8]
  71 003c 1B78     		ldrb	r3, [r3]	@ zero_extendqisi2
  72 003e 1A46     		mov	r2, r3
  73 0040 FB69     		ldr	r3, [r7, #28]
  74 0042 1344     		add	r3, r3, r2
  75 0044 FB61     		str	r3, [r7, #28]
  60:.\rtu_modbus/process_type_34_messages.c ****     eeprom_offset = working_offset *2;
  76              		.loc 1 60 0
  77 0046 3B6A     		ldr	r3, [r7, #32]
  78 0048 5B00     		lsls	r3, r3, #1
  79 004a BB61     		str	r3, [r7, #24]
  61:.\rtu_modbus/process_type_34_messages.c ****     eeprom_count  = number_of_registers*2;
  80              		.loc 1 61 0
  81 004c FB69     		ldr	r3, [r7, #28]
  82 004e 5B00     		lsls	r3, r3, #1
  83 0050 7B61     		str	r3, [r7, #20]
  62:.\rtu_modbus/process_type_34_messages.c ****     if( (eeprom_offset +eeprom_count) >= EEPROM_SIZE )
  84              		.loc 1 62 0
  85 0052 BA69     		ldr	r2, [r7, #24]
  86 0054 7B69     		ldr	r3, [r7, #20]
  87 0056 1344     		add	r3, r3, r2
  88 0058 B3F5006F 		cmp	r3, #2048
  89 005c 01D3     		bcc	.L2
  63:.\rtu_modbus/process_type_34_messages.c ****     {
  64:.\rtu_modbus/process_type_34_messages.c ****         return 0;  // request is bigger that eeprom size
  90              		.loc 1 64 0
  91 005e 0023     		movs	r3, #0
  92 0060 30E0     		b	.L3
  93              	.L2:
  65:.\rtu_modbus/process_type_34_messages.c ****     }
  66:.\rtu_modbus/process_type_34_messages.c ****     if( (eeprom_count + 1 ) > (unsigned)out_length )
  94              		.loc 1 66 0
  95 0062 7B69     		ldr	r3, [r7, #20]
  96 0064 5A1C     		adds	r2, r3, #1
  97 0066 7B68     		ldr	r3, [r7, #4]
  98 0068 9A42     		cmp	r2, r3
  99 006a 01D9     		bls	.L4
  67:.\rtu_modbus/process_type_34_messages.c ****     {
  68:.\rtu_modbus/process_type_34_messages.c ****         return 0; // request exceeds size of eeprom buffer
 100              		.loc 1 68 0
 101 006c 0023     		movs	r3, #0
 102 006e 29E0     		b	.L3
 103              	.L4:
ARM GAS  C:\Users\glenn\AppData\Local\Temp\cctQtnvc.s 			page 4


  69:.\rtu_modbus/process_type_34_messages.c ****     }
  70:.\rtu_modbus/process_type_34_messages.c ****         
  71:.\rtu_modbus/process_type_34_messages.c ****     
  72:.\rtu_modbus/process_type_34_messages.c ****     *out++ = eeprom_count;
 104              		.loc 1 72 0
 105 0070 3B68     		ldr	r3, [r7]
 106 0072 5A1C     		adds	r2, r3, #1
 107 0074 3A60     		str	r2, [r7]
 108 0076 7A69     		ldr	r2, [r7, #20]
 109 0078 D2B2     		uxtb	r2, r2
 110 007a 1A70     		strb	r2, [r3]
  73:.\rtu_modbus/process_type_34_messages.c **** 
  74:.\rtu_modbus/process_type_34_messages.c ****     for( i = eeprom_offset; i < eeprom_offset + (eeprom_count) ; i+=2)
 111              		.loc 1 74 0
 112 007c BB69     		ldr	r3, [r7, #24]
 113 007e 7B62     		str	r3, [r7, #36]
 114 0080 18E0     		b	.L5
 115              	.L6:
  75:.\rtu_modbus/process_type_34_messages.c ****     {
  76:.\rtu_modbus/process_type_34_messages.c ****         *out++ = EEPROM_1_ReadByte(i+1) ;
 116              		.loc 1 76 0 discriminator 3
 117 0082 3C68     		ldr	r4, [r7]
 118 0084 631C     		adds	r3, r4, #1
 119 0086 3B60     		str	r3, [r7]
 120 0088 7B6A     		ldr	r3, [r7, #36]
 121 008a 9BB2     		uxth	r3, r3
 122 008c 0133     		adds	r3, r3, #1
 123 008e 9BB2     		uxth	r3, r3
 124 0090 1846     		mov	r0, r3
 125 0092 FFF7FEFF 		bl	EEPROM_1_ReadByte
 126 0096 0346     		mov	r3, r0
 127 0098 2370     		strb	r3, [r4]
  77:.\rtu_modbus/process_type_34_messages.c ****         *out++ = EEPROM_1_ReadByte(i);
 128              		.loc 1 77 0 discriminator 3
 129 009a 3C68     		ldr	r4, [r7]
 130 009c 631C     		adds	r3, r4, #1
 131 009e 3B60     		str	r3, [r7]
 132 00a0 7B6A     		ldr	r3, [r7, #36]
 133 00a2 9BB2     		uxth	r3, r3
 134 00a4 1846     		mov	r0, r3
 135 00a6 FFF7FEFF 		bl	EEPROM_1_ReadByte
 136 00aa 0346     		mov	r3, r0
 137 00ac 2370     		strb	r3, [r4]
  74:.\rtu_modbus/process_type_34_messages.c ****     {
 138              		.loc 1 74 0 discriminator 3
 139 00ae 7B6A     		ldr	r3, [r7, #36]
 140 00b0 0233     		adds	r3, r3, #2
 141 00b2 7B62     		str	r3, [r7, #36]
 142              	.L5:
  74:.\rtu_modbus/process_type_34_messages.c ****     {
 143              		.loc 1 74 0 is_stmt 0 discriminator 1
 144 00b4 BA69     		ldr	r2, [r7, #24]
 145 00b6 7B69     		ldr	r3, [r7, #20]
 146 00b8 1A44     		add	r2, r2, r3
 147 00ba 7B6A     		ldr	r3, [r7, #36]
 148 00bc 9A42     		cmp	r2, r3
 149 00be E0D8     		bhi	.L6
ARM GAS  C:\Users\glenn\AppData\Local\Temp\cctQtnvc.s 			page 5


  78:.\rtu_modbus/process_type_34_messages.c ****     }
  79:.\rtu_modbus/process_type_34_messages.c ****     return eeprom_count +1;
 150              		.loc 1 79 0 is_stmt 1
 151 00c0 7B69     		ldr	r3, [r7, #20]
 152 00c2 0133     		adds	r3, r3, #1
 153              	.L3:
  80:.\rtu_modbus/process_type_34_messages.c **** }
 154              		.loc 1 80 0
 155 00c4 1846     		mov	r0, r3
 156 00c6 2C37     		adds	r7, r7, #44
 157              		.cfi_def_cfa_offset 12
 158 00c8 BD46     		mov	sp, r7
 159              		.cfi_def_cfa_register 13
 160              		@ sp needed
 161 00ca 90BD     		pop	{r4, r7, pc}
 162              		.cfi_endproc
 163              	.LFE65:
 164              		.size	process_type_34_message, .-process_type_34_message
 165              		.text
 166              	.Letext0:
 167              		.file 2 "c:\\program files (x86)\\cypress\\psoc creator\\3.3\\psoc creator\\import\\gnu\\arm\\4.9.
 168              		.file 3 "c:\\program files (x86)\\cypress\\psoc creator\\3.3\\psoc creator\\import\\gnu\\arm\\4.9.
 169              		.file 4 "Generated_Source\\PSoC5/cytypes.h"
 170              		.file 5 "Generated_Source\\PSoC5/core_cm3.h"