ARM GAS  C:\Users\glenn\AppData\Local\Temp\ccjo0zXc.s 			page 1


   1              		.syntax unified
   2              		.cpu cortex-m3
   3              		.fpu softvfp
   4              		.eabi_attribute 20, 1
   5              		.eabi_attribute 21, 1
   6              		.eabi_attribute 23, 3
   7              		.eabi_attribute 24, 1
   8              		.eabi_attribute 25, 1
   9              		.eabi_attribute 26, 1
  10              		.eabi_attribute 30, 6
  11              		.eabi_attribute 34, 1
  12              		.eabi_attribute 18, 4
  13              		.thumb
  14              		.file	"cap_sense.c"
  15              		.text
  16              	.Ltext0:
  17              		.cfi_sections	.debug_frame
  18              		.section	.text.init_cap_sense,"ax",%progbits
  19              		.align	2
  20              		.global	init_cap_sense
  21              		.thumb
  22              		.thumb_func
  23              		.type	init_cap_sense, %function
  24              	init_cap_sense:
  25              	.LFB63:
  26              		.file 1 ".\\cap_sense\\cap_sense.c"
   1:.\cap_sense/cap_sense.c **** /*
   2:.\cap_sense/cap_sense.c **** **
   3:.\cap_sense/cap_sense.c **** ** File: cap_sense.c
   4:.\cap_sense/cap_sense.c **** **
   5:.\cap_sense/cap_sense.c **** **
   6:.\cap_sense/cap_sense.c **** **
   7:.\cap_sense/cap_sense.c **** */
   8:.\cap_sense/cap_sense.c **** 
   9:.\cap_sense/cap_sense.c **** #include <device.h>
  10:.\cap_sense/cap_sense.c **** #include "cf_chain_flow_support.h"
  11:.\cap_sense/cap_sense.c **** #include "cf_external_functions.h"
  12:.\cap_sense/cap_sense.c **** #include "cap_sense.h"
  13:.\cap_sense/cap_sense.c **** 
  14:.\cap_sense/cap_sense.c **** #define NOT_BUSY 0
  15:.\cap_sense/cap_sense.c **** #define PROXIMITY_SENSOR_INDEX			CapSense_1_SENSOR_PROXIMITYSENSOR0_0__PROX
  16:.\cap_sense/cap_sense.c ****  
  17:.\cap_sense/cap_sense.c **** int init_cap_sense(unsigned link_id, unsigned param_1,
  18:.\cap_sense/cap_sense.c ****   unsigned param_2, unsigned param_3, unsigned event, unsigned data)
  19:.\cap_sense/cap_sense.c **** {
  27              		.loc 1 19 0
  28              		.cfi_startproc
  29              		@ args = 8, pretend = 0, frame = 16
  30              		@ frame_needed = 1, uses_anonymous_args = 0
  31              		@ link register save eliminated.
  32 0000 80B4     		push	{r7}
  33              		.cfi_def_cfa_offset 4
  34              		.cfi_offset 7, -4
  35 0002 85B0     		sub	sp, sp, #20
  36              		.cfi_def_cfa_offset 24
  37 0004 00AF     		add	r7, sp, #0
  38              		.cfi_def_cfa_register 7
ARM GAS  C:\Users\glenn\AppData\Local\Temp\ccjo0zXc.s 			page 2


  39 0006 F860     		str	r0, [r7, #12]
  40 0008 B960     		str	r1, [r7, #8]
  41 000a 7A60     		str	r2, [r7, #4]
  42 000c 3B60     		str	r3, [r7]
  20:.\cap_sense/cap_sense.c **** 
  21:.\cap_sense/cap_sense.c ****    /* Initialize the input - CapSense block */
  22:.\cap_sense/cap_sense.c **** 
  23:.\cap_sense/cap_sense.c ****   /* 1. Enable Proximity sensor as it is disabled by default */
  24:.\cap_sense/cap_sense.c ****   //CapSense_1_EnableWidget(CapSense_1_PROXIMITYSENSOR0__PROX);
  25:.\cap_sense/cap_sense.c **** 
  26:.\cap_sense/cap_sense.c ****   /* 2. Start CapSense block - Calibrates the proximity sensor for the set sensitivity setting (in 
  27:.\cap_sense/cap_sense.c ****   //CapSense_1_Start();
  28:.\cap_sense/cap_sense.c **** 
  29:.\cap_sense/cap_sense.c ****  /* 3. Initialize Proximity baseline */
  30:.\cap_sense/cap_sense.c ****  // CapSense_1_InitializeSensorBaseline( PROXIMITY_SENSOR_INDEX );
  31:.\cap_sense/cap_sense.c **** 
  32:.\cap_sense/cap_sense.c ****   return CF_DISABLE;
  43              		.loc 1 32 0
  44 000e 0223     		movs	r3, #2
  33:.\cap_sense/cap_sense.c **** }
  45              		.loc 1 33 0
  46 0010 1846     		mov	r0, r3
  47 0012 1437     		adds	r7, r7, #20
  48              		.cfi_def_cfa_offset 4
  49 0014 BD46     		mov	sp, r7
  50              		.cfi_def_cfa_register 13
  51              		@ sp needed
  52 0016 5DF8047B 		ldr	r7, [sp], #4
  53              		.cfi_restore 7
  54              		.cfi_def_cfa_offset 0
  55 001a 7047     		bx	lr
  56              		.cfi_endproc
  57              	.LFE63:
  58              		.size	init_cap_sense, .-init_cap_sense
  59              		.bss
  60              		.align	2
  61              	proximityActive:
  62 0000 00000000 		.space	4
  63              		.align	2
  64              	proximityValue:
  65 0004 00000000 		.space	4
  66              		.section	.text.process_capsense,"ax",%progbits
  67              		.align	2
  68              		.global	process_capsense
  69              		.thumb
  70              		.thumb_func
  71              		.type	process_capsense, %function
  72              	process_capsense:
  73              	.LFB64:
  34:.\cap_sense/cap_sense.c **** 
  35:.\cap_sense/cap_sense.c **** static volatile int proximityActive;
  36:.\cap_sense/cap_sense.c **** static volatile int proximityValue;
  37:.\cap_sense/cap_sense.c **** 
  38:.\cap_sense/cap_sense.c **** int process_capsense(unsigned link_id, unsigned param_1,
  39:.\cap_sense/cap_sense.c ****   unsigned param_2, unsigned param_3, unsigned event, unsigned data)
  40:.\cap_sense/cap_sense.c **** 
  41:.\cap_sense/cap_sense.c **** {  
ARM GAS  C:\Users\glenn\AppData\Local\Temp\ccjo0zXc.s 			page 3


  74              		.loc 1 41 0
  75              		.cfi_startproc
  76              		@ args = 8, pretend = 0, frame = 16
  77              		@ frame_needed = 1, uses_anonymous_args = 0
  78              		@ link register save eliminated.
  79 0000 80B4     		push	{r7}
  80              		.cfi_def_cfa_offset 4
  81              		.cfi_offset 7, -4
  82 0002 85B0     		sub	sp, sp, #20
  83              		.cfi_def_cfa_offset 24
  84 0004 00AF     		add	r7, sp, #0
  85              		.cfi_def_cfa_register 7
  86 0006 F860     		str	r0, [r7, #12]
  87 0008 B960     		str	r1, [r7, #8]
  88 000a 7A60     		str	r2, [r7, #4]
  89 000c 3B60     		str	r3, [r7]
  42:.\cap_sense/cap_sense.c **** #if 0   
  43:.\cap_sense/cap_sense.c ****     if(CapSense_1_IsBusy() == NOT_BUSY)
  44:.\cap_sense/cap_sense.c ****     {
  45:.\cap_sense/cap_sense.c ****        /* Update proximity sensor baseline */
  46:.\cap_sense/cap_sense.c ****        //CapSense_1_UpdateSensorBaseline(PROXIMITY_SENSOR_INDEX);
  47:.\cap_sense/cap_sense.c **** 
  48:.\cap_sense/cap_sense.c ****        /* Check if proximity sensor is active - thresholds are dynamically calculated during run-ti
  49:.\cap_sense/cap_sense.c ****           proximityActive variable will have a non-zero value if Proximity was active */
  50:.\cap_sense/cap_sense.c ****        proximityActive = CapSense_1_CheckIsSensorActive(PROXIMITY_SENSOR_INDEX);
  51:.\cap_sense/cap_sense.c ****        proximityValue = CapSense_1_ReadSensorRaw(PROXIMITY_SENSOR_INDEX);
  52:.\cap_sense/cap_sense.c ****        /* Trigger the next Scan of proximity sensor */
  53:.\cap_sense/cap_sense.c ****        CapSense_1_ScanSensor(PROXIMITY_SENSOR_INDEX);
  54:.\cap_sense/cap_sense.c ****     }
  55:.\cap_sense/cap_sense.c **** #endif    
  56:.\cap_sense/cap_sense.c ****     return CF_DISABLE;
  90              		.loc 1 56 0
  91 000e 0223     		movs	r3, #2
  57:.\cap_sense/cap_sense.c **** }
  92              		.loc 1 57 0
  93 0010 1846     		mov	r0, r3
  94 0012 1437     		adds	r7, r7, #20
  95              		.cfi_def_cfa_offset 4
  96 0014 BD46     		mov	sp, r7
  97              		.cfi_def_cfa_register 13
  98              		@ sp needed
  99 0016 5DF8047B 		ldr	r7, [sp], #4
 100              		.cfi_restore 7
 101              		.cfi_def_cfa_offset 0
 102 001a 7047     		bx	lr
 103              		.cfi_endproc
 104              	.LFE64:
 105              		.size	process_capsense, .-process_capsense
 106              		.text
 107              	.Letext0:
 108              		.file 2 "c:\\program files (x86)\\cypress\\psoc creator\\3.3\\psoc creator\\import\\gnu\\arm\\4.9.
 109              		.file 3 "c:\\program files (x86)\\cypress\\psoc creator\\3.3\\psoc creator\\import\\gnu\\arm\\4.9.
 110              		.file 4 "Generated_Source\\PSoC5/core_cm3.h"