ARM GAS  C:\Users\glenn\AppData\Local\Temp\ccoL2ste.s 			page 1


   1              		.syntax unified
   2              		.cpu cortex-m3
   3              		.fpu softvfp
   4              		.eabi_attribute 20, 1
   5              		.eabi_attribute 21, 1
   6              		.eabi_attribute 23, 3
   7              		.eabi_attribute 24, 1
   8              		.eabi_attribute 25, 1
   9              		.eabi_attribute 26, 1
  10              		.eabi_attribute 30, 6
  11              		.eabi_attribute 34, 1
  12              		.eabi_attribute 18, 4
  13              		.thumb
  14              		.file	"cf_events.c"
  15              		.text
  16              	.Ltext0:
  17              		.cfi_sections	.debug_frame
  18              		.bss
  19              		.align	2
  20              	rx_index:
  21 0000 00000000 		.space	4
  22              		.align	2
  23              	tx_index:
  24 0004 00000000 		.space	4
  25              		.align	2
  26              	event_number:
  27 0008 00000000 		.space	4
  28              		.align	2
  29              	event_data:
  30 000c 00000000 		.space	2048
  30      00000000 
  30      00000000 
  30      00000000 
  30      00000000 
  31              		.section	.text.cf_initialize_event_manager,"ax",%progbits
  32              		.align	2
  33              		.global	cf_initialize_event_manager
  34              		.thumb
  35              		.thumb_func
  36              		.type	cf_initialize_event_manager, %function
  37              	cf_initialize_event_manager:
  38              	.LFB63:
  39              		.file 1 ".\\chain_flow\\cf_events.c"
   1:.\chain_flow/cf_events.c **** /*
   2:.\chain_flow/cf_events.c **** **
   3:.\chain_flow/cf_events.c **** ** File: cf_events.c
   4:.\chain_flow/cf_events.c **** **
   5:.\chain_flow/cf_events.c **** **
   6:.\chain_flow/cf_events.c **** **
   7:.\chain_flow/cf_events.c **** **
   8:.\chain_flow/cf_events.c **** */
   9:.\chain_flow/cf_events.c **** #include <device.h>
  10:.\chain_flow/cf_events.c **** #include "cf_events.h"
  11:.\chain_flow/cf_events.c **** 
  12:.\chain_flow/cf_events.c **** 
  13:.\chain_flow/cf_events.c **** #define EVENT_SIZE 256
  14:.\chain_flow/cf_events.c **** #define EVENT_MASK 255
ARM GAS  C:\Users\glenn\AppData\Local\Temp\ccoL2ste.s 			page 2


  15:.\chain_flow/cf_events.c **** 
  16:.\chain_flow/cf_events.c **** static unsigned rx_index;
  17:.\chain_flow/cf_events.c **** static unsigned tx_index;
  18:.\chain_flow/cf_events.c **** static unsigned event_number;
  19:.\chain_flow/cf_events.c **** 
  20:.\chain_flow/cf_events.c **** typedef struct
  21:.\chain_flow/cf_events.c **** {
  22:.\chain_flow/cf_events.c ****    unsigned  event;
  23:.\chain_flow/cf_events.c ****    unsigned  data;
  24:.\chain_flow/cf_events.c **** }EVENT_DATA;
  25:.\chain_flow/cf_events.c **** 
  26:.\chain_flow/cf_events.c **** static EVENT_DATA event_data[ EVENT_SIZE ];
  27:.\chain_flow/cf_events.c **** 
  28:.\chain_flow/cf_events.c **** void cf_initialize_event_manager( void )
  29:.\chain_flow/cf_events.c **** {
  40              		.loc 1 29 0
  41              		.cfi_startproc
  42              		@ args = 0, pretend = 0, frame = 0
  43              		@ frame_needed = 1, uses_anonymous_args = 0
  44              		@ link register save eliminated.
  45 0000 80B4     		push	{r7}
  46              		.cfi_def_cfa_offset 4
  47              		.cfi_offset 7, -4
  48 0002 00AF     		add	r7, sp, #0
  49              		.cfi_def_cfa_register 7
  30:.\chain_flow/cf_events.c ****    rx_index     = 0;
  50              		.loc 1 30 0
  51 0004 064B     		ldr	r3, .L2
  52 0006 0022     		movs	r2, #0
  53 0008 1A60     		str	r2, [r3]
  31:.\chain_flow/cf_events.c ****    tx_index     = 0;
  54              		.loc 1 31 0
  55 000a 064B     		ldr	r3, .L2+4
  56 000c 0022     		movs	r2, #0
  57 000e 1A60     		str	r2, [r3]
  32:.\chain_flow/cf_events.c ****    event_number = 0;
  58              		.loc 1 32 0
  59 0010 054B     		ldr	r3, .L2+8
  60 0012 0022     		movs	r2, #0
  61 0014 1A60     		str	r2, [r3]
  33:.\chain_flow/cf_events.c **** }
  62              		.loc 1 33 0
  63 0016 BD46     		mov	sp, r7
  64              		.cfi_def_cfa_register 13
  65              		@ sp needed
  66 0018 5DF8047B 		ldr	r7, [sp], #4
  67              		.cfi_restore 7
  68              		.cfi_def_cfa_offset 0
  69 001c 7047     		bx	lr
  70              	.L3:
  71 001e 00BF     		.align	2
  72              	.L2:
  73 0020 00000000 		.word	rx_index
  74 0024 04000000 		.word	tx_index
  75 0028 08000000 		.word	event_number
  76              		.cfi_endproc
  77              	.LFE63:
ARM GAS  C:\Users\glenn\AppData\Local\Temp\ccoL2ste.s 			page 3


  78              		.size	cf_initialize_event_manager, .-cf_initialize_event_manager
  79              		.section	.text.cf_send_interrupt_event,"ax",%progbits
  80              		.align	2
  81              		.global	cf_send_interrupt_event
  82              		.thumb
  83              		.thumb_func
  84              		.type	cf_send_interrupt_event, %function
  85              	cf_send_interrupt_event:
  86              	.LFB64:
  34:.\chain_flow/cf_events.c **** 
  35:.\chain_flow/cf_events.c **** void cf_send_interrupt_event( unsigned event, unsigned data)
  36:.\chain_flow/cf_events.c **** {
  87              		.loc 1 36 0
  88              		.cfi_startproc
  89              		@ args = 0, pretend = 0, frame = 8
  90              		@ frame_needed = 1, uses_anonymous_args = 0
  91              		@ link register save eliminated.
  92 0000 80B4     		push	{r7}
  93              		.cfi_def_cfa_offset 4
  94              		.cfi_offset 7, -4
  95 0002 83B0     		sub	sp, sp, #12
  96              		.cfi_def_cfa_offset 16
  97 0004 00AF     		add	r7, sp, #0
  98              		.cfi_def_cfa_register 7
  99 0006 7860     		str	r0, [r7, #4]
 100 0008 3960     		str	r1, [r7]
  37:.\chain_flow/cf_events.c ****   
  38:.\chain_flow/cf_events.c ****    if( event_number < EVENT_SIZE )
 101              		.loc 1 38 0
 102 000a 104B     		ldr	r3, .L6
 103 000c 1B68     		ldr	r3, [r3]
 104 000e FF2B     		cmp	r3, #255
 105 0010 17D8     		bhi	.L4
  39:.\chain_flow/cf_events.c ****    {
  40:.\chain_flow/cf_events.c ****      event_data[rx_index].event      = event;
 106              		.loc 1 40 0
 107 0012 0F4B     		ldr	r3, .L6+4
 108 0014 1B68     		ldr	r3, [r3]
 109 0016 0F49     		ldr	r1, .L6+8
 110 0018 7A68     		ldr	r2, [r7, #4]
 111 001a 41F83320 		str	r2, [r1, r3, lsl #3]
  41:.\chain_flow/cf_events.c ****      event_data[rx_index].data       = data;
 112              		.loc 1 41 0
 113 001e 0C4B     		ldr	r3, .L6+4
 114 0020 1B68     		ldr	r3, [r3]
 115 0022 0C4A     		ldr	r2, .L6+8
 116 0024 DB00     		lsls	r3, r3, #3
 117 0026 1344     		add	r3, r3, r2
 118 0028 3A68     		ldr	r2, [r7]
 119 002a 5A60     		str	r2, [r3, #4]
  42:.\chain_flow/cf_events.c ****      event_number++;
 120              		.loc 1 42 0
 121 002c 074B     		ldr	r3, .L6
 122 002e 1B68     		ldr	r3, [r3]
 123 0030 0133     		adds	r3, r3, #1
 124 0032 064A     		ldr	r2, .L6
 125 0034 1360     		str	r3, [r2]
ARM GAS  C:\Users\glenn\AppData\Local\Temp\ccoL2ste.s 			page 4


  43:.\chain_flow/cf_events.c ****      rx_index = ( rx_index +1 )&EVENT_MASK;
 126              		.loc 1 43 0
 127 0036 064B     		ldr	r3, .L6+4
 128 0038 1B68     		ldr	r3, [r3]
 129 003a 0133     		adds	r3, r3, #1
 130 003c DBB2     		uxtb	r3, r3
 131 003e 044A     		ldr	r2, .L6+4
 132 0040 1360     		str	r3, [r2]
 133              	.L4:
  44:.\chain_flow/cf_events.c ****    }
  45:.\chain_flow/cf_events.c ****    
  46:.\chain_flow/cf_events.c **** }
 134              		.loc 1 46 0
 135 0042 0C37     		adds	r7, r7, #12
 136              		.cfi_def_cfa_offset 4
 137 0044 BD46     		mov	sp, r7
 138              		.cfi_def_cfa_register 13
 139              		@ sp needed
 140 0046 5DF8047B 		ldr	r7, [sp], #4
 141              		.cfi_restore 7
 142              		.cfi_def_cfa_offset 0
 143 004a 7047     		bx	lr
 144              	.L7:
 145              		.align	2
 146              	.L6:
 147 004c 08000000 		.word	event_number
 148 0050 00000000 		.word	rx_index
 149 0054 0C000000 		.word	event_data
 150              		.cfi_endproc
 151              	.LFE64:
 152              		.size	cf_send_interrupt_event, .-cf_send_interrupt_event
 153              		.section	.text.cf_send_event,"ax",%progbits
 154              		.align	2
 155              		.global	cf_send_event
 156              		.thumb
 157              		.thumb_func
 158              		.type	cf_send_event, %function
 159              	cf_send_event:
 160              	.LFB65:
  47:.\chain_flow/cf_events.c **** 
  48:.\chain_flow/cf_events.c **** void cf_send_event( unsigned event, unsigned data )
  49:.\chain_flow/cf_events.c **** {
 161              		.loc 1 49 0
 162              		.cfi_startproc
 163              		@ args = 0, pretend = 0, frame = 8
 164              		@ frame_needed = 1, uses_anonymous_args = 0
 165              		@ link register save eliminated.
 166 0000 80B4     		push	{r7}
 167              		.cfi_def_cfa_offset 4
 168              		.cfi_offset 7, -4
 169 0002 83B0     		sub	sp, sp, #12
 170              		.cfi_def_cfa_offset 16
 171 0004 00AF     		add	r7, sp, #0
 172              		.cfi_def_cfa_register 7
 173 0006 7860     		str	r0, [r7, #4]
 174 0008 3960     		str	r1, [r7]
  50:.\chain_flow/cf_events.c ****    CyGlobalIntEnable;
ARM GAS  C:\Users\glenn\AppData\Local\Temp\ccoL2ste.s 			page 5


 175              		.loc 1 50 0
 176              	@ 50 ".\chain_flow\cf_events.c" 1
 177 000a 62B6     		CPSIE   i
 178              	@ 0 "" 2
  51:.\chain_flow/cf_events.c ****    if( event_number < EVENT_SIZE )
 179              		.loc 1 51 0
 180              		.thumb
 181 000c 104B     		ldr	r3, .L10
 182 000e 1B68     		ldr	r3, [r3]
 183 0010 FF2B     		cmp	r3, #255
 184 0012 17D8     		bhi	.L9
  52:.\chain_flow/cf_events.c ****    {
  53:.\chain_flow/cf_events.c ****      event_data[rx_index].event      = event;
 185              		.loc 1 53 0
 186 0014 0F4B     		ldr	r3, .L10+4
 187 0016 1B68     		ldr	r3, [r3]
 188 0018 0F49     		ldr	r1, .L10+8
 189 001a 7A68     		ldr	r2, [r7, #4]
 190 001c 41F83320 		str	r2, [r1, r3, lsl #3]
  54:.\chain_flow/cf_events.c ****      event_data[rx_index].data       = data;
 191              		.loc 1 54 0
 192 0020 0C4B     		ldr	r3, .L10+4
 193 0022 1B68     		ldr	r3, [r3]
 194 0024 0C4A     		ldr	r2, .L10+8
 195 0026 DB00     		lsls	r3, r3, #3
 196 0028 1344     		add	r3, r3, r2
 197 002a 3A68     		ldr	r2, [r7]
 198 002c 5A60     		str	r2, [r3, #4]
  55:.\chain_flow/cf_events.c ****      event_number++;
 199              		.loc 1 55 0
 200 002e 084B     		ldr	r3, .L10
 201 0030 1B68     		ldr	r3, [r3]
 202 0032 0133     		adds	r3, r3, #1
 203 0034 064A     		ldr	r2, .L10
 204 0036 1360     		str	r3, [r2]
  56:.\chain_flow/cf_events.c ****      rx_index = ( rx_index +1 )&EVENT_MASK;
 205              		.loc 1 56 0
 206 0038 064B     		ldr	r3, .L10+4
 207 003a 1B68     		ldr	r3, [r3]
 208 003c 0133     		adds	r3, r3, #1
 209 003e DBB2     		uxtb	r3, r3
 210 0040 044A     		ldr	r2, .L10+4
 211 0042 1360     		str	r3, [r2]
 212              	.L9:
  57:.\chain_flow/cf_events.c ****    }
  58:.\chain_flow/cf_events.c ****    CyGlobalIntDisable;
 213              		.loc 1 58 0
 214              	@ 58 ".\chain_flow\cf_events.c" 1
 215 0044 72B6     		CPSID   i
 216              	@ 0 "" 2
  59:.\chain_flow/cf_events.c **** }
 217              		.loc 1 59 0
 218              		.thumb
 219 0046 0C37     		adds	r7, r7, #12
 220              		.cfi_def_cfa_offset 4
 221 0048 BD46     		mov	sp, r7
 222              		.cfi_def_cfa_register 13
ARM GAS  C:\Users\glenn\AppData\Local\Temp\ccoL2ste.s 			page 6


 223              		@ sp needed
 224 004a 5DF8047B 		ldr	r7, [sp], #4
 225              		.cfi_restore 7
 226              		.cfi_def_cfa_offset 0
 227 004e 7047     		bx	lr
 228              	.L11:
 229              		.align	2
 230              	.L10:
 231 0050 08000000 		.word	event_number
 232 0054 00000000 		.word	rx_index
 233 0058 0C000000 		.word	event_data
 234              		.cfi_endproc
 235              	.LFE65:
 236              		.size	cf_send_event, .-cf_send_event
 237              		.section	.text.cf_rx_event,"ax",%progbits
 238              		.align	2
 239              		.global	cf_rx_event
 240              		.thumb
 241              		.thumb_func
 242              		.type	cf_rx_event, %function
 243              	cf_rx_event:
 244              	.LFB66:
  60:.\chain_flow/cf_events.c **** 
  61:.\chain_flow/cf_events.c **** 
  62:.\chain_flow/cf_events.c **** int cf_rx_event( unsigned *event, unsigned *data )
  63:.\chain_flow/cf_events.c **** {
 245              		.loc 1 63 0
 246              		.cfi_startproc
 247              		@ args = 0, pretend = 0, frame = 16
 248              		@ frame_needed = 1, uses_anonymous_args = 0
 249              		@ link register save eliminated.
 250 0000 80B4     		push	{r7}
 251              		.cfi_def_cfa_offset 4
 252              		.cfi_offset 7, -4
 253 0002 85B0     		sub	sp, sp, #20
 254              		.cfi_def_cfa_offset 24
 255 0004 00AF     		add	r7, sp, #0
 256              		.cfi_def_cfa_register 7
 257 0006 7860     		str	r0, [r7, #4]
 258 0008 3960     		str	r1, [r7]
  64:.\chain_flow/cf_events.c ****    int return_value;
  65:.\chain_flow/cf_events.c ****    CyGlobalIntDisable;
 259              		.loc 1 65 0
 260              	@ 65 ".\chain_flow\cf_events.c" 1
 261 000a 72B6     		CPSID   i
 262              	@ 0 "" 2
  66:.\chain_flow/cf_events.c ****    // add interrupt protoection
  67:.\chain_flow/cf_events.c ****    if( event_number > 0 )
 263              		.loc 1 67 0
 264              		.thumb
 265 000c 154B     		ldr	r3, .L16
 266 000e 1B68     		ldr	r3, [r3]
 267 0010 002B     		cmp	r3, #0
 268 0012 1CD0     		beq	.L13
  68:.\chain_flow/cf_events.c ****    {
  69:.\chain_flow/cf_events.c ****       *event          = event_data[tx_index].event;
 269              		.loc 1 69 0
ARM GAS  C:\Users\glenn\AppData\Local\Temp\ccoL2ste.s 			page 7


 270 0014 144B     		ldr	r3, .L16+4
 271 0016 1B68     		ldr	r3, [r3]
 272 0018 144A     		ldr	r2, .L16+8
 273 001a 52F83320 		ldr	r2, [r2, r3, lsl #3]
 274 001e 7B68     		ldr	r3, [r7, #4]
 275 0020 1A60     		str	r2, [r3]
  70:.\chain_flow/cf_events.c ****       *data     = event_data[tx_index].data;
 276              		.loc 1 70 0
 277 0022 114B     		ldr	r3, .L16+4
 278 0024 1B68     		ldr	r3, [r3]
 279 0026 114A     		ldr	r2, .L16+8
 280 0028 DB00     		lsls	r3, r3, #3
 281 002a 1344     		add	r3, r3, r2
 282 002c 5A68     		ldr	r2, [r3, #4]
 283 002e 3B68     		ldr	r3, [r7]
 284 0030 1A60     		str	r2, [r3]
  71:.\chain_flow/cf_events.c ****       return_value    = 1;
 285              		.loc 1 71 0
 286 0032 0123     		movs	r3, #1
 287 0034 FB60     		str	r3, [r7, #12]
  72:.\chain_flow/cf_events.c ****       event_number--;
 288              		.loc 1 72 0
 289 0036 0B4B     		ldr	r3, .L16
 290 0038 1B68     		ldr	r3, [r3]
 291 003a 013B     		subs	r3, r3, #1
 292 003c 094A     		ldr	r2, .L16
 293 003e 1360     		str	r3, [r2]
  73:.\chain_flow/cf_events.c ****       tx_index = ( tx_index +1 )&EVENT_MASK;
 294              		.loc 1 73 0
 295 0040 094B     		ldr	r3, .L16+4
 296 0042 1B68     		ldr	r3, [r3]
 297 0044 0133     		adds	r3, r3, #1
 298 0046 DBB2     		uxtb	r3, r3
 299 0048 074A     		ldr	r2, .L16+4
 300 004a 1360     		str	r3, [r2]
 301 004c 01E0     		b	.L14
 302              	.L13:
  74:.\chain_flow/cf_events.c **** 
  75:.\chain_flow/cf_events.c ****    }
  76:.\chain_flow/cf_events.c ****    else
  77:.\chain_flow/cf_events.c ****    {
  78:.\chain_flow/cf_events.c ****      return_value = 0;
 303              		.loc 1 78 0
 304 004e 0023     		movs	r3, #0
 305 0050 FB60     		str	r3, [r7, #12]
 306              	.L14:
  79:.\chain_flow/cf_events.c ****    }
  80:.\chain_flow/cf_events.c ****    CyGlobalIntEnable;
 307              		.loc 1 80 0
 308              	@ 80 ".\chain_flow\cf_events.c" 1
 309 0052 62B6     		CPSIE   i
 310              	@ 0 "" 2
  81:.\chain_flow/cf_events.c ****    return return_value;
 311              		.loc 1 81 0
 312              		.thumb
 313 0054 FB68     		ldr	r3, [r7, #12]
  82:.\chain_flow/cf_events.c **** }
ARM GAS  C:\Users\glenn\AppData\Local\Temp\ccoL2ste.s 			page 8


 314              		.loc 1 82 0
 315 0056 1846     		mov	r0, r3
 316 0058 1437     		adds	r7, r7, #20
 317              		.cfi_def_cfa_offset 4
 318 005a BD46     		mov	sp, r7
 319              		.cfi_def_cfa_register 13
 320              		@ sp needed
 321 005c 5DF8047B 		ldr	r7, [sp], #4
 322              		.cfi_restore 7
 323              		.cfi_def_cfa_offset 0
 324 0060 7047     		bx	lr
 325              	.L17:
 326 0062 00BF     		.align	2
 327              	.L16:
 328 0064 08000000 		.word	event_number
 329 0068 04000000 		.word	tx_index
 330 006c 0C000000 		.word	event_data
 331              		.cfi_endproc
 332              	.LFE66:
 333              		.size	cf_rx_event, .-cf_rx_event
 334              		.text
 335              	.Letext0:
 336              		.file 2 "c:\\program files (x86)\\cypress\\psoc creator\\3.3\\psoc creator\\import\\gnu\\arm\\4.9.
 337              		.file 3 "c:\\program files (x86)\\cypress\\psoc creator\\3.3\\psoc creator\\import\\gnu\\arm\\4.9.
 338              		.file 4 "Generated_Source\\PSoC5/core_cm3.h"