ARM GAS  C:\Users\glenn\AppData\Local\Temp\ccMxSLDc.s 			page 1


   1              		.syntax unified
   2              		.cpu cortex-m3
   3              		.fpu softvfp
   4              		.eabi_attribute 20, 1
   5              		.eabi_attribute 21, 1
   6              		.eabi_attribute 23, 3
   7              		.eabi_attribute 24, 1
   8              		.eabi_attribute 25, 1
   9              		.eabi_attribute 26, 1
  10              		.eabi_attribute 30, 6
  11              		.eabi_attribute 34, 1
  12              		.eabi_attribute 18, 4
  13              		.thumb
  14              		.file	"digitial_io.c"
  15              		.text
  16              	.Ltext0:
  17              		.cfi_sections	.debug_frame
  18              		.section	.text.read_and_clear_counter,"ax",%progbits
  19              		.align	2
  20              		.global	read_and_clear_counter
  21              		.thumb
  22              		.thumb_func
  23              		.type	read_and_clear_counter, %function
  24              	read_and_clear_counter:
  25              	.LFB63:
  26              		.file 1 "..\\..\\utilities\\digitial_io.c"
   1:..\..\utilities/digitial_io.c **** /*
   2:..\..\utilities/digitial_io.c **** File: digital_io.c
   3:..\..\utilities/digitial_io.c **** 
   4:..\..\utilities/digitial_io.c **** Digital functions
   5:..\..\utilities/digitial_io.c **** 
   6:..\..\utilities/digitial_io.c **** */
   7:..\..\utilities/digitial_io.c **** 
   8:..\..\utilities/digitial_io.c **** 
   9:..\..\utilities/digitial_io.c **** #include <device.h>
  10:..\..\utilities/digitial_io.c **** 
  11:..\..\utilities/digitial_io.c **** // status registers bit definitions
  12:..\..\utilities/digitial_io.c **** #define  DIGITAL_2  1
  13:..\..\utilities/digitial_io.c **** #define  DIGITAL_3  2
  14:..\..\utilities/digitial_io.c **** #define  DIGITAL_4  4
  15:..\..\utilities/digitial_io.c **** #define  BOARD_SWITCH  8
  16:..\..\utilities/digitial_io.c **** 
  17:..\..\utilities/digitial_io.c **** 
  18:..\..\utilities/digitial_io.c **** 
  19:..\..\utilities/digitial_io.c **** 
  20:..\..\utilities/digitial_io.c **** 
  21:..\..\utilities/digitial_io.c **** uint32 read_and_clear_counter( void )
  22:..\..\utilities/digitial_io.c **** {   
  27              		.loc 1 22 0
  28              		.cfi_startproc
  29              		@ args = 0, pretend = 0, frame = 8
  30              		@ frame_needed = 1, uses_anonymous_args = 0
  31 0000 80B5     		push	{r7, lr}
  32              		.cfi_def_cfa_offset 8
  33              		.cfi_offset 7, -8
  34              		.cfi_offset 14, -4
  35 0002 82B0     		sub	sp, sp, #8
ARM GAS  C:\Users\glenn\AppData\Local\Temp\ccMxSLDc.s 			page 2


  36              		.cfi_def_cfa_offset 16
  37 0004 00AF     		add	r7, sp, #0
  38              		.cfi_def_cfa_register 7
  23:..\..\utilities/digitial_io.c ****     uint32 counter;
  24:..\..\utilities/digitial_io.c ****     
  25:..\..\utilities/digitial_io.c ****     counter = Counter_1_ReadCounter();
  39              		.loc 1 25 0
  40 0006 FFF7FEFF 		bl	Counter_1_ReadCounter
  41 000a 0346     		mov	r3, r0
  42 000c 7B60     		str	r3, [r7, #4]
  26:..\..\utilities/digitial_io.c ****     Counter_1_Stop(); 
  43              		.loc 1 26 0
  44 000e FFF7FEFF 		bl	Counter_1_Stop
  27:..\..\utilities/digitial_io.c ****     Counter_1_WriteCounter(0);
  45              		.loc 1 27 0
  46 0012 0020     		movs	r0, #0
  47 0014 FFF7FEFF 		bl	Counter_1_WriteCounter
  28:..\..\utilities/digitial_io.c ****     Counter_1_Start();    
  48              		.loc 1 28 0
  49 0018 FFF7FEFF 		bl	Counter_1_Start
  29:..\..\utilities/digitial_io.c ****     return counter;
  50              		.loc 1 29 0
  51 001c 7B68     		ldr	r3, [r7, #4]
  30:..\..\utilities/digitial_io.c ****     
  31:..\..\utilities/digitial_io.c **** 
  32:..\..\utilities/digitial_io.c **** }
  52              		.loc 1 32 0
  53 001e 1846     		mov	r0, r3
  54 0020 0837     		adds	r7, r7, #8
  55              		.cfi_def_cfa_offset 8
  56 0022 BD46     		mov	sp, r7
  57              		.cfi_def_cfa_register 13
  58              		@ sp needed
  59 0024 80BD     		pop	{r7, pc}
  60              		.cfi_endproc
  61              	.LFE63:
  62              		.size	read_and_clear_counter, .-read_and_clear_counter
  63 0026 00BF     		.section	.text.read_board_switch,"ax",%progbits
  64              		.align	2
  65              		.global	read_board_switch
  66              		.thumb
  67              		.thumb_func
  68              		.type	read_board_switch, %function
  69              	read_board_switch:
  70              	.LFB64:
  33:..\..\utilities/digitial_io.c **** 
  34:..\..\utilities/digitial_io.c **** uint32 read_board_switch( void )
  35:..\..\utilities/digitial_io.c **** {
  71              		.loc 1 35 0
  72              		.cfi_startproc
  73              		@ args = 0, pretend = 0, frame = 8
  74              		@ frame_needed = 1, uses_anonymous_args = 0
  75 0000 80B5     		push	{r7, lr}
  76              		.cfi_def_cfa_offset 8
  77              		.cfi_offset 7, -8
  78              		.cfi_offset 14, -4
  79 0002 82B0     		sub	sp, sp, #8
ARM GAS  C:\Users\glenn\AppData\Local\Temp\ccMxSLDc.s 			page 3


  80              		.cfi_def_cfa_offset 16
  81 0004 00AF     		add	r7, sp, #0
  82              		.cfi_def_cfa_register 7
  36:..\..\utilities/digitial_io.c ****     uint32 return_value;
  37:..\..\utilities/digitial_io.c ****     
  38:..\..\utilities/digitial_io.c ****     if( Status_Reg_1_Read() & BOARD_SWITCH )
  83              		.loc 1 38 0
  84 0006 FFF7FEFF 		bl	Status_Reg_1_Read
  85 000a 0346     		mov	r3, r0
  86 000c 03F00803 		and	r3, r3, #8
  87 0010 002B     		cmp	r3, #0
  88 0012 02D0     		beq	.L4
  39:..\..\utilities/digitial_io.c ****     {
  40:..\..\utilities/digitial_io.c ****         return_value = 1;
  89              		.loc 1 40 0
  90 0014 0123     		movs	r3, #1
  91 0016 7B60     		str	r3, [r7, #4]
  92 0018 01E0     		b	.L5
  93              	.L4:
  41:..\..\utilities/digitial_io.c ****     }
  42:..\..\utilities/digitial_io.c ****     else
  43:..\..\utilities/digitial_io.c ****     {
  44:..\..\utilities/digitial_io.c ****         return_value = 0;
  94              		.loc 1 44 0
  95 001a 0023     		movs	r3, #0
  96 001c 7B60     		str	r3, [r7, #4]
  97              	.L5:
  45:..\..\utilities/digitial_io.c ****     }
  46:..\..\utilities/digitial_io.c ****     return return_value;
  98              		.loc 1 46 0
  99 001e 7B68     		ldr	r3, [r7, #4]
  47:..\..\utilities/digitial_io.c **** 
  48:..\..\utilities/digitial_io.c ****     
  49:..\..\utilities/digitial_io.c **** }
 100              		.loc 1 49 0
 101 0020 1846     		mov	r0, r3
 102 0022 0837     		adds	r7, r7, #8
 103              		.cfi_def_cfa_offset 8
 104 0024 BD46     		mov	sp, r7
 105              		.cfi_def_cfa_register 13
 106              		@ sp needed
 107 0026 80BD     		pop	{r7, pc}
 108              		.cfi_endproc
 109              	.LFE64:
 110              		.size	read_board_switch, .-read_board_switch
 111              		.section	.text.read_input_2,"ax",%progbits
 112              		.align	2
 113              		.global	read_input_2
 114              		.thumb
 115              		.thumb_func
 116              		.type	read_input_2, %function
 117              	read_input_2:
 118              	.LFB65:
  50:..\..\utilities/digitial_io.c **** 
  51:..\..\utilities/digitial_io.c **** uint32 read_input_2( void )
  52:..\..\utilities/digitial_io.c **** {
 119              		.loc 1 52 0
ARM GAS  C:\Users\glenn\AppData\Local\Temp\ccMxSLDc.s 			page 4


 120              		.cfi_startproc
 121              		@ args = 0, pretend = 0, frame = 8
 122              		@ frame_needed = 1, uses_anonymous_args = 0
 123 0000 80B5     		push	{r7, lr}
 124              		.cfi_def_cfa_offset 8
 125              		.cfi_offset 7, -8
 126              		.cfi_offset 14, -4
 127 0002 82B0     		sub	sp, sp, #8
 128              		.cfi_def_cfa_offset 16
 129 0004 00AF     		add	r7, sp, #0
 130              		.cfi_def_cfa_register 7
  53:..\..\utilities/digitial_io.c ****     uint32 return_value;
  54:..\..\utilities/digitial_io.c ****     if( Status_Reg_1_Read() & DIGITAL_2 )
 131              		.loc 1 54 0
 132 0006 FFF7FEFF 		bl	Status_Reg_1_Read
 133 000a 0346     		mov	r3, r0
 134 000c 03F00103 		and	r3, r3, #1
 135 0010 002B     		cmp	r3, #0
 136 0012 02D0     		beq	.L8
  55:..\..\utilities/digitial_io.c ****     {
  56:..\..\utilities/digitial_io.c ****         return_value = 1;
 137              		.loc 1 56 0
 138 0014 0123     		movs	r3, #1
 139 0016 7B60     		str	r3, [r7, #4]
 140 0018 01E0     		b	.L9
 141              	.L8:
  57:..\..\utilities/digitial_io.c ****     }
  58:..\..\utilities/digitial_io.c ****     else
  59:..\..\utilities/digitial_io.c ****     {
  60:..\..\utilities/digitial_io.c ****         return_value = 0;
 142              		.loc 1 60 0
 143 001a 0023     		movs	r3, #0
 144 001c 7B60     		str	r3, [r7, #4]
 145              	.L9:
  61:..\..\utilities/digitial_io.c ****     }
  62:..\..\utilities/digitial_io.c ****     return return_value;
 146              		.loc 1 62 0
 147 001e 7B68     		ldr	r3, [r7, #4]
  63:..\..\utilities/digitial_io.c **** 
  64:..\..\utilities/digitial_io.c ****     
  65:..\..\utilities/digitial_io.c **** }
 148              		.loc 1 65 0
 149 0020 1846     		mov	r0, r3
 150 0022 0837     		adds	r7, r7, #8
 151              		.cfi_def_cfa_offset 8
 152 0024 BD46     		mov	sp, r7
 153              		.cfi_def_cfa_register 13
 154              		@ sp needed
 155 0026 80BD     		pop	{r7, pc}
 156              		.cfi_endproc
 157              	.LFE65:
 158              		.size	read_input_2, .-read_input_2
 159              		.section	.text.read_input_3,"ax",%progbits
 160              		.align	2
 161              		.global	read_input_3
 162              		.thumb
 163              		.thumb_func
ARM GAS  C:\Users\glenn\AppData\Local\Temp\ccMxSLDc.s 			page 5


 164              		.type	read_input_3, %function
 165              	read_input_3:
 166              	.LFB66:
  66:..\..\utilities/digitial_io.c **** 
  67:..\..\utilities/digitial_io.c **** 
  68:..\..\utilities/digitial_io.c **** 
  69:..\..\utilities/digitial_io.c **** 
  70:..\..\utilities/digitial_io.c **** uint32 read_input_3( void )
  71:..\..\utilities/digitial_io.c **** {
 167              		.loc 1 71 0
 168              		.cfi_startproc
 169              		@ args = 0, pretend = 0, frame = 8
 170              		@ frame_needed = 1, uses_anonymous_args = 0
 171 0000 80B5     		push	{r7, lr}
 172              		.cfi_def_cfa_offset 8
 173              		.cfi_offset 7, -8
 174              		.cfi_offset 14, -4
 175 0002 82B0     		sub	sp, sp, #8
 176              		.cfi_def_cfa_offset 16
 177 0004 00AF     		add	r7, sp, #0
 178              		.cfi_def_cfa_register 7
  72:..\..\utilities/digitial_io.c ****     uint32 return_value;
  73:..\..\utilities/digitial_io.c ****     if( Status_Reg_1_Read() & DIGITAL_3 )
 179              		.loc 1 73 0
 180 0006 FFF7FEFF 		bl	Status_Reg_1_Read
 181 000a 0346     		mov	r3, r0
 182 000c 03F00203 		and	r3, r3, #2
 183 0010 002B     		cmp	r3, #0
 184 0012 02D0     		beq	.L12
  74:..\..\utilities/digitial_io.c ****     {
  75:..\..\utilities/digitial_io.c ****         return_value = 1;
 185              		.loc 1 75 0
 186 0014 0123     		movs	r3, #1
 187 0016 7B60     		str	r3, [r7, #4]
 188 0018 01E0     		b	.L13
 189              	.L12:
  76:..\..\utilities/digitial_io.c ****     }
  77:..\..\utilities/digitial_io.c ****     else
  78:..\..\utilities/digitial_io.c ****     {
  79:..\..\utilities/digitial_io.c ****         return_value = 0;
 190              		.loc 1 79 0
 191 001a 0023     		movs	r3, #0
 192 001c 7B60     		str	r3, [r7, #4]
 193              	.L13:
  80:..\..\utilities/digitial_io.c ****     }
  81:..\..\utilities/digitial_io.c ****     return return_value;
 194              		.loc 1 81 0
 195 001e 7B68     		ldr	r3, [r7, #4]
  82:..\..\utilities/digitial_io.c **** 
  83:..\..\utilities/digitial_io.c ****     
  84:..\..\utilities/digitial_io.c **** }
 196              		.loc 1 84 0
 197 0020 1846     		mov	r0, r3
 198 0022 0837     		adds	r7, r7, #8
 199              		.cfi_def_cfa_offset 8
 200 0024 BD46     		mov	sp, r7
 201              		.cfi_def_cfa_register 13
ARM GAS  C:\Users\glenn\AppData\Local\Temp\ccMxSLDc.s 			page 6


 202              		@ sp needed
 203 0026 80BD     		pop	{r7, pc}
 204              		.cfi_endproc
 205              	.LFE66:
 206              		.size	read_input_3, .-read_input_3
 207              		.section	.text.read_input_4,"ax",%progbits
 208              		.align	2
 209              		.global	read_input_4
 210              		.thumb
 211              		.thumb_func
 212              		.type	read_input_4, %function
 213              	read_input_4:
 214              	.LFB67:
  85:..\..\utilities/digitial_io.c **** 
  86:..\..\utilities/digitial_io.c **** 
  87:..\..\utilities/digitial_io.c **** uint32 read_input_4( void )
  88:..\..\utilities/digitial_io.c **** {
 215              		.loc 1 88 0
 216              		.cfi_startproc
 217              		@ args = 0, pretend = 0, frame = 8
 218              		@ frame_needed = 1, uses_anonymous_args = 0
 219 0000 80B5     		push	{r7, lr}
 220              		.cfi_def_cfa_offset 8
 221              		.cfi_offset 7, -8
 222              		.cfi_offset 14, -4
 223 0002 82B0     		sub	sp, sp, #8
 224              		.cfi_def_cfa_offset 16
 225 0004 00AF     		add	r7, sp, #0
 226              		.cfi_def_cfa_register 7
  89:..\..\utilities/digitial_io.c ****     uint32 return_value;
  90:..\..\utilities/digitial_io.c ****     if( Status_Reg_1_Read() & DIGITAL_4 )
 227              		.loc 1 90 0
 228 0006 FFF7FEFF 		bl	Status_Reg_1_Read
 229 000a 0346     		mov	r3, r0
 230 000c 03F00403 		and	r3, r3, #4
 231 0010 002B     		cmp	r3, #0
 232 0012 02D0     		beq	.L16
  91:..\..\utilities/digitial_io.c ****     {
  92:..\..\utilities/digitial_io.c ****         return_value = 1;
 233              		.loc 1 92 0
 234 0014 0123     		movs	r3, #1
 235 0016 7B60     		str	r3, [r7, #4]
 236 0018 01E0     		b	.L17
 237              	.L16:
  93:..\..\utilities/digitial_io.c ****     }
  94:..\..\utilities/digitial_io.c ****     else
  95:..\..\utilities/digitial_io.c ****     {
  96:..\..\utilities/digitial_io.c ****         return_value = 0;
 238              		.loc 1 96 0
 239 001a 0023     		movs	r3, #0
 240 001c 7B60     		str	r3, [r7, #4]
 241              	.L17:
  97:..\..\utilities/digitial_io.c ****     }
  98:..\..\utilities/digitial_io.c ****     return return_value;
 242              		.loc 1 98 0
 243 001e 7B68     		ldr	r3, [r7, #4]
  99:..\..\utilities/digitial_io.c **** 
ARM GAS  C:\Users\glenn\AppData\Local\Temp\ccMxSLDc.s 			page 7


 100:..\..\utilities/digitial_io.c ****     
 101:..\..\utilities/digitial_io.c **** }
 244              		.loc 1 101 0
 245 0020 1846     		mov	r0, r3
 246 0022 0837     		adds	r7, r7, #8
 247              		.cfi_def_cfa_offset 8
 248 0024 BD46     		mov	sp, r7
 249              		.cfi_def_cfa_register 13
 250              		@ sp needed
 251 0026 80BD     		pop	{r7, pc}
 252              		.cfi_endproc
 253              	.LFE67:
 254              		.size	read_input_4, .-read_input_4
 255              		.text
 256              	.Letext0:
 257              		.file 2 "c:\\program files (x86)\\cypress\\psoc creator\\3.3\\psoc creator\\import\\gnu\\arm\\4.9.
 258              		.file 3 "c:\\program files (x86)\\cypress\\psoc creator\\3.3\\psoc creator\\import\\gnu\\arm\\4.9.
 259              		.file 4 "Generated_Source\\PSoC5/cytypes.h"
 260              		.file 5 "Generated_Source\\PSoC5/core_cm3.h"