ARM GAS  C:\Users\glenn\AppData\Local\Temp\ccAJeVoa.s 			page 1


   1              		.syntax unified
   2              		.cpu cortex-m3
   3              		.fpu softvfp
   4              		.eabi_attribute 20, 1
   5              		.eabi_attribute 21, 1
   6              		.eabi_attribute 23, 3
   7              		.eabi_attribute 24, 1
   8              		.eabi_attribute 25, 1
   9              		.eabi_attribute 26, 1
  10              		.eabi_attribute 30, 6
  11              		.eabi_attribute 34, 1
  12              		.eabi_attribute 18, 4
  13              		.thumb
  14              		.file	"eeprom_register_access.c"
  15              		.text
  16              	.Ltext0:
  17              		.cfi_sections	.debug_frame
  18              		.section	.text.EEPROM_read_registers,"ax",%progbits
  19              		.align	2
  20              		.global	EEPROM_read_registers
  21              		.thumb
  22              		.thumb_func
  23              		.type	EEPROM_read_registers, %function
  24              	EEPROM_read_registers:
  25              	.LFB63:
  26              		.file 1 ".\\utilities\\eeprom_register_access.c"
   1:.\utilities/eeprom_register_access.c **** /*
   2:.\utilities/eeprom_register_access.c **** **
   3:.\utilities/eeprom_register_access.c **** ** File: eeprom_register_access.c
   4:.\utilities/eeprom_register_access.c **** **
   5:.\utilities/eeprom_register_access.c **** **
   6:.\utilities/eeprom_register_access.c **** **
   7:.\utilities/eeprom_register_access.c **** */
   8:.\utilities/eeprom_register_access.c **** 
   9:.\utilities/eeprom_register_access.c **** #include <device.h>
  10:.\utilities/eeprom_register_access.c **** #include "eeprom_register_access.h"
  11:.\utilities/eeprom_register_access.c **** 
  12:.\utilities/eeprom_register_access.c **** 
  13:.\utilities/eeprom_register_access.c **** void EEPROM_read_registers( unsigned offset,  unsigned number, uint16 *buffer )
  14:.\utilities/eeprom_register_access.c **** {
  27              		.loc 1 14 0
  28              		.cfi_startproc
  29              		@ args = 0, pretend = 0, frame = 32
  30              		@ frame_needed = 1, uses_anonymous_args = 0
  31 0000 90B5     		push	{r4, r7, lr}
  32              		.cfi_def_cfa_offset 12
  33              		.cfi_offset 4, -12
  34              		.cfi_offset 7, -8
  35              		.cfi_offset 14, -4
  36 0002 89B0     		sub	sp, sp, #36
  37              		.cfi_def_cfa_offset 48
  38 0004 00AF     		add	r7, sp, #0
  39              		.cfi_def_cfa_register 7
  40 0006 F860     		str	r0, [r7, #12]
  41 0008 B960     		str	r1, [r7, #8]
  42 000a 7A60     		str	r2, [r7, #4]
  15:.\utilities/eeprom_register_access.c ****     
ARM GAS  C:\Users\glenn\AppData\Local\Temp\ccAJeVoa.s 			page 2


  16:.\utilities/eeprom_register_access.c ****     unsigned i;
  17:.\utilities/eeprom_register_access.c ****     unsigned byte_number;
  18:.\utilities/eeprom_register_access.c ****     uint8    *byte_pointer;
  19:.\utilities/eeprom_register_access.c ****     byte_number = number*2;
  43              		.loc 1 19 0
  44 000c BB68     		ldr	r3, [r7, #8]
  45 000e 5B00     		lsls	r3, r3, #1
  46 0010 7B61     		str	r3, [r7, #20]
  20:.\utilities/eeprom_register_access.c ****     
  21:.\utilities/eeprom_register_access.c ****     byte_pointer = (uint8 *)buffer;
  47              		.loc 1 21 0
  48 0012 7B68     		ldr	r3, [r7, #4]
  49 0014 BB61     		str	r3, [r7, #24]
  22:.\utilities/eeprom_register_access.c ****     for( i = 0; i < byte_number; i++)
  50              		.loc 1 22 0
  51 0016 0023     		movs	r3, #0
  52 0018 FB61     		str	r3, [r7, #28]
  53 001a 0EE0     		b	.L2
  54              	.L3:
  55              	.LBB2:
  23:.\utilities/eeprom_register_access.c ****     {
  24:.\utilities/eeprom_register_access.c ****       *byte_pointer++ =    EEPROM_1_ReadByte(offset++);
  56              		.loc 1 24 0 discriminator 3
  57 001c BC69     		ldr	r4, [r7, #24]
  58 001e 631C     		adds	r3, r4, #1
  59 0020 BB61     		str	r3, [r7, #24]
  60 0022 FB68     		ldr	r3, [r7, #12]
  61 0024 5A1C     		adds	r2, r3, #1
  62 0026 FA60     		str	r2, [r7, #12]
  63 0028 1846     		mov	r0, r3
  64 002a FFF7FEFF 		bl	EEPROM_1_ReadByte
  65 002e 0346     		mov	r3, r0
  66 0030 DBB2     		uxtb	r3, r3
  67 0032 2370     		strb	r3, [r4]
  68              	.LBE2:
  22:.\utilities/eeprom_register_access.c ****     for( i = 0; i < byte_number; i++)
  69              		.loc 1 22 0 discriminator 3
  70 0034 FB69     		ldr	r3, [r7, #28]
  71 0036 0133     		adds	r3, r3, #1
  72 0038 FB61     		str	r3, [r7, #28]
  73              	.L2:
  22:.\utilities/eeprom_register_access.c ****     for( i = 0; i < byte_number; i++)
  74              		.loc 1 22 0 is_stmt 0 discriminator 1
  75 003a FA69     		ldr	r2, [r7, #28]
  76 003c 7B69     		ldr	r3, [r7, #20]
  77 003e 9A42     		cmp	r2, r3
  78 0040 ECD3     		bcc	.L3
  25:.\utilities/eeprom_register_access.c ****     }
  26:.\utilities/eeprom_register_access.c ****    
  27:.\utilities/eeprom_register_access.c **** }
  79              		.loc 1 27 0 is_stmt 1
  80 0042 2437     		adds	r7, r7, #36
  81              		.cfi_def_cfa_offset 12
  82 0044 BD46     		mov	sp, r7
  83              		.cfi_def_cfa_register 13
  84              		@ sp needed
  85 0046 90BD     		pop	{r4, r7, pc}
ARM GAS  C:\Users\glenn\AppData\Local\Temp\ccAJeVoa.s 			page 3


  86              		.cfi_endproc
  87              	.LFE63:
  88              		.size	EEPROM_read_registers, .-EEPROM_read_registers
  89              		.section	.text.EEPROM_write_registers,"ax",%progbits
  90              		.align	2
  91              		.global	EEPROM_write_registers
  92              		.thumb
  93              		.thumb_func
  94              		.type	EEPROM_write_registers, %function
  95              	EEPROM_write_registers:
  96              	.LFB64:
  28:.\utilities/eeprom_register_access.c **** 
  29:.\utilities/eeprom_register_access.c **** 
  30:.\utilities/eeprom_register_access.c **** void EEPROM_write_registers( unsigned offset,  unsigned number, uint16 *buffer )
  31:.\utilities/eeprom_register_access.c **** {
  97              		.loc 1 31 0
  98              		.cfi_startproc
  99              		@ args = 0, pretend = 0, frame = 32
 100              		@ frame_needed = 1, uses_anonymous_args = 0
 101 0000 80B5     		push	{r7, lr}
 102              		.cfi_def_cfa_offset 8
 103              		.cfi_offset 7, -8
 104              		.cfi_offset 14, -4
 105 0002 88B0     		sub	sp, sp, #32
 106              		.cfi_def_cfa_offset 40
 107 0004 00AF     		add	r7, sp, #0
 108              		.cfi_def_cfa_register 7
 109 0006 F860     		str	r0, [r7, #12]
 110 0008 B960     		str	r1, [r7, #8]
 111 000a 7A60     		str	r2, [r7, #4]
  32:.\utilities/eeprom_register_access.c ****     unsigned i;
  33:.\utilities/eeprom_register_access.c ****     unsigned byte_number;
  34:.\utilities/eeprom_register_access.c ****     uint8    *byte_pointer;
  35:.\utilities/eeprom_register_access.c ****     
  36:.\utilities/eeprom_register_access.c ****     byte_number = number*2;
 112              		.loc 1 36 0
 113 000c BB68     		ldr	r3, [r7, #8]
 114 000e 5B00     		lsls	r3, r3, #1
 115 0010 7B61     		str	r3, [r7, #20]
  37:.\utilities/eeprom_register_access.c ****     byte_pointer = (uint8 *)buffer;
 116              		.loc 1 37 0
 117 0012 7B68     		ldr	r3, [r7, #4]
 118 0014 BB61     		str	r3, [r7, #24]
  38:.\utilities/eeprom_register_access.c ****     for( i = 0; i < byte_number; i++ )
 119              		.loc 1 38 0
 120 0016 0023     		movs	r3, #0
 121 0018 FB61     		str	r3, [r7, #28]
 122 001a 0EE0     		b	.L5
 123              	.L6:
 124              	.LBB3:
  39:.\utilities/eeprom_register_access.c ****     {
  40:.\utilities/eeprom_register_access.c ****        EEPROM_1_WriteByte( *byte_pointer++, offset++ );
 125              		.loc 1 40 0 discriminator 3
 126 001c BB69     		ldr	r3, [r7, #24]
 127 001e 5A1C     		adds	r2, r3, #1
 128 0020 BA61     		str	r2, [r7, #24]
 129 0022 1B78     		ldrb	r3, [r3]	@ zero_extendqisi2
ARM GAS  C:\Users\glenn\AppData\Local\Temp\ccAJeVoa.s 			page 4


 130 0024 1946     		mov	r1, r3
 131 0026 FB68     		ldr	r3, [r7, #12]
 132 0028 5A1C     		adds	r2, r3, #1
 133 002a FA60     		str	r2, [r7, #12]
 134 002c 0846     		mov	r0, r1
 135 002e 1946     		mov	r1, r3
 136 0030 FFF7FEFF 		bl	EEPROM_1_WriteByte
 137              	.LBE3:
  38:.\utilities/eeprom_register_access.c ****     for( i = 0; i < byte_number; i++ )
 138              		.loc 1 38 0 discriminator 3
 139 0034 FB69     		ldr	r3, [r7, #28]
 140 0036 0133     		adds	r3, r3, #1
 141 0038 FB61     		str	r3, [r7, #28]
 142              	.L5:
  38:.\utilities/eeprom_register_access.c ****     for( i = 0; i < byte_number; i++ )
 143              		.loc 1 38 0 is_stmt 0 discriminator 1
 144 003a FA69     		ldr	r2, [r7, #28]
 145 003c 7B69     		ldr	r3, [r7, #20]
 146 003e 9A42     		cmp	r2, r3
 147 0040 ECD3     		bcc	.L6
  41:.\utilities/eeprom_register_access.c ****     }
  42:.\utilities/eeprom_register_access.c ****   }...
 148              		.loc 1 42 0 is_stmt 1
 149 0042 2037     		adds	r7, r7, #32
 150              		.cfi_def_cfa_offset 8
 151 0044 BD46     		mov	sp, r7
 152              		.cfi_def_cfa_register 13
 153              		@ sp needed
 154 0046 80BD     		pop	{r7, pc}
 155              		.cfi_endproc
 156              	.LFE64:
 157              		.size	EEPROM_write_registers, .-EEPROM_write_registers
 158              		.text
 159              	.Letext0:
 160              		.file 2 "c:\\program files (x86)\\cypress\\psoc creator\\3.3\\psoc creator\\import\\gnu\\arm\\4.9.
 161              		.file 3 "c:\\program files (x86)\\cypress\\psoc creator\\3.3\\psoc creator\\import\\gnu\\arm\\4.9.
 162              		.file 4 "Generated_Source\\PSoC5/cytypes.h"
 163              		.file 5 "Generated_Source\\PSoC5/core_cm3.h"