ARM GAS  C:\Users\Glenn\AppData\Local\Temp\ccHq8yM6.s 			page 1


   1              		.syntax unified
   2              		.cpu cortex-m3
   3              		.fpu softvfp
   4              		.eabi_attribute 20, 1
   5              		.eabi_attribute 21, 1
   6              		.eabi_attribute 23, 3
   7              		.eabi_attribute 24, 1
   8              		.eabi_attribute 25, 1
   9              		.eabi_attribute 26, 1
  10              		.eabi_attribute 30, 6
  11              		.eabi_attribute 34, 1
  12              		.eabi_attribute 18, 4
  13              		.thumb
  14              		.file	"events.c"
  15              		.text
  16              	.Ltext0:
  17              		.cfi_sections	.debug_frame
  18              		.bss
  19              		.align	2
  20              	event_mask:
  21 0000 00000000 		.space	4
  22              		.section	.text.init_event_mask,"ax",%progbits
  23              		.align	2
  24              		.global	init_event_mask
  25              		.thumb
  26              		.thumb_func
  27              		.type	init_event_mask, %function
  28              	init_event_mask:
  29              	.LFB63:
  30              		.file 1 ".\\events.c"
   1:.\events.c    **** /* ========================================
   2:.\events.c    ****  *
   3:.\events.c    ****  * Copyright YOUR COMPANY, THE YEAR
   4:.\events.c    ****  * All Rights Reserved
   5:.\events.c    ****  * UNPUBLISHED, LICENSED SOFTWARE.
   6:.\events.c    ****  *
   7:.\events.c    ****  * CONFIDENTIAL AND PROPRIETARY INFORMATION
   8:.\events.c    ****  * WHICH IS THE PROPERTY OF your company.
   9:.\events.c    ****  *
  10:.\events.c    ****  * ========================================
  11:.\events.c    **** */
  12:.\events.c    **** #ifndef _EVENTS_H_
  13:.\events.c    **** #define _EVENTS_H_
  14:.\events.c    ****     
  15:.\events.c    **** #include "device.h"
  16:.\events.c    **** #include "events.h"
  17:.\events.c    **** 
  18:.\events.c    **** static volatile int event_mask;
  19:.\events.c    ****     
  20:.\events.c    **** void init_event_mask( void )
  21:.\events.c    **** {
  31              		.loc 1 21 0
  32              		.cfi_startproc
  33              		@ args = 0, pretend = 0, frame = 0
  34              		@ frame_needed = 1, uses_anonymous_args = 0
  35              		@ link register save eliminated.
  36 0000 80B4     		push	{r7}
ARM GAS  C:\Users\Glenn\AppData\Local\Temp\ccHq8yM6.s 			page 2


  37              		.cfi_def_cfa_offset 4
  38              		.cfi_offset 7, -4
  39 0002 00AF     		add	r7, sp, #0
  40              		.cfi_def_cfa_register 7
  22:.\events.c    ****     event_mask = 0;
  41              		.loc 1 22 0
  42 0004 034B     		ldr	r3, .L2
  43 0006 0022     		movs	r2, #0
  44 0008 1A60     		str	r2, [r3]
  23:.\events.c    **** }
  45              		.loc 1 23 0
  46 000a BD46     		mov	sp, r7
  47              		.cfi_def_cfa_register 13
  48              		@ sp needed
  49 000c 5DF8047B 		ldr	r7, [sp], #4
  50              		.cfi_restore 7
  51              		.cfi_def_cfa_offset 0
  52 0010 7047     		bx	lr
  53              	.L3:
  54 0012 00BF     		.align	2
  55              	.L2:
  56 0014 00000000 		.word	event_mask
  57              		.cfi_endproc
  58              	.LFE63:
  59              		.size	init_event_mask, .-init_event_mask
  60              		.section	.text.set_event,"ax",%progbits
  61              		.align	2
  62              		.global	set_event
  63              		.thumb
  64              		.thumb_func
  65              		.type	set_event, %function
  66              	set_event:
  67              	.LFB64:
  24:.\events.c    **** 
  25:.\events.c    ****     
  26:.\events.c    **** void set_event( int event )
  27:.\events.c    **** {
  68              		.loc 1 27 0
  69              		.cfi_startproc
  70              		@ args = 0, pretend = 0, frame = 8
  71              		@ frame_needed = 1, uses_anonymous_args = 0
  72              		@ link register save eliminated.
  73 0000 80B4     		push	{r7}
  74              		.cfi_def_cfa_offset 4
  75              		.cfi_offset 7, -4
  76 0002 83B0     		sub	sp, sp, #12
  77              		.cfi_def_cfa_offset 16
  78 0004 00AF     		add	r7, sp, #0
  79              		.cfi_def_cfa_register 7
  80 0006 7860     		str	r0, [r7, #4]
  28:.\events.c    ****    CyGlobalIntDisable;
  81              		.loc 1 28 0
  82              	@ 28 ".\events.c" 1
  83 0008 72B6     		CPSID   i
  84              	@ 0 "" 2
  29:.\events.c    ****    event_mask |= event;
  85              		.loc 1 29 0
ARM GAS  C:\Users\Glenn\AppData\Local\Temp\ccHq8yM6.s 			page 3


  86              		.thumb
  87 000a 064B     		ldr	r3, .L5
  88 000c 1A68     		ldr	r2, [r3]
  89 000e 7B68     		ldr	r3, [r7, #4]
  90 0010 1343     		orrs	r3, r3, r2
  91 0012 044A     		ldr	r2, .L5
  92 0014 1360     		str	r3, [r2]
  30:.\events.c    ****    CyGlobalIntEnable;
  93              		.loc 1 30 0
  94              	@ 30 ".\events.c" 1
  95 0016 62B6     		CPSIE   i
  96              	@ 0 "" 2
  31:.\events.c    **** }
  97              		.loc 1 31 0
  98              		.thumb
  99 0018 0C37     		adds	r7, r7, #12
 100              		.cfi_def_cfa_offset 4
 101 001a BD46     		mov	sp, r7
 102              		.cfi_def_cfa_register 13
 103              		@ sp needed
 104 001c 5DF8047B 		ldr	r7, [sp], #4
 105              		.cfi_restore 7
 106              		.cfi_def_cfa_offset 0
 107 0020 7047     		bx	lr
 108              	.L6:
 109 0022 00BF     		.align	2
 110              	.L5:
 111 0024 00000000 		.word	event_mask
 112              		.cfi_endproc
 113              	.LFE64:
 114              		.size	set_event, .-set_event
 115              		.section	.text.read_and_clear_event,"ax",%progbits
 116              		.align	2
 117              		.global	read_and_clear_event
 118              		.thumb
 119              		.thumb_func
 120              		.type	read_and_clear_event, %function
 121              	read_and_clear_event:
 122              	.LFB65:
  32:.\events.c    **** 
  33:.\events.c    **** int read_and_clear_event( void)
  34:.\events.c    **** {
 123              		.loc 1 34 0
 124              		.cfi_startproc
 125              		@ args = 0, pretend = 0, frame = 8
 126              		@ frame_needed = 1, uses_anonymous_args = 0
 127              		@ link register save eliminated.
 128 0000 80B4     		push	{r7}
 129              		.cfi_def_cfa_offset 4
 130              		.cfi_offset 7, -4
 131 0002 83B0     		sub	sp, sp, #12
 132              		.cfi_def_cfa_offset 16
 133 0004 00AF     		add	r7, sp, #0
 134              		.cfi_def_cfa_register 7
  35:.\events.c    ****     int return_value;
  36:.\events.c    ****     CyGlobalIntDisable;
 135              		.loc 1 36 0
ARM GAS  C:\Users\Glenn\AppData\Local\Temp\ccHq8yM6.s 			page 4


 136              	@ 36 ".\events.c" 1
 137 0006 72B6     		CPSID   i
 138              	@ 0 "" 2
  37:.\events.c    ****     return_value = event_mask;
 139              		.loc 1 37 0
 140              		.thumb
 141 0008 064B     		ldr	r3, .L9
 142 000a 1B68     		ldr	r3, [r3]
 143 000c 7B60     		str	r3, [r7, #4]
  38:.\events.c    ****     event_mask = 0;
 144              		.loc 1 38 0
 145 000e 054B     		ldr	r3, .L9
 146 0010 0022     		movs	r2, #0
 147 0012 1A60     		str	r2, [r3]
  39:.\events.c    ****     CyGlobalIntEnable;
 148              		.loc 1 39 0
 149              	@ 39 ".\events.c" 1
 150 0014 62B6     		CPSIE   i
 151              	@ 0 "" 2
  40:.\events.c    ****     return return_value;
 152              		.loc 1 40 0
 153              		.thumb
 154 0016 7B68     		ldr	r3, [r7, #4]
  41:.\events.c    **** }
 155              		.loc 1 41 0
 156 0018 1846     		mov	r0, r3
 157 001a 0C37     		adds	r7, r7, #12
 158              		.cfi_def_cfa_offset 4
 159 001c BD46     		mov	sp, r7
 160              		.cfi_def_cfa_register 13
 161              		@ sp needed
 162 001e 5DF8047B 		ldr	r7, [sp], #4
 163              		.cfi_restore 7
 164              		.cfi_def_cfa_offset 0
 165 0022 7047     		bx	lr
 166              	.L10:
 167              		.align	2
 168              	.L9:
 169 0024 00000000 		.word	event_mask
 170              		.cfi_endproc
 171              	.LFE65:
 172              		.size	read_and_clear_event, .-read_and_clear_event
 173              		.text
 174              	.Letext0:
 175              		.file 2 "c:\\program files (x86)\\cypress\\psoc creator\\3.3\\psoc creator\\import\\gnu\\arm\\4.9.
 176              		.file 3 "c:\\program files (x86)\\cypress\\psoc creator\\3.3\\psoc creator\\import\\gnu\\arm\\4.9.
 177              		.file 4 "Generated_Source\\PSoC5/core_cm3.h"