ARM GAS  C:\Users\glenn\AppData\Local\Temp\ccc1VCfa.s 			page 1


   1              		.syntax unified
   2              		.cpu cortex-m3
   3              		.fpu softvfp
   4              		.eabi_attribute 20, 1
   5              		.eabi_attribute 21, 1
   6              		.eabi_attribute 23, 3
   7              		.eabi_attribute 24, 1
   8              		.eabi_attribute 25, 1
   9              		.eabi_attribute 26, 1
  10              		.eabi_attribute 30, 6
  11              		.eabi_attribute 34, 1
  12              		.eabi_attribute 18, 4
  13              		.thumb
  14              		.file	"main.c"
  15              		.text
  16              	.Ltext0:
  17              		.cfi_sections	.debug_frame
  18              		.global _printf_float
  19              		.thumb
  20              		.section	.text.process_high_priority_events,"ax",%progbits
  21              		.align	2
  22              		.thumb
  23              		.thumb_func
  24              		.type	process_high_priority_events, %function
  25              	process_high_priority_events:
  26              	.LFB63:
  27              		.file 1 ".\\main.c"
   1:.\main.c      **** /*******************************************************************************
   2:.\main.c      **** * File Name: main.c
   3:.\main.c      **** *
   4:.\main.c      **** * Version: 1.0
   5:.\main.c      **** *
   6:.\main.c      **** * Description:
   7:.\main.c      **** *   Enumerates as a Virtual Com port.  Receives data from hyper terminal, then 
   8:.\main.c      **** *   send received data backward. LCD shows the Line settings.
   9:.\main.c      **** *   
  10:.\main.c      **** *  To test project:
  11:.\main.c      **** *   1. Build the project and program the hex file on to the target device.
  12:.\main.c      **** *   2. Select 3.3V in SW3 and plug-in power to the CY8CKIT-001
  13:.\main.c      **** *   3. Connect USB cable from the computer to the CY8CKIT-001.
  14:.\main.c      **** *   4. Select the USB_UART.inf file from the project directory, as the driver 
  15:.\main.c      **** *      for this example once Windows asks for it.
  16:.\main.c      **** *   5. Open "Device Manager" and note the COM port number for "Example Project"
  17:.\main.c      **** *      device.
  18:.\main.c      **** *   6. Open "HyperTerminal" application and make new connection to noted COM port
  19:.\main.c      **** *   7. Type the message, observe echo data received.
  20:.\main.c      **** *
  21:.\main.c      **** * Related Document:
  22:.\main.c      **** *  Universal Serial Bus Specification Revision 2.0 
  23:.\main.c      **** *  Universal Serial Bus Class Definitions for Communications Devices 
  24:.\main.c      **** *  Revision 1.2
  25:.\main.c      **** *
  26:.\main.c      **** ********************************************************************************
  27:.\main.c      **** * Copyright 2012, Cypress Semiconductor Corporation. All rights reserved.
  28:.\main.c      **** * This software is owned by Cypress Semiconductor Corporation and is protected
  29:.\main.c      **** * by and subject to worldwide patent and copyright laws and treaties.
  30:.\main.c      **** * Therefore, you may use this software only as provided in the license agreement
ARM GAS  C:\Users\glenn\AppData\Local\Temp\ccc1VCfa.s 			page 2


  31:.\main.c      **** * accompanying the software package from which you obtained this software.
  32:.\main.c      **** * CYPRESS AND ITS SUPPLIERS MAKE NO WARRANTY OF ANY KIND, EXPRESS OR IMPLIED,
  33:.\main.c      **** * WITH REGARD TO THIS SOFTWARE, INCLUDING, BUT NOT LIMITED TO, NONINFRINGEMENT,
  34:.\main.c      **** * IMPLIED WARRANTIES OF MERCHANTABILITY AND FITNESS FOR A PARTICULAR PURPOSE.
  35:.\main.c      **** *******************************************************************************/
  36:.\main.c      **** 
  37:.\main.c      **** #include <device.h>
  38:.\main.c      **** #include "stdio.h"
  39:.\main.c      **** 
  40:.\main.c      **** // software reset
  41:.\main.c      **** // CySoftwareReset();
  42:.\main.c      **** 
  43:.\main.c      **** 
  44:.\main.c      **** #include "cf_chain_flow_support.h"
  45:.\main.c      **** #include "a_to_d_functions.h"
  46:.\main.c      **** #include "cf_events.h"
  47:.\main.c      **** #include "sigma_mux.h"
  48:.\main.c      **** #if defined (__GNUC__)
  49:.\main.c      ****     /* Add an explicit reference to the floating point printf library */
  50:.\main.c      ****     /* to allow the usage of floating point conversion specifiers. */
  51:.\main.c      ****     /* This is not linked in by default with the newlib-nano library. */
  52:.\main.c      ****     asm (".global _printf_float");
  53:.\main.c      **** #endif
  54:.\main.c      **** 
  55:.\main.c      **** #define HEART_BEAT_INTERVAL 500
  56:.\main.c      **** 
  57:.\main.c      **** 
  58:.\main.c      **** 
  59:.\main.c      **** 
  60:.\main.c      **** 
  61:.\main.c      **** 
  62:.\main.c      **** 
  63:.\main.c      **** static inline int  process_high_priority_events( int event_id, int event_data )
  64:.\main.c      **** {
  28              		.loc 1 64 0
  29              		.cfi_startproc
  30              		@ args = 0, pretend = 0, frame = 16
  31              		@ frame_needed = 1, uses_anonymous_args = 0
  32 0000 80B5     		push	{r7, lr}
  33              		.cfi_def_cfa_offset 8
  34              		.cfi_offset 7, -8
  35              		.cfi_offset 14, -4
  36 0002 84B0     		sub	sp, sp, #16
  37              		.cfi_def_cfa_offset 24
  38 0004 00AF     		add	r7, sp, #0
  39              		.cfi_def_cfa_register 7
  40 0006 7860     		str	r0, [r7, #4]
  41 0008 3960     		str	r1, [r7]
  65:.\main.c      ****     int return_value;
  66:.\main.c      ****     
  67:.\main.c      ****     switch( event_id)   
  42              		.loc 1 67 0
  43 000a 7B68     		ldr	r3, [r7, #4]
  44 000c 032B     		cmp	r3, #3
  45 000e 03D1     		bne	.L2
  68:.\main.c      ****     {
  69:.\main.c      ****         case CF_PROCESS_AD_RESULTS:
ARM GAS  C:\Users\glenn\AppData\Local\Temp\ccc1VCfa.s 			page 3


  70:.\main.c      ****            
  71:.\main.c      ****            ad_process_se();
  46              		.loc 1 71 0
  47 0010 FFF7FEFF 		bl	ad_process_se
  72:.\main.c      ****            return_value = 1;  // prevent event from being passed throug
  48              		.loc 1 72 0
  49 0014 0123     		movs	r3, #1
  50 0016 FB60     		str	r3, [r7, #12]
  51              	.L2:
  73:.\main.c      ****         
  74:.\main.c      ****         
  75:.\main.c      ****         
  76:.\main.c      ****         default:
  77:.\main.c      ****             return_value = 0;
  52              		.loc 1 77 0
  53 0018 0023     		movs	r3, #0
  54 001a FB60     		str	r3, [r7, #12]
  78:.\main.c      ****     }
  79:.\main.c      ****     return return_value;
  55              		.loc 1 79 0
  56 001c FB68     		ldr	r3, [r7, #12]
  80:.\main.c      ****     
  81:.\main.c      **** }
  57              		.loc 1 81 0
  58 001e 1846     		mov	r0, r3
  59 0020 1037     		adds	r7, r7, #16
  60              		.cfi_def_cfa_offset 8
  61 0022 BD46     		mov	sp, r7
  62              		.cfi_def_cfa_register 13
  63              		@ sp needed
  64 0024 80BD     		pop	{r7, pc}
  65              		.cfi_endproc
  66              	.LFE63:
  67              		.size	process_high_priority_events, .-process_high_priority_events
  68 0026 00BF     		.bss
  69              		.align	2
  70              	event_number:
  71 0000 00000000 		.space	4
  72              		.align	2
  73              	event_id:
  74 0004 00000000 		.space	4
  75              		.align	2
  76              	event_data:
  77 0008 00000000 		.space	4
  78              		.section	.text.main,"ax",%progbits
  79              		.align	2
  80              		.global	main
  81              		.thumb
  82              		.thumb_func
  83              		.type	main, %function
  84              	main:
  85              	.LFB64:
  82:.\main.c      **** 
  83:.\main.c      **** static int event_number;
  84:.\main.c      **** static unsigned event_id;
  85:.\main.c      **** static unsigned event_data;
  86:.\main.c      **** 
ARM GAS  C:\Users\glenn\AppData\Local\Temp\ccc1VCfa.s 			page 4


  87:.\main.c      **** int main()
  88:.\main.c      **** {
  86              		.loc 1 88 0
  87              		.cfi_startproc
  88              		@ args = 0, pretend = 0, frame = 0
  89              		@ frame_needed = 1, uses_anonymous_args = 0
  90 0000 80B5     		push	{r7, lr}
  91              		.cfi_def_cfa_offset 8
  92              		.cfi_offset 7, -8
  93              		.cfi_offset 14, -4
  94 0002 00AF     		add	r7, sp, #0
  95              		.cfi_def_cfa_register 7
  89:.\main.c      ****                     
  90:.\main.c      ****     cf_initialize_event_manager();
  96              		.loc 1 90 0
  97 0004 FFF7FEFF 		bl	cf_initialize_event_manager
  91:.\main.c      ****     initialize_cf_system(  );
  98              		.loc 1 91 0
  99 0008 FFF7FEFF 		bl	initialize_cf_system
  92:.\main.c      ****       CyGlobalIntEnable;
 100              		.loc 1 92 0
 101              	@ 92 ".\main.c" 1
 102 000c 62B6     		CPSIE   i
 103              	@ 0 "" 2
  93:.\main.c      ****     /* Enable Global Interrupts */
  94:.\main.c      ****     
  95:.\main.c      ****     
  96:.\main.c      ****     
  97:.\main.c      ****     //CyWdtStart( CYWDT_1024_TICKS, CYWDT_LPMODE_NOCHANGE ); // 2 -3 second interval
  98:.\main.c      ****     
  99:.\main.c      ****     cf_process_cf_event( CF_SYSTEM_INIT , 0);
 104              		.loc 1 99 0
 105              		.thumb
 106 000e 0020     		movs	r0, #0
 107 0010 0021     		movs	r1, #0
 108 0012 FFF7FEFF 		bl	cf_process_cf_event
 109              	.L7:
 100:.\main.c      ****     for(;;)
 101:.\main.c      ****     {
 102:.\main.c      ****         event_number = cf_rx_event( &event_id, &event_data );
 110              		.loc 1 102 0
 111 0016 1048     		ldr	r0, .L8
 112 0018 1049     		ldr	r1, .L8+4
 113 001a FFF7FEFF 		bl	cf_rx_event
 114 001e 0246     		mov	r2, r0
 115 0020 0F4B     		ldr	r3, .L8+8
 116 0022 1A60     		str	r2, [r3]
 103:.\main.c      ****         if( event_number > 0 )
 117              		.loc 1 103 0
 118 0024 0E4B     		ldr	r3, .L8+8
 119 0026 1B68     		ldr	r3, [r3]
 120 0028 002B     		cmp	r3, #0
 121 002a 13DD     		ble	.L6
 104:.\main.c      ****         {
 105:.\main.c      ****            if( process_high_priority_events( event_id, event_data ) == 0 )
 122              		.loc 1 105 0
 123 002c 0A4B     		ldr	r3, .L8
ARM GAS  C:\Users\glenn\AppData\Local\Temp\ccc1VCfa.s 			page 5


 124 002e 1B68     		ldr	r3, [r3]
 125 0030 1A46     		mov	r2, r3
 126 0032 0A4B     		ldr	r3, .L8+4
 127 0034 1B68     		ldr	r3, [r3]
 128 0036 1046     		mov	r0, r2
 129 0038 1946     		mov	r1, r3
 130 003a FFF7FEFF 		bl	process_high_priority_events
 131 003e 0346     		mov	r3, r0
 132 0040 002B     		cmp	r3, #0
 133 0042 07D1     		bne	.L6
 106:.\main.c      ****            {
 107:.\main.c      ****               cf_process_cf_event( event_id, event_data);
 134              		.loc 1 107 0
 135 0044 044B     		ldr	r3, .L8
 136 0046 1A68     		ldr	r2, [r3]
 137 0048 044B     		ldr	r3, .L8+4
 138 004a 1B68     		ldr	r3, [r3]
 139 004c 1046     		mov	r0, r2
 140 004e 1946     		mov	r1, r3
 141 0050 FFF7FEFF 		bl	cf_process_cf_event
 142              	.L6:
 108:.\main.c      ****            }
 109:.\main.c      ****            else
 110:.\main.c      ****            {
 111:.\main.c      ****               ; //  process_high_priority_events absorbed the results
 112:.\main.c      ****            }
 113:.\main.c      ****             
 114:.\main.c      ****           //process_usb_serial( input_event );
 115:.\main.c      ****    
 116:.\main.c      ****         }  
 117:.\main.c      ****     }   
 143              		.loc 1 117 0
 144 0054 DFE7     		b	.L7
 145              	.L9:
 146 0056 00BF     		.align	2
 147              	.L8:
 148 0058 04000000 		.word	event_id
 149 005c 08000000 		.word	event_data
 150 0060 00000000 		.word	event_number
 151              		.cfi_endproc
 152              	.LFE64:
 153              		.size	main, .-main
 154              		.text
 155              	.Letext0:
 156              		.file 2 "c:\\program files (x86)\\cypress\\psoc creator\\3.3\\psoc creator\\import\\gnu\\arm\\4.9.
 157              		.file 3 "c:\\program files (x86)\\cypress\\psoc creator\\3.3\\psoc creator\\import\\gnu\\arm\\4.9.
 158              		.file 4 "Generated_Source\\PSoC5/core_cm3.h"