ARM GAS  C:\Users\glenn\AppData\Local\Temp\ccknROVE.s 			page 1


   1              		.syntax unified
   2              		.cpu cortex-m3
   3              		.fpu softvfp
   4              		.eabi_attribute 20, 1
   5              		.eabi_attribute 21, 1
   6              		.eabi_attribute 23, 3
   7              		.eabi_attribute 24, 1
   8              		.eabi_attribute 25, 1
   9              		.eabi_attribute 26, 1
  10              		.eabi_attribute 30, 6
  11              		.eabi_attribute 34, 1
  12              		.eabi_attribute 18, 4
  13              		.thumb
  14              		.file	"process_type_16_message.c"
  15              		.text
  16              	.Ltext0:
  17              		.cfi_sections	.debug_frame
  18              		.section	.text.swap_16,"ax",%progbits
  19              		.align	2
  20              		.thumb
  21              		.thumb_func
  22              		.type	swap_16, %function
  23              	swap_16:
  24              	.LFB65:
  25              		.file 1 ".\\rtu_modbus\\modbus_utilities.h"
   1:.\rtu_modbus/modbus_utilities.h **** /*
   2:.\rtu_modbus/modbus_utilities.h **** **
   3:.\rtu_modbus/modbus_utilities.h **** ** File: modbus_utilities.h
   4:.\rtu_modbus/modbus_utilities.h **** ** File for shuffling bytes for network ordering
   5:.\rtu_modbus/modbus_utilities.h **** **
   6:.\rtu_modbus/modbus_utilities.h **** **
   7:.\rtu_modbus/modbus_utilities.h **** **
   8:.\rtu_modbus/modbus_utilities.h **** */
   9:.\rtu_modbus/modbus_utilities.h **** 
  10:.\rtu_modbus/modbus_utilities.h **** #ifndef _MODBUS_UTILITES_H_
  11:.\rtu_modbus/modbus_utilities.h **** #define _MODBUS_UTILITES_H_
  12:.\rtu_modbus/modbus_utilities.h **** 
  13:.\rtu_modbus/modbus_utilities.h **** #include <device.h>
  14:.\rtu_modbus/modbus_utilities.h ****   
  15:.\rtu_modbus/modbus_utilities.h **** 
  16:.\rtu_modbus/modbus_utilities.h **** 
  17:.\rtu_modbus/modbus_utilities.h ****     
  18:.\rtu_modbus/modbus_utilities.h **** static inline void swap_16( uint8 *input )
  19:.\rtu_modbus/modbus_utilities.h **** {
  26              		.loc 1 19 0
  27              		.cfi_startproc
  28              		@ args = 0, pretend = 0, frame = 16
  29              		@ frame_needed = 1, uses_anonymous_args = 0
  30              		@ link register save eliminated.
  31 0000 80B4     		push	{r7}
  32              		.cfi_def_cfa_offset 4
  33              		.cfi_offset 7, -4
  34 0002 85B0     		sub	sp, sp, #20
  35              		.cfi_def_cfa_offset 24
  36 0004 00AF     		add	r7, sp, #0
  37              		.cfi_def_cfa_register 7
  38 0006 7860     		str	r0, [r7, #4]
ARM GAS  C:\Users\glenn\AppData\Local\Temp\ccknROVE.s 			page 2


  20:.\rtu_modbus/modbus_utilities.h ****     
  21:.\rtu_modbus/modbus_utilities.h ****     uint16 *temp_ptr;
  22:.\rtu_modbus/modbus_utilities.h ****     uint16 temp;
  23:.\rtu_modbus/modbus_utilities.h ****     
  24:.\rtu_modbus/modbus_utilities.h ****     temp_ptr = (uint16*)input;
  39              		.loc 1 24 0
  40 0008 7B68     		ldr	r3, [r7, #4]
  41 000a FB60     		str	r3, [r7, #12]
  25:.\rtu_modbus/modbus_utilities.h ****     temp = *temp_ptr;   
  42              		.loc 1 25 0
  43 000c FB68     		ldr	r3, [r7, #12]
  44 000e 1B88     		ldrh	r3, [r3]	@ movhi
  45 0010 7B81     		strh	r3, [r7, #10]	@ movhi
  26:.\rtu_modbus/modbus_utilities.h ****     temp =  ((temp&0xff)<<8)|((temp>>8)&0xff);
  46              		.loc 1 26 0
  47 0012 7B89     		ldrh	r3, [r7, #10]
  48 0014 1B02     		lsls	r3, r3, #8
  49 0016 9AB2     		uxth	r2, r3
  50 0018 7B89     		ldrh	r3, [r7, #10]
  51 001a 1B0A     		lsrs	r3, r3, #8
  52 001c 9BB2     		uxth	r3, r3
  53 001e 9BB2     		uxth	r3, r3
  54 0020 1343     		orrs	r3, r3, r2
  55 0022 9BB2     		uxth	r3, r3
  56 0024 7B81     		strh	r3, [r7, #10]	@ movhi
  27:.\rtu_modbus/modbus_utilities.h ****     *temp_ptr = temp;
  57              		.loc 1 27 0
  58 0026 FB68     		ldr	r3, [r7, #12]
  59 0028 7A89     		ldrh	r2, [r7, #10]	@ movhi
  60 002a 1A80     		strh	r2, [r3]	@ movhi
  28:.\rtu_modbus/modbus_utilities.h ****       
  29:.\rtu_modbus/modbus_utilities.h ****    
  30:.\rtu_modbus/modbus_utilities.h **** }
  61              		.loc 1 30 0
  62 002c 1437     		adds	r7, r7, #20
  63              		.cfi_def_cfa_offset 4
  64 002e BD46     		mov	sp, r7
  65              		.cfi_def_cfa_register 13
  66              		@ sp needed
  67 0030 5DF8047B 		ldr	r7, [sp], #4
  68              		.cfi_restore 7
  69              		.cfi_def_cfa_offset 0
  70 0034 7047     		bx	lr
  71              		.cfi_endproc
  72              	.LFE65:
  73              		.size	swap_16, .-swap_16
  74 0036 00BF     		.section	.text.swap_32,"ax",%progbits
  75              		.align	2
  76              		.thumb
  77              		.thumb_func
  78              		.type	swap_32, %function
  79              	swap_32:
  80              	.LFB66:
  31:.\rtu_modbus/modbus_utilities.h **** 
  32:.\rtu_modbus/modbus_utilities.h **** static inline void swap_32( uint8 *input )
  33:.\rtu_modbus/modbus_utilities.h **** {
  81              		.loc 1 33 0
ARM GAS  C:\Users\glenn\AppData\Local\Temp\ccknROVE.s 			page 3


  82              		.cfi_startproc
  83              		@ args = 0, pretend = 0, frame = 16
  84              		@ frame_needed = 1, uses_anonymous_args = 0
  85              		@ link register save eliminated.
  86 0000 80B4     		push	{r7}
  87              		.cfi_def_cfa_offset 4
  88              		.cfi_offset 7, -4
  89 0002 85B0     		sub	sp, sp, #20
  90              		.cfi_def_cfa_offset 24
  91 0004 00AF     		add	r7, sp, #0
  92              		.cfi_def_cfa_register 7
  93 0006 7860     		str	r0, [r7, #4]
  34:.\rtu_modbus/modbus_utilities.h ****     uint32 *temp_ptr;
  35:.\rtu_modbus/modbus_utilities.h ****     uint32 temp;
  36:.\rtu_modbus/modbus_utilities.h ****     
  37:.\rtu_modbus/modbus_utilities.h ****     temp_ptr = (uint32*)input;
  94              		.loc 1 37 0
  95 0008 7B68     		ldr	r3, [r7, #4]
  96 000a FB60     		str	r3, [r7, #12]
  38:.\rtu_modbus/modbus_utilities.h ****     temp = *temp_ptr;   
  97              		.loc 1 38 0
  98 000c FB68     		ldr	r3, [r7, #12]
  99 000e 1B68     		ldr	r3, [r3]
 100 0010 BB60     		str	r3, [r7, #8]
  39:.\rtu_modbus/modbus_utilities.h ****   
  40:.\rtu_modbus/modbus_utilities.h ****     temp =  ((temp&0xff000000)>>24)|((temp&0x00ff0000)>>8)|((temp&0xff00)<<8)|((temp&0xff)<<24 );
 101              		.loc 1 40 0
 102 0012 BB68     		ldr	r3, [r7, #8]
 103 0014 1A0E     		lsrs	r2, r3, #24
 104 0016 BB68     		ldr	r3, [r7, #8]
 105 0018 03F47F03 		and	r3, r3, #16711680
 106 001c 1B0A     		lsrs	r3, r3, #8
 107 001e 1A43     		orrs	r2, r2, r3
 108 0020 BB68     		ldr	r3, [r7, #8]
 109 0022 03F47F43 		and	r3, r3, #65280
 110 0026 1B02     		lsls	r3, r3, #8
 111 0028 1A43     		orrs	r2, r2, r3
 112 002a BB68     		ldr	r3, [r7, #8]
 113 002c 1B06     		lsls	r3, r3, #24
 114 002e 1343     		orrs	r3, r3, r2
 115 0030 BB60     		str	r3, [r7, #8]
  41:.\rtu_modbus/modbus_utilities.h ****      *temp_ptr = temp;
 116              		.loc 1 41 0
 117 0032 FB68     		ldr	r3, [r7, #12]
 118 0034 BA68     		ldr	r2, [r7, #8]
 119 0036 1A60     		str	r2, [r3]
  42:.\rtu_modbus/modbus_utilities.h **** }
 120              		.loc 1 42 0
 121 0038 1437     		adds	r7, r7, #20
 122              		.cfi_def_cfa_offset 4
 123 003a BD46     		mov	sp, r7
 124              		.cfi_def_cfa_register 13
 125              		@ sp needed
 126 003c 5DF8047B 		ldr	r7, [sp], #4
 127              		.cfi_restore 7
 128              		.cfi_def_cfa_offset 0
 129 0040 7047     		bx	lr
ARM GAS  C:\Users\glenn\AppData\Local\Temp\ccknROVE.s 			page 4


 130              		.cfi_endproc
 131              	.LFE66:
 132              		.size	swap_32, .-swap_32
 133 0042 00BF     		.section	.text.clear_watch_dog_flags,"ax",%progbits
 134              		.align	2
 135              		.thumb
 136              		.thumb_func
 137              		.type	clear_watch_dog_flags, %function
 138              	clear_watch_dog_flags:
 139              	.LFB67:
 140              		.file 2 ".\\rtu_modbus\\process_type_16_message.c"
   1:.\rtu_modbus/process_type_16_message.c **** /*
   2:.\rtu_modbus/process_type_16_message.c **** **
   3:.\rtu_modbus/process_type_16_message.c **** ** File: process_type_16_message.c
   4:.\rtu_modbus/process_type_16_message.c **** **
   5:.\rtu_modbus/process_type_16_message.c **** **
   6:.\rtu_modbus/process_type_16_message.c **** Query
   7:.\rtu_modbus/process_type_16_message.c **** Slave Address 11
   8:.\rtu_modbus/process_type_16_message.c **** Function 10
   9:.\rtu_modbus/process_type_16_message.c **** Starting Address Hi 00
  10:.\rtu_modbus/process_type_16_message.c **** Starting Address Lo 01
  11:.\rtu_modbus/process_type_16_message.c **** No. of Registers Hi 00
  12:.\rtu_modbus/process_type_16_message.c **** No. of Registers Lo 02
  13:.\rtu_modbus/process_type_16_message.c **** Byte Count 04
  14:.\rtu_modbus/process_type_16_message.c **** Data Hi 00
  15:.\rtu_modbus/process_type_16_message.c **** Data Lo 0A
  16:.\rtu_modbus/process_type_16_message.c **** Data Hi 01
  17:.\rtu_modbus/process_type_16_message.c **** Data Lo 02
  18:.\rtu_modbus/process_type_16_message.c **** Error Check (LRC or CRC) ––    
  19:.\rtu_modbus/process_type_16_message.c ****     
  20:.\rtu_modbus/process_type_16_message.c **** Response
  21:.\rtu_modbus/process_type_16_message.c **** Slave Address 11
  22:.\rtu_modbus/process_type_16_message.c **** Function 10
  23:.\rtu_modbus/process_type_16_message.c **** Starting Address Hi 00
  24:.\rtu_modbus/process_type_16_message.c **** Starting Address Lo 01
  25:.\rtu_modbus/process_type_16_message.c **** No. of Registers Hi 00
  26:.\rtu_modbus/process_type_16_message.c **** No. of Registers Lo 02
  27:.\rtu_modbus/process_type_16_message.c **** Error Check (LRC or CRC) ––    
  28:.\rtu_modbus/process_type_16_message.c ****     
  29:.\rtu_modbus/process_type_16_message.c **** 
  30:.\rtu_modbus/process_type_16_message.c **** 
  31:.\rtu_modbus/process_type_16_message.c **** 
  32:.\rtu_modbus/process_type_16_message.c **** 
  33:.\rtu_modbus/process_type_16_message.c **** **
  34:.\rtu_modbus/process_type_16_message.c **** **
  35:.\rtu_modbus/process_type_16_message.c **** */
  36:.\rtu_modbus/process_type_16_message.c **** 
  37:.\rtu_modbus/process_type_16_message.c **** 
  38:.\rtu_modbus/process_type_16_message.c **** 
  39:.\rtu_modbus/process_type_16_message.c **** 
  40:.\rtu_modbus/process_type_16_message.c **** #include <device.h>
  41:.\rtu_modbus/process_type_16_message.c **** #include "process_modbus_message.h"
  42:.\rtu_modbus/process_type_16_message.c **** #include "process_type_16_message.h" 
  43:.\rtu_modbus/process_type_16_message.c **** #include "modbus_interface_functions.h"
  44:.\rtu_modbus/process_type_16_message.c **** #include "modbus_utilities.h"
  45:.\rtu_modbus/process_type_16_message.c **** #include "cb_logging.h"
  46:.\rtu_modbus/process_type_16_message.c **** 
ARM GAS  C:\Users\glenn\AppData\Local\Temp\ccknROVE.s 			page 5


  47:.\rtu_modbus/process_type_16_message.c **** #include "cf_events.h"
  48:.\rtu_modbus/process_type_16_message.c **** 
  49:.\rtu_modbus/process_type_16_message.c **** #define SWAP_16 0
  50:.\rtu_modbus/process_type_16_message.c **** #define SWAP_32 1
  51:.\rtu_modbus/process_type_16_message.c **** 
  52:.\rtu_modbus/process_type_16_message.c **** extern void set_reset_flag( void );
  53:.\rtu_modbus/process_type_16_message.c **** 
  54:.\rtu_modbus/process_type_16_message.c **** typedef uint16 (*FN_16)( uint8 *buffer );
  55:.\rtu_modbus/process_type_16_message.c **** 
  56:.\rtu_modbus/process_type_16_message.c **** typedef struct
  57:.\rtu_modbus/process_type_16_message.c **** {
  58:.\rtu_modbus/process_type_16_message.c ****     unsigned start_register;
  59:.\rtu_modbus/process_type_16_message.c ****     unsigned register_count;
  60:.\rtu_modbus/process_type_16_message.c ****     unsigned swap_type;
  61:.\rtu_modbus/process_type_16_message.c ****     FN_16   access;
  62:.\rtu_modbus/process_type_16_message.c ****     
  63:.\rtu_modbus/process_type_16_message.c **** }TYPE_16_STRUCT;      
  64:.\rtu_modbus/process_type_16_message.c **** 
  65:.\rtu_modbus/process_type_16_message.c **** 
  66:.\rtu_modbus/process_type_16_message.c **** static uint16 clear_watch_dog_flags( uint8 * buffer )
  67:.\rtu_modbus/process_type_16_message.c **** {
 141              		.loc 2 67 0
 142              		.cfi_startproc
 143              		@ args = 0, pretend = 0, frame = 16
 144              		@ frame_needed = 1, uses_anonymous_args = 0
 145 0000 80B5     		push	{r7, lr}
 146              		.cfi_def_cfa_offset 8
 147              		.cfi_offset 7, -8
 148              		.cfi_offset 14, -4
 149 0002 84B0     		sub	sp, sp, #16
 150              		.cfi_def_cfa_offset 24
 151 0004 00AF     		add	r7, sp, #0
 152              		.cfi_def_cfa_register 7
 153 0006 7860     		str	r0, [r7, #4]
  68:.\rtu_modbus/process_type_16_message.c ****     uint16 temp;
  69:.\rtu_modbus/process_type_16_message.c ****     
  70:.\rtu_modbus/process_type_16_message.c ****     temp =  0;
 154              		.loc 2 70 0
 155 0008 0023     		movs	r3, #0
 156 000a FB81     		strh	r3, [r7, #14]	@ movhi
  71:.\rtu_modbus/process_type_16_message.c ****     store_modbus_data_registers( MOD_RTU_WATCH_DOG_FLAG, 1 , &temp);
 157              		.loc 2 71 0
 158 000c 07F10E03 		add	r3, r7, #14
 159 0010 0220     		movs	r0, #2
 160 0012 0121     		movs	r1, #1
 161 0014 1A46     		mov	r2, r3
 162 0016 FFF7FEFF 		bl	store_modbus_data_registers
  72:.\rtu_modbus/process_type_16_message.c ****     temp = 1;
 163              		.loc 2 72 0
 164 001a 0123     		movs	r3, #1
 165 001c FB81     		strh	r3, [r7, #14]	@ movhi
  73:.\rtu_modbus/process_type_16_message.c ****     store_modbus_data_registers( MOD_CONTROLLER_WATCH_DOG_FLAG, 1 , &temp);
 166              		.loc 2 73 0
 167 001e 07F10E03 		add	r3, r7, #14
 168 0022 0320     		movs	r0, #3
 169 0024 0121     		movs	r1, #1
 170 0026 1A46     		mov	r2, r3
ARM GAS  C:\Users\glenn\AppData\Local\Temp\ccknROVE.s 			page 6


 171 0028 FFF7FEFF 		bl	store_modbus_data_registers
  74:.\rtu_modbus/process_type_16_message.c **** 
  75:.\rtu_modbus/process_type_16_message.c ****     return 1;
 172              		.loc 2 75 0
 173 002c 0123     		movs	r3, #1
  76:.\rtu_modbus/process_type_16_message.c **** }
 174              		.loc 2 76 0
 175 002e 1846     		mov	r0, r3
 176 0030 1037     		adds	r7, r7, #16
 177              		.cfi_def_cfa_offset 8
 178 0032 BD46     		mov	sp, r7
 179              		.cfi_def_cfa_register 13
 180              		@ sp needed
 181 0034 80BD     		pop	{r7, pc}
 182              		.cfi_endproc
 183              	.LFE67:
 184              		.size	clear_watch_dog_flags, .-clear_watch_dog_flags
 185 0036 00BF     		.section	.text.clear_power_up_event,"ax",%progbits
 186              		.align	2
 187              		.thumb
 188              		.thumb_func
 189              		.type	clear_power_up_event, %function
 190              	clear_power_up_event:
 191              	.LFB68:
  77:.\rtu_modbus/process_type_16_message.c **** 
  78:.\rtu_modbus/process_type_16_message.c **** 
  79:.\rtu_modbus/process_type_16_message.c **** static uint16 clear_power_up_event( uint8 *buffer )
  80:.\rtu_modbus/process_type_16_message.c **** {
 192              		.loc 2 80 0
 193              		.cfi_startproc
 194              		@ args = 0, pretend = 0, frame = 16
 195              		@ frame_needed = 1, uses_anonymous_args = 0
 196 0000 80B5     		push	{r7, lr}
 197              		.cfi_def_cfa_offset 8
 198              		.cfi_offset 7, -8
 199              		.cfi_offset 14, -4
 200 0002 84B0     		sub	sp, sp, #16
 201              		.cfi_def_cfa_offset 24
 202 0004 00AF     		add	r7, sp, #0
 203              		.cfi_def_cfa_register 7
 204 0006 7860     		str	r0, [r7, #4]
  81:.\rtu_modbus/process_type_16_message.c ****     uint16 temp;
  82:.\rtu_modbus/process_type_16_message.c ****     
  83:.\rtu_modbus/process_type_16_message.c ****     temp = 0;
 205              		.loc 2 83 0
 206 0008 0023     		movs	r3, #0
 207 000a FB81     		strh	r3, [r7, #14]	@ movhi
  84:.\rtu_modbus/process_type_16_message.c ****     store_modbus_data_registers( MOD_POWER_UP_EVENT, 1 , &temp);
 208              		.loc 2 84 0
 209 000c 07F10E03 		add	r3, r7, #14
 210 0010 0520     		movs	r0, #5
 211 0012 0121     		movs	r1, #1
 212 0014 1A46     		mov	r2, r3
 213 0016 FFF7FEFF 		bl	store_modbus_data_registers
  85:.\rtu_modbus/process_type_16_message.c ****     return 1;
 214              		.loc 2 85 0
 215 001a 0123     		movs	r3, #1
ARM GAS  C:\Users\glenn\AppData\Local\Temp\ccknROVE.s 			page 7


  86:.\rtu_modbus/process_type_16_message.c **** }
 216              		.loc 2 86 0
 217 001c 1846     		mov	r0, r3
 218 001e 1037     		adds	r7, r7, #16
 219              		.cfi_def_cfa_offset 8
 220 0020 BD46     		mov	sp, r7
 221              		.cfi_def_cfa_register 13
 222              		@ sp needed
 223 0022 80BD     		pop	{r7, pc}
 224              		.cfi_endproc
 225              	.LFE68:
 226              		.size	clear_power_up_event, .-clear_power_up_event
 227              		.section	.text.clear_minute_rollover,"ax",%progbits
 228              		.align	2
 229              		.thumb
 230              		.thumb_func
 231              		.type	clear_minute_rollover, %function
 232              	clear_minute_rollover:
 233              	.LFB69:
  87:.\rtu_modbus/process_type_16_message.c **** 
  88:.\rtu_modbus/process_type_16_message.c **** 
  89:.\rtu_modbus/process_type_16_message.c **** static uint16 clear_minute_rollover( uint8 *buffer )
  90:.\rtu_modbus/process_type_16_message.c **** {
 234              		.loc 2 90 0
 235              		.cfi_startproc
 236              		@ args = 0, pretend = 0, frame = 16
 237              		@ frame_needed = 1, uses_anonymous_args = 0
 238 0000 80B5     		push	{r7, lr}
 239              		.cfi_def_cfa_offset 8
 240              		.cfi_offset 7, -8
 241              		.cfi_offset 14, -4
 242 0002 84B0     		sub	sp, sp, #16
 243              		.cfi_def_cfa_offset 24
 244 0004 00AF     		add	r7, sp, #0
 245              		.cfi_def_cfa_register 7
 246 0006 7860     		str	r0, [r7, #4]
  91:.\rtu_modbus/process_type_16_message.c ****     uint16 temp;
  92:.\rtu_modbus/process_type_16_message.c ****     
  93:.\rtu_modbus/process_type_16_message.c ****     temp = 0;
 247              		.loc 2 93 0
 248 0008 0023     		movs	r3, #0
 249 000a FB81     		strh	r3, [r7, #14]	@ movhi
  94:.\rtu_modbus/process_type_16_message.c ****     store_modbus_data_registers( MOD_MINUTE_ROLLOVER, 1 , &temp);
 250              		.loc 2 94 0
 251 000c 07F10E03 		add	r3, r7, #14
 252 0010 0620     		movs	r0, #6
 253 0012 0121     		movs	r1, #1
 254 0014 1A46     		mov	r2, r3
 255 0016 FFF7FEFF 		bl	store_modbus_data_registers
  95:.\rtu_modbus/process_type_16_message.c ****     return 1;
 256              		.loc 2 95 0
 257 001a 0123     		movs	r3, #1
  96:.\rtu_modbus/process_type_16_message.c **** }
 258              		.loc 2 96 0
 259 001c 1846     		mov	r0, r3
 260 001e 1037     		adds	r7, r7, #16
 261              		.cfi_def_cfa_offset 8
ARM GAS  C:\Users\glenn\AppData\Local\Temp\ccknROVE.s 			page 8


 262 0020 BD46     		mov	sp, r7
 263              		.cfi_def_cfa_register 13
 264              		@ sp needed
 265 0022 80BD     		pop	{r7, pc}
 266              		.cfi_endproc
 267              	.LFE69:
 268              		.size	clear_minute_rollover, .-clear_minute_rollover
 269              		.section	.text.change_time,"ax",%progbits
 270              		.align	2
 271              		.thumb
 272              		.thumb_func
 273              		.type	change_time, %function
 274              	change_time:
 275              	.LFB70:
  97:.\rtu_modbus/process_type_16_message.c **** 
  98:.\rtu_modbus/process_type_16_message.c **** 
  99:.\rtu_modbus/process_type_16_message.c **** 
 100:.\rtu_modbus/process_type_16_message.c **** 
 101:.\rtu_modbus/process_type_16_message.c **** 
 102:.\rtu_modbus/process_type_16_message.c **** static uint16 change_time( uint8 *buffer )
 103:.\rtu_modbus/process_type_16_message.c **** {
 276              		.loc 2 103 0
 277              		.cfi_startproc
 278              		@ args = 0, pretend = 0, frame = 24
 279              		@ frame_needed = 1, uses_anonymous_args = 0
 280 0000 80B5     		push	{r7, lr}
 281              		.cfi_def_cfa_offset 8
 282              		.cfi_offset 7, -8
 283              		.cfi_offset 14, -4
 284 0002 86B0     		sub	sp, sp, #24
 285              		.cfi_def_cfa_offset 32
 286 0004 00AF     		add	r7, sp, #0
 287              		.cfi_def_cfa_register 7
 288 0006 7860     		str	r0, [r7, #4]
 104:.\rtu_modbus/process_type_16_message.c ****     uint16 *data;
 105:.\rtu_modbus/process_type_16_message.c ****     uint16 second;
 106:.\rtu_modbus/process_type_16_message.c ****     uint16 minute;
 107:.\rtu_modbus/process_type_16_message.c ****     uint16 hour;
 108:.\rtu_modbus/process_type_16_message.c ****     uint16 day;
 109:.\rtu_modbus/process_type_16_message.c ****     uint16 month;
 110:.\rtu_modbus/process_type_16_message.c ****     uint16 year;
 111:.\rtu_modbus/process_type_16_message.c ****     data = (uint16 *)buffer;
 289              		.loc 2 111 0
 290 0008 7B68     		ldr	r3, [r7, #4]
 291 000a 7B61     		str	r3, [r7, #20]
 112:.\rtu_modbus/process_type_16_message.c ****     store_modbus_data_registers(MOD_YEAR, 6, data);
 292              		.loc 2 112 0
 293 000c 0820     		movs	r0, #8
 294 000e 0621     		movs	r1, #6
 295 0010 7A69     		ldr	r2, [r7, #20]
 296 0012 FFF7FEFF 		bl	store_modbus_data_registers
 113:.\rtu_modbus/process_type_16_message.c **** 
 114:.\rtu_modbus/process_type_16_message.c ****     year = *data++;
 297              		.loc 2 114 0
 298 0016 7B69     		ldr	r3, [r7, #20]
 299 0018 9A1C     		adds	r2, r3, #2
 300 001a 7A61     		str	r2, [r7, #20]
ARM GAS  C:\Users\glenn\AppData\Local\Temp\ccknROVE.s 			page 9


 301 001c 1B88     		ldrh	r3, [r3]	@ movhi
 302 001e 7B82     		strh	r3, [r7, #18]	@ movhi
 115:.\rtu_modbus/process_type_16_message.c ****     month = *data++;
 303              		.loc 2 115 0
 304 0020 7B69     		ldr	r3, [r7, #20]
 305 0022 9A1C     		adds	r2, r3, #2
 306 0024 7A61     		str	r2, [r7, #20]
 307 0026 1B88     		ldrh	r3, [r3]	@ movhi
 308 0028 3B82     		strh	r3, [r7, #16]	@ movhi
 116:.\rtu_modbus/process_type_16_message.c ****     day  = *data++;
 309              		.loc 2 116 0
 310 002a 7B69     		ldr	r3, [r7, #20]
 311 002c 9A1C     		adds	r2, r3, #2
 312 002e 7A61     		str	r2, [r7, #20]
 313 0030 1B88     		ldrh	r3, [r3]	@ movhi
 314 0032 FB81     		strh	r3, [r7, #14]	@ movhi
 117:.\rtu_modbus/process_type_16_message.c ****     hour = *data++;
 315              		.loc 2 117 0
 316 0034 7B69     		ldr	r3, [r7, #20]
 317 0036 9A1C     		adds	r2, r3, #2
 318 0038 7A61     		str	r2, [r7, #20]
 319 003a 1B88     		ldrh	r3, [r3]	@ movhi
 320 003c BB81     		strh	r3, [r7, #12]	@ movhi
 118:.\rtu_modbus/process_type_16_message.c ****     minute = *data++;
 321              		.loc 2 118 0
 322 003e 7B69     		ldr	r3, [r7, #20]
 323 0040 9A1C     		adds	r2, r3, #2
 324 0042 7A61     		str	r2, [r7, #20]
 325 0044 1B88     		ldrh	r3, [r3]	@ movhi
 326 0046 7B81     		strh	r3, [r7, #10]	@ movhi
 119:.\rtu_modbus/process_type_16_message.c ****     second = *data++;
 327              		.loc 2 119 0
 328 0048 7B69     		ldr	r3, [r7, #20]
 329 004a 9A1C     		adds	r2, r3, #2
 330 004c 7A61     		str	r2, [r7, #20]
 331 004e 1B88     		ldrh	r3, [r3]	@ movhi
 332 0050 3B81     		strh	r3, [r7, #8]	@ movhi
 120:.\rtu_modbus/process_type_16_message.c ****     
 121:.\rtu_modbus/process_type_16_message.c ****     
 122:.\rtu_modbus/process_type_16_message.c ****     RTC_1_WriteSecond(second);   
 333              		.loc 2 122 0
 334 0052 3B89     		ldrh	r3, [r7, #8]	@ movhi
 335 0054 DBB2     		uxtb	r3, r3
 336 0056 1846     		mov	r0, r3
 337 0058 FFF7FEFF 		bl	RTC_1_WriteSecond
 123:.\rtu_modbus/process_type_16_message.c ****     RTC_1_WriteMinute(minute);  
 338              		.loc 2 123 0
 339 005c 7B89     		ldrh	r3, [r7, #10]	@ movhi
 340 005e DBB2     		uxtb	r3, r3
 341 0060 1846     		mov	r0, r3
 342 0062 FFF7FEFF 		bl	RTC_1_WriteMinute
 124:.\rtu_modbus/process_type_16_message.c ****     RTC_1_WriteHour( hour );
 343              		.loc 2 124 0
 344 0066 BB89     		ldrh	r3, [r7, #12]	@ movhi
 345 0068 DBB2     		uxtb	r3, r3
 346 006a 1846     		mov	r0, r3
 347 006c FFF7FEFF 		bl	RTC_1_WriteHour
ARM GAS  C:\Users\glenn\AppData\Local\Temp\ccknROVE.s 			page 10


 125:.\rtu_modbus/process_type_16_message.c ****     RTC_1_WriteDayOfMonth(day);
 348              		.loc 2 125 0
 349 0070 FB89     		ldrh	r3, [r7, #14]	@ movhi
 350 0072 DBB2     		uxtb	r3, r3
 351 0074 1846     		mov	r0, r3
 352 0076 FFF7FEFF 		bl	RTC_1_WriteDayOfMonth
 126:.\rtu_modbus/process_type_16_message.c ****     RTC_1_WriteMonth(month);
 353              		.loc 2 126 0
 354 007a 3B8A     		ldrh	r3, [r7, #16]	@ movhi
 355 007c DBB2     		uxtb	r3, r3
 356 007e 1846     		mov	r0, r3
 357 0080 FFF7FEFF 		bl	RTC_1_WriteMonth
 127:.\rtu_modbus/process_type_16_message.c ****     RTC_1_WriteYear( year );
 358              		.loc 2 127 0
 359 0084 7B8A     		ldrh	r3, [r7, #18]
 360 0086 1846     		mov	r0, r3
 361 0088 FFF7FEFF 		bl	RTC_1_WriteYear
 128:.\rtu_modbus/process_type_16_message.c ****     return 1;
 362              		.loc 2 128 0
 363 008c 0123     		movs	r3, #1
 129:.\rtu_modbus/process_type_16_message.c **** 
 130:.\rtu_modbus/process_type_16_message.c **** }
 364              		.loc 2 130 0
 365 008e 1846     		mov	r0, r3
 366 0090 1837     		adds	r7, r7, #24
 367              		.cfi_def_cfa_offset 8
 368 0092 BD46     		mov	sp, r7
 369              		.cfi_def_cfa_register 13
 370              		@ sp needed
 371 0094 80BD     		pop	{r7, pc}
 372              		.cfi_endproc
 373              	.LFE70:
 374              		.size	change_time, .-change_time
 375 0096 00BF     		.section	.text.change_modbus_address,"ax",%progbits
 376              		.align	2
 377              		.thumb
 378              		.thumb_func
 379              		.type	change_modbus_address, %function
 380              	change_modbus_address:
 381              	.LFB71:
 131:.\rtu_modbus/process_type_16_message.c **** 
 132:.\rtu_modbus/process_type_16_message.c **** static uint16 change_modbus_address( uint8 *buffer )
 133:.\rtu_modbus/process_type_16_message.c **** {
 382              		.loc 2 133 0
 383              		.cfi_startproc
 384              		@ args = 0, pretend = 0, frame = 16
 385              		@ frame_needed = 1, uses_anonymous_args = 0
 386 0000 80B5     		push	{r7, lr}
 387              		.cfi_def_cfa_offset 8
 388              		.cfi_offset 7, -8
 389              		.cfi_offset 14, -4
 390 0002 84B0     		sub	sp, sp, #16
 391              		.cfi_def_cfa_offset 24
 392 0004 00AF     		add	r7, sp, #0
 393              		.cfi_def_cfa_register 7
 394 0006 7860     		str	r0, [r7, #4]
 134:.\rtu_modbus/process_type_16_message.c ****     uint16 mod_commission_flag;
ARM GAS  C:\Users\glenn\AppData\Local\Temp\ccknROVE.s 			page 11


 135:.\rtu_modbus/process_type_16_message.c ****     uint16 return_value;
 136:.\rtu_modbus/process_type_16_message.c ****     
 137:.\rtu_modbus/process_type_16_message.c ****     get_modbus_data_registers( MOD_COMMISSIONING_FLAG, 1, &mod_commission_flag );
 395              		.loc 2 137 0
 396 0008 07F10C03 		add	r3, r7, #12
 397 000c 0420     		movs	r0, #4
 398 000e 0121     		movs	r1, #1
 399 0010 1A46     		mov	r2, r3
 400 0012 FFF7FEFF 		bl	get_modbus_data_registers
 138:.\rtu_modbus/process_type_16_message.c ****     
 139:.\rtu_modbus/process_type_16_message.c ****     if( mod_commission_flag != 0  )
 401              		.loc 2 139 0
 402 0016 BB89     		ldrh	r3, [r7, #12]
 403 0018 002B     		cmp	r3, #0
 404 001a 0BD0     		beq	.L12
 140:.\rtu_modbus/process_type_16_message.c ****     {
 141:.\rtu_modbus/process_type_16_message.c ****         return_value = 1;
 405              		.loc 2 141 0
 406 001c 0123     		movs	r3, #1
 407 001e FB81     		strh	r3, [r7, #14]	@ movhi
 142:.\rtu_modbus/process_type_16_message.c ****         Em_EEPROM_1_Write( (const uint8* )buffer, (const uint8*)modbus_address_data , sizeof(modbus
 408              		.loc 2 142 0
 409 0020 7868     		ldr	r0, [r7, #4]
 410 0022 0849     		ldr	r1, .L15
 411 0024 0422     		movs	r2, #4
 412 0026 FFF7FEFF 		bl	Em_EEPROM_1_Write
 143:.\rtu_modbus/process_type_16_message.c ****         cf_send_event(  CF_COMMISSIONING_DONE, 0 );
 413              		.loc 2 143 0
 414 002a 0820     		movs	r0, #8
 415 002c 0021     		movs	r1, #0
 416 002e FFF7FEFF 		bl	cf_send_event
 417 0032 01E0     		b	.L13
 418              	.L12:
 144:.\rtu_modbus/process_type_16_message.c ****     }
 145:.\rtu_modbus/process_type_16_message.c ****     else
 146:.\rtu_modbus/process_type_16_message.c ****     {
 147:.\rtu_modbus/process_type_16_message.c ****         return_value = 0;
 419              		.loc 2 147 0
 420 0034 0023     		movs	r3, #0
 421 0036 FB81     		strh	r3, [r7, #14]	@ movhi
 422              	.L13:
 148:.\rtu_modbus/process_type_16_message.c ****     }    
 149:.\rtu_modbus/process_type_16_message.c ****     return return_value;
 423              		.loc 2 149 0
 424 0038 FB89     		ldrh	r3, [r7, #14]
 150:.\rtu_modbus/process_type_16_message.c **** }
 425              		.loc 2 150 0
 426 003a 1846     		mov	r0, r3
 427 003c 1037     		adds	r7, r7, #16
 428              		.cfi_def_cfa_offset 8
 429 003e BD46     		mov	sp, r7
 430              		.cfi_def_cfa_register 13
 431              		@ sp needed
 432 0040 80BD     		pop	{r7, pc}
 433              	.L16:
 434 0042 00BF     		.align	2
 435              	.L15:
ARM GAS  C:\Users\glenn\AppData\Local\Temp\ccknROVE.s 			page 12


 436 0044 00000000 		.word	modbus_address_data
 437              		.cfi_endproc
 438              	.LFE71:
 439              		.size	change_modbus_address, .-change_modbus_address
 440              		.section	.text.set_moisture_sampling_rate,"ax",%progbits
 441              		.align	2
 442              		.thumb
 443              		.thumb_func
 444              		.type	set_moisture_sampling_rate, %function
 445              	set_moisture_sampling_rate:
 446              	.LFB72:
 151:.\rtu_modbus/process_type_16_message.c **** /*
 152:.\rtu_modbus/process_type_16_message.c **** static uint16 store_calibration_variables( uint8 *buffer )
 153:.\rtu_modbus/process_type_16_message.c **** {
 154:.\rtu_modbus/process_type_16_message.c ****     uint16 *temp;
 155:.\rtu_modbus/process_type_16_message.c ****     CyGlobalIntDisable
 156:.\rtu_modbus/process_type_16_message.c ****     temp = (uint16*) buffer;
 157:.\rtu_modbus/process_type_16_message.c ****     store_modbus_data_registers( MAIN_FLOW_RATE_CALIBRATION, CALIBRATION_ARRAY_LENGTH *2 , temp);
 158:.\rtu_modbus/process_type_16_message.c ****     Em_EEPROM_1_Write( (const uint8*)buffer,(uint8*) calibration_factors, CALIBRATION_ARRAY_LENGTH*
 159:.\rtu_modbus/process_type_16_message.c ****     CYGlobalIntEnable
 160:.\rtu_modbus/process_type_16_message.c ****     return 1;
 161:.\rtu_modbus/process_type_16_message.c ****  
 162:.\rtu_modbus/process_type_16_message.c **** }
 163:.\rtu_modbus/process_type_16_message.c **** */
 164:.\rtu_modbus/process_type_16_message.c **** 
 165:.\rtu_modbus/process_type_16_message.c **** static uint16 set_moisture_sampling_rate( uint8 *buffer )
 166:.\rtu_modbus/process_type_16_message.c **** {
 447              		.loc 2 166 0
 448              		.cfi_startproc
 449              		@ args = 0, pretend = 0, frame = 16
 450              		@ frame_needed = 1, uses_anonymous_args = 0
 451 0000 80B5     		push	{r7, lr}
 452              		.cfi_def_cfa_offset 8
 453              		.cfi_offset 7, -8
 454              		.cfi_offset 14, -4
 455 0002 84B0     		sub	sp, sp, #16
 456              		.cfi_def_cfa_offset 24
 457 0004 00AF     		add	r7, sp, #0
 458              		.cfi_def_cfa_register 7
 459 0006 7860     		str	r0, [r7, #4]
 167:.\rtu_modbus/process_type_16_message.c ****     uint32 temp32;
 168:.\rtu_modbus/process_type_16_message.c ****     uint16 temp16;
 169:.\rtu_modbus/process_type_16_message.c ****     
 170:.\rtu_modbus/process_type_16_message.c ****     store_modbus_data_registers( LOGGING_RATE, 1, (uint16 *)buffer);
 460              		.loc 2 170 0
 461 0008 2020     		movs	r0, #32
 462 000a 0121     		movs	r1, #1
 463 000c 7A68     		ldr	r2, [r7, #4]
 464 000e FFF7FEFF 		bl	store_modbus_data_registers
 171:.\rtu_modbus/process_type_16_message.c ****     get_modbus_data_registers( LOGGING_RATE,1, &temp16 );
 465              		.loc 2 171 0
 466 0012 07F10A03 		add	r3, r7, #10
 467 0016 2020     		movs	r0, #32
 468 0018 0121     		movs	r1, #1
 469 001a 1A46     		mov	r2, r3
 470 001c FFF7FEFF 		bl	get_modbus_data_registers
 172:.\rtu_modbus/process_type_16_message.c ****     temp32 = temp16;
ARM GAS  C:\Users\glenn\AppData\Local\Temp\ccknROVE.s 			page 13


 471              		.loc 2 172 0
 472 0020 7B89     		ldrh	r3, [r7, #10]
 473 0022 FB60     		str	r3, [r7, #12]
 173:.\rtu_modbus/process_type_16_message.c ****     write_32_eeprom(  EEPROM_SAMPLING_RATE,(uint8 *) &temp32 );
 474              		.loc 2 173 0
 475 0024 07F10C03 		add	r3, r7, #12
 476 0028 0820     		movs	r0, #8
 477 002a 1946     		mov	r1, r3
 478 002c FFF7FEFF 		bl	write_32_eeprom
 174:.\rtu_modbus/process_type_16_message.c ****     return 0;
 479              		.loc 2 174 0
 480 0030 0023     		movs	r3, #0
 175:.\rtu_modbus/process_type_16_message.c **** }
 481              		.loc 2 175 0
 482 0032 1846     		mov	r0, r3
 483 0034 1037     		adds	r7, r7, #16
 484              		.cfi_def_cfa_offset 8
 485 0036 BD46     		mov	sp, r7
 486              		.cfi_def_cfa_register 13
 487              		@ sp needed
 488 0038 80BD     		pop	{r7, pc}
 489              		.cfi_endproc
 490              	.LFE72:
 491              		.size	set_moisture_sampling_rate, .-set_moisture_sampling_rate
 492 003a 00BF     		.section	.text.clear_moisture_log_data,"ax",%progbits
 493              		.align	2
 494              		.thumb
 495              		.thumb_func
 496              		.type	clear_moisture_log_data, %function
 497              	clear_moisture_log_data:
 498              	.LFB73:
 176:.\rtu_modbus/process_type_16_message.c **** 
 177:.\rtu_modbus/process_type_16_message.c ****     
 178:.\rtu_modbus/process_type_16_message.c **** static uint16 clear_moisture_log_data( uint8 *buffer )
 179:.\rtu_modbus/process_type_16_message.c **** {
 499              		.loc 2 179 0
 500              		.cfi_startproc
 501              		@ args = 0, pretend = 0, frame = 16
 502              		@ frame_needed = 1, uses_anonymous_args = 0
 503 0000 80B5     		push	{r7, lr}
 504              		.cfi_def_cfa_offset 8
 505              		.cfi_offset 7, -8
 506              		.cfi_offset 14, -4
 507 0002 84B0     		sub	sp, sp, #16
 508              		.cfi_def_cfa_offset 24
 509 0004 00AF     		add	r7, sp, #0
 510              		.cfi_def_cfa_register 7
 511 0006 7860     		str	r0, [r7, #4]
 180:.\rtu_modbus/process_type_16_message.c ****      uint32 temp32;
 181:.\rtu_modbus/process_type_16_message.c ****      uint16 temp16;
 182:.\rtu_modbus/process_type_16_message.c ****     temp16 = 0;
 512              		.loc 2 182 0
 513 0008 0023     		movs	r3, #0
 514 000a 7B81     		strh	r3, [r7, #10]	@ movhi
 183:.\rtu_modbus/process_type_16_message.c ****     store_modbus_data_registers( LOGGING_INDEX, 1,&temp16 );
 515              		.loc 2 183 0
 516 000c 07F10A03 		add	r3, r7, #10
ARM GAS  C:\Users\glenn\AppData\Local\Temp\ccknROVE.s 			page 14


 517 0010 1F20     		movs	r0, #31
 518 0012 0121     		movs	r1, #1
 519 0014 1A46     		mov	r2, r3
 520 0016 FFF7FEFF 		bl	store_modbus_data_registers
 184:.\rtu_modbus/process_type_16_message.c ****     temp32 = temp16;
 521              		.loc 2 184 0
 522 001a 7B89     		ldrh	r3, [r7, #10]
 523 001c FB60     		str	r3, [r7, #12]
 185:.\rtu_modbus/process_type_16_message.c ****     write_32_eeprom( EEPROM_LOGGING_INDEX ,(uint8 *) &temp32 );
 524              		.loc 2 185 0
 525 001e 07F10C03 		add	r3, r7, #12
 526 0022 0C20     		movs	r0, #12
 527 0024 1946     		mov	r1, r3
 528 0026 FFF7FEFF 		bl	write_32_eeprom
 186:.\rtu_modbus/process_type_16_message.c ****     return 1;
 529              		.loc 2 186 0
 530 002a 0123     		movs	r3, #1
 187:.\rtu_modbus/process_type_16_message.c **** }
 531              		.loc 2 187 0
 532 002c 1846     		mov	r0, r3
 533 002e 1037     		adds	r7, r7, #16
 534              		.cfi_def_cfa_offset 8
 535 0030 BD46     		mov	sp, r7
 536              		.cfi_def_cfa_register 13
 537              		@ sp needed
 538 0032 80BD     		pop	{r7, pc}
 539              		.cfi_endproc
 540              	.LFE73:
 541              		.size	clear_moisture_log_data, .-clear_moisture_log_data
 542              		.section	.text.update_moisture_sensor_configuration,"ax",%progbits
 543              		.align	2
 544              		.thumb
 545              		.thumb_func
 546              		.type	update_moisture_sensor_configuration, %function
 547              	update_moisture_sensor_configuration:
 548              	.LFB74:
 188:.\rtu_modbus/process_type_16_message.c **** 
 189:.\rtu_modbus/process_type_16_message.c **** 
 190:.\rtu_modbus/process_type_16_message.c **** 
 191:.\rtu_modbus/process_type_16_message.c **** static uint16 update_moisture_sensor_configuration( uint8 *buffer )
 192:.\rtu_modbus/process_type_16_message.c **** {
 549              		.loc 2 192 0
 550              		.cfi_startproc
 551              		@ args = 0, pretend = 0, frame = 8
 552              		@ frame_needed = 1, uses_anonymous_args = 0
 553 0000 80B5     		push	{r7, lr}
 554              		.cfi_def_cfa_offset 8
 555              		.cfi_offset 7, -8
 556              		.cfi_offset 14, -4
 557 0002 82B0     		sub	sp, sp, #8
 558              		.cfi_def_cfa_offset 16
 559 0004 00AF     		add	r7, sp, #0
 560              		.cfi_def_cfa_register 7
 561 0006 7860     		str	r0, [r7, #4]
 193:.\rtu_modbus/process_type_16_message.c **** 
 194:.\rtu_modbus/process_type_16_message.c ****     CyGlobalIntDisable
 562              		.loc 2 194 0
ARM GAS  C:\Users\glenn\AppData\Local\Temp\ccknROVE.s 			page 15


 563              	@ 194 ".\rtu_modbus\process_type_16_message.c" 1
 564 0008 72B6     		CPSID   i
 565              	@ 0 "" 2
 195:.\rtu_modbus/process_type_16_message.c **** 
 196:.\rtu_modbus/process_type_16_message.c ****     Em_EEPROM_1_Write(buffer, (uint8 *) moisture_configuration_data, sizeof(update_moisture_sensor_
 566              		.loc 2 196 0
 567              		.thumb
 568 000a 7868     		ldr	r0, [r7, #4]
 569 000c 0749     		ldr	r1, .L23
 570 000e 0122     		movs	r2, #1
 571 0010 FFF7FEFF 		bl	Em_EEPROM_1_Write
 197:.\rtu_modbus/process_type_16_message.c ****     store_modbus_data_registers( MOISTURE_SENSOR_1_CONFIGURATION , sizeof(moisture_configuration_da
 572              		.loc 2 197 0
 573 0014 5020     		movs	r0, #80
 574 0016 0821     		movs	r1, #8
 575 0018 044A     		ldr	r2, .L23
 576 001a FFF7FEFF 		bl	store_modbus_data_registers
 198:.\rtu_modbus/process_type_16_message.c ****     CYGlobalIntEnable
 577              		.loc 2 198 0
 578              	@ 198 ".\rtu_modbus\process_type_16_message.c" 1
 579 001e 62B6     		CPSIE   i
 580              	@ 0 "" 2
 199:.\rtu_modbus/process_type_16_message.c ****     return 1;
 581              		.loc 2 199 0
 582              		.thumb
 583 0020 0123     		movs	r3, #1
 200:.\rtu_modbus/process_type_16_message.c **** 
 201:.\rtu_modbus/process_type_16_message.c **** }
 584              		.loc 2 201 0
 585 0022 1846     		mov	r0, r3
 586 0024 0837     		adds	r7, r7, #8
 587              		.cfi_def_cfa_offset 8
 588 0026 BD46     		mov	sp, r7
 589              		.cfi_def_cfa_register 13
 590              		@ sp needed
 591 0028 80BD     		pop	{r7, pc}
 592              	.L24:
 593 002a 00BF     		.align	2
 594              	.L23:
 595 002c 00000000 		.word	moisture_configuration_data
 596              		.cfi_endproc
 597              	.LFE74:
 598              		.size	update_moisture_sensor_configuration, .-update_moisture_sensor_configuration
 599              		.section	.text.force_moisture_reading,"ax",%progbits
 600              		.align	2
 601              		.thumb
 602              		.thumb_func
 603              		.type	force_moisture_reading, %function
 604              	force_moisture_reading:
 605              	.LFB75:
 202:.\rtu_modbus/process_type_16_message.c **** 
 203:.\rtu_modbus/process_type_16_message.c **** static uint16 force_moisture_reading( uint8 *buffer )
 204:.\rtu_modbus/process_type_16_message.c **** {
 606              		.loc 2 204 0
 607              		.cfi_startproc
 608              		@ args = 0, pretend = 0, frame = 8
 609              		@ frame_needed = 1, uses_anonymous_args = 0
ARM GAS  C:\Users\glenn\AppData\Local\Temp\ccknROVE.s 			page 16


 610 0000 80B5     		push	{r7, lr}
 611              		.cfi_def_cfa_offset 8
 612              		.cfi_offset 7, -8
 613              		.cfi_offset 14, -4
 614 0002 82B0     		sub	sp, sp, #8
 615              		.cfi_def_cfa_offset 16
 616 0004 00AF     		add	r7, sp, #0
 617              		.cfi_def_cfa_register 7
 618 0006 7860     		str	r0, [r7, #4]
 205:.\rtu_modbus/process_type_16_message.c ****     cf_send_event( CF_MOISTURE_READING, 0 );
 619              		.loc 2 205 0
 620 0008 0920     		movs	r0, #9
 621 000a 0021     		movs	r1, #0
 622 000c FFF7FEFF 		bl	cf_send_event
 206:.\rtu_modbus/process_type_16_message.c ****     return 1;
 623              		.loc 2 206 0
 624 0010 0123     		movs	r3, #1
 207:.\rtu_modbus/process_type_16_message.c **** }
 625              		.loc 2 207 0
 626 0012 1846     		mov	r0, r3
 627 0014 0837     		adds	r7, r7, #8
 628              		.cfi_def_cfa_offset 8
 629 0016 BD46     		mov	sp, r7
 630              		.cfi_def_cfa_register 13
 631              		@ sp needed
 632 0018 80BD     		pop	{r7, pc}
 633              		.cfi_endproc
 634              	.LFE75:
 635              		.size	force_moisture_reading, .-force_moisture_reading
 636 001a 00BF     		.section	.rodata
 637              		.align	2
 638              		.type	type_16_access_functions, %object
 639              		.size	type_16_access_functions, 144
 640              	type_16_access_functions:
 641 0000 14000000 		.word	20
 642 0004 06000000 		.word	6
 643 0008 00000000 		.word	0
 644 000c 00000000 		.word	change_time
 645 0010 15000000 		.word	21
 646 0014 01000000 		.word	1
 647 0018 00000000 		.word	0
 648 001c 00000000 		.word	change_modbus_address
 649 0020 16000000 		.word	22
 650 0024 01000000 		.word	1
 651 0028 00000000 		.word	0
 652 002c 00000000 		.word	clear_watch_dog_flags
 653 0030 17000000 		.word	23
 654 0034 01000000 		.word	1
 655 0038 00000000 		.word	0
 656 003c 00000000 		.word	clear_power_up_event
 657 0040 19000000 		.word	25
 658 0044 01000000 		.word	1
 659 0048 00000000 		.word	0
 660 004c 00000000 		.word	clear_minute_rollover
 661 0050 1E000000 		.word	30
 662 0054 01000000 		.word	1
 663 0058 00000000 		.word	0
ARM GAS  C:\Users\glenn\AppData\Local\Temp\ccknROVE.s 			page 17


 664 005c 00000000 		.word	set_moisture_sampling_rate
 665 0060 1F000000 		.word	31
 666 0064 01000000 		.word	1
 667 0068 00000000 		.word	0
 668 006c 00000000 		.word	clear_moisture_log_data
 669 0070 20000000 		.word	32
 670 0074 08000000 		.word	8
 671 0078 00000000 		.word	0
 672 007c 00000000 		.word	update_moisture_sensor_configuration
 673 0080 21000000 		.word	33
 674 0084 01000000 		.word	1
 675 0088 00000000 		.word	0
 676 008c 00000000 		.word	force_moisture_reading
 677              		.section	.text.process_type_16_message,"ax",%progbits
 678              		.align	2
 679              		.global	process_type_16_message
 680              		.thumb
 681              		.thumb_func
 682              		.type	process_type_16_message, %function
 683              	process_type_16_message:
 684              	.LFB76:
 208:.\rtu_modbus/process_type_16_message.c **** 
 209:.\rtu_modbus/process_type_16_message.c **** 
 210:.\rtu_modbus/process_type_16_message.c **** static const TYPE_16_STRUCT type_16_access_functions[] = 
 211:.\rtu_modbus/process_type_16_message.c **** {
 212:.\rtu_modbus/process_type_16_message.c ****     // System Level Writes
 213:.\rtu_modbus/process_type_16_message.c ****     { 20,    6,                                                 SWAP_16,  change_time              
 214:.\rtu_modbus/process_type_16_message.c ****     { 21,    MODBUS_ARRAY_LENGTH,                               SWAP_16,  change_modbus_address    
 215:.\rtu_modbus/process_type_16_message.c ****     { 22,    1,                                                 SWAP_16,  clear_watch_dog_flags    
 216:.\rtu_modbus/process_type_16_message.c ****     { 23,    1,                                                 SWAP_16,  clear_power_up_event     
 217:.\rtu_modbus/process_type_16_message.c ****     { 25,    1,                                                 SWAP_16,  clear_minute_rollover    
 218:.\rtu_modbus/process_type_16_message.c ****     // Moisture Sensor Related Writes
 219:.\rtu_modbus/process_type_16_message.c ****     // 30 write sampling index
 220:.\rtu_modbus/process_type_16_message.c ****     { 30,    1,                                                 SWAP_16,  set_moisture_sampling_rat
 221:.\rtu_modbus/process_type_16_message.c ****     // 31 write clear logging data
 222:.\rtu_modbus/process_type_16_message.c ****     { 31,    1,                                                 SWAP_16,  clear_moisture_log_data  
 223:.\rtu_modbus/process_type_16_message.c ****     // 33 update moisture configuration
 224:.\rtu_modbus/process_type_16_message.c ****     { 32,     MOISTURE_SENSOR_NUMBER,                           SWAP_16,  update_moisture_sensor_co
 225:.\rtu_modbus/process_type_16_message.c ****     // 33 force mositure reading
 226:.\rtu_modbus/process_type_16_message.c ****     { 33,    1,                                                 SWAP_16, force_moisture_reading    
 227:.\rtu_modbus/process_type_16_message.c ****    
 228:.\rtu_modbus/process_type_16_message.c **** };
 229:.\rtu_modbus/process_type_16_message.c ****         
 230:.\rtu_modbus/process_type_16_message.c **** #define TABLE_LENGTH sizeof(type_16_access_functions)/sizeof(type_16_access_functions)
 231:.\rtu_modbus/process_type_16_message.c **** 
 232:.\rtu_modbus/process_type_16_message.c **** static  const TYPE_16_STRUCT *find_access_function( unsigned start_register, unsigned number );
 233:.\rtu_modbus/process_type_16_message.c **** 
 234:.\rtu_modbus/process_type_16_message.c **** 
 235:.\rtu_modbus/process_type_16_message.c **** int process_type_16_message( int in_length, uint8 *in, int out_length, uint8 *out )
 236:.\rtu_modbus/process_type_16_message.c **** {
 685              		.loc 2 236 0
 686              		.cfi_startproc
 687              		@ args = 0, pretend = 0, frame = 56
 688              		@ frame_needed = 1, uses_anonymous_args = 0
 689 0000 80B5     		push	{r7, lr}
 690              		.cfi_def_cfa_offset 8
 691              		.cfi_offset 7, -8
ARM GAS  C:\Users\glenn\AppData\Local\Temp\ccknROVE.s 			page 18


 692              		.cfi_offset 14, -4
 693 0002 8EB0     		sub	sp, sp, #56
 694              		.cfi_def_cfa_offset 64
 695 0004 00AF     		add	r7, sp, #0
 696              		.cfi_def_cfa_register 7
 697 0006 F860     		str	r0, [r7, #12]
 698 0008 B960     		str	r1, [r7, #8]
 699 000a 7A60     		str	r2, [r7, #4]
 700 000c 3B60     		str	r3, [r7]
 237:.\rtu_modbus/process_type_16_message.c ****     int       return_value;
 238:.\rtu_modbus/process_type_16_message.c ****     unsigned working_register;
 239:.\rtu_modbus/process_type_16_message.c ****     unsigned number_of_registers;
 240:.\rtu_modbus/process_type_16_message.c ****     unsigned count;
 241:.\rtu_modbus/process_type_16_message.c ****     unsigned i;
 242:.\rtu_modbus/process_type_16_message.c ****     unsigned swap_inc;
 243:.\rtu_modbus/process_type_16_message.c ****     unsigned swap_type;
 244:.\rtu_modbus/process_type_16_message.c ****     const TYPE_16_STRUCT     *acc_struct;
 245:.\rtu_modbus/process_type_16_message.c ****     uint8                    *ref_pointer;
 246:.\rtu_modbus/process_type_16_message.c **** 
 247:.\rtu_modbus/process_type_16_message.c ****     
 248:.\rtu_modbus/process_type_16_message.c ****     
 249:.\rtu_modbus/process_type_16_message.c ****     return_value = 0;
 701              		.loc 2 249 0
 702 000e 0023     		movs	r3, #0
 703 0010 7B63     		str	r3, [r7, #52]
 250:.\rtu_modbus/process_type_16_message.c ****     *out++           = *in;
 704              		.loc 2 250 0
 705 0012 3B68     		ldr	r3, [r7]
 706 0014 5A1C     		adds	r2, r3, #1
 707 0016 3A60     		str	r2, [r7]
 708 0018 BA68     		ldr	r2, [r7, #8]
 709 001a 1278     		ldrb	r2, [r2]	@ zero_extendqisi2
 710 001c 1A70     		strb	r2, [r3]
 251:.\rtu_modbus/process_type_16_message.c ****     working_register = (*in++)*256;
 711              		.loc 2 251 0
 712 001e BB68     		ldr	r3, [r7, #8]
 713 0020 5A1C     		adds	r2, r3, #1
 714 0022 BA60     		str	r2, [r7, #8]
 715 0024 1B78     		ldrb	r3, [r3]	@ zero_extendqisi2
 716 0026 1B02     		lsls	r3, r3, #8
 717 0028 7B62     		str	r3, [r7, #36]
 252:.\rtu_modbus/process_type_16_message.c ****     *out++           = *in;
 718              		.loc 2 252 0
 719 002a 3B68     		ldr	r3, [r7]
 720 002c 5A1C     		adds	r2, r3, #1
 721 002e 3A60     		str	r2, [r7]
 722 0030 BA68     		ldr	r2, [r7, #8]
 723 0032 1278     		ldrb	r2, [r2]	@ zero_extendqisi2
 724 0034 1A70     		strb	r2, [r3]
 253:.\rtu_modbus/process_type_16_message.c ****     working_register += (*in++);
 725              		.loc 2 253 0
 726 0036 BB68     		ldr	r3, [r7, #8]
 727 0038 5A1C     		adds	r2, r3, #1
 728 003a BA60     		str	r2, [r7, #8]
 729 003c 1B78     		ldrb	r3, [r3]	@ zero_extendqisi2
 730 003e 1A46     		mov	r2, r3
 731 0040 7B6A     		ldr	r3, [r7, #36]
ARM GAS  C:\Users\glenn\AppData\Local\Temp\ccknROVE.s 			page 19


 732 0042 1344     		add	r3, r3, r2
 733 0044 7B62     		str	r3, [r7, #36]
 254:.\rtu_modbus/process_type_16_message.c ****     *out++           = *in;
 734              		.loc 2 254 0
 735 0046 3B68     		ldr	r3, [r7]
 736 0048 5A1C     		adds	r2, r3, #1
 737 004a 3A60     		str	r2, [r7]
 738 004c BA68     		ldr	r2, [r7, #8]
 739 004e 1278     		ldrb	r2, [r2]	@ zero_extendqisi2
 740 0050 1A70     		strb	r2, [r3]
 255:.\rtu_modbus/process_type_16_message.c ****     number_of_registers = (*in++)*256;
 741              		.loc 2 255 0
 742 0052 BB68     		ldr	r3, [r7, #8]
 743 0054 5A1C     		adds	r2, r3, #1
 744 0056 BA60     		str	r2, [r7, #8]
 745 0058 1B78     		ldrb	r3, [r3]	@ zero_extendqisi2
 746 005a 1B02     		lsls	r3, r3, #8
 747 005c 3B62     		str	r3, [r7, #32]
 256:.\rtu_modbus/process_type_16_message.c ****     *out++           = *in;
 748              		.loc 2 256 0
 749 005e 3B68     		ldr	r3, [r7]
 750 0060 5A1C     		adds	r2, r3, #1
 751 0062 3A60     		str	r2, [r7]
 752 0064 BA68     		ldr	r2, [r7, #8]
 753 0066 1278     		ldrb	r2, [r2]	@ zero_extendqisi2
 754 0068 1A70     		strb	r2, [r3]
 257:.\rtu_modbus/process_type_16_message.c ****     number_of_registers += (*in++);
 755              		.loc 2 257 0
 756 006a BB68     		ldr	r3, [r7, #8]
 757 006c 5A1C     		adds	r2, r3, #1
 758 006e BA60     		str	r2, [r7, #8]
 759 0070 1B78     		ldrb	r3, [r3]	@ zero_extendqisi2
 760 0072 1A46     		mov	r2, r3
 761 0074 3B6A     		ldr	r3, [r7, #32]
 762 0076 1344     		add	r3, r3, r2
 763 0078 3B62     		str	r3, [r7, #32]
 258:.\rtu_modbus/process_type_16_message.c ****     count       = 4;
 764              		.loc 2 258 0
 765 007a 0423     		movs	r3, #4
 766 007c FB61     		str	r3, [r7, #28]
 259:.\rtu_modbus/process_type_16_message.c ****     in++;   // skip byte count;
 767              		.loc 2 259 0
 768 007e BB68     		ldr	r3, [r7, #8]
 769 0080 0133     		adds	r3, r3, #1
 770 0082 BB60     		str	r3, [r7, #8]
 260:.\rtu_modbus/process_type_16_message.c **** 
 261:.\rtu_modbus/process_type_16_message.c ****     ref_pointer =  in;
 771              		.loc 2 261 0
 772 0084 BB68     		ldr	r3, [r7, #8]
 773 0086 BB61     		str	r3, [r7, #24]
 262:.\rtu_modbus/process_type_16_message.c ****     acc_struct = find_access_function( working_register, number_of_registers );
 774              		.loc 2 262 0
 775 0088 786A     		ldr	r0, [r7, #36]
 776 008a 396A     		ldr	r1, [r7, #32]
 777 008c FFF7FEFF 		bl	find_access_function
 778 0090 7861     		str	r0, [r7, #20]
 263:.\rtu_modbus/process_type_16_message.c ****     
ARM GAS  C:\Users\glenn\AppData\Local\Temp\ccknROVE.s 			page 20


 264:.\rtu_modbus/process_type_16_message.c ****     if( acc_struct != NULL )
 779              		.loc 2 264 0
 780 0092 7B69     		ldr	r3, [r7, #20]
 781 0094 002B     		cmp	r3, #0
 782 0096 03D0     		beq	.L28
 265:.\rtu_modbus/process_type_16_message.c ****     {
 266:.\rtu_modbus/process_type_16_message.c ****         swap_type = acc_struct->swap_type;
 783              		.loc 2 266 0
 784 0098 7B69     		ldr	r3, [r7, #20]
 785 009a 9B68     		ldr	r3, [r3, #8]
 786 009c BB62     		str	r3, [r7, #40]
 787 009e 01E0     		b	.L29
 788              	.L28:
 267:.\rtu_modbus/process_type_16_message.c ****     }
 268:.\rtu_modbus/process_type_16_message.c ****     else
 269:.\rtu_modbus/process_type_16_message.c ****     {
 270:.\rtu_modbus/process_type_16_message.c ****         swap_type = SWAP_16;
 789              		.loc 2 270 0
 790 00a0 0023     		movs	r3, #0
 791 00a2 BB62     		str	r3, [r7, #40]
 792              	.L29:
 271:.\rtu_modbus/process_type_16_message.c ****     }
 272:.\rtu_modbus/process_type_16_message.c ****         
 273:.\rtu_modbus/process_type_16_message.c ****     switch( swap_type)
 793              		.loc 2 273 0
 794 00a4 BB6A     		ldr	r3, [r7, #40]
 795 00a6 002B     		cmp	r3, #0
 796 00a8 02D0     		beq	.L31
 797 00aa 012B     		cmp	r3, #1
 798 00ac 03D0     		beq	.L32
 799 00ae 05E0     		b	.L46
 800              	.L31:
 274:.\rtu_modbus/process_type_16_message.c ****     {
 275:.\rtu_modbus/process_type_16_message.c ****             case SWAP_16:
 276:.\rtu_modbus/process_type_16_message.c ****                 swap_inc = 2;
 801              		.loc 2 276 0
 802 00b0 0223     		movs	r3, #2
 803 00b2 FB62     		str	r3, [r7, #44]
 277:.\rtu_modbus/process_type_16_message.c ****                 break;
 804              		.loc 2 277 0
 805 00b4 06E0     		b	.L33
 806              	.L32:
 278:.\rtu_modbus/process_type_16_message.c ****             case SWAP_32:
 279:.\rtu_modbus/process_type_16_message.c ****                 swap_inc = 4;
 807              		.loc 2 279 0
 808 00b6 0423     		movs	r3, #4
 809 00b8 FB62     		str	r3, [r7, #44]
 280:.\rtu_modbus/process_type_16_message.c ****                 break;
 810              		.loc 2 280 0
 811 00ba 03E0     		b	.L33
 812              	.L46:
 281:.\rtu_modbus/process_type_16_message.c ****             default:
 282:.\rtu_modbus/process_type_16_message.c ****                 // should not happen
 283:.\rtu_modbus/process_type_16_message.c ****                 count = 0;
 813              		.loc 2 283 0
 814 00bc 0023     		movs	r3, #0
 815 00be FB61     		str	r3, [r7, #28]
ARM GAS  C:\Users\glenn\AppData\Local\Temp\ccknROVE.s 			page 21


 284:.\rtu_modbus/process_type_16_message.c ****                 return 0;
 816              		.loc 2 284 0
 817 00c0 0023     		movs	r3, #0
 818 00c2 3AE0     		b	.L34
 819              	.L33:
 285:.\rtu_modbus/process_type_16_message.c ****     }
 286:.\rtu_modbus/process_type_16_message.c ****     for( i = 0; i< number_of_registers*2; i+= swap_inc )
 820              		.loc 2 286 0
 821 00c4 0023     		movs	r3, #0
 822 00c6 3B63     		str	r3, [r7, #48]
 823 00c8 19E0     		b	.L35
 824              	.L40:
 287:.\rtu_modbus/process_type_16_message.c ****     {
 288:.\rtu_modbus/process_type_16_message.c ****             switch( swap_type)
 825              		.loc 2 288 0
 826 00ca BB6A     		ldr	r3, [r7, #40]
 827 00cc 002B     		cmp	r3, #0
 828 00ce 02D0     		beq	.L37
 829 00d0 012B     		cmp	r3, #1
 830 00d2 04D0     		beq	.L38
 831 00d4 07E0     		b	.L47
 832              	.L37:
 289:.\rtu_modbus/process_type_16_message.c ****             {
 290:.\rtu_modbus/process_type_16_message.c ****                case SWAP_16:
 291:.\rtu_modbus/process_type_16_message.c ****                   swap_16( in );
 833              		.loc 2 291 0
 834 00d6 B868     		ldr	r0, [r7, #8]
 835 00d8 FFF7FEFF 		bl	swap_16
 292:.\rtu_modbus/process_type_16_message.c ****                   break;
 836              		.loc 2 292 0
 837 00dc 07E0     		b	.L39
 838              	.L38:
 293:.\rtu_modbus/process_type_16_message.c ****                case SWAP_32:
 294:.\rtu_modbus/process_type_16_message.c ****                  swap_32( in);
 839              		.loc 2 294 0
 840 00de B868     		ldr	r0, [r7, #8]
 841 00e0 FFF7FEFF 		bl	swap_32
 295:.\rtu_modbus/process_type_16_message.c ****                  break;
 842              		.loc 2 295 0
 843 00e4 03E0     		b	.L39
 844              	.L47:
 296:.\rtu_modbus/process_type_16_message.c ****             default:
 297:.\rtu_modbus/process_type_16_message.c ****                 // should not happen
 298:.\rtu_modbus/process_type_16_message.c ****                 count = 0;
 845              		.loc 2 298 0
 846 00e6 0023     		movs	r3, #0
 847 00e8 FB61     		str	r3, [r7, #28]
 299:.\rtu_modbus/process_type_16_message.c ****                 return 0;
 848              		.loc 2 299 0
 849 00ea 0023     		movs	r3, #0
 850 00ec 25E0     		b	.L34
 851              	.L39:
 300:.\rtu_modbus/process_type_16_message.c ****              }
 301:.\rtu_modbus/process_type_16_message.c ****              in += swap_inc;
 852              		.loc 2 301 0 discriminator 2
 853 00ee BA68     		ldr	r2, [r7, #8]
 854 00f0 FB6A     		ldr	r3, [r7, #44]
ARM GAS  C:\Users\glenn\AppData\Local\Temp\ccknROVE.s 			page 22


 855 00f2 1344     		add	r3, r3, r2
 856 00f4 BB60     		str	r3, [r7, #8]
 286:.\rtu_modbus/process_type_16_message.c ****     {
 857              		.loc 2 286 0 discriminator 2
 858 00f6 3A6B     		ldr	r2, [r7, #48]
 859 00f8 FB6A     		ldr	r3, [r7, #44]
 860 00fa 1344     		add	r3, r3, r2
 861 00fc 3B63     		str	r3, [r7, #48]
 862              	.L35:
 286:.\rtu_modbus/process_type_16_message.c ****     {
 863              		.loc 2 286 0 is_stmt 0 discriminator 1
 864 00fe 3B6A     		ldr	r3, [r7, #32]
 865 0100 5A00     		lsls	r2, r3, #1
 866 0102 3B6B     		ldr	r3, [r7, #48]
 867 0104 9A42     		cmp	r2, r3
 868 0106 E0D8     		bhi	.L40
 302:.\rtu_modbus/process_type_16_message.c ****      }
 303:.\rtu_modbus/process_type_16_message.c ****          
 304:.\rtu_modbus/process_type_16_message.c ****      if( acc_struct != NULL )
 869              		.loc 2 304 0 is_stmt 1
 870 0108 7B69     		ldr	r3, [r7, #20]
 871 010a 002B     		cmp	r3, #0
 872 010c 0CD0     		beq	.L41
 305:.\rtu_modbus/process_type_16_message.c ****      {
 306:.\rtu_modbus/process_type_16_message.c ****         if( acc_struct->access( ref_pointer ) )
 873              		.loc 2 306 0
 874 010e 7B69     		ldr	r3, [r7, #20]
 875 0110 DB68     		ldr	r3, [r3, #12]
 876 0112 B869     		ldr	r0, [r7, #24]
 877 0114 9847     		blx	r3
 878 0116 0346     		mov	r3, r0
 879 0118 002B     		cmp	r3, #0
 880 011a 02D0     		beq	.L42
 307:.\rtu_modbus/process_type_16_message.c ****         {
 308:.\rtu_modbus/process_type_16_message.c ****             return_value = count;
 881              		.loc 2 308 0
 882 011c FB69     		ldr	r3, [r7, #28]
 883 011e 7B63     		str	r3, [r7, #52]
 884 0120 04E0     		b	.L44
 885              	.L42:
 309:.\rtu_modbus/process_type_16_message.c ****         }
 310:.\rtu_modbus/process_type_16_message.c ****         else
 311:.\rtu_modbus/process_type_16_message.c ****         {
 312:.\rtu_modbus/process_type_16_message.c ****            return_value = 0;
 886              		.loc 2 312 0
 887 0122 0023     		movs	r3, #0
 888 0124 7B63     		str	r3, [r7, #52]
 889 0126 01E0     		b	.L44
 890              	.L41:
 313:.\rtu_modbus/process_type_16_message.c ****         }
 314:.\rtu_modbus/process_type_16_message.c ****     }
 315:.\rtu_modbus/process_type_16_message.c ****     else
 316:.\rtu_modbus/process_type_16_message.c ****     {
 317:.\rtu_modbus/process_type_16_message.c ****         return_value = 0;
 891              		.loc 2 317 0
 892 0128 0023     		movs	r3, #0
 893 012a 7B63     		str	r3, [r7, #52]
ARM GAS  C:\Users\glenn\AppData\Local\Temp\ccknROVE.s 			page 23


 894              	.L44:
 318:.\rtu_modbus/process_type_16_message.c ****  #if 0
 319:.\rtu_modbus/process_type_16_message.c ****       if( store_modbus_data_registers( working_register, number_of_registers, (uint16 *) ref_pointe
 320:.\rtu_modbus/process_type_16_message.c ****       {
 321:.\rtu_modbus/process_type_16_message.c ****         return_value = count;
 322:.\rtu_modbus/process_type_16_message.c ****       }
 323:.\rtu_modbus/process_type_16_message.c ****       else
 324:.\rtu_modbus/process_type_16_message.c ****       {
 325:.\rtu_modbus/process_type_16_message.c ****         return_value = 0;
 326:.\rtu_modbus/process_type_16_message.c ****       }
 327:.\rtu_modbus/process_type_16_message.c **** #endif
 328:.\rtu_modbus/process_type_16_message.c ****     }
 329:.\rtu_modbus/process_type_16_message.c ****     if( return_value > 200 )
 895              		.loc 2 329 0
 896 012c 7B6B     		ldr	r3, [r7, #52]
 897 012e C82B     		cmp	r3, #200
 898 0130 02DD     		ble	.L45
 330:.\rtu_modbus/process_type_16_message.c ****     {
 331:.\rtu_modbus/process_type_16_message.c ****         CYASSERT(0);
 899              		.loc 2 331 0 discriminator 1
 900 0132 0020     		movs	r0, #0
 901 0134 FFF7FEFF 		bl	CyHalt
 902              	.L45:
 332:.\rtu_modbus/process_type_16_message.c ****     }
 333:.\rtu_modbus/process_type_16_message.c ****     return return_value;
 903              		.loc 2 333 0
 904 0138 7B6B     		ldr	r3, [r7, #52]
 905              	.L34:
 334:.\rtu_modbus/process_type_16_message.c ****    
 335:.\rtu_modbus/process_type_16_message.c **** }    
 906              		.loc 2 335 0
 907 013a 1846     		mov	r0, r3
 908 013c 3837     		adds	r7, r7, #56
 909              		.cfi_def_cfa_offset 8
 910 013e BD46     		mov	sp, r7
 911              		.cfi_def_cfa_register 13
 912              		@ sp needed
 913 0140 80BD     		pop	{r7, pc}
 914              		.cfi_endproc
 915              	.LFE76:
 916              		.size	process_type_16_message, .-process_type_16_message
 917 0142 00BF     		.section	.text.find_access_function,"ax",%progbits
 918              		.align	2
 919              		.thumb
 920              		.thumb_func
 921              		.type	find_access_function, %function
 922              	find_access_function:
 923              	.LFB77:
 336:.\rtu_modbus/process_type_16_message.c ****                                                     
 337:.\rtu_modbus/process_type_16_message.c **** const TYPE_16_STRUCT * find_access_function( unsigned start_register, unsigned number )
 338:.\rtu_modbus/process_type_16_message.c **** {
 924              		.loc 2 338 0
 925              		.cfi_startproc
 926              		@ args = 0, pretend = 0, frame = 16
 927              		@ frame_needed = 1, uses_anonymous_args = 0
 928              		@ link register save eliminated.
 929 0000 80B4     		push	{r7}
ARM GAS  C:\Users\glenn\AppData\Local\Temp\ccknROVE.s 			page 24


 930              		.cfi_def_cfa_offset 4
 931              		.cfi_offset 7, -4
 932 0002 85B0     		sub	sp, sp, #20
 933              		.cfi_def_cfa_offset 24
 934 0004 00AF     		add	r7, sp, #0
 935              		.cfi_def_cfa_register 7
 936 0006 7860     		str	r0, [r7, #4]
 937 0008 3960     		str	r1, [r7]
 339:.\rtu_modbus/process_type_16_message.c ****    unsigned i;
 340:.\rtu_modbus/process_type_16_message.c ****    const TYPE_16_STRUCT *access_ptr;
 341:.\rtu_modbus/process_type_16_message.c ****    
 342:.\rtu_modbus/process_type_16_message.c ****    access_ptr = &type_16_access_functions[0];
 938              		.loc 2 342 0
 939 000a 104B     		ldr	r3, .L53
 940 000c BB60     		str	r3, [r7, #8]
 343:.\rtu_modbus/process_type_16_message.c ****    for( i = 0; i < TABLE_LENGTH; i++ )
 941              		.loc 2 343 0
 942 000e 0023     		movs	r3, #0
 943 0010 FB60     		str	r3, [r7, #12]
 944 0012 11E0     		b	.L49
 945              	.L52:
 344:.\rtu_modbus/process_type_16_message.c ****    {
 345:.\rtu_modbus/process_type_16_message.c ****        if( (  access_ptr->start_register == start_register ) && (access_ptr->register_count == numb
 946              		.loc 2 345 0
 947 0014 BB68     		ldr	r3, [r7, #8]
 948 0016 1A68     		ldr	r2, [r3]
 949 0018 7B68     		ldr	r3, [r7, #4]
 950 001a 9A42     		cmp	r2, r3
 951 001c 06D1     		bne	.L50
 952              		.loc 2 345 0 is_stmt 0 discriminator 1
 953 001e BB68     		ldr	r3, [r7, #8]
 954 0020 5A68     		ldr	r2, [r3, #4]
 955 0022 3B68     		ldr	r3, [r7]
 956 0024 9A42     		cmp	r2, r3
 957 0026 01D1     		bne	.L50
 346:.\rtu_modbus/process_type_16_message.c ****        {
 347:.\rtu_modbus/process_type_16_message.c ****           return access_ptr;
 958              		.loc 2 347 0 is_stmt 1
 959 0028 BB68     		ldr	r3, [r7, #8]
 960 002a 09E0     		b	.L51
 961              	.L50:
 348:.\rtu_modbus/process_type_16_message.c ****        }
 349:.\rtu_modbus/process_type_16_message.c ****        else
 350:.\rtu_modbus/process_type_16_message.c ****        {
 351:.\rtu_modbus/process_type_16_message.c ****           access_ptr++;
 962              		.loc 2 351 0 discriminator 2
 963 002c BB68     		ldr	r3, [r7, #8]
 964 002e 1033     		adds	r3, r3, #16
 965 0030 BB60     		str	r3, [r7, #8]
 343:.\rtu_modbus/process_type_16_message.c ****    {
 966              		.loc 2 343 0 discriminator 2
 967 0032 FB68     		ldr	r3, [r7, #12]
 968 0034 0133     		adds	r3, r3, #1
 969 0036 FB60     		str	r3, [r7, #12]
 970              	.L49:
 343:.\rtu_modbus/process_type_16_message.c ****    {
 971              		.loc 2 343 0 is_stmt 0 discriminator 1
ARM GAS  C:\Users\glenn\AppData\Local\Temp\ccknROVE.s 			page 25


 972 0038 FB68     		ldr	r3, [r7, #12]
 973 003a 002B     		cmp	r3, #0
 974 003c EAD0     		beq	.L52
 352:.\rtu_modbus/process_type_16_message.c ****        }
 353:.\rtu_modbus/process_type_16_message.c ****     }
 354:.\rtu_modbus/process_type_16_message.c ****     return NULL;
 975              		.loc 2 354 0 is_stmt 1
 976 003e 0023     		movs	r3, #0
 977              	.L51:
 355:.\rtu_modbus/process_type_16_message.c ****     
 356:.\rtu_modbus/process_type_16_message.c ****     
 357:.\rtu_modbus/process_type_16_message.c **** } ...
 978              		.loc 2 357 0
 979 0040 1846     		mov	r0, r3
 980 0042 1437     		adds	r7, r7, #20
 981              		.cfi_def_cfa_offset 4
 982 0044 BD46     		mov	sp, r7
 983              		.cfi_def_cfa_register 13
 984              		@ sp needed
 985 0046 5DF8047B 		ldr	r7, [sp], #4
 986              		.cfi_restore 7
 987              		.cfi_def_cfa_offset 0
 988 004a 7047     		bx	lr
 989              	.L54:
 990              		.align	2
 991              	.L53:
 992 004c 00000000 		.word	type_16_access_functions
 993              		.cfi_endproc
 994              	.LFE77:
 995              		.size	find_access_function, .-find_access_function
 996              		.text
 997              	.Letext0:
 998              		.file 3 "c:\\program files (x86)\\cypress\\psoc creator\\3.3\\psoc creator\\import\\gnu\\arm\\4.9.
 999              		.file 4 "c:\\program files (x86)\\cypress\\psoc creator\\3.3\\psoc creator\\import\\gnu\\arm\\4.9.
 1000              		.file 5 "Generated_Source\\PSoC5/cytypes.h"
 1001              		.file 6 "Generated_Source\\PSoC5/core_cm3.h"
 1002              		.file 7 ".\\rtu_modbus\\process_modbus_message.h"