ARM GAS  C:\Users\glenn\AppData\Local\Temp\cc1AMuMA.s 			page 1


   1              		.syntax unified
   2              		.cpu cortex-m3
   3              		.fpu softvfp
   4              		.eabi_attribute 20, 1
   5              		.eabi_attribute 21, 1
   6              		.eabi_attribute 23, 3
   7              		.eabi_attribute 24, 1
   8              		.eabi_attribute 25, 1
   9              		.eabi_attribute 26, 1
  10              		.eabi_attribute 30, 6
  11              		.eabi_attribute 34, 1
  12              		.eabi_attribute 18, 4
  13              		.thumb
  14              		.file	"a_to_d_functions.c"
  15              		.text
  16              	.Ltext0:
  17              		.cfi_sections	.debug_frame
  18              		.section	.rodata
  19              		.align	2
  20              		.type	se_reg_mapping, %object
  21              		.size	se_reg_mapping, 4
  22              	se_reg_mapping:
  23 0000 28000000 		.word	40
  24              		.align	2
  25              		.type	se_calibration_mapping, %object
  26              		.size	se_calibration_mapping, 4
  27              	se_calibration_mapping:
  28 0004 64000000 		.word	100
  29              		.bss
  30              		.align	2
  31              	se_dc_sec:
  32 0000 00000000 		.space	12
  32      00000000 
  32      00000000 
  33              		.align	2
  34              	se_ac_sec:
  35 000c 00000000 		.space	12
  35      00000000 
  35      00000000 
  36              		.align	2
  37              	se_dc_min:
  38 0018 00000000 		.space	12
  38      00000000 
  38      00000000 
  39              		.align	2
  40              	se_ac_min:
  41 0024 00000000 		.space	12
  41      00000000 
  41      00000000 
  42              		.section	.text.process_ad_interrupt,"ax",%progbits
  43              		.align	2
  44              		.global	process_ad_interrupt
  45              		.thumb
  46              		.thumb_func
  47              		.type	process_ad_interrupt, %function
  48              	process_ad_interrupt:
  49              	.LFB65:
ARM GAS  C:\Users\glenn\AppData\Local\Temp\cc1AMuMA.s 			page 2


  50              		.file 1 ".\\a_to_d_functions\\a_to_d_functions.c"
   1:.\a_to_d_functions/a_to_d_functions.c **** /*
   2:.\a_to_d_functions/a_to_d_functions.c **** **
   3:.\a_to_d_functions/a_to_d_functions.c **** ** File: a_to_d_functions.c
   4:.\a_to_d_functions/a_to_d_functions.c **** ** Implements high speed a_to_d_functions
   5:.\a_to_d_functions/a_to_d_functions.c **** ** High speed is needed as we are measuring 60 hz a/c signals
   6:.\a_to_d_functions/a_to_d_functions.c **** **
   7:.\a_to_d_functions/a_to_d_functions.c **** **
   8:.\a_to_d_functions/a_to_d_functions.c **** */
   9:.\a_to_d_functions/a_to_d_functions.c **** 
  10:.\a_to_d_functions/a_to_d_functions.c **** #include <stdlib.h>
  11:.\a_to_d_functions/a_to_d_functions.c **** #include <device.h>
  12:.\a_to_d_functions/a_to_d_functions.c **** #include "a_to_d_functions.h"
  13:.\a_to_d_functions/a_to_d_functions.c **** #include "moving_average.h"
  14:.\a_to_d_functions/a_to_d_functions.c **** #include "cf_status_bit.h"
  15:.\a_to_d_functions/a_to_d_functions.c **** #include "process_modbus_message.h"
  16:.\a_to_d_functions/a_to_d_functions.c **** #include "cf_external_functions.h"
  17:.\a_to_d_functions/a_to_d_functions.c **** 
  18:.\a_to_d_functions/a_to_d_functions.c **** #define ALPHA_VALUE_SEC .01
  19:.\a_to_d_functions/a_to_d_functions.c **** #define ALPHA_VALUE_MIN .2
  20:.\a_to_d_functions/a_to_d_functions.c **** 
  21:.\a_to_d_functions/a_to_d_functions.c **** #define   SIGMA_SETTLING_TIME   10
  22:.\a_to_d_functions/a_to_d_functions.c **** #define   SIGMA_WAIT_FOR_INIT_STATE  0
  23:.\a_to_d_functions/a_to_d_functions.c **** #define   SIGMA_SETTLING_STATE       1
  24:.\a_to_d_functions/a_to_d_functions.c **** #define   SIGMA_MEASUREMENT_STATE    2
  25:.\a_to_d_functions/a_to_d_functions.c **** 
  26:.\a_to_d_functions/a_to_d_functions.c **** 
  27:.\a_to_d_functions/a_to_d_functions.c **** 
  28:.\a_to_d_functions/a_to_d_functions.c **** 
  29:.\a_to_d_functions/a_to_d_functions.c **** 
  30:.\a_to_d_functions/a_to_d_functions.c **** static const int se_reg_mapping[1]       = { MOISTURE_TEMP_DC_MIN_FLOAT };
  31:.\a_to_d_functions/a_to_d_functions.c **** 
  32:.\a_to_d_functions/a_to_d_functions.c **** 
  33:.\a_to_d_functions/a_to_d_functions.c **** static const int se_calibration_mapping[] = { MOISTURE_TEMP_CALIBRATION_A };
  34:.\a_to_d_functions/a_to_d_functions.c **** 
  35:.\a_to_d_functions/a_to_d_functions.c **** 
  36:.\a_to_d_functions/a_to_d_functions.c **** static MOVING_AVERAGE_STRUCT se_dc_sec[ SE_NUMBER];
  37:.\a_to_d_functions/a_to_d_functions.c **** static MOVING_AVERAGE_STRUCT se_ac_sec[ SE_NUMBER];
  38:.\a_to_d_functions/a_to_d_functions.c **** static MOVING_AVERAGE_STRUCT se_dc_min[ SE_NUMBER];
  39:.\a_to_d_functions/a_to_d_functions.c **** static MOVING_AVERAGE_STRUCT se_ac_min[ SE_NUMBER ];
  40:.\a_to_d_functions/a_to_d_functions.c **** 
  41:.\a_to_d_functions/a_to_d_functions.c **** 
  42:.\a_to_d_functions/a_to_d_functions.c **** 
  43:.\a_to_d_functions/a_to_d_functions.c **** CY_ISR_PROTO(process_ad_interrupt)
  44:.\a_to_d_functions/a_to_d_functions.c **** {
  51              		.loc 1 44 0
  52              		.cfi_startproc
  53              		@ args = 0, pretend = 0, frame = 0
  54              		@ frame_needed = 1, uses_anonymous_args = 0
  55 0000 80B5     		push	{r7, lr}
  56              		.cfi_def_cfa_offset 8
  57              		.cfi_offset 7, -8
  58              		.cfi_offset 14, -4
  59 0002 00AF     		add	r7, sp, #0
  60              		.cfi_def_cfa_register 7
  45:.\a_to_d_functions/a_to_d_functions.c ****     ad_interrupt_1_ClearPending();
  61              		.loc 1 45 0
ARM GAS  C:\Users\glenn\AppData\Local\Temp\cc1AMuMA.s 			page 3


  62 0004 FFF7FEFF 		bl	ad_interrupt_1_ClearPending
  46:.\a_to_d_functions/a_to_d_functions.c ****     cf_set_interrupt_status_bit(  CF_PROCESS_AD_RESULTS );
  63              		.loc 1 46 0
  64 0008 0120     		movs	r0, #1
  65 000a FFF7FEFF 		bl	cf_set_interrupt_status_bit
  47:.\a_to_d_functions/a_to_d_functions.c **** }
  66              		.loc 1 47 0
  67 000e 80BD     		pop	{r7, pc}
  68              		.cfi_endproc
  69              	.LFE65:
  70              		.size	process_ad_interrupt, .-process_ad_interrupt
  71              		.section	.text.ad_setup_interrupt,"ax",%progbits
  72              		.align	2
  73              		.global	ad_setup_interrupt
  74              		.thumb
  75              		.thumb_func
  76              		.type	ad_setup_interrupt, %function
  77              	ad_setup_interrupt:
  78              	.LFB66:
  48:.\a_to_d_functions/a_to_d_functions.c **** 
  49:.\a_to_d_functions/a_to_d_functions.c **** /*
  50:.\a_to_d_functions/a_to_d_functions.c **** **
  51:.\a_to_d_functions/a_to_d_functions.c **** **  SAR Functions
  52:.\a_to_d_functions/a_to_d_functions.c **** **
  53:.\a_to_d_functions/a_to_d_functions.c **** */
  54:.\a_to_d_functions/a_to_d_functions.c **** 
  55:.\a_to_d_functions/a_to_d_functions.c **** void ad_setup_interrupt( void )
  56:.\a_to_d_functions/a_to_d_functions.c **** {
  79              		.loc 1 56 0
  80              		.cfi_startproc
  81              		@ args = 0, pretend = 0, frame = 0
  82              		@ frame_needed = 1, uses_anonymous_args = 0
  83 0000 80B5     		push	{r7, lr}
  84              		.cfi_def_cfa_offset 8
  85              		.cfi_offset 7, -8
  86              		.cfi_offset 14, -4
  87 0002 00AF     		add	r7, sp, #0
  88              		.cfi_def_cfa_register 7
  57:.\a_to_d_functions/a_to_d_functions.c ****     AD_CLOCK_Start();
  89              		.loc 1 57 0
  90 0004 FFF7FEFF 		bl	AD_CLOCK_Start
  58:.\a_to_d_functions/a_to_d_functions.c ****     ad_interrupt_1_StartEx( process_ad_interrupt );
  91              		.loc 1 58 0
  92 0008 0148     		ldr	r0, .L3
  93 000a FFF7FEFF 		bl	ad_interrupt_1_StartEx
  59:.\a_to_d_functions/a_to_d_functions.c **** }
  94              		.loc 1 59 0
  95 000e 80BD     		pop	{r7, pc}
  96              	.L4:
  97              		.align	2
  98              	.L3:
  99 0010 00000000 		.word	process_ad_interrupt
 100              		.cfi_endproc
 101              	.LFE66:
 102              		.size	ad_setup_interrupt, .-ad_setup_interrupt
 103              		.section	.text.ad_init_se,"ax",%progbits
 104              		.align	2
ARM GAS  C:\Users\glenn\AppData\Local\Temp\cc1AMuMA.s 			page 4


 105              		.global	ad_init_se
 106              		.thumb
 107              		.thumb_func
 108              		.type	ad_init_se, %function
 109              	ad_init_se:
 110              	.LFB67:
  60:.\a_to_d_functions/a_to_d_functions.c **** 
  61:.\a_to_d_functions/a_to_d_functions.c **** 
  62:.\a_to_d_functions/a_to_d_functions.c **** void ad_init_se( void )  // init single ended a/d signals
  63:.\a_to_d_functions/a_to_d_functions.c **** {
 111              		.loc 1 63 0
 112              		.cfi_startproc
 113              		@ args = 0, pretend = 0, frame = 8
 114              		@ frame_needed = 1, uses_anonymous_args = 0
 115 0000 80B5     		push	{r7, lr}
 116              		.cfi_def_cfa_offset 8
 117              		.cfi_offset 7, -8
 118              		.cfi_offset 14, -4
 119 0002 82B0     		sub	sp, sp, #8
 120              		.cfi_def_cfa_offset 16
 121 0004 00AF     		add	r7, sp, #0
 122              		.cfi_def_cfa_register 7
  64:.\a_to_d_functions/a_to_d_functions.c ****     int i;
  65:.\a_to_d_functions/a_to_d_functions.c ****     for( i = 0; i< SE_NUMBER; i++ )
 123              		.loc 1 65 0
 124 0006 0023     		movs	r3, #0
 125 0008 7B60     		str	r3, [r7, #4]
 126 000a 36E0     		b	.L6
 127              	.L7:
  66:.\a_to_d_functions/a_to_d_functions.c ****     {
  67:.\a_to_d_functions/a_to_d_functions.c ****         ma_initialize( &se_dc_sec[i], ALPHA_VALUE_SEC,0);
 128              		.loc 1 67 0 discriminator 3
 129 000c 7A68     		ldr	r2, [r7, #4]
 130 000e 1346     		mov	r3, r2
 131 0010 5B00     		lsls	r3, r3, #1
 132 0012 1344     		add	r3, r3, r2
 133 0014 9B00     		lsls	r3, r3, #2
 134 0016 1E4A     		ldr	r2, .L8
 135 0018 1344     		add	r3, r3, r2
 136 001a 1846     		mov	r0, r3
 137 001c 1D49     		ldr	r1, .L8+4
 138 001e 4FF00002 		mov	r2, #0
 139 0022 FFF7FEFF 		bl	ma_initialize
  68:.\a_to_d_functions/a_to_d_functions.c ****         ma_initialize( &se_ac_sec[i], ALPHA_VALUE_SEC,0);
 140              		.loc 1 68 0 discriminator 3
 141 0026 7A68     		ldr	r2, [r7, #4]
 142 0028 1346     		mov	r3, r2
 143 002a 5B00     		lsls	r3, r3, #1
 144 002c 1344     		add	r3, r3, r2
 145 002e 9B00     		lsls	r3, r3, #2
 146 0030 194A     		ldr	r2, .L8+8
 147 0032 1344     		add	r3, r3, r2
 148 0034 1846     		mov	r0, r3
 149 0036 1749     		ldr	r1, .L8+4
 150 0038 4FF00002 		mov	r2, #0
 151 003c FFF7FEFF 		bl	ma_initialize
  69:.\a_to_d_functions/a_to_d_functions.c ****         ma_initialize( &se_dc_min[i], ALPHA_VALUE_MIN,0);
ARM GAS  C:\Users\glenn\AppData\Local\Temp\cc1AMuMA.s 			page 5


 152              		.loc 1 69 0 discriminator 3
 153 0040 7A68     		ldr	r2, [r7, #4]
 154 0042 1346     		mov	r3, r2
 155 0044 5B00     		lsls	r3, r3, #1
 156 0046 1344     		add	r3, r3, r2
 157 0048 9B00     		lsls	r3, r3, #2
 158 004a 144A     		ldr	r2, .L8+12
 159 004c 1344     		add	r3, r3, r2
 160 004e 1846     		mov	r0, r3
 161 0050 1349     		ldr	r1, .L8+16
 162 0052 4FF00002 		mov	r2, #0
 163 0056 FFF7FEFF 		bl	ma_initialize
  70:.\a_to_d_functions/a_to_d_functions.c ****         ma_initialize( &se_ac_min[i],ALPHA_VALUE_MIN,0);
 164              		.loc 1 70 0 discriminator 3
 165 005a 7A68     		ldr	r2, [r7, #4]
 166 005c 1346     		mov	r3, r2
 167 005e 5B00     		lsls	r3, r3, #1
 168 0060 1344     		add	r3, r3, r2
 169 0062 9B00     		lsls	r3, r3, #2
 170 0064 0F4A     		ldr	r2, .L8+20
 171 0066 1344     		add	r3, r3, r2
 172 0068 1846     		mov	r0, r3
 173 006a 0D49     		ldr	r1, .L8+16
 174 006c 4FF00002 		mov	r2, #0
 175 0070 FFF7FEFF 		bl	ma_initialize
  65:.\a_to_d_functions/a_to_d_functions.c ****     {
 176              		.loc 1 65 0 discriminator 3
 177 0074 7B68     		ldr	r3, [r7, #4]
 178 0076 0133     		adds	r3, r3, #1
 179 0078 7B60     		str	r3, [r7, #4]
 180              	.L6:
  65:.\a_to_d_functions/a_to_d_functions.c ****     {
 181              		.loc 1 65 0 is_stmt 0 discriminator 1
 182 007a 7B68     		ldr	r3, [r7, #4]
 183 007c 002B     		cmp	r3, #0
 184 007e C5DD     		ble	.L7
  71:.\a_to_d_functions/a_to_d_functions.c **** 
  72:.\a_to_d_functions/a_to_d_functions.c ****     }
  73:.\a_to_d_functions/a_to_d_functions.c ****     
  74:.\a_to_d_functions/a_to_d_functions.c ****     ADC_SAR_Seq_1_Start();
 185              		.loc 1 74 0 is_stmt 1
 186 0080 FFF7FEFF 		bl	ADC_SAR_Seq_1_Start
  75:.\a_to_d_functions/a_to_d_functions.c ****     ADC_SAR_Seq_1_StartConvert();
 187              		.loc 1 75 0
 188 0084 FFF7FEFF 		bl	ADC_SAR_Seq_1_StartConvert
  76:.\a_to_d_functions/a_to_d_functions.c **** }
 189              		.loc 1 76 0
 190 0088 0837     		adds	r7, r7, #8
 191              		.cfi_def_cfa_offset 8
 192 008a BD46     		mov	sp, r7
 193              		.cfi_def_cfa_register 13
 194              		@ sp needed
 195 008c 80BD     		pop	{r7, pc}
 196              	.L9:
 197 008e 00BF     		.align	2
 198              	.L8:
 199 0090 00000000 		.word	se_dc_sec
ARM GAS  C:\Users\glenn\AppData\Local\Temp\cc1AMuMA.s 			page 6


 200 0094 0AD7233C 		.word	1008981770
 201 0098 0C000000 		.word	se_ac_sec
 202 009c 18000000 		.word	se_dc_min
 203 00a0 CDCC4C3E 		.word	1045220557
 204 00a4 24000000 		.word	se_ac_min
 205              		.cfi_endproc
 206              	.LFE67:
 207              		.size	ad_init_se, .-ad_init_se
 208              		.global	__aeabi_i2f
 209              		.global	__aeabi_f2iz
 210              		.section	.text.ad_process_se,"ax",%progbits
 211              		.align	2
 212              		.global	ad_process_se
 213              		.thumb
 214              		.thumb_func
 215              		.type	ad_process_se, %function
 216              	ad_process_se:
 217              	.LFB68:
  77:.\a_to_d_functions/a_to_d_functions.c **** 
  78:.\a_to_d_functions/a_to_d_functions.c **** void ad_process_se( void )  // process single ended 
  79:.\a_to_d_functions/a_to_d_functions.c **** {
 218              		.loc 1 79 0
 219              		.cfi_startproc
 220              		@ args = 0, pretend = 0, frame = 24
 221              		@ frame_needed = 1, uses_anonymous_args = 0
 222 0000 90B5     		push	{r4, r7, lr}
 223              		.cfi_def_cfa_offset 12
 224              		.cfi_offset 4, -12
 225              		.cfi_offset 7, -8
 226              		.cfi_offset 14, -4
 227 0002 87B0     		sub	sp, sp, #28
 228              		.cfi_def_cfa_offset 40
 229 0004 00AF     		add	r7, sp, #0
 230              		.cfi_def_cfa_register 7
  80:.\a_to_d_functions/a_to_d_functions.c ****     int   i;
  81:.\a_to_d_functions/a_to_d_functions.c ****     int32 temp;
  82:.\a_to_d_functions/a_to_d_functions.c ****     int32 dc_value;
  83:.\a_to_d_functions/a_to_d_functions.c ****     int32 ac_value;
  84:.\a_to_d_functions/a_to_d_functions.c ****     int32 mvolts;
  85:.\a_to_d_functions/a_to_d_functions.c ****     
  86:.\a_to_d_functions/a_to_d_functions.c ****     
  87:.\a_to_d_functions/a_to_d_functions.c ****     for( i = 0; i < SE_NUMBER; i++)
 231              		.loc 1 87 0
 232 0006 0023     		movs	r3, #0
 233 0008 7B61     		str	r3, [r7, #20]
 234 000a 3DE0     		b	.L11
 235              	.L12:
  88:.\a_to_d_functions/a_to_d_functions.c ****     {
  89:.\a_to_d_functions/a_to_d_functions.c ****          temp =  ADC_SAR_Seq_1_GetResult16(i);
 236              		.loc 1 89 0 discriminator 3
 237 000c 7B69     		ldr	r3, [r7, #20]
 238 000e 9BB2     		uxth	r3, r3
 239 0010 1846     		mov	r0, r3
 240 0012 FFF7FEFF 		bl	ADC_SAR_Seq_1_GetResult16
 241 0016 0346     		mov	r3, r0
 242 0018 3B61     		str	r3, [r7, #16]
  90:.\a_to_d_functions/a_to_d_functions.c ****          mvolts = ADC_SAR_Seq_1_CountsTo_mVolts(temp);
ARM GAS  C:\Users\glenn\AppData\Local\Temp\cc1AMuMA.s 			page 7


 243              		.loc 1 90 0 discriminator 3
 244 001a 3B69     		ldr	r3, [r7, #16]
 245 001c 9BB2     		uxth	r3, r3
 246 001e 1BB2     		sxth	r3, r3
 247 0020 1846     		mov	r0, r3
 248 0022 FFF7FEFF 		bl	ADC_SAR_Seq_1_CountsTo_mVolts
 249 0026 F860     		str	r0, [r7, #12]
  91:.\a_to_d_functions/a_to_d_functions.c ****          dc_value = ma_update( &se_dc_sec[i], mvolts);
 250              		.loc 1 91 0 discriminator 3
 251 0028 7A69     		ldr	r2, [r7, #20]
 252 002a 1346     		mov	r3, r2
 253 002c 5B00     		lsls	r3, r3, #1
 254 002e 1344     		add	r3, r3, r2
 255 0030 9B00     		lsls	r3, r3, #2
 256 0032 184A     		ldr	r2, .L13
 257 0034 9C18     		adds	r4, r3, r2
 258 0036 F868     		ldr	r0, [r7, #12]
 259 0038 FFF7FEFF 		bl	__aeabi_i2f
 260 003c 0346     		mov	r3, r0
 261 003e 2046     		mov	r0, r4
 262 0040 1946     		mov	r1, r3
 263 0042 FFF7FEFF 		bl	ma_update
 264 0046 0346     		mov	r3, r0
 265 0048 1846     		mov	r0, r3
 266 004a FFF7FEFF 		bl	__aeabi_f2iz
 267 004e 0346     		mov	r3, r0
 268 0050 BB60     		str	r3, [r7, #8]
  92:.\a_to_d_functions/a_to_d_functions.c ****          ac_value = (int16) abs( (int)(dc_value -mvolts ) );
 269              		.loc 1 92 0 discriminator 3
 270 0052 BA68     		ldr	r2, [r7, #8]
 271 0054 FB68     		ldr	r3, [r7, #12]
 272 0056 D31A     		subs	r3, r2, r3
 273 0058 002B     		cmp	r3, #0
 274 005a B8BF     		it	lt
 275 005c 5B42     		rsblt	r3, r3, #0
 276 005e 9BB2     		uxth	r3, r3
 277 0060 1BB2     		sxth	r3, r3
 278 0062 7B60     		str	r3, [r7, #4]
  93:.\a_to_d_functions/a_to_d_functions.c ****          ma_update(&se_ac_sec[i],ac_value);
 279              		.loc 1 93 0 discriminator 3
 280 0064 7A69     		ldr	r2, [r7, #20]
 281 0066 1346     		mov	r3, r2
 282 0068 5B00     		lsls	r3, r3, #1
 283 006a 1344     		add	r3, r3, r2
 284 006c 9B00     		lsls	r3, r3, #2
 285 006e 0A4A     		ldr	r2, .L13+4
 286 0070 9C18     		adds	r4, r3, r2
 287 0072 7868     		ldr	r0, [r7, #4]
 288 0074 FFF7FEFF 		bl	__aeabi_i2f
 289 0078 0346     		mov	r3, r0
 290 007a 2046     		mov	r0, r4
 291 007c 1946     		mov	r1, r3
 292 007e FFF7FEFF 		bl	ma_update
  87:.\a_to_d_functions/a_to_d_functions.c ****     {
 293              		.loc 1 87 0 discriminator 3
 294 0082 7B69     		ldr	r3, [r7, #20]
 295 0084 0133     		adds	r3, r3, #1
ARM GAS  C:\Users\glenn\AppData\Local\Temp\cc1AMuMA.s 			page 8


 296 0086 7B61     		str	r3, [r7, #20]
 297              	.L11:
  87:.\a_to_d_functions/a_to_d_functions.c ****     {
 298              		.loc 1 87 0 is_stmt 0 discriminator 1
 299 0088 7B69     		ldr	r3, [r7, #20]
 300 008a 002B     		cmp	r3, #0
 301 008c BEDD     		ble	.L12
  94:.\a_to_d_functions/a_to_d_functions.c ****  
  95:.\a_to_d_functions/a_to_d_functions.c ****     }
  96:.\a_to_d_functions/a_to_d_functions.c **** }
 302              		.loc 1 96 0 is_stmt 1
 303 008e 1C37     		adds	r7, r7, #28
 304              		.cfi_def_cfa_offset 12
 305 0090 BD46     		mov	sp, r7
 306              		.cfi_def_cfa_register 13
 307              		@ sp needed
 308 0092 90BD     		pop	{r4, r7, pc}
 309              	.L14:
 310              		.align	2
 311              	.L13:
 312 0094 00000000 		.word	se_dc_sec
 313 0098 0C000000 		.word	se_ac_sec
 314              		.cfi_endproc
 315              	.LFE68:
 316              		.size	ad_process_se, .-ad_process_se
 317              		.global	__aeabi_fmul
 318              		.global	__aeabi_fadd
 319              		.section	.text.ad_process_se_second,"ax",%progbits
 320              		.align	2
 321              		.global	ad_process_se_second
 322              		.thumb
 323              		.thumb_func
 324              		.type	ad_process_se_second, %function
 325              	ad_process_se_second:
 326              	.LFB69:
  97:.\a_to_d_functions/a_to_d_functions.c **** 
  98:.\a_to_d_functions/a_to_d_functions.c **** void ad_process_se_second( void )
  99:.\a_to_d_functions/a_to_d_functions.c **** {
 327              		.loc 1 99 0
 328              		.cfi_startproc
 329              		@ args = 0, pretend = 0, frame = 16
 330              		@ frame_needed = 1, uses_anonymous_args = 0
 331 0000 80B5     		push	{r7, lr}
 332              		.cfi_def_cfa_offset 8
 333              		.cfi_offset 7, -8
 334              		.cfi_offset 14, -4
 335 0002 84B0     		sub	sp, sp, #16
 336              		.cfi_def_cfa_offset 24
 337 0004 00AF     		add	r7, sp, #0
 338              		.cfi_def_cfa_register 7
 100:.\a_to_d_functions/a_to_d_functions.c ****     int i;
 101:.\a_to_d_functions/a_to_d_functions.c ****     float value;
 102:.\a_to_d_functions/a_to_d_functions.c ****     float calibration_a;
 103:.\a_to_d_functions/a_to_d_functions.c ****     float calibration_b;
 104:.\a_to_d_functions/a_to_d_functions.c ****     
 105:.\a_to_d_functions/a_to_d_functions.c ****     for( i = 0; i< SE_NUMBER; i++ )
 339              		.loc 1 105 0
ARM GAS  C:\Users\glenn\AppData\Local\Temp\cc1AMuMA.s 			page 9


 340 0006 0023     		movs	r3, #0
 341 0008 FB60     		str	r3, [r7, #12]
 342 000a 6EE0     		b	.L16
 343              	.L17:
 106:.\a_to_d_functions/a_to_d_functions.c ****     {
 107:.\a_to_d_functions/a_to_d_functions.c ****         get_modbus_data_registers( se_calibration_mapping[i], 2, (uint16 *)&calibration_a );
 344              		.loc 1 107 0 discriminator 3
 345 000c 6423     		movs	r3, #100
 346 000e 1A46     		mov	r2, r3
 347 0010 3B1D     		adds	r3, r7, #4
 348 0012 1046     		mov	r0, r2
 349 0014 0221     		movs	r1, #2
 350 0016 1A46     		mov	r2, r3
 351 0018 FFF7FEFF 		bl	get_modbus_data_registers
 108:.\a_to_d_functions/a_to_d_functions.c ****         get_modbus_data_registers( se_calibration_mapping[i]+2, 2, (uint16 *)&calibration_b );
 352              		.loc 1 108 0 discriminator 3
 353 001c 6423     		movs	r3, #100
 354 001e 0233     		adds	r3, r3, #2
 355 0020 1A46     		mov	r2, r3
 356 0022 3B46     		mov	r3, r7
 357 0024 1046     		mov	r0, r2
 358 0026 0221     		movs	r1, #2
 359 0028 1A46     		mov	r2, r3
 360 002a FFF7FEFF 		bl	get_modbus_data_registers
 109:.\a_to_d_functions/a_to_d_functions.c ****         value = ma_get_value( &se_dc_sec[i]);
 361              		.loc 1 109 0 discriminator 3
 362 002e FA68     		ldr	r2, [r7, #12]
 363 0030 1346     		mov	r3, r2
 364 0032 5B00     		lsls	r3, r3, #1
 365 0034 1344     		add	r3, r3, r2
 366 0036 9B00     		lsls	r3, r3, #2
 367 0038 2F4A     		ldr	r2, .L18
 368 003a 1344     		add	r3, r3, r2
 369 003c 1846     		mov	r0, r3
 370 003e FFF7FEFF 		bl	ma_get_value
 371 0042 0346     		mov	r3, r0
 372 0044 BB60     		str	r3, [r7, #8]	@ float
 110:.\a_to_d_functions/a_to_d_functions.c ****         ma_update(   &se_dc_min[i], value );
 373              		.loc 1 110 0 discriminator 3
 374 0046 FA68     		ldr	r2, [r7, #12]
 375 0048 1346     		mov	r3, r2
 376 004a 5B00     		lsls	r3, r3, #1
 377 004c 1344     		add	r3, r3, r2
 378 004e 9B00     		lsls	r3, r3, #2
 379 0050 2A4A     		ldr	r2, .L18+4
 380 0052 1A44     		add	r2, r2, r3
 381 0054 BB68     		ldr	r3, [r7, #8]	@ float
 382 0056 1046     		mov	r0, r2
 383 0058 1946     		mov	r1, r3
 384 005a FFF7FEFF 		bl	ma_update
 111:.\a_to_d_functions/a_to_d_functions.c ****         value = (value*calibration_a) + calibration_b;
 385              		.loc 1 111 0 discriminator 3
 386 005e BA68     		ldr	r2, [r7, #8]	@ float
 387 0060 7B68     		ldr	r3, [r7, #4]	@ float
 388 0062 1046     		mov	r0, r2
 389 0064 1946     		mov	r1, r3
 390 0066 FFF7FEFF 		bl	__aeabi_fmul
ARM GAS  C:\Users\glenn\AppData\Local\Temp\cc1AMuMA.s 			page 10


 391 006a 0346     		mov	r3, r0
 392 006c 1A46     		mov	r2, r3
 393 006e 3B68     		ldr	r3, [r7]	@ float
 394 0070 1046     		mov	r0, r2
 395 0072 1946     		mov	r1, r3
 396 0074 FFF7FEFF 		bl	__aeabi_fadd
 397 0078 0346     		mov	r3, r0
 398 007a BB60     		str	r3, [r7, #8]	@ float
 112:.\a_to_d_functions/a_to_d_functions.c ****         store_modbus_data_registers( se_reg_mapping[i]+4, 2,(uint16*) &value);
 399              		.loc 1 112 0 discriminator 3
 400 007c 2823     		movs	r3, #40
 401 007e 0433     		adds	r3, r3, #4
 402 0080 1A46     		mov	r2, r3
 403 0082 07F10803 		add	r3, r7, #8
 404 0086 1046     		mov	r0, r2
 405 0088 0221     		movs	r1, #2
 406 008a 1A46     		mov	r2, r3
 407 008c FFF7FEFF 		bl	store_modbus_data_registers
 113:.\a_to_d_functions/a_to_d_functions.c ****         value = ma_get_value( &se_ac_sec[i]);
 408              		.loc 1 113 0 discriminator 3
 409 0090 FA68     		ldr	r2, [r7, #12]
 410 0092 1346     		mov	r3, r2
 411 0094 5B00     		lsls	r3, r3, #1
 412 0096 1344     		add	r3, r3, r2
 413 0098 9B00     		lsls	r3, r3, #2
 414 009a 194A     		ldr	r2, .L18+8
 415 009c 1344     		add	r3, r3, r2
 416 009e 1846     		mov	r0, r3
 417 00a0 FFF7FEFF 		bl	ma_get_value
 418 00a4 0346     		mov	r3, r0
 419 00a6 BB60     		str	r3, [r7, #8]	@ float
 114:.\a_to_d_functions/a_to_d_functions.c ****         ma_update(   &se_ac_min[i], value );
 420              		.loc 1 114 0 discriminator 3
 421 00a8 FA68     		ldr	r2, [r7, #12]
 422 00aa 1346     		mov	r3, r2
 423 00ac 5B00     		lsls	r3, r3, #1
 424 00ae 1344     		add	r3, r3, r2
 425 00b0 9B00     		lsls	r3, r3, #2
 426 00b2 144A     		ldr	r2, .L18+12
 427 00b4 1A44     		add	r2, r2, r3
 428 00b6 BB68     		ldr	r3, [r7, #8]	@ float
 429 00b8 1046     		mov	r0, r2
 430 00ba 1946     		mov	r1, r3
 431 00bc FFF7FEFF 		bl	ma_update
 115:.\a_to_d_functions/a_to_d_functions.c ****         value = (value) * calibration_a;
 432              		.loc 1 115 0 discriminator 3
 433 00c0 BA68     		ldr	r2, [r7, #8]	@ float
 434 00c2 7B68     		ldr	r3, [r7, #4]	@ float
 435 00c4 1046     		mov	r0, r2
 436 00c6 1946     		mov	r1, r3
 437 00c8 FFF7FEFF 		bl	__aeabi_fmul
 438 00cc 0346     		mov	r3, r0
 439 00ce BB60     		str	r3, [r7, #8]	@ float
 116:.\a_to_d_functions/a_to_d_functions.c ****         store_modbus_data_registers( se_reg_mapping[i]+6, 2,(uint16*) &value);
 440              		.loc 1 116 0 discriminator 3
 441 00d0 2823     		movs	r3, #40
 442 00d2 0633     		adds	r3, r3, #6
ARM GAS  C:\Users\glenn\AppData\Local\Temp\cc1AMuMA.s 			page 11


 443 00d4 1A46     		mov	r2, r3
 444 00d6 07F10803 		add	r3, r7, #8
 445 00da 1046     		mov	r0, r2
 446 00dc 0221     		movs	r1, #2
 447 00de 1A46     		mov	r2, r3
 448 00e0 FFF7FEFF 		bl	store_modbus_data_registers
 105:.\a_to_d_functions/a_to_d_functions.c ****     {
 449              		.loc 1 105 0 discriminator 3
 450 00e4 FB68     		ldr	r3, [r7, #12]
 451 00e6 0133     		adds	r3, r3, #1
 452 00e8 FB60     		str	r3, [r7, #12]
 453              	.L16:
 105:.\a_to_d_functions/a_to_d_functions.c ****     {
 454              		.loc 1 105 0 is_stmt 0 discriminator 1
 455 00ea FB68     		ldr	r3, [r7, #12]
 456 00ec 002B     		cmp	r3, #0
 457 00ee 8DDD     		ble	.L17
 117:.\a_to_d_functions/a_to_d_functions.c ****     }
 118:.\a_to_d_functions/a_to_d_functions.c **** }
 458              		.loc 1 118 0 is_stmt 1
 459 00f0 1037     		adds	r7, r7, #16
 460              		.cfi_def_cfa_offset 8
 461 00f2 BD46     		mov	sp, r7
 462              		.cfi_def_cfa_register 13
 463              		@ sp needed
 464 00f4 80BD     		pop	{r7, pc}
 465              	.L19:
 466 00f6 00BF     		.align	2
 467              	.L18:
 468 00f8 00000000 		.word	se_dc_sec
 469 00fc 18000000 		.word	se_dc_min
 470 0100 0C000000 		.word	se_ac_sec
 471 0104 24000000 		.word	se_ac_min
 472              		.cfi_endproc
 473              	.LFE69:
 474              		.size	ad_process_se_second, .-ad_process_se_second
 475              		.section	.text.ad_process_minute_second,"ax",%progbits
 476              		.align	2
 477              		.global	ad_process_minute_second
 478              		.thumb
 479              		.thumb_func
 480              		.type	ad_process_minute_second, %function
 481              	ad_process_minute_second:
 482              	.LFB70:
 119:.\a_to_d_functions/a_to_d_functions.c ****         
 120:.\a_to_d_functions/a_to_d_functions.c **** 
 121:.\a_to_d_functions/a_to_d_functions.c **** void ad_process_minute_second( void )
 122:.\a_to_d_functions/a_to_d_functions.c **** {
 483              		.loc 1 122 0
 484              		.cfi_startproc
 485              		@ args = 0, pretend = 0, frame = 16
 486              		@ frame_needed = 1, uses_anonymous_args = 0
 487 0000 80B5     		push	{r7, lr}
 488              		.cfi_def_cfa_offset 8
 489              		.cfi_offset 7, -8
 490              		.cfi_offset 14, -4
 491 0002 84B0     		sub	sp, sp, #16
ARM GAS  C:\Users\glenn\AppData\Local\Temp\cc1AMuMA.s 			page 12


 492              		.cfi_def_cfa_offset 24
 493 0004 00AF     		add	r7, sp, #0
 494              		.cfi_def_cfa_register 7
 123:.\a_to_d_functions/a_to_d_functions.c ****     int i;
 124:.\a_to_d_functions/a_to_d_functions.c ****     float value;
 125:.\a_to_d_functions/a_to_d_functions.c ****     float calibration_a;
 126:.\a_to_d_functions/a_to_d_functions.c ****     float calibration_b;
 127:.\a_to_d_functions/a_to_d_functions.c ****     
 128:.\a_to_d_functions/a_to_d_functions.c ****     for( i = 0; i< SE_NUMBER; i++ )
 495              		.loc 1 128 0
 496 0006 0023     		movs	r3, #0
 497 0008 FB60     		str	r3, [r7, #12]
 498 000a 55E0     		b	.L21
 499              	.L22:
 129:.\a_to_d_functions/a_to_d_functions.c ****     {
 130:.\a_to_d_functions/a_to_d_functions.c ****         get_modbus_data_registers( se_calibration_mapping[i], 2, (uint16 *)&calibration_a );
 500              		.loc 1 130 0 discriminator 3
 501 000c 6423     		movs	r3, #100
 502 000e 1A46     		mov	r2, r3
 503 0010 3B1D     		adds	r3, r7, #4
 504 0012 1046     		mov	r0, r2
 505 0014 0221     		movs	r1, #2
 506 0016 1A46     		mov	r2, r3
 507 0018 FFF7FEFF 		bl	get_modbus_data_registers
 131:.\a_to_d_functions/a_to_d_functions.c ****         get_modbus_data_registers( se_calibration_mapping[i]+2, 2, (uint16 *)&calibration_b );
 508              		.loc 1 131 0 discriminator 3
 509 001c 6423     		movs	r3, #100
 510 001e 0233     		adds	r3, r3, #2
 511 0020 1A46     		mov	r2, r3
 512 0022 3B46     		mov	r3, r7
 513 0024 1046     		mov	r0, r2
 514 0026 0221     		movs	r1, #2
 515 0028 1A46     		mov	r2, r3
 516 002a FFF7FEFF 		bl	get_modbus_data_registers
 132:.\a_to_d_functions/a_to_d_functions.c ****         value = ma_get_value( &se_dc_min[i]);
 517              		.loc 1 132 0 discriminator 3
 518 002e FA68     		ldr	r2, [r7, #12]
 519 0030 1346     		mov	r3, r2
 520 0032 5B00     		lsls	r3, r3, #1
 521 0034 1344     		add	r3, r3, r2
 522 0036 9B00     		lsls	r3, r3, #2
 523 0038 224A     		ldr	r2, .L23
 524 003a 1344     		add	r3, r3, r2
 525 003c 1846     		mov	r0, r3
 526 003e FFF7FEFF 		bl	ma_get_value
 527 0042 0346     		mov	r3, r0
 528 0044 BB60     		str	r3, [r7, #8]	@ float
 133:.\a_to_d_functions/a_to_d_functions.c ****         value = (value*calibration_a) + calibration_b;
 529              		.loc 1 133 0 discriminator 3
 530 0046 BA68     		ldr	r2, [r7, #8]	@ float
 531 0048 7B68     		ldr	r3, [r7, #4]	@ float
 532 004a 1046     		mov	r0, r2
 533 004c 1946     		mov	r1, r3
 534 004e FFF7FEFF 		bl	__aeabi_fmul
 535 0052 0346     		mov	r3, r0
 536 0054 1A46     		mov	r2, r3
 537 0056 3B68     		ldr	r3, [r7]	@ float
ARM GAS  C:\Users\glenn\AppData\Local\Temp\cc1AMuMA.s 			page 13


 538 0058 1046     		mov	r0, r2
 539 005a 1946     		mov	r1, r3
 540 005c FFF7FEFF 		bl	__aeabi_fadd
 541 0060 0346     		mov	r3, r0
 542 0062 BB60     		str	r3, [r7, #8]	@ float
 134:.\a_to_d_functions/a_to_d_functions.c ****         store_modbus_data_registers( se_reg_mapping[i], 2,(uint16*) &value);
 543              		.loc 1 134 0 discriminator 3
 544 0064 2823     		movs	r3, #40
 545 0066 1A46     		mov	r2, r3
 546 0068 07F10803 		add	r3, r7, #8
 547 006c 1046     		mov	r0, r2
 548 006e 0221     		movs	r1, #2
 549 0070 1A46     		mov	r2, r3
 550 0072 FFF7FEFF 		bl	store_modbus_data_registers
 135:.\a_to_d_functions/a_to_d_functions.c ****         value = ma_get_value( &se_ac_min[i]);
 551              		.loc 1 135 0 discriminator 3
 552 0076 FA68     		ldr	r2, [r7, #12]
 553 0078 1346     		mov	r3, r2
 554 007a 5B00     		lsls	r3, r3, #1
 555 007c 1344     		add	r3, r3, r2
 556 007e 9B00     		lsls	r3, r3, #2
 557 0080 114A     		ldr	r2, .L23+4
 558 0082 1344     		add	r3, r3, r2
 559 0084 1846     		mov	r0, r3
 560 0086 FFF7FEFF 		bl	ma_get_value
 561 008a 0346     		mov	r3, r0
 562 008c BB60     		str	r3, [r7, #8]	@ float
 136:.\a_to_d_functions/a_to_d_functions.c ****         value = (value) * calibration_a;
 563              		.loc 1 136 0 discriminator 3
 564 008e BA68     		ldr	r2, [r7, #8]	@ float
 565 0090 7B68     		ldr	r3, [r7, #4]	@ float
 566 0092 1046     		mov	r0, r2
 567 0094 1946     		mov	r1, r3
 568 0096 FFF7FEFF 		bl	__aeabi_fmul
 569 009a 0346     		mov	r3, r0
 570 009c BB60     		str	r3, [r7, #8]	@ float
 137:.\a_to_d_functions/a_to_d_functions.c ****         store_modbus_data_registers( se_reg_mapping[i]+2, 2,(uint16*) &value);
 571              		.loc 1 137 0 discriminator 3
 572 009e 2823     		movs	r3, #40
 573 00a0 0233     		adds	r3, r3, #2
 574 00a2 1A46     		mov	r2, r3
 575 00a4 07F10803 		add	r3, r7, #8
 576 00a8 1046     		mov	r0, r2
 577 00aa 0221     		movs	r1, #2
 578 00ac 1A46     		mov	r2, r3
 579 00ae FFF7FEFF 		bl	store_modbus_data_registers
 128:.\a_to_d_functions/a_to_d_functions.c ****     {
 580              		.loc 1 128 0 discriminator 3
 581 00b2 FB68     		ldr	r3, [r7, #12]
 582 00b4 0133     		adds	r3, r3, #1
 583 00b6 FB60     		str	r3, [r7, #12]
 584              	.L21:
 128:.\a_to_d_functions/a_to_d_functions.c ****     {
 585              		.loc 1 128 0 is_stmt 0 discriminator 1
 586 00b8 FB68     		ldr	r3, [r7, #12]
 587 00ba 002B     		cmp	r3, #0
 588 00bc A6DD     		ble	.L22
ARM GAS  C:\Users\glenn\AppData\Local\Temp\cc1AMuMA.s 			page 14


 138:.\a_to_d_functions/a_to_d_functions.c ****     
 139:.\a_to_d_functions/a_to_d_functions.c ****         
 140:.\a_to_d_functions/a_to_d_functions.c ****     }    
 141:.\a_to_d_functions/a_to_d_functions.c ****     
 142:.\a_to_d_functions/a_to_d_functions.c **** }
 589              		.loc 1 142 0 is_stmt 1
 590 00be 1037     		adds	r7, r7, #16
 591              		.cfi_def_cfa_offset 8
 592 00c0 BD46     		mov	sp, r7
 593              		.cfi_def_cfa_register 13
 594              		@ sp needed
 595 00c2 80BD     		pop	{r7, pc}
 596              	.L24:
 597              		.align	2
 598              	.L23:
 599 00c4 18000000 		.word	se_dc_min
 600 00c8 24000000 		.word	se_ac_min
 601              		.cfi_endproc
 602              	.LFE70:
 603              		.size	ad_process_minute_second, .-ad_process_minute_second
 604              		.text
 605              	.Letext0:
 606              		.file 2 "c:\\program files (x86)\\cypress\\psoc creator\\3.3\\psoc creator\\import\\gnu\\arm\\4.9.
 607              		.file 3 "c:\\program files (x86)\\cypress\\psoc creator\\3.3\\psoc creator\\import\\gnu\\arm\\4.9.
 608              		.file 4 "Generated_Source\\PSoC5/cytypes.h"
 609              		.file 5 ".\\utilities/moving_average.h"
 610              		.file 6 "Generated_Source\\PSoC5/core_cm3.h"
 611              		.file 7 ".\\rtu_modbus/process_modbus_message.h"