ARM GAS  C:\Users\glenn\AppData\Local\Temp\ccVG9cHs.s 			page 1


   1              		.syntax unified
   2              		.cpu cortex-m3
   3              		.fpu softvfp
   4              		.eabi_attribute 20, 1
   5              		.eabi_attribute 21, 1
   6              		.eabi_attribute 23, 3
   7              		.eabi_attribute 24, 1
   8              		.eabi_attribute 25, 1
   9              		.eabi_attribute 26, 1
  10              		.eabi_attribute 30, 6
  11              		.eabi_attribute 34, 1
  12              		.eabi_attribute 18, 4
  13              		.thumb
  14              		.file	"cb_logging.c"
  15              		.text
  16              	.Ltext0:
  17              		.cfi_sections	.debug_frame
  18              		.section	.rodata
  19              		.align	1
  20              		.type	sampling_interval, %object
  21              		.size	sampling_interval, 2
  22              	sampling_interval:
  23 0000 0200     		.short	2
  24              		.global	reference_resistance_array
  25 0002 0000     		.align	2
  26              		.type	reference_resistance_array, %object
  27              		.size	reference_resistance_array, 64
  28              	reference_resistance_array:
  29 0004 00281B46 		.word	1176184832
  30 0008 00281B46 		.word	1176184832
  31 000c 00281B46 		.word	1176184832
  32 0010 00281B46 		.word	1176184832
  33 0014 00281B46 		.word	1176184832
  34 0018 00281B46 		.word	1176184832
  35 001c 00281B46 		.word	1176184832
  36 0020 00281B46 		.word	1176184832
  37 0024 00281B46 		.word	1176184832
  38 0028 00281B46 		.word	1176184832
  39 002c 00281B46 		.word	1176184832
  40 0030 00281B46 		.word	1176184832
  41 0034 00281B46 		.word	1176184832
  42 0038 00281B46 		.word	1176184832
  43 003c 00281B46 		.word	1176184832
  44 0040 00281B46 		.word	1176184832
  45              		.global	moisture_configuration_data
  46              		.align	2
  47              		.type	moisture_configuration_data, %object
  48              		.size	moisture_configuration_data, 32
  49              	moisture_configuration_data:
  50 0044 0100     		.short	1
  51 0046 0100     		.short	1
  52 0048 0100     		.short	1
  53 004a 0100     		.short	1
  54 004c 0100     		.short	1
  55 004e 0100     		.short	1
  56 0050 0100     		.short	1
  57 0052 0100     		.short	1
ARM GAS  C:\Users\glenn\AppData\Local\Temp\ccVG9cHs.s 			page 2


  58 0054 0100     		.short	1
  59 0056 0100     		.short	1
  60 0058 0100     		.short	1
  61 005a 0100     		.short	1
  62 005c 0100     		.short	1
  63 005e 0100     		.short	1
  64 0060 0100     		.short	1
  65 0062 0100     		.short	1
  66              		.global	temperature_calibration_factors
  67              		.align	2
  68              		.type	temperature_calibration_factors, %object
  69              		.size	temperature_calibration_factors, 8
  70              	temperature_calibration_factors:
  71 0064 EC51383E 		.word	1043878380
  72 0068 000068C2 		.word	-1033371648
  73              		.bss
  74              		.align	2
  75              	shaddow_eeprom:
  76 0000 00000000 		.space	2048
  76      00000000 
  76      00000000 
  76      00000000 
  76      00000000 
  77              		.global	__aeabi_f2uiz
  78              		.global	__aeabi_ui2f
  79              		.section	.text.get_reference_resistor,"ax",%progbits
  80              		.align	2
  81              		.global	get_reference_resistor
  82              		.thumb
  83              		.thumb_func
  84              		.type	get_reference_resistor, %function
  85              	get_reference_resistor:
  86              	.LFB65:
  87              		.file 1 ".\\moisture_measurement\\cb_logging.c"
   1:.\moisture_measurement/cb_logging.c **** /*
   2:.\moisture_measurement/cb_logging.c **** ** File:  cb_logging.c
   3:.\moisture_measurement/cb_logging.c **** ** Handles EEPROM Moisture Logging
   4:.\moisture_measurement/cb_logging.c **** **
   5:.\moisture_measurement/cb_logging.c **** */
   6:.\moisture_measurement/cb_logging.c **** #include <device.h>
   7:.\moisture_measurement/cb_logging.c **** #include "cb_logging.h"
   8:.\moisture_measurement/cb_logging.c **** #include "process_modbus_message.h"
   9:.\moisture_measurement/cb_logging.c **** 
  10:.\moisture_measurement/cb_logging.c **** /*
  11:.\moisture_measurement/cb_logging.c **** Layout of EEPROM Format  in 4 bytes value
  12:.\moisture_measurement/cb_logging.c **** position 0 -- Initialization Flag  0xa5a55a5a
  13:.\moisture_measurement/cb_logging.c **** position 4 -- Number of 4 byte entries per entry 
  14:.\moisture_measurement/cb_logging.c **** position 8 -- Time in Minutes Between Logging Interval
  15:.\moisture_measurement/cb_logging.c **** position 12 --  Current Logged Number
  16:.\moisture_measurement/cb_logging.c **** position 16 --  start of Logging Data
  17:.\moisture_measurement/cb_logging.c **** position 16 + number of log elements * 4  -- start of Second Logs
  18:.\moisture_measurement/cb_logging.c **** 
  19:.\moisture_measurement/cb_logging.c **** 
  20:.\moisture_measurement/cb_logging.c ****  */
  21:.\moisture_measurement/cb_logging.c ****  
  22:.\moisture_measurement/cb_logging.c **** 
  23:.\moisture_measurement/cb_logging.c **** static const uint16 sampling_interval   = 2;  // for production use 60 or 1 hour
ARM GAS  C:\Users\glenn\AppData\Local\Temp\ccVG9cHs.s 			page 3


  24:.\moisture_measurement/cb_logging.c **** 
  25:.\moisture_measurement/cb_logging.c **** 
  26:.\moisture_measurement/cb_logging.c **** const float reference_resistance_array [ MOISTURE_SENSOR_NUMBER ] = 
  27:.\moisture_measurement/cb_logging.c **** {
  28:.\moisture_measurement/cb_logging.c ****   9930.,  // 0
  29:.\moisture_measurement/cb_logging.c ****   9930.,  // 1
  30:.\moisture_measurement/cb_logging.c ****   9930.,  // 2 
  31:.\moisture_measurement/cb_logging.c ****   9930.,  // 3
  32:.\moisture_measurement/cb_logging.c ****   9930.,  // 4
  33:.\moisture_measurement/cb_logging.c ****   9930.,  // 5
  34:.\moisture_measurement/cb_logging.c ****   9930.,   // 6
  35:.\moisture_measurement/cb_logging.c ****   9930.,   // 7
  36:.\moisture_measurement/cb_logging.c ****   9930.,   // 8
  37:.\moisture_measurement/cb_logging.c ****   9930.,  // 0
  38:.\moisture_measurement/cb_logging.c ****   9930.,  // 1
  39:.\moisture_measurement/cb_logging.c ****   9930.,  // 2 
  40:.\moisture_measurement/cb_logging.c ****   9930.,  // 3
  41:.\moisture_measurement/cb_logging.c ****   9930.,  // 4
  42:.\moisture_measurement/cb_logging.c ****   9930.,  // 5
  43:.\moisture_measurement/cb_logging.c ****   9930.,   // 6
  44:.\moisture_measurement/cb_logging.c ****  
  45:.\moisture_measurement/cb_logging.c ****   
  46:.\moisture_measurement/cb_logging.c ****   
  47:.\moisture_measurement/cb_logging.c **** };
  48:.\moisture_measurement/cb_logging.c **** 
  49:.\moisture_measurement/cb_logging.c **** 
  50:.\moisture_measurement/cb_logging.c **** 
  51:.\moisture_measurement/cb_logging.c **** const uint16 moisture_configuration_data[ MOISTURE_SENSOR_NUMBER ] =
  52:.\moisture_measurement/cb_logging.c **** {
  53:.\moisture_measurement/cb_logging.c ****    RESISTIVE_ELEMENT,
  54:.\moisture_measurement/cb_logging.c ****    RESISTIVE_ELEMENT,
  55:.\moisture_measurement/cb_logging.c ****    RESISTIVE_ELEMENT,
  56:.\moisture_measurement/cb_logging.c ****    RESISTIVE_ELEMENT,
  57:.\moisture_measurement/cb_logging.c ****    RESISTIVE_ELEMENT,
  58:.\moisture_measurement/cb_logging.c ****    RESISTIVE_ELEMENT,
  59:.\moisture_measurement/cb_logging.c ****    RESISTIVE_ELEMENT,
  60:.\moisture_measurement/cb_logging.c ****    RESISTIVE_ELEMENT,
  61:.\moisture_measurement/cb_logging.c ****    RESISTIVE_ELEMENT,
  62:.\moisture_measurement/cb_logging.c ****    RESISTIVE_ELEMENT,
  63:.\moisture_measurement/cb_logging.c ****    RESISTIVE_ELEMENT,
  64:.\moisture_measurement/cb_logging.c ****    RESISTIVE_ELEMENT,
  65:.\moisture_measurement/cb_logging.c ****    RESISTIVE_ELEMENT,
  66:.\moisture_measurement/cb_logging.c ****    RESISTIVE_ELEMENT,
  67:.\moisture_measurement/cb_logging.c ****    RESISTIVE_ELEMENT,
  68:.\moisture_measurement/cb_logging.c ****    RESISTIVE_ELEMENT
  69:.\moisture_measurement/cb_logging.c ****     
  70:.\moisture_measurement/cb_logging.c **** };
  71:.\moisture_measurement/cb_logging.c **** 
  72:.\moisture_measurement/cb_logging.c **** #define CALIBRATION_NUMBER 1
  73:.\moisture_measurement/cb_logging.c ****     
  74:.\moisture_measurement/cb_logging.c **** #define CALIBRATION_ARRAY_LENGTH  CALIBRATION_NUMBER *2
  75:.\moisture_measurement/cb_logging.c **** // temperature calibration in degrees F
  76:.\moisture_measurement/cb_logging.c **** const float temperature_calibration_factors[CALIBRATION_NUMBER *2] = { (.18), -58. };
  77:.\moisture_measurement/cb_logging.c **** 
  78:.\moisture_measurement/cb_logging.c **** static void write_32_eeprom( int eeprom_position, float value );
  79:.\moisture_measurement/cb_logging.c **** static float read_32_eeprom( int eeprom_position );
  80:.\moisture_measurement/cb_logging.c **** static int validate_eeprom( void );
ARM GAS  C:\Users\glenn\AppData\Local\Temp\ccVG9cHs.s 			page 4


  81:.\moisture_measurement/cb_logging.c **** static void initialize_shaddow_ram_buffer( void );
  82:.\moisture_measurement/cb_logging.c **** 
  83:.\moisture_measurement/cb_logging.c **** static uint8 shaddow_eeprom[EEPROM_1_EEPROM_SIZE];
  84:.\moisture_measurement/cb_logging.c **** 
  85:.\moisture_measurement/cb_logging.c **** float get_reference_resistor( uint32 channel )
  86:.\moisture_measurement/cb_logging.c **** {
  88              		.loc 1 86 0
  89              		.cfi_startproc
  90              		@ args = 0, pretend = 0, frame = 16
  91              		@ frame_needed = 1, uses_anonymous_args = 0
  92 0000 80B5     		push	{r7, lr}
  93              		.cfi_def_cfa_offset 8
  94              		.cfi_offset 7, -8
  95              		.cfi_offset 14, -4
  96 0002 84B0     		sub	sp, sp, #16
  97              		.cfi_def_cfa_offset 24
  98 0004 00AF     		add	r7, sp, #0
  99              		.cfi_def_cfa_register 7
 100 0006 7860     		str	r0, [r7, #4]
  87:.\moisture_measurement/cb_logging.c ****     uint16 return_value;
  88:.\moisture_measurement/cb_logging.c ****     if( channel >= MOISTURE_SENSOR_NUMBER )
 101              		.loc 1 88 0
 102 0008 7B68     		ldr	r3, [r7, #4]
 103 000a 0F2B     		cmp	r3, #15
 104 000c 03D9     		bls	.L2
  89:.\moisture_measurement/cb_logging.c ****     {
  90:.\moisture_measurement/cb_logging.c ****         CYASSERT(0);
 105              		.loc 1 90 0 discriminator 1
 106 000e 0020     		movs	r0, #0
 107 0010 FFF7FEFF 		bl	CyHalt
 108 0014 08E0     		b	.L3
 109              	.L2:
  91:.\moisture_measurement/cb_logging.c ****     }
  92:.\moisture_measurement/cb_logging.c ****     else
  93:.\moisture_measurement/cb_logging.c ****     {
  94:.\moisture_measurement/cb_logging.c ****         return_value =reference_resistance_array[ channel];
 110              		.loc 1 94 0
 111 0016 094A     		ldr	r2, .L5
 112 0018 7B68     		ldr	r3, [r7, #4]
 113 001a 52F82330 		ldr	r3, [r2, r3, lsl #2]	@ float
 114 001e 1846     		mov	r0, r3
 115 0020 FFF7FEFF 		bl	__aeabi_f2uiz
 116 0024 0346     		mov	r3, r0
 117 0026 FB81     		strh	r3, [r7, #14]	@ movhi
 118              	.L3:
  95:.\moisture_measurement/cb_logging.c ****     }
  96:.\moisture_measurement/cb_logging.c ****     return return_value;
 119              		.loc 1 96 0
 120 0028 FB89     		ldrh	r3, [r7, #14]
 121 002a 1846     		mov	r0, r3
 122 002c FFF7FEFF 		bl	__aeabi_ui2f
 123 0030 0346     		mov	r3, r0
  97:.\moisture_measurement/cb_logging.c **** }
 124              		.loc 1 97 0
 125 0032 1846     		mov	r0, r3
 126 0034 1037     		adds	r7, r7, #16
 127              		.cfi_def_cfa_offset 8
ARM GAS  C:\Users\glenn\AppData\Local\Temp\ccVG9cHs.s 			page 5


 128 0036 BD46     		mov	sp, r7
 129              		.cfi_def_cfa_register 13
 130              		@ sp needed
 131 0038 80BD     		pop	{r7, pc}
 132              	.L6:
 133 003a 00BF     		.align	2
 134              	.L5:
 135 003c 00000000 		.word	reference_resistance_array
 136              		.cfi_endproc
 137              	.LFE65:
 138              		.size	get_reference_resistor, .-get_reference_resistor
 139              		.section	.text.get_moisture_sensor_configuration,"ax",%progbits
 140              		.align	2
 141              		.global	get_moisture_sensor_configuration
 142              		.thumb
 143              		.thumb_func
 144              		.type	get_moisture_sensor_configuration, %function
 145              	get_moisture_sensor_configuration:
 146              	.LFB66:
  98:.\moisture_measurement/cb_logging.c **** 
  99:.\moisture_measurement/cb_logging.c **** uint16 get_moisture_sensor_configuration( unsigned sensor_id )
 100:.\moisture_measurement/cb_logging.c **** {
 147              		.loc 1 100 0
 148              		.cfi_startproc
 149              		@ args = 0, pretend = 0, frame = 16
 150              		@ frame_needed = 1, uses_anonymous_args = 0
 151 0000 80B5     		push	{r7, lr}
 152              		.cfi_def_cfa_offset 8
 153              		.cfi_offset 7, -8
 154              		.cfi_offset 14, -4
 155 0002 84B0     		sub	sp, sp, #16
 156              		.cfi_def_cfa_offset 24
 157 0004 00AF     		add	r7, sp, #0
 158              		.cfi_def_cfa_register 7
 159 0006 7860     		str	r0, [r7, #4]
 101:.\moisture_measurement/cb_logging.c ****     uint16 return_value;
 102:.\moisture_measurement/cb_logging.c ****     if( sensor_id >= MOISTURE_SENSOR_NUMBER )
 160              		.loc 1 102 0
 161 0008 7B68     		ldr	r3, [r7, #4]
 162 000a 0F2B     		cmp	r3, #15
 163 000c 03D9     		bls	.L8
 103:.\moisture_measurement/cb_logging.c ****     {
 104:.\moisture_measurement/cb_logging.c ****         CYASSERT(0);
 164              		.loc 1 104 0 discriminator 1
 165 000e 0020     		movs	r0, #0
 166 0010 FFF7FEFF 		bl	CyHalt
 167 0014 04E0     		b	.L9
 168              	.L8:
 105:.\moisture_measurement/cb_logging.c ****     }
 106:.\moisture_measurement/cb_logging.c ****     else
 107:.\moisture_measurement/cb_logging.c ****     {
 108:.\moisture_measurement/cb_logging.c ****         return_value = moisture_configuration_data[ sensor_id];
 169              		.loc 1 108 0
 170 0016 054A     		ldr	r2, .L11
 171 0018 7B68     		ldr	r3, [r7, #4]
 172 001a 32F81330 		ldrh	r3, [r2, r3, lsl #1]	@ movhi
 173 001e FB81     		strh	r3, [r7, #14]	@ movhi
ARM GAS  C:\Users\glenn\AppData\Local\Temp\ccVG9cHs.s 			page 6


 174              	.L9:
 109:.\moisture_measurement/cb_logging.c ****     }
 110:.\moisture_measurement/cb_logging.c ****     return return_value;
 175              		.loc 1 110 0
 176 0020 FB89     		ldrh	r3, [r7, #14]
 111:.\moisture_measurement/cb_logging.c **** }
 177              		.loc 1 111 0
 178 0022 1846     		mov	r0, r3
 179 0024 1037     		adds	r7, r7, #16
 180              		.cfi_def_cfa_offset 8
 181 0026 BD46     		mov	sp, r7
 182              		.cfi_def_cfa_register 13
 183              		@ sp needed
 184 0028 80BD     		pop	{r7, pc}
 185              	.L12:
 186 002a 00BF     		.align	2
 187              	.L11:
 188 002c 00000000 		.word	moisture_configuration_data
 189              		.cfi_endproc
 190              	.LFE66:
 191              		.size	get_moisture_sensor_configuration, .-get_moisture_sensor_configuration
 192              		.section	.text.store_default_temperature_calibration_values_to_modbus_registers,"ax",%progbits
 193              		.align	2
 194              		.global	store_default_temperature_calibration_values_to_modbus_registers
 195              		.thumb
 196              		.thumb_func
 197              		.type	store_default_temperature_calibration_values_to_modbus_registers, %function
 198              	store_default_temperature_calibration_values_to_modbus_registers:
 199              	.LFB67:
 112:.\moisture_measurement/cb_logging.c **** 
 113:.\moisture_measurement/cb_logging.c **** int store_default_temperature_calibration_values_to_modbus_registers(unsigned link_id, unsigned par
 114:.\moisture_measurement/cb_logging.c ****   unsigned param_2, unsigned param_3, unsigned event, unsigned data)
 115:.\moisture_measurement/cb_logging.c **** {
 200              		.loc 1 115 0
 201              		.cfi_startproc
 202              		@ args = 8, pretend = 0, frame = 16
 203              		@ frame_needed = 1, uses_anonymous_args = 0
 204 0000 80B5     		push	{r7, lr}
 205              		.cfi_def_cfa_offset 8
 206              		.cfi_offset 7, -8
 207              		.cfi_offset 14, -4
 208 0002 84B0     		sub	sp, sp, #16
 209              		.cfi_def_cfa_offset 24
 210 0004 00AF     		add	r7, sp, #0
 211              		.cfi_def_cfa_register 7
 212 0006 F860     		str	r0, [r7, #12]
 213 0008 B960     		str	r1, [r7, #8]
 214 000a 7A60     		str	r2, [r7, #4]
 215 000c 3B60     		str	r3, [r7]
 116:.\moisture_measurement/cb_logging.c ****     store_modbus_data_registers( MOISTURE_TEMP_CALIBRATION_A, CALIBRATION_ARRAY_LENGTH *2 , (uint16
 216              		.loc 1 116 0
 217 000e 6420     		movs	r0, #100
 218 0010 0421     		movs	r1, #4
 219 0012 044A     		ldr	r2, .L15
 220 0014 FFF7FEFF 		bl	store_modbus_data_registers
 117:.\moisture_measurement/cb_logging.c ****     return 0;
 221              		.loc 1 117 0
ARM GAS  C:\Users\glenn\AppData\Local\Temp\ccVG9cHs.s 			page 7


 222 0018 0023     		movs	r3, #0
 118:.\moisture_measurement/cb_logging.c **** }
 223              		.loc 1 118 0
 224 001a 1846     		mov	r0, r3
 225 001c 1037     		adds	r7, r7, #16
 226              		.cfi_def_cfa_offset 8
 227 001e BD46     		mov	sp, r7
 228              		.cfi_def_cfa_register 13
 229              		@ sp needed
 230 0020 80BD     		pop	{r7, pc}
 231              	.L16:
 232 0022 00BF     		.align	2
 233              	.L15:
 234 0024 00000000 		.word	temperature_calibration_factors
 235              		.cfi_endproc
 236              	.LFE67:
 237              		.size	store_default_temperature_calibration_values_to_modbus_registers, .-store_default_temperatur
 238              		.section	.text.store_default_resistor_calibration_values_to_modbus_registers,"ax",%progbits
 239              		.align	2
 240              		.global	store_default_resistor_calibration_values_to_modbus_registers
 241              		.thumb
 242              		.thumb_func
 243              		.type	store_default_resistor_calibration_values_to_modbus_registers, %function
 244              	store_default_resistor_calibration_values_to_modbus_registers:
 245              	.LFB68:
 119:.\moisture_measurement/cb_logging.c **** 
 120:.\moisture_measurement/cb_logging.c **** int store_default_resistor_calibration_values_to_modbus_registers(unsigned link_id, unsigned param_
 121:.\moisture_measurement/cb_logging.c ****   unsigned param_2, unsigned param_3, unsigned event, unsigned data)
 122:.\moisture_measurement/cb_logging.c **** {
 246              		.loc 1 122 0
 247              		.cfi_startproc
 248              		@ args = 8, pretend = 0, frame = 16
 249              		@ frame_needed = 1, uses_anonymous_args = 0
 250 0000 80B5     		push	{r7, lr}
 251              		.cfi_def_cfa_offset 8
 252              		.cfi_offset 7, -8
 253              		.cfi_offset 14, -4
 254 0002 84B0     		sub	sp, sp, #16
 255              		.cfi_def_cfa_offset 24
 256 0004 00AF     		add	r7, sp, #0
 257              		.cfi_def_cfa_register 7
 258 0006 F860     		str	r0, [r7, #12]
 259 0008 B960     		str	r1, [r7, #8]
 260 000a 7A60     		str	r2, [r7, #4]
 261 000c 3B60     		str	r3, [r7]
 123:.\moisture_measurement/cb_logging.c ****     store_modbus_data_registers( REFERENCE_RESISTOR_1_FLOAT, MOISTURE_SENSOR_NUMBER *2 , (uint16*)r
 262              		.loc 1 123 0
 263 000e 6E20     		movs	r0, #110
 264 0010 2021     		movs	r1, #32
 265 0012 044A     		ldr	r2, .L19
 266 0014 FFF7FEFF 		bl	store_modbus_data_registers
 124:.\moisture_measurement/cb_logging.c ****     return 0;
 267              		.loc 1 124 0
 268 0018 0023     		movs	r3, #0
 125:.\moisture_measurement/cb_logging.c **** }
 269              		.loc 1 125 0
 270 001a 1846     		mov	r0, r3
ARM GAS  C:\Users\glenn\AppData\Local\Temp\ccVG9cHs.s 			page 8


 271 001c 1037     		adds	r7, r7, #16
 272              		.cfi_def_cfa_offset 8
 273 001e BD46     		mov	sp, r7
 274              		.cfi_def_cfa_register 13
 275              		@ sp needed
 276 0020 80BD     		pop	{r7, pc}
 277              	.L20:
 278 0022 00BF     		.align	2
 279              	.L19:
 280 0024 00000000 		.word	reference_resistance_array
 281              		.cfi_endproc
 282              	.LFE68:
 283              		.size	store_default_resistor_calibration_values_to_modbus_registers, .-store_default_resistor_cali
 284              		.section	.text.reset_eeprom_log,"ax",%progbits
 285              		.align	2
 286              		.global	reset_eeprom_log
 287              		.thumb
 288              		.thumb_func
 289              		.type	reset_eeprom_log, %function
 290              	reset_eeprom_log:
 291              	.LFB69:
 126:.\moisture_measurement/cb_logging.c **** 
 127:.\moisture_measurement/cb_logging.c **** int reset_eeprom_log(unsigned link_id, unsigned param_1,
 128:.\moisture_measurement/cb_logging.c ****   unsigned param_2, unsigned param_3, unsigned event, unsigned data)
 129:.\moisture_measurement/cb_logging.c **** {
 292              		.loc 1 129 0
 293              		.cfi_startproc
 294              		@ args = 8, pretend = 0, frame = 24
 295              		@ frame_needed = 1, uses_anonymous_args = 0
 296 0000 80B5     		push	{r7, lr}
 297              		.cfi_def_cfa_offset 8
 298              		.cfi_offset 7, -8
 299              		.cfi_offset 14, -4
 300 0002 86B0     		sub	sp, sp, #24
 301              		.cfi_def_cfa_offset 32
 302 0004 00AF     		add	r7, sp, #0
 303              		.cfi_def_cfa_register 7
 304 0006 F860     		str	r0, [r7, #12]
 305 0008 B960     		str	r1, [r7, #8]
 306 000a 7A60     		str	r2, [r7, #4]
 307 000c 3B60     		str	r3, [r7]
 130:.\moisture_measurement/cb_logging.c ****     float temp32;
 131:.\moisture_measurement/cb_logging.c ****     uint16 temp16;
 132:.\moisture_measurement/cb_logging.c ****     temp16 = 0;
 308              		.loc 1 132 0
 309 000e 0023     		movs	r3, #0
 310 0010 7B82     		strh	r3, [r7, #18]	@ movhi
 133:.\moisture_measurement/cb_logging.c ****     store_modbus_data_registers( LOGGING_INDEX, 1,&temp16 );
 311              		.loc 1 133 0
 312 0012 07F11203 		add	r3, r7, #18
 313 0016 2020     		movs	r0, #32
 314 0018 0121     		movs	r1, #1
 315 001a 1A46     		mov	r2, r3
 316 001c FFF7FEFF 		bl	store_modbus_data_registers
 134:.\moisture_measurement/cb_logging.c ****     temp32 = temp16;
 317              		.loc 1 134 0
 318 0020 7B8A     		ldrh	r3, [r7, #18]
ARM GAS  C:\Users\glenn\AppData\Local\Temp\ccVG9cHs.s 			page 9


 319 0022 1846     		mov	r0, r3
 320 0024 FFF7FEFF 		bl	__aeabi_ui2f
 321 0028 0346     		mov	r3, r0
 322 002a 7B61     		str	r3, [r7, #20]	@ float
 135:.\moisture_measurement/cb_logging.c ****     write_32_eeprom( EEPROM_LOGGING_INDEX , temp32 );
 323              		.loc 1 135 0
 324 002c 0C20     		movs	r0, #12
 325 002e 7969     		ldr	r1, [r7, #20]	@ float
 326 0030 FFF7FEFF 		bl	write_32_eeprom
 136:.\moisture_measurement/cb_logging.c ****     return 0;
 327              		.loc 1 136 0
 328 0034 0023     		movs	r3, #0
 137:.\moisture_measurement/cb_logging.c **** }
 329              		.loc 1 137 0
 330 0036 1846     		mov	r0, r3
 331 0038 1837     		adds	r7, r7, #24
 332              		.cfi_def_cfa_offset 8
 333 003a BD46     		mov	sp, r7
 334              		.cfi_def_cfa_register 13
 335              		@ sp needed
 336 003c 80BD     		pop	{r7, pc}
 337              		.cfi_endproc
 338              	.LFE69:
 339              		.size	reset_eeprom_log, .-reset_eeprom_log
 340 003e 00BF     		.section	.text.enable_eeprom,"ax",%progbits
 341              		.align	2
 342              		.global	enable_eeprom
 343              		.thumb
 344              		.thumb_func
 345              		.type	enable_eeprom, %function
 346              	enable_eeprom:
 347              	.LFB70:
 138:.\moisture_measurement/cb_logging.c **** 
 139:.\moisture_measurement/cb_logging.c **** 
 140:.\moisture_measurement/cb_logging.c **** 
 141:.\moisture_measurement/cb_logging.c **** int enable_eeprom(unsigned link_id, unsigned param_1,
 142:.\moisture_measurement/cb_logging.c ****   unsigned param_2, unsigned param_3, unsigned event, unsigned data)
 143:.\moisture_measurement/cb_logging.c **** {
 348              		.loc 1 143 0
 349              		.cfi_startproc
 350              		@ args = 8, pretend = 0, frame = 24
 351              		@ frame_needed = 1, uses_anonymous_args = 0
 352 0000 80B5     		push	{r7, lr}
 353              		.cfi_def_cfa_offset 8
 354              		.cfi_offset 7, -8
 355              		.cfi_offset 14, -4
 356 0002 86B0     		sub	sp, sp, #24
 357              		.cfi_def_cfa_offset 32
 358 0004 00AF     		add	r7, sp, #0
 359              		.cfi_def_cfa_register 7
 360 0006 F860     		str	r0, [r7, #12]
 361 0008 B960     		str	r1, [r7, #8]
 362 000a 7A60     		str	r2, [r7, #4]
 363 000c 3B60     		str	r3, [r7]
 144:.\moisture_measurement/cb_logging.c ****     uint16 temp;
 145:.\moisture_measurement/cb_logging.c ****     
 146:.\moisture_measurement/cb_logging.c ****     EEPROM_1_Start() ;
ARM GAS  C:\Users\glenn\AppData\Local\Temp\ccVG9cHs.s 			page 10


 364              		.loc 1 146 0
 365 000e FFF7FEFF 		bl	EEPROM_1_Start
 147:.\moisture_measurement/cb_logging.c ****     EEPROM_1_UpdateTemperature();
 366              		.loc 1 147 0
 367 0012 FFF7FEFF 		bl	EEPROM_1_UpdateTemperature
 148:.\moisture_measurement/cb_logging.c ****     initialize_shaddow_ram_buffer();  
 368              		.loc 1 148 0
 369 0016 FFF7FEFF 		bl	initialize_shaddow_ram_buffer
 149:.\moisture_measurement/cb_logging.c ****     store_modbus_data_registers( LOGGING_RATE  , 1,(uint16 *) &sampling_interval );  
 370              		.loc 1 149 0
 371 001a 2120     		movs	r0, #33
 372 001c 0121     		movs	r1, #1
 373 001e 0D4A     		ldr	r2, .L25
 374 0020 FFF7FEFF 		bl	store_modbus_data_registers
 150:.\moisture_measurement/cb_logging.c ****     store_modbus_data_registers( MOISTURE_SENSOR_1_CONFIGURATION , sizeof(moisture_configuration_da
 375              		.loc 1 150 0
 376 0024 5020     		movs	r0, #80
 377 0026 1021     		movs	r1, #16
 378 0028 0B4A     		ldr	r2, .L25+4
 379 002a FFF7FEFF 		bl	store_modbus_data_registers
 151:.\moisture_measurement/cb_logging.c ****     temp = 0;
 380              		.loc 1 151 0
 381 002e 0023     		movs	r3, #0
 382 0030 FB82     		strh	r3, [r7, #22]	@ movhi
 152:.\moisture_measurement/cb_logging.c ****     store_modbus_data_registers( LOGGING_INDEX, 1, (uint16 *) &temp ); 
 383              		.loc 1 152 0
 384 0032 07F11603 		add	r3, r7, #22
 385 0036 2020     		movs	r0, #32
 386 0038 0121     		movs	r1, #1
 387 003a 1A46     		mov	r2, r3
 388 003c FFF7FEFF 		bl	store_modbus_data_registers
 153:.\moisture_measurement/cb_logging.c ****     initialize_eeprom_logging( MOISTURE_SENSOR_NUMBER, sampling_interval );
 389              		.loc 1 153 0
 390 0040 0223     		movs	r3, #2
 391 0042 1020     		movs	r0, #16
 392 0044 1946     		mov	r1, r3
 393 0046 FFF7FEFF 		bl	initialize_eeprom_logging
 154:.\moisture_measurement/cb_logging.c ****     return 0;
 394              		.loc 1 154 0
 395 004a 0023     		movs	r3, #0
 155:.\moisture_measurement/cb_logging.c **** 
 156:.\moisture_measurement/cb_logging.c **** }
 396              		.loc 1 156 0
 397 004c 1846     		mov	r0, r3
 398 004e 1837     		adds	r7, r7, #24
 399              		.cfi_def_cfa_offset 8
 400 0050 BD46     		mov	sp, r7
 401              		.cfi_def_cfa_register 13
 402              		@ sp needed
 403 0052 80BD     		pop	{r7, pc}
 404              	.L26:
 405              		.align	2
 406              	.L25:
 407 0054 00000000 		.word	sampling_interval
 408 0058 00000000 		.word	moisture_configuration_data
 409              		.cfi_endproc
 410              	.LFE70:
ARM GAS  C:\Users\glenn\AppData\Local\Temp\ccVG9cHs.s 			page 11


 411              		.size	enable_eeprom, .-enable_eeprom
 412              		.section	.text.update_reference_resistor_configuration,"ax",%progbits
 413              		.align	2
 414              		.global	update_reference_resistor_configuration
 415              		.thumb
 416              		.thumb_func
 417              		.type	update_reference_resistor_configuration, %function
 418              	update_reference_resistor_configuration:
 419              	.LFB71:
 157:.\moisture_measurement/cb_logging.c **** 
 158:.\moisture_measurement/cb_logging.c **** int update_reference_resistor_configuration(unsigned link_id, unsigned param_1,
 159:.\moisture_measurement/cb_logging.c ****   unsigned param_2, unsigned param_3, unsigned event, unsigned data)
 160:.\moisture_measurement/cb_logging.c **** {
 420              		.loc 1 160 0
 421              		.cfi_startproc
 422              		@ args = 8, pretend = 0, frame = 24
 423              		@ frame_needed = 1, uses_anonymous_args = 0
 424 0000 80B5     		push	{r7, lr}
 425              		.cfi_def_cfa_offset 8
 426              		.cfi_offset 7, -8
 427              		.cfi_offset 14, -4
 428 0002 86B0     		sub	sp, sp, #24
 429              		.cfi_def_cfa_offset 32
 430 0004 00AF     		add	r7, sp, #0
 431              		.cfi_def_cfa_register 7
 432 0006 F860     		str	r0, [r7, #12]
 433 0008 B960     		str	r1, [r7, #8]
 434 000a 7A60     		str	r2, [r7, #4]
 435 000c 3B60     		str	r3, [r7]
 161:.\moisture_measurement/cb_logging.c ****     const uint16 *modbus_address;
 162:.\moisture_measurement/cb_logging.c ****     uint8 *buffer;
 163:.\moisture_measurement/cb_logging.c ****     CyGlobalIntDisable
 436              		.loc 1 163 0
 437              	@ 163 ".\moisture_measurement\cb_logging.c" 1
 438 000e 72B6     		CPSID   i
 439              	@ 0 "" 2
 164:.\moisture_measurement/cb_logging.c ****     modbus_address = get_modbus_register_address();
 440              		.loc 1 164 0
 441              		.thumb
 442 0010 FFF7FEFF 		bl	get_modbus_register_address
 443 0014 7861     		str	r0, [r7, #20]
 165:.\moisture_measurement/cb_logging.c ****     buffer = (uint8 *)&modbus_address[REFERENCE_RESISTOR_1_FLOAT];
 444              		.loc 1 165 0
 445 0016 7B69     		ldr	r3, [r7, #20]
 446 0018 DC33     		adds	r3, r3, #220
 447 001a 3B61     		str	r3, [r7, #16]
 166:.\moisture_measurement/cb_logging.c ****     //cystatus Em_EEPROM_1_Write(const uint8 srcBuf[], const uint8 eepromPtr[], uint32 byteCount);
 167:.\moisture_measurement/cb_logging.c ****     Em_EEPROM_1_Write((uint8 *) reference_resistance_array,buffer, sizeof(reference_resistance_arra
 448              		.loc 1 167 0
 449 001c 0548     		ldr	r0, .L29
 450 001e 3969     		ldr	r1, [r7, #16]
 451 0020 4022     		movs	r2, #64
 452 0022 FFF7FEFF 		bl	Em_EEPROM_1_Write
 168:.\moisture_measurement/cb_logging.c ****     CYGlobalIntEnable
 453              		.loc 1 168 0
 454              	@ 168 ".\moisture_measurement\cb_logging.c" 1
 455 0026 62B6     		CPSIE   i
ARM GAS  C:\Users\glenn\AppData\Local\Temp\ccVG9cHs.s 			page 12


 456              	@ 0 "" 2
 169:.\moisture_measurement/cb_logging.c ****     return 1;
 457              		.loc 1 169 0
 458              		.thumb
 459 0028 0123     		movs	r3, #1
 170:.\moisture_measurement/cb_logging.c **** }
 460              		.loc 1 170 0
 461 002a 1846     		mov	r0, r3
 462 002c 1837     		adds	r7, r7, #24
 463              		.cfi_def_cfa_offset 8
 464 002e BD46     		mov	sp, r7
 465              		.cfi_def_cfa_register 13
 466              		@ sp needed
 467 0030 80BD     		pop	{r7, pc}
 468              	.L30:
 469 0032 00BF     		.align	2
 470              	.L29:
 471 0034 00000000 		.word	reference_resistance_array
 472              		.cfi_endproc
 473              	.LFE71:
 474              		.size	update_reference_resistor_configuration, .-update_reference_resistor_configuration
 475              		.section	.text.update_moisture_configuration,"ax",%progbits
 476              		.align	2
 477              		.global	update_moisture_configuration
 478              		.thumb
 479              		.thumb_func
 480              		.type	update_moisture_configuration, %function
 481              	update_moisture_configuration:
 482              	.LFB72:
 171:.\moisture_measurement/cb_logging.c **** 
 172:.\moisture_measurement/cb_logging.c **** int update_moisture_configuration(unsigned link_id, unsigned param_1,
 173:.\moisture_measurement/cb_logging.c ****   unsigned param_2, unsigned param_3, unsigned event, unsigned data)
 174:.\moisture_measurement/cb_logging.c **** {
 483              		.loc 1 174 0
 484              		.cfi_startproc
 485              		@ args = 8, pretend = 0, frame = 24
 486              		@ frame_needed = 1, uses_anonymous_args = 0
 487 0000 80B5     		push	{r7, lr}
 488              		.cfi_def_cfa_offset 8
 489              		.cfi_offset 7, -8
 490              		.cfi_offset 14, -4
 491 0002 86B0     		sub	sp, sp, #24
 492              		.cfi_def_cfa_offset 32
 493 0004 00AF     		add	r7, sp, #0
 494              		.cfi_def_cfa_register 7
 495 0006 F860     		str	r0, [r7, #12]
 496 0008 B960     		str	r1, [r7, #8]
 497 000a 7A60     		str	r2, [r7, #4]
 498 000c 3B60     		str	r3, [r7]
 175:.\moisture_measurement/cb_logging.c ****     const uint16 *modbus_address;
 176:.\moisture_measurement/cb_logging.c ****     uint8 *buffer;
 177:.\moisture_measurement/cb_logging.c ****     CyGlobalIntDisable
 499              		.loc 1 177 0
 500              	@ 177 ".\moisture_measurement\cb_logging.c" 1
 501 000e 72B6     		CPSID   i
 502              	@ 0 "" 2
 178:.\moisture_measurement/cb_logging.c ****     modbus_address = get_modbus_register_address();
ARM GAS  C:\Users\glenn\AppData\Local\Temp\ccVG9cHs.s 			page 13


 503              		.loc 1 178 0
 504              		.thumb
 505 0010 FFF7FEFF 		bl	get_modbus_register_address
 506 0014 7861     		str	r0, [r7, #20]
 179:.\moisture_measurement/cb_logging.c ****     buffer = (uint8 *)&modbus_address[MOISTURE_SENSOR_1_CONFIGURATION];
 507              		.loc 1 179 0
 508 0016 7B69     		ldr	r3, [r7, #20]
 509 0018 A033     		adds	r3, r3, #160
 510 001a 3B61     		str	r3, [r7, #16]
 180:.\moisture_measurement/cb_logging.c ****     //cystatus Em_EEPROM_1_Write(const uint8 srcBuf[], const uint8 eepromPtr[], uint32 byteCount);
 181:.\moisture_measurement/cb_logging.c ****     Em_EEPROM_1_Write((uint8 *) moisture_configuration_data,buffer, sizeof(moisture_configuration_d
 511              		.loc 1 181 0
 512 001c 0548     		ldr	r0, .L33
 513 001e 3969     		ldr	r1, [r7, #16]
 514 0020 2022     		movs	r2, #32
 515 0022 FFF7FEFF 		bl	Em_EEPROM_1_Write
 182:.\moisture_measurement/cb_logging.c ****     CYGlobalIntEnable
 516              		.loc 1 182 0
 517              	@ 182 ".\moisture_measurement\cb_logging.c" 1
 518 0026 62B6     		CPSIE   i
 519              	@ 0 "" 2
 183:.\moisture_measurement/cb_logging.c ****     return 1;
 520              		.loc 1 183 0
 521              		.thumb
 522 0028 0123     		movs	r3, #1
 184:.\moisture_measurement/cb_logging.c **** }
 523              		.loc 1 184 0
 524 002a 1846     		mov	r0, r3
 525 002c 1837     		adds	r7, r7, #24
 526              		.cfi_def_cfa_offset 8
 527 002e BD46     		mov	sp, r7
 528              		.cfi_def_cfa_register 13
 529              		@ sp needed
 530 0030 80BD     		pop	{r7, pc}
 531              	.L34:
 532 0032 00BF     		.align	2
 533              	.L33:
 534 0034 00000000 		.word	moisture_configuration_data
 535              		.cfi_endproc
 536              	.LFE72:
 537              		.size	update_moisture_configuration, .-update_moisture_configuration
 538              		.section	.text.update_temperature_configuration,"ax",%progbits
 539              		.align	2
 540              		.global	update_temperature_configuration
 541              		.thumb
 542              		.thumb_func
 543              		.type	update_temperature_configuration, %function
 544              	update_temperature_configuration:
 545              	.LFB73:
 185:.\moisture_measurement/cb_logging.c **** 
 186:.\moisture_measurement/cb_logging.c **** 
 187:.\moisture_measurement/cb_logging.c **** 
 188:.\moisture_measurement/cb_logging.c **** int update_temperature_configuration(unsigned link_id, unsigned param_1,
 189:.\moisture_measurement/cb_logging.c ****   unsigned param_2, unsigned param_3, unsigned event, unsigned data)
 190:.\moisture_measurement/cb_logging.c **** {
 546              		.loc 1 190 0
 547              		.cfi_startproc
ARM GAS  C:\Users\glenn\AppData\Local\Temp\ccVG9cHs.s 			page 14


 548              		@ args = 8, pretend = 0, frame = 24
 549              		@ frame_needed = 1, uses_anonymous_args = 0
 550 0000 80B5     		push	{r7, lr}
 551              		.cfi_def_cfa_offset 8
 552              		.cfi_offset 7, -8
 553              		.cfi_offset 14, -4
 554 0002 86B0     		sub	sp, sp, #24
 555              		.cfi_def_cfa_offset 32
 556 0004 00AF     		add	r7, sp, #0
 557              		.cfi_def_cfa_register 7
 558 0006 F860     		str	r0, [r7, #12]
 559 0008 B960     		str	r1, [r7, #8]
 560 000a 7A60     		str	r2, [r7, #4]
 561 000c 3B60     		str	r3, [r7]
 191:.\moisture_measurement/cb_logging.c ****     const uint16 *modbus_address;
 192:.\moisture_measurement/cb_logging.c ****     uint8 *buffer;
 193:.\moisture_measurement/cb_logging.c ****     CyGlobalIntDisable
 562              		.loc 1 193 0
 563              	@ 193 ".\moisture_measurement\cb_logging.c" 1
 564 000e 72B6     		CPSID   i
 565              	@ 0 "" 2
 194:.\moisture_measurement/cb_logging.c ****     modbus_address = get_modbus_register_address();
 566              		.loc 1 194 0
 567              		.thumb
 568 0010 FFF7FEFF 		bl	get_modbus_register_address
 569 0014 7861     		str	r0, [r7, #20]
 195:.\moisture_measurement/cb_logging.c ****     buffer = (uint8 *)&modbus_address[MOISTURE_TEMP_CALIBRATION_A];
 570              		.loc 1 195 0
 571 0016 7B69     		ldr	r3, [r7, #20]
 572 0018 C833     		adds	r3, r3, #200
 573 001a 3B61     		str	r3, [r7, #16]
 196:.\moisture_measurement/cb_logging.c ****     //cystatus Em_EEPROM_1_Write(const uint8 srcBuf[], const uint8 eepromPtr[], uint32 byteCount);
 197:.\moisture_measurement/cb_logging.c ****     Em_EEPROM_1_Write((uint8 *) temperature_calibration_factors,buffer, sizeof(temperature_calibrat
 574              		.loc 1 197 0
 575 001c 0548     		ldr	r0, .L37
 576 001e 3969     		ldr	r1, [r7, #16]
 577 0020 0822     		movs	r2, #8
 578 0022 FFF7FEFF 		bl	Em_EEPROM_1_Write
 198:.\moisture_measurement/cb_logging.c ****     CYGlobalIntEnable
 579              		.loc 1 198 0
 580              	@ 198 ".\moisture_measurement\cb_logging.c" 1
 581 0026 62B6     		CPSIE   i
 582              	@ 0 "" 2
 199:.\moisture_measurement/cb_logging.c ****     return 1;
 583              		.loc 1 199 0
 584              		.thumb
 585 0028 0123     		movs	r3, #1
 200:.\moisture_measurement/cb_logging.c **** }
 586              		.loc 1 200 0
 587 002a 1846     		mov	r0, r3
 588 002c 1837     		adds	r7, r7, #24
 589              		.cfi_def_cfa_offset 8
 590 002e BD46     		mov	sp, r7
 591              		.cfi_def_cfa_register 13
 592              		@ sp needed
 593 0030 80BD     		pop	{r7, pc}
 594              	.L38:
ARM GAS  C:\Users\glenn\AppData\Local\Temp\ccVG9cHs.s 			page 15


 595 0032 00BF     		.align	2
 596              	.L37:
 597 0034 00000000 		.word	temperature_calibration_factors
 598              		.cfi_endproc
 599              	.LFE73:
 600              		.size	update_temperature_configuration, .-update_temperature_configuration
 601              		.section	.text.update_measurement_rate,"ax",%progbits
 602              		.align	2
 603              		.global	update_measurement_rate
 604              		.thumb
 605              		.thumb_func
 606              		.type	update_measurement_rate, %function
 607              	update_measurement_rate:
 608              	.LFB74:
 201:.\moisture_measurement/cb_logging.c **** 
 202:.\moisture_measurement/cb_logging.c **** 
 203:.\moisture_measurement/cb_logging.c **** int update_measurement_rate(unsigned link_id, unsigned param_1,
 204:.\moisture_measurement/cb_logging.c ****   unsigned param_2, unsigned param_3, unsigned event, unsigned data)
 205:.\moisture_measurement/cb_logging.c **** {
 609              		.loc 1 205 0
 610              		.cfi_startproc
 611              		@ args = 8, pretend = 0, frame = 24
 612              		@ frame_needed = 1, uses_anonymous_args = 0
 613 0000 80B5     		push	{r7, lr}
 614              		.cfi_def_cfa_offset 8
 615              		.cfi_offset 7, -8
 616              		.cfi_offset 14, -4
 617 0002 86B0     		sub	sp, sp, #24
 618              		.cfi_def_cfa_offset 32
 619 0004 00AF     		add	r7, sp, #0
 620              		.cfi_def_cfa_register 7
 621 0006 F860     		str	r0, [r7, #12]
 622 0008 B960     		str	r1, [r7, #8]
 623 000a 7A60     		str	r2, [r7, #4]
 624 000c 3B60     		str	r3, [r7]
 206:.\moisture_measurement/cb_logging.c **** 
 207:.\moisture_measurement/cb_logging.c ****     
 208:.\moisture_measurement/cb_logging.c ****     float data_float;
 209:.\moisture_measurement/cb_logging.c ****     data_float = data;
 625              		.loc 1 209 0
 626 000e 786A     		ldr	r0, [r7, #36]
 627 0010 FFF7FEFF 		bl	__aeabi_ui2f
 628 0014 0346     		mov	r3, r0
 629 0016 7B61     		str	r3, [r7, #20]	@ float
 210:.\moisture_measurement/cb_logging.c ****    
 211:.\moisture_measurement/cb_logging.c ****     write_32_eeprom(  EEPROM_SAMPLING_RATE, data_float );
 630              		.loc 1 211 0
 631 0018 0820     		movs	r0, #8
 632 001a 7969     		ldr	r1, [r7, #20]	@ float
 633 001c FFF7FEFF 		bl	write_32_eeprom
 212:.\moisture_measurement/cb_logging.c ****     return 0;
 634              		.loc 1 212 0
 635 0020 0023     		movs	r3, #0
 213:.\moisture_measurement/cb_logging.c **** }
 636              		.loc 1 213 0
 637 0022 1846     		mov	r0, r3
 638 0024 1837     		adds	r7, r7, #24
ARM GAS  C:\Users\glenn\AppData\Local\Temp\ccVG9cHs.s 			page 16


 639              		.cfi_def_cfa_offset 8
 640 0026 BD46     		mov	sp, r7
 641              		.cfi_def_cfa_register 13
 642              		@ sp needed
 643 0028 80BD     		pop	{r7, pc}
 644              		.cfi_endproc
 645              	.LFE74:
 646              		.size	update_measurement_rate, .-update_measurement_rate
 647 002a 00BF     		.section	.text.initialize_eeprom_logging,"ax",%progbits
 648              		.align	2
 649              		.global	initialize_eeprom_logging
 650              		.thumb
 651              		.thumb_func
 652              		.type	initialize_eeprom_logging, %function
 653              	initialize_eeprom_logging:
 654              	.LFB75:
 214:.\moisture_measurement/cb_logging.c **** 
 215:.\moisture_measurement/cb_logging.c **** 
 216:.\moisture_measurement/cb_logging.c **** 
 217:.\moisture_measurement/cb_logging.c **** 
 218:.\moisture_measurement/cb_logging.c **** 
 219:.\moisture_measurement/cb_logging.c **** 
 220:.\moisture_measurement/cb_logging.c **** void initialize_eeprom_logging( uint32 number_of_sensors, uint32 sample_time_interval )
 221:.\moisture_measurement/cb_logging.c **** {
 655              		.loc 1 221 0
 656              		.cfi_startproc
 657              		@ args = 0, pretend = 0, frame = 32
 658              		@ frame_needed = 1, uses_anonymous_args = 0
 659 0000 80B5     		push	{r7, lr}
 660              		.cfi_def_cfa_offset 8
 661              		.cfi_offset 7, -8
 662              		.cfi_offset 14, -4
 663 0002 88B0     		sub	sp, sp, #32
 664              		.cfi_def_cfa_offset 40
 665 0004 00AF     		add	r7, sp, #0
 666              		.cfi_def_cfa_register 7
 667 0006 7860     		str	r0, [r7, #4]
 668 0008 3960     		str	r1, [r7]
 222:.\moisture_measurement/cb_logging.c ****     // Start up EEPROM
 223:.\moisture_measurement/cb_logging.c ****     float zero;
 224:.\moisture_measurement/cb_logging.c ****     float init_value;
 225:.\moisture_measurement/cb_logging.c ****     float max_log_number;
 226:.\moisture_measurement/cb_logging.c ****     float sample_time_float;
 227:.\moisture_measurement/cb_logging.c ****     float number_of_sensors_float;
 228:.\moisture_measurement/cb_logging.c ****     int   validate_flag;
 229:.\moisture_measurement/cb_logging.c ****    
 230:.\moisture_measurement/cb_logging.c ****     
 231:.\moisture_measurement/cb_logging.c ****     sample_time_float = sample_time_interval;
 669              		.loc 1 231 0
 670 000a 3868     		ldr	r0, [r7]
 671 000c FFF7FEFF 		bl	__aeabi_ui2f
 672 0010 0346     		mov	r3, r0
 673 0012 FB61     		str	r3, [r7, #28]	@ float
 232:.\moisture_measurement/cb_logging.c ****     number_of_sensors_float = number_of_sensors;
 674              		.loc 1 232 0
 675 0014 7868     		ldr	r0, [r7, #4]
 676 0016 FFF7FEFF 		bl	__aeabi_ui2f
ARM GAS  C:\Users\glenn\AppData\Local\Temp\ccVG9cHs.s 			page 17


 677 001a 0346     		mov	r3, r0
 678 001c BB61     		str	r3, [r7, #24]	@ float
 233:.\moisture_measurement/cb_logging.c ****     
 234:.\moisture_measurement/cb_logging.c ****     
 235:.\moisture_measurement/cb_logging.c ****     
 236:.\moisture_measurement/cb_logging.c ****     max_log_number = ( EEPROM_1_EEPROM_SIZE - EEPROM_LOG_DATA_START_INDEX)/( number_of_sensors * 4 
 679              		.loc 1 236 0
 680 001e 7B68     		ldr	r3, [r7, #4]
 681 0020 9B00     		lsls	r3, r3, #2
 682 0022 40F2EC72 		movw	r2, #2028
 683 0026 B2FBF3F3 		udiv	r3, r2, r3
 684 002a 1846     		mov	r0, r3
 685 002c FFF7FEFF 		bl	__aeabi_ui2f
 686 0030 0346     		mov	r3, r0
 687 0032 7B61     		str	r3, [r7, #20]	@ float
 237:.\moisture_measurement/cb_logging.c ****     validate_flag = validate_eeprom();
 688              		.loc 1 237 0
 689 0034 FFF7FEFF 		bl	validate_eeprom
 690 0038 3861     		str	r0, [r7, #16]
 238:.\moisture_measurement/cb_logging.c ****     if( validate_flag == 0 )
 691              		.loc 1 238 0
 692 003a 3B69     		ldr	r3, [r7, #16]
 693 003c 002B     		cmp	r3, #0
 694 003e 18D1     		bne	.L41
 239:.\moisture_measurement/cb_logging.c ****     {
 240:.\moisture_measurement/cb_logging.c ****    
 241:.\moisture_measurement/cb_logging.c ****         init_value = EEPROM_INITIALIZATION_VALUE;
 695              		.loc 1 241 0
 696 0040 0D4B     		ldr	r3, .L43
 697 0042 FB60     		str	r3, [r7, #12]	@ float
 242:.\moisture_measurement/cb_logging.c ****         zero = 0;
 698              		.loc 1 242 0
 699 0044 4FF00003 		mov	r3, #0
 700 0048 BB60     		str	r3, [r7, #8]	@ float
 243:.\moisture_measurement/cb_logging.c ****         write_32_eeprom( EEPROM_INITIALIZATION_INDEX, init_value );
 701              		.loc 1 243 0
 702 004a 0020     		movs	r0, #0
 703 004c F968     		ldr	r1, [r7, #12]	@ float
 704 004e FFF7FEFF 		bl	write_32_eeprom
 244:.\moisture_measurement/cb_logging.c ****        
 245:.\moisture_measurement/cb_logging.c ****         write_32_eeprom( EEPROM_NUMBER_OF_ENTRIES, number_of_sensors_float );
 705              		.loc 1 245 0
 706 0052 0420     		movs	r0, #4
 707 0054 B969     		ldr	r1, [r7, #24]	@ float
 708 0056 FFF7FEFF 		bl	write_32_eeprom
 246:.\moisture_measurement/cb_logging.c ****         write_32_eeprom( EEPROM_SAMPLING_RATE, sample_time_float );
 709              		.loc 1 246 0
 710 005a 0820     		movs	r0, #8
 711 005c F969     		ldr	r1, [r7, #28]	@ float
 712 005e FFF7FEFF 		bl	write_32_eeprom
 247:.\moisture_measurement/cb_logging.c ****         write_32_eeprom( EEPROM_LOGGING_INDEX,  zero );
 713              		.loc 1 247 0
 714 0062 0C20     		movs	r0, #12
 715 0064 B968     		ldr	r1, [r7, #8]	@ float
 716 0066 FFF7FEFF 		bl	write_32_eeprom
 248:.\moisture_measurement/cb_logging.c ****         write_32_eeprom( EEPROM_MAX_NUMBER_OF_ENTRIES, max_log_number );
 717              		.loc 1 248 0
ARM GAS  C:\Users\glenn\AppData\Local\Temp\ccVG9cHs.s 			page 18


 718 006a 1020     		movs	r0, #16
 719 006c 7969     		ldr	r1, [r7, #20]	@ float
 720 006e FFF7FEFF 		bl	write_32_eeprom
 721              	.L41:
 249:.\moisture_measurement/cb_logging.c ****     }
 250:.\moisture_measurement/cb_logging.c **** }
 722              		.loc 1 250 0
 723 0072 2037     		adds	r7, r7, #32
 724              		.cfi_def_cfa_offset 8
 725 0074 BD46     		mov	sp, r7
 726              		.cfi_def_cfa_register 13
 727              		@ sp needed
 728 0076 80BD     		pop	{r7, pc}
 729              	.L44:
 730              		.align	2
 731              	.L43:
 732 0078 67550542 		.word	1107645799
 733              		.cfi_endproc
 734              	.LFE75:
 735              		.size	initialize_eeprom_logging, .-initialize_eeprom_logging
 736              		.section	.text.log_data,"ax",%progbits
 737              		.align	2
 738              		.global	log_data
 739              		.thumb
 740              		.thumb_func
 741              		.type	log_data, %function
 742              	log_data:
 743              	.LFB76:
 251:.\moisture_measurement/cb_logging.c **** 
 252:.\moisture_measurement/cb_logging.c **** void log_data( uint32 sensor_position, float value )
 253:.\moisture_measurement/cb_logging.c **** {
 744              		.loc 1 253 0
 745              		.cfi_startproc
 746              		@ args = 0, pretend = 0, frame = 24
 747              		@ frame_needed = 1, uses_anonymous_args = 0
 748 0000 80B5     		push	{r7, lr}
 749              		.cfi_def_cfa_offset 8
 750              		.cfi_offset 7, -8
 751              		.cfi_offset 14, -4
 752 0002 86B0     		sub	sp, sp, #24
 753              		.cfi_def_cfa_offset 32
 754 0004 00AF     		add	r7, sp, #0
 755              		.cfi_def_cfa_register 7
 756 0006 7860     		str	r0, [r7, #4]
 757 0008 3960     		str	r1, [r7]	@ float
 254:.\moisture_measurement/cb_logging.c ****     uint32 number_of_sensors;
 255:.\moisture_measurement/cb_logging.c ****     uint32 logging_index;
 256:.\moisture_measurement/cb_logging.c ****     uint32 position_index;
 257:.\moisture_measurement/cb_logging.c ****     if( validate_eeprom() )
 758              		.loc 1 257 0
 759 000a FFF7FEFF 		bl	validate_eeprom
 760 000e 0346     		mov	r3, r0
 761 0010 002B     		cmp	r3, #0
 762 0012 23D0     		beq	.L45
 258:.\moisture_measurement/cb_logging.c ****     {
 259:.\moisture_measurement/cb_logging.c ****          number_of_sensors = read_32_eeprom( EEPROM_NUMBER_OF_ENTRIES );
 763              		.loc 1 259 0
ARM GAS  C:\Users\glenn\AppData\Local\Temp\ccVG9cHs.s 			page 19


 764 0014 0420     		movs	r0, #4
 765 0016 FFF7FEFF 		bl	read_32_eeprom
 766 001a 0346     		mov	r3, r0
 767 001c 1846     		mov	r0, r3
 768 001e FFF7FEFF 		bl	__aeabi_f2uiz
 769 0022 0346     		mov	r3, r0
 770 0024 7B61     		str	r3, [r7, #20]
 260:.\moisture_measurement/cb_logging.c ****          if( sensor_position < number_of_sensors )
 771              		.loc 1 260 0
 772 0026 7A68     		ldr	r2, [r7, #4]
 773 0028 7B69     		ldr	r3, [r7, #20]
 774 002a 9A42     		cmp	r2, r3
 775 002c 16D2     		bcs	.L45
 261:.\moisture_measurement/cb_logging.c ****          {
 262:.\moisture_measurement/cb_logging.c ****              logging_index = read_32_eeprom( EEPROM_LOGGING_INDEX );
 776              		.loc 1 262 0
 777 002e 0C20     		movs	r0, #12
 778 0030 FFF7FEFF 		bl	read_32_eeprom
 779 0034 0346     		mov	r3, r0
 780 0036 1846     		mov	r0, r3
 781 0038 FFF7FEFF 		bl	__aeabi_f2uiz
 782 003c 0346     		mov	r3, r0
 783 003e 3B61     		str	r3, [r7, #16]
 263:.\moisture_measurement/cb_logging.c ****              position_index = EEPROM_LOG_DATA_START_INDEX  + ( number_of_sensors *4*logging_index )
 784              		.loc 1 263 0
 785 0040 7B69     		ldr	r3, [r7, #20]
 786 0042 3A69     		ldr	r2, [r7, #16]
 787 0044 02FB03F2 		mul	r2, r2, r3
 788 0048 7B68     		ldr	r3, [r7, #4]
 789 004a 1344     		add	r3, r3, r2
 790 004c 0533     		adds	r3, r3, #5
 791 004e 9B00     		lsls	r3, r3, #2
 792 0050 FB60     		str	r3, [r7, #12]
 264:.\moisture_measurement/cb_logging.c ****              write_32_eeprom( position_index , value );
 793              		.loc 1 264 0
 794 0052 FB68     		ldr	r3, [r7, #12]
 795 0054 1846     		mov	r0, r3
 796 0056 3968     		ldr	r1, [r7]	@ float
 797 0058 FFF7FEFF 		bl	write_32_eeprom
 798              	.L45:
 265:.\moisture_measurement/cb_logging.c ****          }
 266:.\moisture_measurement/cb_logging.c ****     }
 267:.\moisture_measurement/cb_logging.c **** }
 799              		.loc 1 267 0
 800 005c 1837     		adds	r7, r7, #24
 801              		.cfi_def_cfa_offset 8
 802 005e BD46     		mov	sp, r7
 803              		.cfi_def_cfa_register 13
 804              		@ sp needed
 805 0060 80BD     		pop	{r7, pc}
 806              		.cfi_endproc
 807              	.LFE76:
 808              		.size	log_data, .-log_data
 809 0062 00BF     		.section	.text.advance_index,"ax",%progbits
 810              		.align	2
 811              		.global	advance_index
 812              		.thumb
ARM GAS  C:\Users\glenn\AppData\Local\Temp\ccVG9cHs.s 			page 20


 813              		.thumb_func
 814              		.type	advance_index, %function
 815              	advance_index:
 816              	.LFB77:
 268:.\moisture_measurement/cb_logging.c ****        
 269:.\moisture_measurement/cb_logging.c **** void advance_index( void )
 270:.\moisture_measurement/cb_logging.c **** {
 817              		.loc 1 270 0
 818              		.cfi_startproc
 819              		@ args = 0, pretend = 0, frame = 16
 820              		@ frame_needed = 1, uses_anonymous_args = 0
 821 0000 80B5     		push	{r7, lr}
 822              		.cfi_def_cfa_offset 8
 823              		.cfi_offset 7, -8
 824              		.cfi_offset 14, -4
 825 0002 84B0     		sub	sp, sp, #16
 826              		.cfi_def_cfa_offset 24
 827 0004 00AF     		add	r7, sp, #0
 828              		.cfi_def_cfa_register 7
 271:.\moisture_measurement/cb_logging.c ****     uint32 log_index;
 272:.\moisture_measurement/cb_logging.c ****     uint32 max_index;
 273:.\moisture_measurement/cb_logging.c ****     float  log_index_float;
 274:.\moisture_measurement/cb_logging.c ****     log_index = 0; // remove warning
 829              		.loc 1 274 0
 830 0006 0023     		movs	r3, #0
 831 0008 FB60     		str	r3, [r7, #12]
 275:.\moisture_measurement/cb_logging.c ****     max_index = 0; // remove warning
 832              		.loc 1 275 0
 833 000a 0023     		movs	r3, #0
 834 000c BB60     		str	r3, [r7, #8]
 276:.\moisture_measurement/cb_logging.c ****     if( validate_eeprom() )
 835              		.loc 1 276 0
 836 000e FFF7FEFF 		bl	validate_eeprom
 837 0012 0346     		mov	r3, r0
 838 0014 002B     		cmp	r3, #0
 839 0016 20D0     		beq	.L47
 277:.\moisture_measurement/cb_logging.c ****     {
 278:.\moisture_measurement/cb_logging.c ****         
 279:.\moisture_measurement/cb_logging.c ****        log_index = read_32_eeprom( EEPROM_LOGGING_INDEX);
 840              		.loc 1 279 0
 841 0018 0C20     		movs	r0, #12
 842 001a FFF7FEFF 		bl	read_32_eeprom
 843 001e 0346     		mov	r3, r0
 844 0020 1846     		mov	r0, r3
 845 0022 FFF7FEFF 		bl	__aeabi_f2uiz
 846 0026 0346     		mov	r3, r0
 847 0028 FB60     		str	r3, [r7, #12]
 280:.\moisture_measurement/cb_logging.c ****        max_index = read_32_eeprom(EEPROM_MAX_NUMBER_OF_ENTRIES );
 848              		.loc 1 280 0
 849 002a 1020     		movs	r0, #16
 850 002c FFF7FEFF 		bl	read_32_eeprom
 851 0030 0346     		mov	r3, r0
 852 0032 1846     		mov	r0, r3
 853 0034 FFF7FEFF 		bl	__aeabi_f2uiz
 854 0038 0346     		mov	r3, r0
 855 003a BB60     		str	r3, [r7, #8]
 281:.\moisture_measurement/cb_logging.c ****        log_index_float = log_index +1;
ARM GAS  C:\Users\glenn\AppData\Local\Temp\ccVG9cHs.s 			page 21


 856              		.loc 1 281 0
 857 003c FB68     		ldr	r3, [r7, #12]
 858 003e 0133     		adds	r3, r3, #1
 859 0040 1846     		mov	r0, r3
 860 0042 FFF7FEFF 		bl	__aeabi_ui2f
 861 0046 0346     		mov	r3, r0
 862 0048 7B60     		str	r3, [r7, #4]	@ float
 282:.\moisture_measurement/cb_logging.c ****        if( log_index < max_index )
 863              		.loc 1 282 0
 864 004a FA68     		ldr	r2, [r7, #12]
 865 004c BB68     		ldr	r3, [r7, #8]
 866 004e 9A42     		cmp	r2, r3
 867 0050 03D2     		bcs	.L47
 283:.\moisture_measurement/cb_logging.c ****        {
 284:.\moisture_measurement/cb_logging.c ****           write_32_eeprom(  EEPROM_LOGGING_INDEX,  log_index_float);
 868              		.loc 1 284 0
 869 0052 0C20     		movs	r0, #12
 870 0054 7968     		ldr	r1, [r7, #4]	@ float
 871 0056 FFF7FEFF 		bl	write_32_eeprom
 872              	.L47:
 285:.\moisture_measurement/cb_logging.c ****         
 286:.\moisture_measurement/cb_logging.c ****        }
 287:.\moisture_measurement/cb_logging.c ****     }
 288:.\moisture_measurement/cb_logging.c **** }
 873              		.loc 1 288 0
 874 005a 1037     		adds	r7, r7, #16
 875              		.cfi_def_cfa_offset 8
 876 005c BD46     		mov	sp, r7
 877              		.cfi_def_cfa_register 13
 878              		@ sp needed
 879 005e 80BD     		pop	{r7, pc}
 880              		.cfi_endproc
 881              	.LFE77:
 882              		.size	advance_index, .-advance_index
 883              		.section	.text.get_modbus_eeprom_registers,"ax",%progbits
 884              		.align	2
 885              		.global	get_modbus_eeprom_registers
 886              		.thumb
 887              		.thumb_func
 888              		.type	get_modbus_eeprom_registers, %function
 889              	get_modbus_eeprom_registers:
 890              	.LFB78:
 289:.\moisture_measurement/cb_logging.c **** 
 290:.\moisture_measurement/cb_logging.c **** // this function treats eeprom as a 16 bit modbus registes
 291:.\moisture_measurement/cb_logging.c **** int get_modbus_eeprom_registers( unsigned starting_register, unsigned number, uint16 *out )
 292:.\moisture_measurement/cb_logging.c **** {
 891              		.loc 1 292 0
 892              		.cfi_startproc
 893              		@ args = 0, pretend = 0, frame = 24
 894              		@ frame_needed = 1, uses_anonymous_args = 0
 895 0000 80B5     		push	{r7, lr}
 896              		.cfi_def_cfa_offset 8
 897              		.cfi_offset 7, -8
 898              		.cfi_offset 14, -4
 899 0002 86B0     		sub	sp, sp, #24
 900              		.cfi_def_cfa_offset 32
 901 0004 00AF     		add	r7, sp, #0
ARM GAS  C:\Users\glenn\AppData\Local\Temp\ccVG9cHs.s 			page 22


 902              		.cfi_def_cfa_register 7
 903 0006 F860     		str	r0, [r7, #12]
 904 0008 B960     		str	r1, [r7, #8]
 905 000a 7A60     		str	r2, [r7, #4]
 293:.\moisture_measurement/cb_logging.c **** 
 294:.\moisture_measurement/cb_logging.c ****     int return_value;
 295:.\moisture_measurement/cb_logging.c ****       
 296:.\moisture_measurement/cb_logging.c ****     
 297:.\moisture_measurement/cb_logging.c ****     starting_register = starting_register*2;
 906              		.loc 1 297 0
 907 000c FB68     		ldr	r3, [r7, #12]
 908 000e 5B00     		lsls	r3, r3, #1
 909 0010 FB60     		str	r3, [r7, #12]
 298:.\moisture_measurement/cb_logging.c ****     number = number *sizeof(uint16)/sizeof(uint8);
 910              		.loc 1 298 0
 911 0012 BB68     		ldr	r3, [r7, #8]
 912 0014 5B00     		lsls	r3, r3, #1
 913 0016 BB60     		str	r3, [r7, #8]
 299:.\moisture_measurement/cb_logging.c **** 
 300:.\moisture_measurement/cb_logging.c ****     if( ( starting_register + number ) < EEPROM_1_EEPROM_SIZE )
 914              		.loc 1 300 0
 915 0018 FA68     		ldr	r2, [r7, #12]
 916 001a BB68     		ldr	r3, [r7, #8]
 917 001c 1344     		add	r3, r3, r2
 918 001e B3F5006F 		cmp	r3, #2048
 919 0022 0AD2     		bcs	.L50
 301:.\moisture_measurement/cb_logging.c ****     {
 302:.\moisture_measurement/cb_logging.c ****       memcpy( out, &shaddow_eeprom[starting_register], number );        
 920              		.loc 1 302 0
 921 0024 FB68     		ldr	r3, [r7, #12]
 922 0026 084A     		ldr	r2, .L53
 923 0028 1344     		add	r3, r3, r2
 924 002a 7868     		ldr	r0, [r7, #4]
 925 002c 1946     		mov	r1, r3
 926 002e BA68     		ldr	r2, [r7, #8]
 927 0030 FFF7FEFF 		bl	memcpy
 303:.\moisture_measurement/cb_logging.c ****       return_value = 1;
 928              		.loc 1 303 0
 929 0034 0123     		movs	r3, #1
 930 0036 7B61     		str	r3, [r7, #20]
 931 0038 01E0     		b	.L51
 932              	.L50:
 304:.\moisture_measurement/cb_logging.c ****         
 305:.\moisture_measurement/cb_logging.c ****     }
 306:.\moisture_measurement/cb_logging.c ****     else
 307:.\moisture_measurement/cb_logging.c ****     {
 308:.\moisture_measurement/cb_logging.c ****         return_value = 0;
 933              		.loc 1 308 0
 934 003a 0023     		movs	r3, #0
 935 003c 7B61     		str	r3, [r7, #20]
 936              	.L51:
 309:.\moisture_measurement/cb_logging.c ****     }
 310:.\moisture_measurement/cb_logging.c ****     return return_value;
 937              		.loc 1 310 0
 938 003e 7B69     		ldr	r3, [r7, #20]
 311:.\moisture_measurement/cb_logging.c **** }
 939              		.loc 1 311 0
ARM GAS  C:\Users\glenn\AppData\Local\Temp\ccVG9cHs.s 			page 23


 940 0040 1846     		mov	r0, r3
 941 0042 1837     		adds	r7, r7, #24
 942              		.cfi_def_cfa_offset 8
 943 0044 BD46     		mov	sp, r7
 944              		.cfi_def_cfa_register 13
 945              		@ sp needed
 946 0046 80BD     		pop	{r7, pc}
 947              	.L54:
 948              		.align	2
 949              	.L53:
 950 0048 00000000 		.word	shaddow_eeprom
 951              		.cfi_endproc
 952              	.LFE78:
 953              		.size	get_modbus_eeprom_registers, .-get_modbus_eeprom_registers
 954              		.section	.text.initialize_shaddow_ram_buffer,"ax",%progbits
 955              		.align	2
 956              		.thumb
 957              		.thumb_func
 958              		.type	initialize_shaddow_ram_buffer, %function
 959              	initialize_shaddow_ram_buffer:
 960              	.LFB79:
 312:.\moisture_measurement/cb_logging.c **** 
 313:.\moisture_measurement/cb_logging.c **** /*
 314:.\moisture_measurement/cb_logging.c **** **
 315:.\moisture_measurement/cb_logging.c **** **  Static Functions
 316:.\moisture_measurement/cb_logging.c **** **
 317:.\moisture_measurement/cb_logging.c **** **
 318:.\moisture_measurement/cb_logging.c **** **
 319:.\moisture_measurement/cb_logging.c **** */
 320:.\moisture_measurement/cb_logging.c **** 
 321:.\moisture_measurement/cb_logging.c **** static void initialize_shaddow_ram_buffer( void )
 322:.\moisture_measurement/cb_logging.c **** {
 961              		.loc 1 322 0
 962              		.cfi_startproc
 963              		@ args = 0, pretend = 0, frame = 8
 964              		@ frame_needed = 1, uses_anonymous_args = 0
 965 0000 80B5     		push	{r7, lr}
 966              		.cfi_def_cfa_offset 8
 967              		.cfi_offset 7, -8
 968              		.cfi_offset 14, -4
 969 0002 82B0     		sub	sp, sp, #8
 970              		.cfi_def_cfa_offset 16
 971 0004 00AF     		add	r7, sp, #0
 972              		.cfi_def_cfa_register 7
 323:.\moisture_measurement/cb_logging.c ****     unsigned i;
 324:.\moisture_measurement/cb_logging.c ****     for( i = 0; i< EEPROM_1_EEPROM_SIZE; i++ )
 973              		.loc 1 324 0
 974 0006 0023     		movs	r3, #0
 975 0008 7B60     		str	r3, [r7, #4]
 976 000a 0EE0     		b	.L56
 977              	.L57:
 325:.\moisture_measurement/cb_logging.c ****     {
 326:.\moisture_measurement/cb_logging.c ****         shaddow_eeprom[i] = EEPROM_1_ReadByte(i);
 978              		.loc 1 326 0 discriminator 3
 979 000c 7B68     		ldr	r3, [r7, #4]
 980 000e 9BB2     		uxth	r3, r3
 981 0010 1846     		mov	r0, r3
ARM GAS  C:\Users\glenn\AppData\Local\Temp\ccVG9cHs.s 			page 24


 982 0012 FFF7FEFF 		bl	EEPROM_1_ReadByte
 983 0016 0346     		mov	r3, r0
 984 0018 1946     		mov	r1, r3
 985 001a 074A     		ldr	r2, .L58
 986 001c 7B68     		ldr	r3, [r7, #4]
 987 001e 1344     		add	r3, r3, r2
 988 0020 0A46     		mov	r2, r1
 989 0022 1A70     		strb	r2, [r3]
 324:.\moisture_measurement/cb_logging.c ****     {
 990              		.loc 1 324 0 discriminator 3
 991 0024 7B68     		ldr	r3, [r7, #4]
 992 0026 0133     		adds	r3, r3, #1
 993 0028 7B60     		str	r3, [r7, #4]
 994              	.L56:
 324:.\moisture_measurement/cb_logging.c ****     {
 995              		.loc 1 324 0 is_stmt 0 discriminator 1
 996 002a 7B68     		ldr	r3, [r7, #4]
 997 002c B3F5006F 		cmp	r3, #2048
 998 0030 ECD3     		bcc	.L57
 327:.\moisture_measurement/cb_logging.c ****     }
 328:.\moisture_measurement/cb_logging.c **** }
 999              		.loc 1 328 0 is_stmt 1
 1000 0032 0837     		adds	r7, r7, #8
 1001              		.cfi_def_cfa_offset 8
 1002 0034 BD46     		mov	sp, r7
 1003              		.cfi_def_cfa_register 13
 1004              		@ sp needed
 1005 0036 80BD     		pop	{r7, pc}
 1006              	.L59:
 1007              		.align	2
 1008              	.L58:
 1009 0038 00000000 		.word	shaddow_eeprom
 1010              		.cfi_endproc
 1011              	.LFE79:
 1012              		.size	initialize_shaddow_ram_buffer, .-initialize_shaddow_ram_buffer
 1013              		.section	.text.write_32_eeprom,"ax",%progbits
 1014              		.align	2
 1015              		.thumb
 1016              		.thumb_func
 1017              		.type	write_32_eeprom, %function
 1018              	write_32_eeprom:
 1019              	.LFB80:
 329:.\moisture_measurement/cb_logging.c **** 
 330:.\moisture_measurement/cb_logging.c **** 
 331:.\moisture_measurement/cb_logging.c **** 
 332:.\moisture_measurement/cb_logging.c **** static void write_32_eeprom( int eeprom_position, float value_float )
 333:.\moisture_measurement/cb_logging.c **** {
 1020              		.loc 1 333 0
 1021              		.cfi_startproc
 1022              		@ args = 0, pretend = 0, frame = 16
 1023              		@ frame_needed = 1, uses_anonymous_args = 0
 1024 0000 80B5     		push	{r7, lr}
 1025              		.cfi_def_cfa_offset 8
 1026              		.cfi_offset 7, -8
 1027              		.cfi_offset 14, -4
 1028 0002 84B0     		sub	sp, sp, #16
 1029              		.cfi_def_cfa_offset 24
ARM GAS  C:\Users\glenn\AppData\Local\Temp\ccVG9cHs.s 			page 25


 1030 0004 00AF     		add	r7, sp, #0
 1031              		.cfi_def_cfa_register 7
 1032 0006 7860     		str	r0, [r7, #4]
 1033 0008 3960     		str	r1, [r7]	@ float
 334:.\moisture_measurement/cb_logging.c ****   uint8 *value;
 335:.\moisture_measurement/cb_logging.c ****   value = (uint8 *)&value_float;
 1034              		.loc 1 335 0
 1035 000a 3B46     		mov	r3, r7
 1036 000c FB60     		str	r3, [r7, #12]
 336:.\moisture_measurement/cb_logging.c ****   EEPROM_1_WriteByte( *value, eeprom_position );
 1037              		.loc 1 336 0
 1038 000e FB68     		ldr	r3, [r7, #12]
 1039 0010 1A78     		ldrb	r2, [r3]	@ zero_extendqisi2
 1040 0012 7B68     		ldr	r3, [r7, #4]
 1041 0014 9BB2     		uxth	r3, r3
 1042 0016 1046     		mov	r0, r2
 1043 0018 1946     		mov	r1, r3
 1044 001a FFF7FEFF 		bl	EEPROM_1_WriteByte
 337:.\moisture_measurement/cb_logging.c ****   shaddow_eeprom[eeprom_position++] = *value++;
 1045              		.loc 1 337 0
 1046 001e 7B68     		ldr	r3, [r7, #4]
 1047 0020 5A1C     		adds	r2, r3, #1
 1048 0022 7A60     		str	r2, [r7, #4]
 1049 0024 FA68     		ldr	r2, [r7, #12]
 1050 0026 511C     		adds	r1, r2, #1
 1051 0028 F960     		str	r1, [r7, #12]
 1052 002a 1178     		ldrb	r1, [r2]	@ zero_extendqisi2
 1053 002c 1B4A     		ldr	r2, .L61
 1054 002e D154     		strb	r1, [r2, r3]
 338:.\moisture_measurement/cb_logging.c ****   EEPROM_1_WriteByte( *value, eeprom_position );
 1055              		.loc 1 338 0
 1056 0030 FB68     		ldr	r3, [r7, #12]
 1057 0032 1A78     		ldrb	r2, [r3]	@ zero_extendqisi2
 1058 0034 7B68     		ldr	r3, [r7, #4]
 1059 0036 9BB2     		uxth	r3, r3
 1060 0038 1046     		mov	r0, r2
 1061 003a 1946     		mov	r1, r3
 1062 003c FFF7FEFF 		bl	EEPROM_1_WriteByte
 339:.\moisture_measurement/cb_logging.c ****   shaddow_eeprom[eeprom_position++] = *value++;
 1063              		.loc 1 339 0
 1064 0040 7B68     		ldr	r3, [r7, #4]
 1065 0042 5A1C     		adds	r2, r3, #1
 1066 0044 7A60     		str	r2, [r7, #4]
 1067 0046 FA68     		ldr	r2, [r7, #12]
 1068 0048 511C     		adds	r1, r2, #1
 1069 004a F960     		str	r1, [r7, #12]
 1070 004c 1178     		ldrb	r1, [r2]	@ zero_extendqisi2
 1071 004e 134A     		ldr	r2, .L61
 1072 0050 D154     		strb	r1, [r2, r3]
 340:.\moisture_measurement/cb_logging.c ****   EEPROM_1_WriteByte( *value, eeprom_position );
 1073              		.loc 1 340 0
 1074 0052 FB68     		ldr	r3, [r7, #12]
 1075 0054 1A78     		ldrb	r2, [r3]	@ zero_extendqisi2
 1076 0056 7B68     		ldr	r3, [r7, #4]
 1077 0058 9BB2     		uxth	r3, r3
 1078 005a 1046     		mov	r0, r2
 1079 005c 1946     		mov	r1, r3
ARM GAS  C:\Users\glenn\AppData\Local\Temp\ccVG9cHs.s 			page 26


 1080 005e FFF7FEFF 		bl	EEPROM_1_WriteByte
 341:.\moisture_measurement/cb_logging.c ****   shaddow_eeprom[eeprom_position++] = *value++;
 1081              		.loc 1 341 0
 1082 0062 7B68     		ldr	r3, [r7, #4]
 1083 0064 5A1C     		adds	r2, r3, #1
 1084 0066 7A60     		str	r2, [r7, #4]
 1085 0068 FA68     		ldr	r2, [r7, #12]
 1086 006a 511C     		adds	r1, r2, #1
 1087 006c F960     		str	r1, [r7, #12]
 1088 006e 1178     		ldrb	r1, [r2]	@ zero_extendqisi2
 1089 0070 0A4A     		ldr	r2, .L61
 1090 0072 D154     		strb	r1, [r2, r3]
 342:.\moisture_measurement/cb_logging.c ****   EEPROM_1_WriteByte( *value, eeprom_position );
 1091              		.loc 1 342 0
 1092 0074 FB68     		ldr	r3, [r7, #12]
 1093 0076 1A78     		ldrb	r2, [r3]	@ zero_extendqisi2
 1094 0078 7B68     		ldr	r3, [r7, #4]
 1095 007a 9BB2     		uxth	r3, r3
 1096 007c 1046     		mov	r0, r2
 1097 007e 1946     		mov	r1, r3
 1098 0080 FFF7FEFF 		bl	EEPROM_1_WriteByte
 343:.\moisture_measurement/cb_logging.c ****   shaddow_eeprom[eeprom_position++] = *value++;
 1099              		.loc 1 343 0
 1100 0084 7B68     		ldr	r3, [r7, #4]
 1101 0086 5A1C     		adds	r2, r3, #1
 1102 0088 7A60     		str	r2, [r7, #4]
 1103 008a FA68     		ldr	r2, [r7, #12]
 1104 008c 511C     		adds	r1, r2, #1
 1105 008e F960     		str	r1, [r7, #12]
 1106 0090 1178     		ldrb	r1, [r2]	@ zero_extendqisi2
 1107 0092 024A     		ldr	r2, .L61
 1108 0094 D154     		strb	r1, [r2, r3]
 344:.\moisture_measurement/cb_logging.c **** 
 345:.\moisture_measurement/cb_logging.c **** }
 1109              		.loc 1 345 0
 1110 0096 1037     		adds	r7, r7, #16
 1111              		.cfi_def_cfa_offset 8
 1112 0098 BD46     		mov	sp, r7
 1113              		.cfi_def_cfa_register 13
 1114              		@ sp needed
 1115 009a 80BD     		pop	{r7, pc}
 1116              	.L62:
 1117              		.align	2
 1118              	.L61:
 1119 009c 00000000 		.word	shaddow_eeprom
 1120              		.cfi_endproc
 1121              	.LFE80:
 1122              		.size	write_32_eeprom, .-write_32_eeprom
 1123              		.section	.text.read_32_eeprom,"ax",%progbits
 1124              		.align	2
 1125              		.thumb
 1126              		.thumb_func
 1127              		.type	read_32_eeprom, %function
 1128              	read_32_eeprom:
 1129              	.LFB81:
 346:.\moisture_measurement/cb_logging.c **** 
 347:.\moisture_measurement/cb_logging.c **** static float read_32_eeprom( int eeprom_position )
ARM GAS  C:\Users\glenn\AppData\Local\Temp\ccVG9cHs.s 			page 27


 348:.\moisture_measurement/cb_logging.c **** {
 1130              		.loc 1 348 0
 1131              		.cfi_startproc
 1132              		@ args = 0, pretend = 0, frame = 16
 1133              		@ frame_needed = 1, uses_anonymous_args = 0
 1134 0000 90B5     		push	{r4, r7, lr}
 1135              		.cfi_def_cfa_offset 12
 1136              		.cfi_offset 4, -12
 1137              		.cfi_offset 7, -8
 1138              		.cfi_offset 14, -4
 1139 0002 85B0     		sub	sp, sp, #20
 1140              		.cfi_def_cfa_offset 32
 1141 0004 00AF     		add	r7, sp, #0
 1142              		.cfi_def_cfa_register 7
 1143 0006 7860     		str	r0, [r7, #4]
 349:.\moisture_measurement/cb_logging.c ****    float return_value;
 350:.\moisture_measurement/cb_logging.c ****    uint8 *temp;
 351:.\moisture_measurement/cb_logging.c ****    temp = (uint8 *)&return_value;
 1144              		.loc 1 351 0
 1145 0008 07F10803 		add	r3, r7, #8
 1146 000c FB60     		str	r3, [r7, #12]
 352:.\moisture_measurement/cb_logging.c ****    *temp++ = EEPROM_1_ReadByte(  eeprom_position++ );
 1147              		.loc 1 352 0
 1148 000e FC68     		ldr	r4, [r7, #12]
 1149 0010 631C     		adds	r3, r4, #1
 1150 0012 FB60     		str	r3, [r7, #12]
 1151 0014 7B68     		ldr	r3, [r7, #4]
 1152 0016 5A1C     		adds	r2, r3, #1
 1153 0018 7A60     		str	r2, [r7, #4]
 1154 001a 9BB2     		uxth	r3, r3
 1155 001c 1846     		mov	r0, r3
 1156 001e FFF7FEFF 		bl	EEPROM_1_ReadByte
 1157 0022 0346     		mov	r3, r0
 1158 0024 2370     		strb	r3, [r4]
 353:.\moisture_measurement/cb_logging.c ****    *temp++ = EEPROM_1_ReadByte( eeprom_position++ );
 1159              		.loc 1 353 0
 1160 0026 FC68     		ldr	r4, [r7, #12]
 1161 0028 631C     		adds	r3, r4, #1
 1162 002a FB60     		str	r3, [r7, #12]
 1163 002c 7B68     		ldr	r3, [r7, #4]
 1164 002e 5A1C     		adds	r2, r3, #1
 1165 0030 7A60     		str	r2, [r7, #4]
 1166 0032 9BB2     		uxth	r3, r3
 1167 0034 1846     		mov	r0, r3
 1168 0036 FFF7FEFF 		bl	EEPROM_1_ReadByte
 1169 003a 0346     		mov	r3, r0
 1170 003c 2370     		strb	r3, [r4]
 354:.\moisture_measurement/cb_logging.c ****    *temp++ = EEPROM_1_ReadByte( eeprom_position++ );
 1171              		.loc 1 354 0
 1172 003e FC68     		ldr	r4, [r7, #12]
 1173 0040 631C     		adds	r3, r4, #1
 1174 0042 FB60     		str	r3, [r7, #12]
 1175 0044 7B68     		ldr	r3, [r7, #4]
 1176 0046 5A1C     		adds	r2, r3, #1
 1177 0048 7A60     		str	r2, [r7, #4]
 1178 004a 9BB2     		uxth	r3, r3
 1179 004c 1846     		mov	r0, r3
ARM GAS  C:\Users\glenn\AppData\Local\Temp\ccVG9cHs.s 			page 28


 1180 004e FFF7FEFF 		bl	EEPROM_1_ReadByte
 1181 0052 0346     		mov	r3, r0
 1182 0054 2370     		strb	r3, [r4]
 355:.\moisture_measurement/cb_logging.c ****    *temp++ = EEPROM_1_ReadByte( eeprom_position++ );
 1183              		.loc 1 355 0
 1184 0056 FC68     		ldr	r4, [r7, #12]
 1185 0058 631C     		adds	r3, r4, #1
 1186 005a FB60     		str	r3, [r7, #12]
 1187 005c 7B68     		ldr	r3, [r7, #4]
 1188 005e 5A1C     		adds	r2, r3, #1
 1189 0060 7A60     		str	r2, [r7, #4]
 1190 0062 9BB2     		uxth	r3, r3
 1191 0064 1846     		mov	r0, r3
 1192 0066 FFF7FEFF 		bl	EEPROM_1_ReadByte
 1193 006a 0346     		mov	r3, r0
 1194 006c 2370     		strb	r3, [r4]
 356:.\moisture_measurement/cb_logging.c ****    return return_value;
 1195              		.loc 1 356 0
 1196 006e BB68     		ldr	r3, [r7, #8]	@ float
 357:.\moisture_measurement/cb_logging.c **** }
 1197              		.loc 1 357 0
 1198 0070 1846     		mov	r0, r3
 1199 0072 1437     		adds	r7, r7, #20
 1200              		.cfi_def_cfa_offset 12
 1201 0074 BD46     		mov	sp, r7
 1202              		.cfi_def_cfa_register 13
 1203              		@ sp needed
 1204 0076 90BD     		pop	{r4, r7, pc}
 1205              		.cfi_endproc
 1206              	.LFE81:
 1207              		.size	read_32_eeprom, .-read_32_eeprom
 1208              		.section	.text.validate_eeprom,"ax",%progbits
 1209              		.align	2
 1210              		.thumb
 1211              		.thumb_func
 1212              		.type	validate_eeprom, %function
 1213              	validate_eeprom:
 1214              	.LFB82:
 358:.\moisture_measurement/cb_logging.c **** 
 359:.\moisture_measurement/cb_logging.c **** 
 360:.\moisture_measurement/cb_logging.c **** 
 361:.\moisture_measurement/cb_logging.c **** 
 362:.\moisture_measurement/cb_logging.c **** 
 363:.\moisture_measurement/cb_logging.c **** 
 364:.\moisture_measurement/cb_logging.c **** 
 365:.\moisture_measurement/cb_logging.c **** static int validate_eeprom( void )
 366:.\moisture_measurement/cb_logging.c **** {
 1215              		.loc 1 366 0
 1216              		.cfi_startproc
 1217              		@ args = 0, pretend = 0, frame = 8
 1218              		@ frame_needed = 1, uses_anonymous_args = 0
 1219 0000 80B5     		push	{r7, lr}
 1220              		.cfi_def_cfa_offset 8
 1221              		.cfi_offset 7, -8
 1222              		.cfi_offset 14, -4
 1223 0002 82B0     		sub	sp, sp, #8
 1224              		.cfi_def_cfa_offset 16
ARM GAS  C:\Users\glenn\AppData\Local\Temp\ccVG9cHs.s 			page 29


 1225 0004 00AF     		add	r7, sp, #0
 1226              		.cfi_def_cfa_register 7
 367:.\moisture_measurement/cb_logging.c ****     uint32 value;
 368:.\moisture_measurement/cb_logging.c ****     int    return_value;
 369:.\moisture_measurement/cb_logging.c ****     
 370:.\moisture_measurement/cb_logging.c ****    
 371:.\moisture_measurement/cb_logging.c ****     value = read_32_eeprom( EEPROM_INITIALIZATION_INDEX );
 1227              		.loc 1 371 0
 1228 0006 0020     		movs	r0, #0
 1229 0008 FFF7FEFF 		bl	read_32_eeprom
 1230 000c 0346     		mov	r3, r0
 1231 000e 1846     		mov	r0, r3
 1232 0010 FFF7FEFF 		bl	__aeabi_f2uiz
 1233 0014 0346     		mov	r3, r0
 1234 0016 3B60     		str	r3, [r7]
 372:.\moisture_measurement/cb_logging.c ****     if( value == (uint32) EEPROM_INITIALIZATION_VALUE )
 1235              		.loc 1 372 0
 1236 0018 3B68     		ldr	r3, [r7]
 1237 001a 212B     		cmp	r3, #33
 1238 001c 02D1     		bne	.L66
 373:.\moisture_measurement/cb_logging.c ****     {
 374:.\moisture_measurement/cb_logging.c ****         return_value = 1;
 1239              		.loc 1 374 0
 1240 001e 0123     		movs	r3, #1
 1241 0020 7B60     		str	r3, [r7, #4]
 1242 0022 01E0     		b	.L67
 1243              	.L66:
 375:.\moisture_measurement/cb_logging.c ****     }
 376:.\moisture_measurement/cb_logging.c ****     else
 377:.\moisture_measurement/cb_logging.c ****     {
 378:.\moisture_measurement/cb_logging.c ****         return_value = 0;
 1244              		.loc 1 378 0
 1245 0024 0023     		movs	r3, #0
 1246 0026 7B60     		str	r3, [r7, #4]
 1247              	.L67:
 379:.\moisture_measurement/cb_logging.c ****     }
 380:.\moisture_measurement/cb_logging.c ****     return return_value;
 1248              		.loc 1 380 0
 1249 0028 7B68     		ldr	r3, [r7, #4]
 381:.\moisture_measurement/cb_logging.c ****     
 382:.\moisture_measurement/cb_logging.c **** }
 1250              		.loc 1 382 0
 1251 002a 1846     		mov	r0, r3
 1252 002c 0837     		adds	r7, r7, #8
 1253              		.cfi_def_cfa_offset 8
 1254 002e BD46     		mov	sp, r7
 1255              		.cfi_def_cfa_register 13
 1256              		@ sp needed
 1257 0030 80BD     		pop	{r7, pc}
 1258              		.cfi_endproc
 1259              	.LFE82:
 1260              		.size	validate_eeprom, .-validate_eeprom
 1261 0032 00BF     		.text
 1262              	.Letext0:
 1263              		.file 2 "c:\\program files (x86)\\cypress\\psoc creator\\3.3\\psoc creator\\import\\gnu\\arm\\4.9.
 1264              		.file 3 "c:\\program files (x86)\\cypress\\psoc creator\\3.3\\psoc creator\\import\\gnu\\arm\\4.9.
 1265              		.file 4 "Generated_Source\\PSoC5/cytypes.h"
ARM GAS  C:\Users\glenn\AppData\Local\Temp\ccVG9cHs.s 			page 30


 1266              		.file 5 "Generated_Source\\PSoC5/core_cm3.h"
 1267              		.file 6 ".\\rtu_modbus/process_modbus_message.h"
 1268              		.file 7 ".\\moisture_measurement\\cb_logging.h"