ARM GAS  C:\Users\glenn\AppData\Local\Temp\ccAtjKMd.s 			page 1


   1              		.syntax unified
   2              		.cpu cortex-m3
   3              		.fpu softvfp
   4              		.eabi_attribute 20, 1
   5              		.eabi_attribute 21, 1
   6              		.eabi_attribute 23, 3
   7              		.eabi_attribute 24, 1
   8              		.eabi_attribute 25, 1
   9              		.eabi_attribute 26, 1
  10              		.eabi_attribute 30, 6
  11              		.eabi_attribute 34, 1
  12              		.eabi_attribute 18, 4
  13              		.thumb
  14              		.file	"cb_logging.c"
  15              		.text
  16              	.Ltext0:
  17              		.cfi_sections	.debug_frame
  18              		.section	.rodata
  19              		.align	1
  20              		.type	sampling_interval, %object
  21              		.size	sampling_interval, 2
  22              	sampling_interval:
  23 0000 0200     		.short	2
  24              		.global	reference_resistance_array
  25 0002 0000     		.align	2
  26              		.type	reference_resistance_array, %object
  27              		.size	reference_resistance_array, 36
  28              	reference_resistance_array:
  29 0004 00281B46 		.word	1176184832
  30 0008 00281B46 		.word	1176184832
  31 000c 00281B46 		.word	1176184832
  32 0010 00281B46 		.word	1176184832
  33 0014 00281B46 		.word	1176184832
  34 0018 00281B46 		.word	1176184832
  35 001c 00281B46 		.word	1176184832
  36 0020 00281B46 		.word	1176184832
  37 0024 00281B46 		.word	1176184832
  38              		.global	moisture_configuration_data
  39              		.align	2
  40              		.type	moisture_configuration_data, %object
  41              		.size	moisture_configuration_data, 18
  42              	moisture_configuration_data:
  43 0028 0200     		.short	2
  44 002a 0200     		.short	2
  45 002c 0100     		.short	1
  46 002e 0100     		.short	1
  47 0030 0100     		.short	1
  48 0032 0100     		.short	1
  49 0034 0100     		.short	1
  50 0036 0100     		.short	1
  51 0038 0100     		.short	1
  52              		.global	temperature_calibration_factors
  53 003a 0000     		.align	2
  54              		.type	temperature_calibration_factors, %object
  55              		.size	temperature_calibration_factors, 8
  56              	temperature_calibration_factors:
  57 003c EC51383E 		.word	1043878380
ARM GAS  C:\Users\glenn\AppData\Local\Temp\ccAtjKMd.s 			page 2


  58 0040 000068C2 		.word	-1033371648
  59              		.bss
  60              		.align	2
  61              	shaddow_eeprom:
  62 0000 00000000 		.space	2048
  62      00000000 
  62      00000000 
  62      00000000 
  62      00000000 
  63              		.global	__aeabi_f2uiz
  64              		.global	__aeabi_ui2f
  65              		.section	.text.get_reference_resistor,"ax",%progbits
  66              		.align	2
  67              		.global	get_reference_resistor
  68              		.thumb
  69              		.thumb_func
  70              		.type	get_reference_resistor, %function
  71              	get_reference_resistor:
  72              	.LFB65:
  73              		.file 1 ".\\moisture_measurement\\cb_logging.c"
   1:.\moisture_measurement/cb_logging.c **** /*
   2:.\moisture_measurement/cb_logging.c **** ** File:  cb_logging.c
   3:.\moisture_measurement/cb_logging.c **** ** Handles EEPROM Moisture Logging
   4:.\moisture_measurement/cb_logging.c **** **
   5:.\moisture_measurement/cb_logging.c **** */
   6:.\moisture_measurement/cb_logging.c **** #include <device.h>
   7:.\moisture_measurement/cb_logging.c **** #include "cb_logging.h"
   8:.\moisture_measurement/cb_logging.c **** #include "process_modbus_message.h"
   9:.\moisture_measurement/cb_logging.c **** 
  10:.\moisture_measurement/cb_logging.c **** /*
  11:.\moisture_measurement/cb_logging.c **** Layout of EEPROM Format  in 4 bytes value
  12:.\moisture_measurement/cb_logging.c **** position 0 -- Initialization Flag  0xa5a55a5a
  13:.\moisture_measurement/cb_logging.c **** position 4 -- Number of 4 byte entries per entry 
  14:.\moisture_measurement/cb_logging.c **** position 8 -- Time in Minutes Between Logging Interval
  15:.\moisture_measurement/cb_logging.c **** position 12 --  Current Logged Number
  16:.\moisture_measurement/cb_logging.c **** position 16 --  start of Logging Data
  17:.\moisture_measurement/cb_logging.c **** position 16 + number of log elements * 4  -- start of Second Logs
  18:.\moisture_measurement/cb_logging.c **** 
  19:.\moisture_measurement/cb_logging.c **** 
  20:.\moisture_measurement/cb_logging.c ****  */
  21:.\moisture_measurement/cb_logging.c ****  
  22:.\moisture_measurement/cb_logging.c **** 
  23:.\moisture_measurement/cb_logging.c **** static const uint16 sampling_interval   = 2;  // for production use 60 or 1 hour
  24:.\moisture_measurement/cb_logging.c **** 
  25:.\moisture_measurement/cb_logging.c **** 
  26:.\moisture_measurement/cb_logging.c **** const float reference_resistance_array [ MOISTURE_SENSOR_NUMBER ] = 
  27:.\moisture_measurement/cb_logging.c **** {
  28:.\moisture_measurement/cb_logging.c ****   9930.,  // 0
  29:.\moisture_measurement/cb_logging.c ****   9930.,  // 1
  30:.\moisture_measurement/cb_logging.c ****   9930.,  // 2 
  31:.\moisture_measurement/cb_logging.c ****   9930.,  // 3
  32:.\moisture_measurement/cb_logging.c ****   9930.,  // 4
  33:.\moisture_measurement/cb_logging.c ****   9930.,  // 5
  34:.\moisture_measurement/cb_logging.c ****   9930.,   // 6
  35:.\moisture_measurement/cb_logging.c ****   9930.,   // 7
  36:.\moisture_measurement/cb_logging.c ****   9930.   // 8
  37:.\moisture_measurement/cb_logging.c ****   
ARM GAS  C:\Users\glenn\AppData\Local\Temp\ccAtjKMd.s 			page 3


  38:.\moisture_measurement/cb_logging.c **** };
  39:.\moisture_measurement/cb_logging.c **** 
  40:.\moisture_measurement/cb_logging.c **** 
  41:.\moisture_measurement/cb_logging.c **** 
  42:.\moisture_measurement/cb_logging.c **** const uint16 moisture_configuration_data[ MOISTURE_SENSOR_NUMBER ] =
  43:.\moisture_measurement/cb_logging.c **** {
  44:.\moisture_measurement/cb_logging.c ****    WATER_MARK,
  45:.\moisture_measurement/cb_logging.c ****    WATER_MARK,
  46:.\moisture_measurement/cb_logging.c ****    RESISTIVE_ELEMENT,
  47:.\moisture_measurement/cb_logging.c ****    RESISTIVE_ELEMENT,
  48:.\moisture_measurement/cb_logging.c ****    RESISTIVE_ELEMENT,
  49:.\moisture_measurement/cb_logging.c ****    RESISTIVE_ELEMENT,
  50:.\moisture_measurement/cb_logging.c ****    RESISTIVE_ELEMENT,
  51:.\moisture_measurement/cb_logging.c ****    RESISTIVE_ELEMENT,
  52:.\moisture_measurement/cb_logging.c ****    RESISTIVE_ELEMENT,
  53:.\moisture_measurement/cb_logging.c ****     
  54:.\moisture_measurement/cb_logging.c **** };
  55:.\moisture_measurement/cb_logging.c **** 
  56:.\moisture_measurement/cb_logging.c **** #define CALIBRATION_NUMBER 1
  57:.\moisture_measurement/cb_logging.c ****     
  58:.\moisture_measurement/cb_logging.c **** #define CALIBRATION_ARRAY_LENGTH  CALIBRATION_NUMBER *2
  59:.\moisture_measurement/cb_logging.c **** // temperature calibration in degrees F
  60:.\moisture_measurement/cb_logging.c **** const float temperature_calibration_factors[CALIBRATION_NUMBER *2] = { (.18), -58. };
  61:.\moisture_measurement/cb_logging.c **** 
  62:.\moisture_measurement/cb_logging.c **** static void write_32_eeprom( int eeprom_position, float value );
  63:.\moisture_measurement/cb_logging.c **** static float read_32_eeprom( int eeprom_position );
  64:.\moisture_measurement/cb_logging.c **** static int validate_eeprom( void );
  65:.\moisture_measurement/cb_logging.c **** static void initialize_shaddow_ram_buffer( void );
  66:.\moisture_measurement/cb_logging.c **** 
  67:.\moisture_measurement/cb_logging.c **** static uint8 shaddow_eeprom[EEPROM_1_EEPROM_SIZE];
  68:.\moisture_measurement/cb_logging.c **** 
  69:.\moisture_measurement/cb_logging.c **** float get_reference_resistor( uint32 channel )
  70:.\moisture_measurement/cb_logging.c **** {
  74              		.loc 1 70 0
  75              		.cfi_startproc
  76              		@ args = 0, pretend = 0, frame = 16
  77              		@ frame_needed = 1, uses_anonymous_args = 0
  78 0000 80B5     		push	{r7, lr}
  79              		.cfi_def_cfa_offset 8
  80              		.cfi_offset 7, -8
  81              		.cfi_offset 14, -4
  82 0002 84B0     		sub	sp, sp, #16
  83              		.cfi_def_cfa_offset 24
  84 0004 00AF     		add	r7, sp, #0
  85              		.cfi_def_cfa_register 7
  86 0006 7860     		str	r0, [r7, #4]
  71:.\moisture_measurement/cb_logging.c ****     uint16 return_value;
  72:.\moisture_measurement/cb_logging.c ****     if( channel >= MOISTURE_SENSOR_NUMBER )
  87              		.loc 1 72 0
  88 0008 7B68     		ldr	r3, [r7, #4]
  89 000a 082B     		cmp	r3, #8
  90 000c 03D9     		bls	.L2
  73:.\moisture_measurement/cb_logging.c ****     {
  74:.\moisture_measurement/cb_logging.c ****         CYASSERT(0);
  91              		.loc 1 74 0 discriminator 1
  92 000e 0020     		movs	r0, #0
  93 0010 FFF7FEFF 		bl	CyHalt
ARM GAS  C:\Users\glenn\AppData\Local\Temp\ccAtjKMd.s 			page 4


  94 0014 08E0     		b	.L3
  95              	.L2:
  75:.\moisture_measurement/cb_logging.c ****     }
  76:.\moisture_measurement/cb_logging.c ****     else
  77:.\moisture_measurement/cb_logging.c ****     {
  78:.\moisture_measurement/cb_logging.c ****         return_value =reference_resistance_array[ channel];
  96              		.loc 1 78 0
  97 0016 094A     		ldr	r2, .L5
  98 0018 7B68     		ldr	r3, [r7, #4]
  99 001a 52F82330 		ldr	r3, [r2, r3, lsl #2]	@ float
 100 001e 1846     		mov	r0, r3
 101 0020 FFF7FEFF 		bl	__aeabi_f2uiz
 102 0024 0346     		mov	r3, r0
 103 0026 FB81     		strh	r3, [r7, #14]	@ movhi
 104              	.L3:
  79:.\moisture_measurement/cb_logging.c ****     }
  80:.\moisture_measurement/cb_logging.c ****     return return_value;
 105              		.loc 1 80 0
 106 0028 FB89     		ldrh	r3, [r7, #14]
 107 002a 1846     		mov	r0, r3
 108 002c FFF7FEFF 		bl	__aeabi_ui2f
 109 0030 0346     		mov	r3, r0
  81:.\moisture_measurement/cb_logging.c **** }
 110              		.loc 1 81 0
 111 0032 1846     		mov	r0, r3
 112 0034 1037     		adds	r7, r7, #16
 113              		.cfi_def_cfa_offset 8
 114 0036 BD46     		mov	sp, r7
 115              		.cfi_def_cfa_register 13
 116              		@ sp needed
 117 0038 80BD     		pop	{r7, pc}
 118              	.L6:
 119 003a 00BF     		.align	2
 120              	.L5:
 121 003c 00000000 		.word	reference_resistance_array
 122              		.cfi_endproc
 123              	.LFE65:
 124              		.size	get_reference_resistor, .-get_reference_resistor
 125              		.section	.text.get_moisture_sensor_configuration,"ax",%progbits
 126              		.align	2
 127              		.global	get_moisture_sensor_configuration
 128              		.thumb
 129              		.thumb_func
 130              		.type	get_moisture_sensor_configuration, %function
 131              	get_moisture_sensor_configuration:
 132              	.LFB66:
  82:.\moisture_measurement/cb_logging.c **** 
  83:.\moisture_measurement/cb_logging.c **** uint16 get_moisture_sensor_configuration( unsigned sensor_id )
  84:.\moisture_measurement/cb_logging.c **** {
 133              		.loc 1 84 0
 134              		.cfi_startproc
 135              		@ args = 0, pretend = 0, frame = 16
 136              		@ frame_needed = 1, uses_anonymous_args = 0
 137 0000 80B5     		push	{r7, lr}
 138              		.cfi_def_cfa_offset 8
 139              		.cfi_offset 7, -8
 140              		.cfi_offset 14, -4
ARM GAS  C:\Users\glenn\AppData\Local\Temp\ccAtjKMd.s 			page 5


 141 0002 84B0     		sub	sp, sp, #16
 142              		.cfi_def_cfa_offset 24
 143 0004 00AF     		add	r7, sp, #0
 144              		.cfi_def_cfa_register 7
 145 0006 7860     		str	r0, [r7, #4]
  85:.\moisture_measurement/cb_logging.c ****     uint16 return_value;
  86:.\moisture_measurement/cb_logging.c ****     if( sensor_id >= MOISTURE_SENSOR_NUMBER )
 146              		.loc 1 86 0
 147 0008 7B68     		ldr	r3, [r7, #4]
 148 000a 082B     		cmp	r3, #8
 149 000c 03D9     		bls	.L8
  87:.\moisture_measurement/cb_logging.c ****     {
  88:.\moisture_measurement/cb_logging.c ****         CYASSERT(0);
 150              		.loc 1 88 0 discriminator 1
 151 000e 0020     		movs	r0, #0
 152 0010 FFF7FEFF 		bl	CyHalt
 153 0014 04E0     		b	.L9
 154              	.L8:
  89:.\moisture_measurement/cb_logging.c ****     }
  90:.\moisture_measurement/cb_logging.c ****     else
  91:.\moisture_measurement/cb_logging.c ****     {
  92:.\moisture_measurement/cb_logging.c ****         return_value = moisture_configuration_data[ sensor_id];
 155              		.loc 1 92 0
 156 0016 054A     		ldr	r2, .L11
 157 0018 7B68     		ldr	r3, [r7, #4]
 158 001a 32F81330 		ldrh	r3, [r2, r3, lsl #1]	@ movhi
 159 001e FB81     		strh	r3, [r7, #14]	@ movhi
 160              	.L9:
  93:.\moisture_measurement/cb_logging.c ****     }
  94:.\moisture_measurement/cb_logging.c ****     return return_value;
 161              		.loc 1 94 0
 162 0020 FB89     		ldrh	r3, [r7, #14]
  95:.\moisture_measurement/cb_logging.c **** }
 163              		.loc 1 95 0
 164 0022 1846     		mov	r0, r3
 165 0024 1037     		adds	r7, r7, #16
 166              		.cfi_def_cfa_offset 8
 167 0026 BD46     		mov	sp, r7
 168              		.cfi_def_cfa_register 13
 169              		@ sp needed
 170 0028 80BD     		pop	{r7, pc}
 171              	.L12:
 172 002a 00BF     		.align	2
 173              	.L11:
 174 002c 00000000 		.word	moisture_configuration_data
 175              		.cfi_endproc
 176              	.LFE66:
 177              		.size	get_moisture_sensor_configuration, .-get_moisture_sensor_configuration
 178              		.section	.text.store_default_temperature_calibration_values_to_modbus_registers,"ax",%progbits
 179              		.align	2
 180              		.global	store_default_temperature_calibration_values_to_modbus_registers
 181              		.thumb
 182              		.thumb_func
 183              		.type	store_default_temperature_calibration_values_to_modbus_registers, %function
 184              	store_default_temperature_calibration_values_to_modbus_registers:
 185              	.LFB67:
  96:.\moisture_measurement/cb_logging.c **** 
ARM GAS  C:\Users\glenn\AppData\Local\Temp\ccAtjKMd.s 			page 6


  97:.\moisture_measurement/cb_logging.c **** int store_default_temperature_calibration_values_to_modbus_registers(unsigned link_id, unsigned par
  98:.\moisture_measurement/cb_logging.c ****   unsigned param_2, unsigned param_3, unsigned event, unsigned data)
  99:.\moisture_measurement/cb_logging.c **** {
 186              		.loc 1 99 0
 187              		.cfi_startproc
 188              		@ args = 8, pretend = 0, frame = 16
 189              		@ frame_needed = 1, uses_anonymous_args = 0
 190 0000 80B5     		push	{r7, lr}
 191              		.cfi_def_cfa_offset 8
 192              		.cfi_offset 7, -8
 193              		.cfi_offset 14, -4
 194 0002 84B0     		sub	sp, sp, #16
 195              		.cfi_def_cfa_offset 24
 196 0004 00AF     		add	r7, sp, #0
 197              		.cfi_def_cfa_register 7
 198 0006 F860     		str	r0, [r7, #12]
 199 0008 B960     		str	r1, [r7, #8]
 200 000a 7A60     		str	r2, [r7, #4]
 201 000c 3B60     		str	r3, [r7]
 100:.\moisture_measurement/cb_logging.c ****     store_modbus_data_registers( MOISTURE_TEMP_CALIBRATION_A, CALIBRATION_ARRAY_LENGTH *2 , (uint16
 202              		.loc 1 100 0
 203 000e 6420     		movs	r0, #100
 204 0010 0421     		movs	r1, #4
 205 0012 044A     		ldr	r2, .L15
 206 0014 FFF7FEFF 		bl	store_modbus_data_registers
 101:.\moisture_measurement/cb_logging.c ****     return 0;
 207              		.loc 1 101 0
 208 0018 0023     		movs	r3, #0
 102:.\moisture_measurement/cb_logging.c **** }
 209              		.loc 1 102 0
 210 001a 1846     		mov	r0, r3
 211 001c 1037     		adds	r7, r7, #16
 212              		.cfi_def_cfa_offset 8
 213 001e BD46     		mov	sp, r7
 214              		.cfi_def_cfa_register 13
 215              		@ sp needed
 216 0020 80BD     		pop	{r7, pc}
 217              	.L16:
 218 0022 00BF     		.align	2
 219              	.L15:
 220 0024 00000000 		.word	temperature_calibration_factors
 221              		.cfi_endproc
 222              	.LFE67:
 223              		.size	store_default_temperature_calibration_values_to_modbus_registers, .-store_default_temperatur
 224              		.section	.text.store_default_resistor_calibration_values_to_modbus_registers,"ax",%progbits
 225              		.align	2
 226              		.global	store_default_resistor_calibration_values_to_modbus_registers
 227              		.thumb
 228              		.thumb_func
 229              		.type	store_default_resistor_calibration_values_to_modbus_registers, %function
 230              	store_default_resistor_calibration_values_to_modbus_registers:
 231              	.LFB68:
 103:.\moisture_measurement/cb_logging.c **** 
 104:.\moisture_measurement/cb_logging.c **** int store_default_resistor_calibration_values_to_modbus_registers(unsigned link_id, unsigned param_
 105:.\moisture_measurement/cb_logging.c ****   unsigned param_2, unsigned param_3, unsigned event, unsigned data)
 106:.\moisture_measurement/cb_logging.c **** {
 232              		.loc 1 106 0
ARM GAS  C:\Users\glenn\AppData\Local\Temp\ccAtjKMd.s 			page 7


 233              		.cfi_startproc
 234              		@ args = 8, pretend = 0, frame = 16
 235              		@ frame_needed = 1, uses_anonymous_args = 0
 236 0000 80B5     		push	{r7, lr}
 237              		.cfi_def_cfa_offset 8
 238              		.cfi_offset 7, -8
 239              		.cfi_offset 14, -4
 240 0002 84B0     		sub	sp, sp, #16
 241              		.cfi_def_cfa_offset 24
 242 0004 00AF     		add	r7, sp, #0
 243              		.cfi_def_cfa_register 7
 244 0006 F860     		str	r0, [r7, #12]
 245 0008 B960     		str	r1, [r7, #8]
 246 000a 7A60     		str	r2, [r7, #4]
 247 000c 3B60     		str	r3, [r7]
 107:.\moisture_measurement/cb_logging.c ****     store_modbus_data_registers( REFERENCE_RESISTOR_1_FLOAT, MOISTURE_SENSOR_NUMBER *2 , (uint16*)r
 248              		.loc 1 107 0
 249 000e 6E20     		movs	r0, #110
 250 0010 1221     		movs	r1, #18
 251 0012 044A     		ldr	r2, .L19
 252 0014 FFF7FEFF 		bl	store_modbus_data_registers
 108:.\moisture_measurement/cb_logging.c ****     return 0;
 253              		.loc 1 108 0
 254 0018 0023     		movs	r3, #0
 109:.\moisture_measurement/cb_logging.c **** }
 255              		.loc 1 109 0
 256 001a 1846     		mov	r0, r3
 257 001c 1037     		adds	r7, r7, #16
 258              		.cfi_def_cfa_offset 8
 259 001e BD46     		mov	sp, r7
 260              		.cfi_def_cfa_register 13
 261              		@ sp needed
 262 0020 80BD     		pop	{r7, pc}
 263              	.L20:
 264 0022 00BF     		.align	2
 265              	.L19:
 266 0024 00000000 		.word	reference_resistance_array
 267              		.cfi_endproc
 268              	.LFE68:
 269              		.size	store_default_resistor_calibration_values_to_modbus_registers, .-store_default_resistor_cali
 270              		.section	.text.reset_eeprom_log,"ax",%progbits
 271              		.align	2
 272              		.global	reset_eeprom_log
 273              		.thumb
 274              		.thumb_func
 275              		.type	reset_eeprom_log, %function
 276              	reset_eeprom_log:
 277              	.LFB69:
 110:.\moisture_measurement/cb_logging.c **** 
 111:.\moisture_measurement/cb_logging.c **** int reset_eeprom_log(unsigned link_id, unsigned param_1,
 112:.\moisture_measurement/cb_logging.c ****   unsigned param_2, unsigned param_3, unsigned event, unsigned data)
 113:.\moisture_measurement/cb_logging.c **** {
 278              		.loc 1 113 0
 279              		.cfi_startproc
 280              		@ args = 8, pretend = 0, frame = 24
 281              		@ frame_needed = 1, uses_anonymous_args = 0
 282 0000 80B5     		push	{r7, lr}
ARM GAS  C:\Users\glenn\AppData\Local\Temp\ccAtjKMd.s 			page 8


 283              		.cfi_def_cfa_offset 8
 284              		.cfi_offset 7, -8
 285              		.cfi_offset 14, -4
 286 0002 86B0     		sub	sp, sp, #24
 287              		.cfi_def_cfa_offset 32
 288 0004 00AF     		add	r7, sp, #0
 289              		.cfi_def_cfa_register 7
 290 0006 F860     		str	r0, [r7, #12]
 291 0008 B960     		str	r1, [r7, #8]
 292 000a 7A60     		str	r2, [r7, #4]
 293 000c 3B60     		str	r3, [r7]
 114:.\moisture_measurement/cb_logging.c ****     float temp32;
 115:.\moisture_measurement/cb_logging.c ****     uint16 temp16;
 116:.\moisture_measurement/cb_logging.c ****     temp16 = 0;
 294              		.loc 1 116 0
 295 000e 0023     		movs	r3, #0
 296 0010 7B82     		strh	r3, [r7, #18]	@ movhi
 117:.\moisture_measurement/cb_logging.c ****     store_modbus_data_registers( LOGGING_INDEX, 1,&temp16 );
 297              		.loc 1 117 0
 298 0012 07F11203 		add	r3, r7, #18
 299 0016 2020     		movs	r0, #32
 300 0018 0121     		movs	r1, #1
 301 001a 1A46     		mov	r2, r3
 302 001c FFF7FEFF 		bl	store_modbus_data_registers
 118:.\moisture_measurement/cb_logging.c ****     temp32 = temp16;
 303              		.loc 1 118 0
 304 0020 7B8A     		ldrh	r3, [r7, #18]
 305 0022 1846     		mov	r0, r3
 306 0024 FFF7FEFF 		bl	__aeabi_ui2f
 307 0028 0346     		mov	r3, r0
 308 002a 7B61     		str	r3, [r7, #20]	@ float
 119:.\moisture_measurement/cb_logging.c ****     write_32_eeprom( EEPROM_LOGGING_INDEX , temp32 );
 309              		.loc 1 119 0
 310 002c 0C20     		movs	r0, #12
 311 002e 7969     		ldr	r1, [r7, #20]	@ float
 312 0030 FFF7FEFF 		bl	write_32_eeprom
 120:.\moisture_measurement/cb_logging.c ****     return 0;
 313              		.loc 1 120 0
 314 0034 0023     		movs	r3, #0
 121:.\moisture_measurement/cb_logging.c **** }
 315              		.loc 1 121 0
 316 0036 1846     		mov	r0, r3
 317 0038 1837     		adds	r7, r7, #24
 318              		.cfi_def_cfa_offset 8
 319 003a BD46     		mov	sp, r7
 320              		.cfi_def_cfa_register 13
 321              		@ sp needed
 322 003c 80BD     		pop	{r7, pc}
 323              		.cfi_endproc
 324              	.LFE69:
 325              		.size	reset_eeprom_log, .-reset_eeprom_log
 326 003e 00BF     		.section	.text.enable_eeprom,"ax",%progbits
 327              		.align	2
 328              		.global	enable_eeprom
 329              		.thumb
 330              		.thumb_func
 331              		.type	enable_eeprom, %function
ARM GAS  C:\Users\glenn\AppData\Local\Temp\ccAtjKMd.s 			page 9


 332              	enable_eeprom:
 333              	.LFB70:
 122:.\moisture_measurement/cb_logging.c **** 
 123:.\moisture_measurement/cb_logging.c **** 
 124:.\moisture_measurement/cb_logging.c **** 
 125:.\moisture_measurement/cb_logging.c **** int enable_eeprom(unsigned link_id, unsigned param_1,
 126:.\moisture_measurement/cb_logging.c ****   unsigned param_2, unsigned param_3, unsigned event, unsigned data)
 127:.\moisture_measurement/cb_logging.c **** {
 334              		.loc 1 127 0
 335              		.cfi_startproc
 336              		@ args = 8, pretend = 0, frame = 24
 337              		@ frame_needed = 1, uses_anonymous_args = 0
 338 0000 80B5     		push	{r7, lr}
 339              		.cfi_def_cfa_offset 8
 340              		.cfi_offset 7, -8
 341              		.cfi_offset 14, -4
 342 0002 86B0     		sub	sp, sp, #24
 343              		.cfi_def_cfa_offset 32
 344 0004 00AF     		add	r7, sp, #0
 345              		.cfi_def_cfa_register 7
 346 0006 F860     		str	r0, [r7, #12]
 347 0008 B960     		str	r1, [r7, #8]
 348 000a 7A60     		str	r2, [r7, #4]
 349 000c 3B60     		str	r3, [r7]
 128:.\moisture_measurement/cb_logging.c ****     uint16 temp;
 129:.\moisture_measurement/cb_logging.c ****     
 130:.\moisture_measurement/cb_logging.c ****     EEPROM_1_Start() ;
 350              		.loc 1 130 0
 351 000e FFF7FEFF 		bl	EEPROM_1_Start
 131:.\moisture_measurement/cb_logging.c ****     EEPROM_1_UpdateTemperature();
 352              		.loc 1 131 0
 353 0012 FFF7FEFF 		bl	EEPROM_1_UpdateTemperature
 132:.\moisture_measurement/cb_logging.c ****     initialize_shaddow_ram_buffer();  
 354              		.loc 1 132 0
 355 0016 FFF7FEFF 		bl	initialize_shaddow_ram_buffer
 133:.\moisture_measurement/cb_logging.c ****     store_modbus_data_registers( LOGGING_RATE  , 1,(uint16 *) &sampling_interval );  
 356              		.loc 1 133 0
 357 001a 2120     		movs	r0, #33
 358 001c 0121     		movs	r1, #1
 359 001e 0D4A     		ldr	r2, .L25
 360 0020 FFF7FEFF 		bl	store_modbus_data_registers
 134:.\moisture_measurement/cb_logging.c ****     store_modbus_data_registers( MOISTURE_SENSOR_1_CONFIGURATION , sizeof(moisture_configuration_da
 361              		.loc 1 134 0
 362 0024 5020     		movs	r0, #80
 363 0026 0921     		movs	r1, #9
 364 0028 0B4A     		ldr	r2, .L25+4
 365 002a FFF7FEFF 		bl	store_modbus_data_registers
 135:.\moisture_measurement/cb_logging.c ****     temp = 0;
 366              		.loc 1 135 0
 367 002e 0023     		movs	r3, #0
 368 0030 FB82     		strh	r3, [r7, #22]	@ movhi
 136:.\moisture_measurement/cb_logging.c ****     store_modbus_data_registers( LOGGING_INDEX, 1, (uint16 *) &temp ); 
 369              		.loc 1 136 0
 370 0032 07F11603 		add	r3, r7, #22
 371 0036 2020     		movs	r0, #32
 372 0038 0121     		movs	r1, #1
 373 003a 1A46     		mov	r2, r3
ARM GAS  C:\Users\glenn\AppData\Local\Temp\ccAtjKMd.s 			page 10


 374 003c FFF7FEFF 		bl	store_modbus_data_registers
 137:.\moisture_measurement/cb_logging.c ****     initialize_eeprom_logging( MOISTURE_SENSOR_NUMBER, sampling_interval );
 375              		.loc 1 137 0
 376 0040 0223     		movs	r3, #2
 377 0042 0920     		movs	r0, #9
 378 0044 1946     		mov	r1, r3
 379 0046 FFF7FEFF 		bl	initialize_eeprom_logging
 138:.\moisture_measurement/cb_logging.c ****     return 0;
 380              		.loc 1 138 0
 381 004a 0023     		movs	r3, #0
 139:.\moisture_measurement/cb_logging.c **** 
 140:.\moisture_measurement/cb_logging.c **** }
 382              		.loc 1 140 0
 383 004c 1846     		mov	r0, r3
 384 004e 1837     		adds	r7, r7, #24
 385              		.cfi_def_cfa_offset 8
 386 0050 BD46     		mov	sp, r7
 387              		.cfi_def_cfa_register 13
 388              		@ sp needed
 389 0052 80BD     		pop	{r7, pc}
 390              	.L26:
 391              		.align	2
 392              	.L25:
 393 0054 00000000 		.word	sampling_interval
 394 0058 00000000 		.word	moisture_configuration_data
 395              		.cfi_endproc
 396              	.LFE70:
 397              		.size	enable_eeprom, .-enable_eeprom
 398              		.section	.text.update_reference_resistor_configuration,"ax",%progbits
 399              		.align	2
 400              		.global	update_reference_resistor_configuration
 401              		.thumb
 402              		.thumb_func
 403              		.type	update_reference_resistor_configuration, %function
 404              	update_reference_resistor_configuration:
 405              	.LFB71:
 141:.\moisture_measurement/cb_logging.c **** 
 142:.\moisture_measurement/cb_logging.c **** int update_reference_resistor_configuration(unsigned link_id, unsigned param_1,
 143:.\moisture_measurement/cb_logging.c ****   unsigned param_2, unsigned param_3, unsigned event, unsigned data)
 144:.\moisture_measurement/cb_logging.c **** {
 406              		.loc 1 144 0
 407              		.cfi_startproc
 408              		@ args = 8, pretend = 0, frame = 24
 409              		@ frame_needed = 1, uses_anonymous_args = 0
 410 0000 80B5     		push	{r7, lr}
 411              		.cfi_def_cfa_offset 8
 412              		.cfi_offset 7, -8
 413              		.cfi_offset 14, -4
 414 0002 86B0     		sub	sp, sp, #24
 415              		.cfi_def_cfa_offset 32
 416 0004 00AF     		add	r7, sp, #0
 417              		.cfi_def_cfa_register 7
 418 0006 F860     		str	r0, [r7, #12]
 419 0008 B960     		str	r1, [r7, #8]
 420 000a 7A60     		str	r2, [r7, #4]
 421 000c 3B60     		str	r3, [r7]
 145:.\moisture_measurement/cb_logging.c ****     const uint16 *modbus_address;
ARM GAS  C:\Users\glenn\AppData\Local\Temp\ccAtjKMd.s 			page 11


 146:.\moisture_measurement/cb_logging.c ****     uint8 *buffer;
 147:.\moisture_measurement/cb_logging.c ****     CyGlobalIntDisable
 422              		.loc 1 147 0
 423              	@ 147 ".\moisture_measurement\cb_logging.c" 1
 424 000e 72B6     		CPSID   i
 425              	@ 0 "" 2
 148:.\moisture_measurement/cb_logging.c ****     modbus_address = get_modbus_register_address();
 426              		.loc 1 148 0
 427              		.thumb
 428 0010 FFF7FEFF 		bl	get_modbus_register_address
 429 0014 7861     		str	r0, [r7, #20]
 149:.\moisture_measurement/cb_logging.c ****     buffer = (uint8 *)&modbus_address[REFERENCE_RESISTOR_1_FLOAT];
 430              		.loc 1 149 0
 431 0016 7B69     		ldr	r3, [r7, #20]
 432 0018 DC33     		adds	r3, r3, #220
 433 001a 3B61     		str	r3, [r7, #16]
 150:.\moisture_measurement/cb_logging.c ****     //cystatus Em_EEPROM_1_Write(const uint8 srcBuf[], const uint8 eepromPtr[], uint32 byteCount);
 151:.\moisture_measurement/cb_logging.c ****     Em_EEPROM_1_Write((uint8 *) reference_resistance_array,buffer, sizeof(reference_resistance_arra
 434              		.loc 1 151 0
 435 001c 0548     		ldr	r0, .L29
 436 001e 3969     		ldr	r1, [r7, #16]
 437 0020 2422     		movs	r2, #36
 438 0022 FFF7FEFF 		bl	Em_EEPROM_1_Write
 152:.\moisture_measurement/cb_logging.c ****     CYGlobalIntEnable
 439              		.loc 1 152 0
 440              	@ 152 ".\moisture_measurement\cb_logging.c" 1
 441 0026 62B6     		CPSIE   i
 442              	@ 0 "" 2
 153:.\moisture_measurement/cb_logging.c ****     return 1;
 443              		.loc 1 153 0
 444              		.thumb
 445 0028 0123     		movs	r3, #1
 154:.\moisture_measurement/cb_logging.c **** }
 446              		.loc 1 154 0
 447 002a 1846     		mov	r0, r3
 448 002c 1837     		adds	r7, r7, #24
 449              		.cfi_def_cfa_offset 8
 450 002e BD46     		mov	sp, r7
 451              		.cfi_def_cfa_register 13
 452              		@ sp needed
 453 0030 80BD     		pop	{r7, pc}
 454              	.L30:
 455 0032 00BF     		.align	2
 456              	.L29:
 457 0034 00000000 		.word	reference_resistance_array
 458              		.cfi_endproc
 459              	.LFE71:
 460              		.size	update_reference_resistor_configuration, .-update_reference_resistor_configuration
 461              		.section	.text.update_moisture_configuration,"ax",%progbits
 462              		.align	2
 463              		.global	update_moisture_configuration
 464              		.thumb
 465              		.thumb_func
 466              		.type	update_moisture_configuration, %function
 467              	update_moisture_configuration:
 468              	.LFB72:
 155:.\moisture_measurement/cb_logging.c **** 
ARM GAS  C:\Users\glenn\AppData\Local\Temp\ccAtjKMd.s 			page 12


 156:.\moisture_measurement/cb_logging.c **** int update_moisture_configuration(unsigned link_id, unsigned param_1,
 157:.\moisture_measurement/cb_logging.c ****   unsigned param_2, unsigned param_3, unsigned event, unsigned data)
 158:.\moisture_measurement/cb_logging.c **** {
 469              		.loc 1 158 0
 470              		.cfi_startproc
 471              		@ args = 8, pretend = 0, frame = 24
 472              		@ frame_needed = 1, uses_anonymous_args = 0
 473 0000 80B5     		push	{r7, lr}
 474              		.cfi_def_cfa_offset 8
 475              		.cfi_offset 7, -8
 476              		.cfi_offset 14, -4
 477 0002 86B0     		sub	sp, sp, #24
 478              		.cfi_def_cfa_offset 32
 479 0004 00AF     		add	r7, sp, #0
 480              		.cfi_def_cfa_register 7
 481 0006 F860     		str	r0, [r7, #12]
 482 0008 B960     		str	r1, [r7, #8]
 483 000a 7A60     		str	r2, [r7, #4]
 484 000c 3B60     		str	r3, [r7]
 159:.\moisture_measurement/cb_logging.c ****     const uint16 *modbus_address;
 160:.\moisture_measurement/cb_logging.c ****     uint8 *buffer;
 161:.\moisture_measurement/cb_logging.c ****     CyGlobalIntDisable
 485              		.loc 1 161 0
 486              	@ 161 ".\moisture_measurement\cb_logging.c" 1
 487 000e 72B6     		CPSID   i
 488              	@ 0 "" 2
 162:.\moisture_measurement/cb_logging.c ****     modbus_address = get_modbus_register_address();
 489              		.loc 1 162 0
 490              		.thumb
 491 0010 FFF7FEFF 		bl	get_modbus_register_address
 492 0014 7861     		str	r0, [r7, #20]
 163:.\moisture_measurement/cb_logging.c ****     buffer = (uint8 *)&modbus_address[MOISTURE_SENSOR_1_CONFIGURATION];
 493              		.loc 1 163 0
 494 0016 7B69     		ldr	r3, [r7, #20]
 495 0018 A033     		adds	r3, r3, #160
 496 001a 3B61     		str	r3, [r7, #16]
 164:.\moisture_measurement/cb_logging.c ****     //cystatus Em_EEPROM_1_Write(const uint8 srcBuf[], const uint8 eepromPtr[], uint32 byteCount);
 165:.\moisture_measurement/cb_logging.c ****     Em_EEPROM_1_Write((uint8 *) moisture_configuration_data,buffer, sizeof(moisture_configuration_d
 497              		.loc 1 165 0
 498 001c 0548     		ldr	r0, .L33
 499 001e 3969     		ldr	r1, [r7, #16]
 500 0020 1222     		movs	r2, #18
 501 0022 FFF7FEFF 		bl	Em_EEPROM_1_Write
 166:.\moisture_measurement/cb_logging.c ****     CYGlobalIntEnable
 502              		.loc 1 166 0
 503              	@ 166 ".\moisture_measurement\cb_logging.c" 1
 504 0026 62B6     		CPSIE   i
 505              	@ 0 "" 2
 167:.\moisture_measurement/cb_logging.c ****     return 1;
 506              		.loc 1 167 0
 507              		.thumb
 508 0028 0123     		movs	r3, #1
 168:.\moisture_measurement/cb_logging.c **** }
 509              		.loc 1 168 0
 510 002a 1846     		mov	r0, r3
 511 002c 1837     		adds	r7, r7, #24
 512              		.cfi_def_cfa_offset 8
ARM GAS  C:\Users\glenn\AppData\Local\Temp\ccAtjKMd.s 			page 13


 513 002e BD46     		mov	sp, r7
 514              		.cfi_def_cfa_register 13
 515              		@ sp needed
 516 0030 80BD     		pop	{r7, pc}
 517              	.L34:
 518 0032 00BF     		.align	2
 519              	.L33:
 520 0034 00000000 		.word	moisture_configuration_data
 521              		.cfi_endproc
 522              	.LFE72:
 523              		.size	update_moisture_configuration, .-update_moisture_configuration
 524              		.section	.text.update_temperature_configuration,"ax",%progbits
 525              		.align	2
 526              		.global	update_temperature_configuration
 527              		.thumb
 528              		.thumb_func
 529              		.type	update_temperature_configuration, %function
 530              	update_temperature_configuration:
 531              	.LFB73:
 169:.\moisture_measurement/cb_logging.c **** 
 170:.\moisture_measurement/cb_logging.c **** 
 171:.\moisture_measurement/cb_logging.c **** 
 172:.\moisture_measurement/cb_logging.c **** int update_temperature_configuration(unsigned link_id, unsigned param_1,
 173:.\moisture_measurement/cb_logging.c ****   unsigned param_2, unsigned param_3, unsigned event, unsigned data)
 174:.\moisture_measurement/cb_logging.c **** {
 532              		.loc 1 174 0
 533              		.cfi_startproc
 534              		@ args = 8, pretend = 0, frame = 24
 535              		@ frame_needed = 1, uses_anonymous_args = 0
 536 0000 80B5     		push	{r7, lr}
 537              		.cfi_def_cfa_offset 8
 538              		.cfi_offset 7, -8
 539              		.cfi_offset 14, -4
 540 0002 86B0     		sub	sp, sp, #24
 541              		.cfi_def_cfa_offset 32
 542 0004 00AF     		add	r7, sp, #0
 543              		.cfi_def_cfa_register 7
 544 0006 F860     		str	r0, [r7, #12]
 545 0008 B960     		str	r1, [r7, #8]
 546 000a 7A60     		str	r2, [r7, #4]
 547 000c 3B60     		str	r3, [r7]
 175:.\moisture_measurement/cb_logging.c ****     const uint16 *modbus_address;
 176:.\moisture_measurement/cb_logging.c ****     uint8 *buffer;
 177:.\moisture_measurement/cb_logging.c ****     CyGlobalIntDisable
 548              		.loc 1 177 0
 549              	@ 177 ".\moisture_measurement\cb_logging.c" 1
 550 000e 72B6     		CPSID   i
 551              	@ 0 "" 2
 178:.\moisture_measurement/cb_logging.c ****     modbus_address = get_modbus_register_address();
 552              		.loc 1 178 0
 553              		.thumb
 554 0010 FFF7FEFF 		bl	get_modbus_register_address
 555 0014 7861     		str	r0, [r7, #20]
 179:.\moisture_measurement/cb_logging.c ****     buffer = (uint8 *)&modbus_address[MOISTURE_TEMP_CALIBRATION_A];
 556              		.loc 1 179 0
 557 0016 7B69     		ldr	r3, [r7, #20]
 558 0018 C833     		adds	r3, r3, #200
ARM GAS  C:\Users\glenn\AppData\Local\Temp\ccAtjKMd.s 			page 14


 559 001a 3B61     		str	r3, [r7, #16]
 180:.\moisture_measurement/cb_logging.c ****     //cystatus Em_EEPROM_1_Write(const uint8 srcBuf[], const uint8 eepromPtr[], uint32 byteCount);
 181:.\moisture_measurement/cb_logging.c ****     Em_EEPROM_1_Write((uint8 *) temperature_calibration_factors,buffer, sizeof(temperature_calibrat
 560              		.loc 1 181 0
 561 001c 0548     		ldr	r0, .L37
 562 001e 3969     		ldr	r1, [r7, #16]
 563 0020 0822     		movs	r2, #8
 564 0022 FFF7FEFF 		bl	Em_EEPROM_1_Write
 182:.\moisture_measurement/cb_logging.c ****     CYGlobalIntEnable
 565              		.loc 1 182 0
 566              	@ 182 ".\moisture_measurement\cb_logging.c" 1
 567 0026 62B6     		CPSIE   i
 568              	@ 0 "" 2
 183:.\moisture_measurement/cb_logging.c ****     return 1;
 569              		.loc 1 183 0
 570              		.thumb
 571 0028 0123     		movs	r3, #1
 184:.\moisture_measurement/cb_logging.c **** }
 572              		.loc 1 184 0
 573 002a 1846     		mov	r0, r3
 574 002c 1837     		adds	r7, r7, #24
 575              		.cfi_def_cfa_offset 8
 576 002e BD46     		mov	sp, r7
 577              		.cfi_def_cfa_register 13
 578              		@ sp needed
 579 0030 80BD     		pop	{r7, pc}
 580              	.L38:
 581 0032 00BF     		.align	2
 582              	.L37:
 583 0034 00000000 		.word	temperature_calibration_factors
 584              		.cfi_endproc
 585              	.LFE73:
 586              		.size	update_temperature_configuration, .-update_temperature_configuration
 587              		.section	.text.update_measurement_rate,"ax",%progbits
 588              		.align	2
 589              		.global	update_measurement_rate
 590              		.thumb
 591              		.thumb_func
 592              		.type	update_measurement_rate, %function
 593              	update_measurement_rate:
 594              	.LFB74:
 185:.\moisture_measurement/cb_logging.c **** 
 186:.\moisture_measurement/cb_logging.c **** 
 187:.\moisture_measurement/cb_logging.c **** int update_measurement_rate(unsigned link_id, unsigned param_1,
 188:.\moisture_measurement/cb_logging.c ****   unsigned param_2, unsigned param_3, unsigned event, unsigned data)
 189:.\moisture_measurement/cb_logging.c **** {
 595              		.loc 1 189 0
 596              		.cfi_startproc
 597              		@ args = 8, pretend = 0, frame = 24
 598              		@ frame_needed = 1, uses_anonymous_args = 0
 599 0000 80B5     		push	{r7, lr}
 600              		.cfi_def_cfa_offset 8
 601              		.cfi_offset 7, -8
 602              		.cfi_offset 14, -4
 603 0002 86B0     		sub	sp, sp, #24
 604              		.cfi_def_cfa_offset 32
 605 0004 00AF     		add	r7, sp, #0
ARM GAS  C:\Users\glenn\AppData\Local\Temp\ccAtjKMd.s 			page 15


 606              		.cfi_def_cfa_register 7
 607 0006 F860     		str	r0, [r7, #12]
 608 0008 B960     		str	r1, [r7, #8]
 609 000a 7A60     		str	r2, [r7, #4]
 610 000c 3B60     		str	r3, [r7]
 190:.\moisture_measurement/cb_logging.c **** 
 191:.\moisture_measurement/cb_logging.c ****     
 192:.\moisture_measurement/cb_logging.c ****     float data_float;
 193:.\moisture_measurement/cb_logging.c ****     data_float = data;
 611              		.loc 1 193 0
 612 000e 786A     		ldr	r0, [r7, #36]
 613 0010 FFF7FEFF 		bl	__aeabi_ui2f
 614 0014 0346     		mov	r3, r0
 615 0016 7B61     		str	r3, [r7, #20]	@ float
 194:.\moisture_measurement/cb_logging.c ****    
 195:.\moisture_measurement/cb_logging.c ****     write_32_eeprom(  EEPROM_SAMPLING_RATE, data_float );
 616              		.loc 1 195 0
 617 0018 0820     		movs	r0, #8
 618 001a 7969     		ldr	r1, [r7, #20]	@ float
 619 001c FFF7FEFF 		bl	write_32_eeprom
 196:.\moisture_measurement/cb_logging.c ****     return 0;
 620              		.loc 1 196 0
 621 0020 0023     		movs	r3, #0
 197:.\moisture_measurement/cb_logging.c **** }
 622              		.loc 1 197 0
 623 0022 1846     		mov	r0, r3
 624 0024 1837     		adds	r7, r7, #24
 625              		.cfi_def_cfa_offset 8
 626 0026 BD46     		mov	sp, r7
 627              		.cfi_def_cfa_register 13
 628              		@ sp needed
 629 0028 80BD     		pop	{r7, pc}
 630              		.cfi_endproc
 631              	.LFE74:
 632              		.size	update_measurement_rate, .-update_measurement_rate
 633 002a 00BF     		.section	.text.initialize_eeprom_logging,"ax",%progbits
 634              		.align	2
 635              		.global	initialize_eeprom_logging
 636              		.thumb
 637              		.thumb_func
 638              		.type	initialize_eeprom_logging, %function
 639              	initialize_eeprom_logging:
 640              	.LFB75:
 198:.\moisture_measurement/cb_logging.c **** 
 199:.\moisture_measurement/cb_logging.c **** 
 200:.\moisture_measurement/cb_logging.c **** 
 201:.\moisture_measurement/cb_logging.c **** 
 202:.\moisture_measurement/cb_logging.c **** 
 203:.\moisture_measurement/cb_logging.c **** 
 204:.\moisture_measurement/cb_logging.c **** void initialize_eeprom_logging( uint32 number_of_sensors, uint32 sample_time_interval )
 205:.\moisture_measurement/cb_logging.c **** {
 641              		.loc 1 205 0
 642              		.cfi_startproc
 643              		@ args = 0, pretend = 0, frame = 32
 644              		@ frame_needed = 1, uses_anonymous_args = 0
 645 0000 80B5     		push	{r7, lr}
 646              		.cfi_def_cfa_offset 8
ARM GAS  C:\Users\glenn\AppData\Local\Temp\ccAtjKMd.s 			page 16


 647              		.cfi_offset 7, -8
 648              		.cfi_offset 14, -4
 649 0002 88B0     		sub	sp, sp, #32
 650              		.cfi_def_cfa_offset 40
 651 0004 00AF     		add	r7, sp, #0
 652              		.cfi_def_cfa_register 7
 653 0006 7860     		str	r0, [r7, #4]
 654 0008 3960     		str	r1, [r7]
 206:.\moisture_measurement/cb_logging.c ****     // Start up EEPROM
 207:.\moisture_measurement/cb_logging.c ****     float zero;
 208:.\moisture_measurement/cb_logging.c ****     float init_value;
 209:.\moisture_measurement/cb_logging.c ****     float max_log_number;
 210:.\moisture_measurement/cb_logging.c ****     float sample_time_float;
 211:.\moisture_measurement/cb_logging.c ****     float number_of_sensors_float;
 212:.\moisture_measurement/cb_logging.c ****     int   validate_flag;
 213:.\moisture_measurement/cb_logging.c ****    
 214:.\moisture_measurement/cb_logging.c ****     
 215:.\moisture_measurement/cb_logging.c ****     sample_time_float = sample_time_interval;
 655              		.loc 1 215 0
 656 000a 3868     		ldr	r0, [r7]
 657 000c FFF7FEFF 		bl	__aeabi_ui2f
 658 0010 0346     		mov	r3, r0
 659 0012 FB61     		str	r3, [r7, #28]	@ float
 216:.\moisture_measurement/cb_logging.c ****     number_of_sensors_float = number_of_sensors;
 660              		.loc 1 216 0
 661 0014 7868     		ldr	r0, [r7, #4]
 662 0016 FFF7FEFF 		bl	__aeabi_ui2f
 663 001a 0346     		mov	r3, r0
 664 001c BB61     		str	r3, [r7, #24]	@ float
 217:.\moisture_measurement/cb_logging.c ****     
 218:.\moisture_measurement/cb_logging.c ****     
 219:.\moisture_measurement/cb_logging.c ****     
 220:.\moisture_measurement/cb_logging.c ****     max_log_number = ( EEPROM_1_EEPROM_SIZE - EEPROM_LOG_DATA_START_INDEX)/( number_of_sensors * 4 
 665              		.loc 1 220 0
 666 001e 7B68     		ldr	r3, [r7, #4]
 667 0020 9B00     		lsls	r3, r3, #2
 668 0022 40F2EC72 		movw	r2, #2028
 669 0026 B2FBF3F3 		udiv	r3, r2, r3
 670 002a 1846     		mov	r0, r3
 671 002c FFF7FEFF 		bl	__aeabi_ui2f
 672 0030 0346     		mov	r3, r0
 673 0032 7B61     		str	r3, [r7, #20]	@ float
 221:.\moisture_measurement/cb_logging.c ****     validate_flag = validate_eeprom();
 674              		.loc 1 221 0
 675 0034 FFF7FEFF 		bl	validate_eeprom
 676 0038 3861     		str	r0, [r7, #16]
 222:.\moisture_measurement/cb_logging.c ****     if( validate_flag == 0 )
 677              		.loc 1 222 0
 678 003a 3B69     		ldr	r3, [r7, #16]
 679 003c 002B     		cmp	r3, #0
 680 003e 18D1     		bne	.L41
 223:.\moisture_measurement/cb_logging.c ****     {
 224:.\moisture_measurement/cb_logging.c ****    
 225:.\moisture_measurement/cb_logging.c ****         init_value = EEPROM_INITIALIZATION_VALUE;
 681              		.loc 1 225 0
 682 0040 0D4B     		ldr	r3, .L43
 683 0042 FB60     		str	r3, [r7, #12]	@ float
ARM GAS  C:\Users\glenn\AppData\Local\Temp\ccAtjKMd.s 			page 17


 226:.\moisture_measurement/cb_logging.c ****         zero = 0;
 684              		.loc 1 226 0
 685 0044 4FF00003 		mov	r3, #0
 686 0048 BB60     		str	r3, [r7, #8]	@ float
 227:.\moisture_measurement/cb_logging.c ****         write_32_eeprom( EEPROM_INITIALIZATION_INDEX, init_value );
 687              		.loc 1 227 0
 688 004a 0020     		movs	r0, #0
 689 004c F968     		ldr	r1, [r7, #12]	@ float
 690 004e FFF7FEFF 		bl	write_32_eeprom
 228:.\moisture_measurement/cb_logging.c ****        
 229:.\moisture_measurement/cb_logging.c ****         write_32_eeprom( EEPROM_NUMBER_OF_ENTRIES, number_of_sensors_float );
 691              		.loc 1 229 0
 692 0052 0420     		movs	r0, #4
 693 0054 B969     		ldr	r1, [r7, #24]	@ float
 694 0056 FFF7FEFF 		bl	write_32_eeprom
 230:.\moisture_measurement/cb_logging.c ****         write_32_eeprom( EEPROM_SAMPLING_RATE, sample_time_float );
 695              		.loc 1 230 0
 696 005a 0820     		movs	r0, #8
 697 005c F969     		ldr	r1, [r7, #28]	@ float
 698 005e FFF7FEFF 		bl	write_32_eeprom
 231:.\moisture_measurement/cb_logging.c ****         write_32_eeprom( EEPROM_LOGGING_INDEX,  zero );
 699              		.loc 1 231 0
 700 0062 0C20     		movs	r0, #12
 701 0064 B968     		ldr	r1, [r7, #8]	@ float
 702 0066 FFF7FEFF 		bl	write_32_eeprom
 232:.\moisture_measurement/cb_logging.c ****         write_32_eeprom( EEPROM_MAX_NUMBER_OF_ENTRIES, max_log_number );
 703              		.loc 1 232 0
 704 006a 1020     		movs	r0, #16
 705 006c 7969     		ldr	r1, [r7, #20]	@ float
 706 006e FFF7FEFF 		bl	write_32_eeprom
 707              	.L41:
 233:.\moisture_measurement/cb_logging.c ****     }
 234:.\moisture_measurement/cb_logging.c **** }
 708              		.loc 1 234 0
 709 0072 2037     		adds	r7, r7, #32
 710              		.cfi_def_cfa_offset 8
 711 0074 BD46     		mov	sp, r7
 712              		.cfi_def_cfa_register 13
 713              		@ sp needed
 714 0076 80BD     		pop	{r7, pc}
 715              	.L44:
 716              		.align	2
 717              	.L43:
 718 0078 67550542 		.word	1107645799
 719              		.cfi_endproc
 720              	.LFE75:
 721              		.size	initialize_eeprom_logging, .-initialize_eeprom_logging
 722              		.section	.text.log_data,"ax",%progbits
 723              		.align	2
 724              		.global	log_data
 725              		.thumb
 726              		.thumb_func
 727              		.type	log_data, %function
 728              	log_data:
 729              	.LFB76:
 235:.\moisture_measurement/cb_logging.c **** 
 236:.\moisture_measurement/cb_logging.c **** void log_data( uint32 sensor_position, float value )
ARM GAS  C:\Users\glenn\AppData\Local\Temp\ccAtjKMd.s 			page 18


 237:.\moisture_measurement/cb_logging.c **** {
 730              		.loc 1 237 0
 731              		.cfi_startproc
 732              		@ args = 0, pretend = 0, frame = 24
 733              		@ frame_needed = 1, uses_anonymous_args = 0
 734 0000 80B5     		push	{r7, lr}
 735              		.cfi_def_cfa_offset 8
 736              		.cfi_offset 7, -8
 737              		.cfi_offset 14, -4
 738 0002 86B0     		sub	sp, sp, #24
 739              		.cfi_def_cfa_offset 32
 740 0004 00AF     		add	r7, sp, #0
 741              		.cfi_def_cfa_register 7
 742 0006 7860     		str	r0, [r7, #4]
 743 0008 3960     		str	r1, [r7]	@ float
 238:.\moisture_measurement/cb_logging.c ****     uint32 number_of_sensors;
 239:.\moisture_measurement/cb_logging.c ****     uint32 logging_index;
 240:.\moisture_measurement/cb_logging.c ****     uint32 position_index;
 241:.\moisture_measurement/cb_logging.c ****     if( validate_eeprom() )
 744              		.loc 1 241 0
 745 000a FFF7FEFF 		bl	validate_eeprom
 746 000e 0346     		mov	r3, r0
 747 0010 002B     		cmp	r3, #0
 748 0012 23D0     		beq	.L45
 242:.\moisture_measurement/cb_logging.c ****     {
 243:.\moisture_measurement/cb_logging.c ****          number_of_sensors = read_32_eeprom( EEPROM_NUMBER_OF_ENTRIES );
 749              		.loc 1 243 0
 750 0014 0420     		movs	r0, #4
 751 0016 FFF7FEFF 		bl	read_32_eeprom
 752 001a 0346     		mov	r3, r0
 753 001c 1846     		mov	r0, r3
 754 001e FFF7FEFF 		bl	__aeabi_f2uiz
 755 0022 0346     		mov	r3, r0
 756 0024 7B61     		str	r3, [r7, #20]
 244:.\moisture_measurement/cb_logging.c ****          if( sensor_position < number_of_sensors )
 757              		.loc 1 244 0
 758 0026 7A68     		ldr	r2, [r7, #4]
 759 0028 7B69     		ldr	r3, [r7, #20]
 760 002a 9A42     		cmp	r2, r3
 761 002c 16D2     		bcs	.L45
 245:.\moisture_measurement/cb_logging.c ****          {
 246:.\moisture_measurement/cb_logging.c ****              logging_index = read_32_eeprom( EEPROM_LOGGING_INDEX );
 762              		.loc 1 246 0
 763 002e 0C20     		movs	r0, #12
 764 0030 FFF7FEFF 		bl	read_32_eeprom
 765 0034 0346     		mov	r3, r0
 766 0036 1846     		mov	r0, r3
 767 0038 FFF7FEFF 		bl	__aeabi_f2uiz
 768 003c 0346     		mov	r3, r0
 769 003e 3B61     		str	r3, [r7, #16]
 247:.\moisture_measurement/cb_logging.c ****              position_index = EEPROM_LOG_DATA_START_INDEX  + ( number_of_sensors *4*logging_index )
 770              		.loc 1 247 0
 771 0040 7B69     		ldr	r3, [r7, #20]
 772 0042 3A69     		ldr	r2, [r7, #16]
 773 0044 02FB03F2 		mul	r2, r2, r3
 774 0048 7B68     		ldr	r3, [r7, #4]
 775 004a 1344     		add	r3, r3, r2
ARM GAS  C:\Users\glenn\AppData\Local\Temp\ccAtjKMd.s 			page 19


 776 004c 0533     		adds	r3, r3, #5
 777 004e 9B00     		lsls	r3, r3, #2
 778 0050 FB60     		str	r3, [r7, #12]
 248:.\moisture_measurement/cb_logging.c ****              write_32_eeprom( position_index , value );
 779              		.loc 1 248 0
 780 0052 FB68     		ldr	r3, [r7, #12]
 781 0054 1846     		mov	r0, r3
 782 0056 3968     		ldr	r1, [r7]	@ float
 783 0058 FFF7FEFF 		bl	write_32_eeprom
 784              	.L45:
 249:.\moisture_measurement/cb_logging.c ****          }
 250:.\moisture_measurement/cb_logging.c ****     }
 251:.\moisture_measurement/cb_logging.c **** }
 785              		.loc 1 251 0
 786 005c 1837     		adds	r7, r7, #24
 787              		.cfi_def_cfa_offset 8
 788 005e BD46     		mov	sp, r7
 789              		.cfi_def_cfa_register 13
 790              		@ sp needed
 791 0060 80BD     		pop	{r7, pc}
 792              		.cfi_endproc
 793              	.LFE76:
 794              		.size	log_data, .-log_data
 795 0062 00BF     		.section	.text.advance_index,"ax",%progbits
 796              		.align	2
 797              		.global	advance_index
 798              		.thumb
 799              		.thumb_func
 800              		.type	advance_index, %function
 801              	advance_index:
 802              	.LFB77:
 252:.\moisture_measurement/cb_logging.c ****        
 253:.\moisture_measurement/cb_logging.c **** void advance_index( void )
 254:.\moisture_measurement/cb_logging.c **** {
 803              		.loc 1 254 0
 804              		.cfi_startproc
 805              		@ args = 0, pretend = 0, frame = 16
 806              		@ frame_needed = 1, uses_anonymous_args = 0
 807 0000 80B5     		push	{r7, lr}
 808              		.cfi_def_cfa_offset 8
 809              		.cfi_offset 7, -8
 810              		.cfi_offset 14, -4
 811 0002 84B0     		sub	sp, sp, #16
 812              		.cfi_def_cfa_offset 24
 813 0004 00AF     		add	r7, sp, #0
 814              		.cfi_def_cfa_register 7
 255:.\moisture_measurement/cb_logging.c ****     uint32 log_index;
 256:.\moisture_measurement/cb_logging.c ****     uint32 max_index;
 257:.\moisture_measurement/cb_logging.c ****     float  log_index_float;
 258:.\moisture_measurement/cb_logging.c ****     log_index = 0; // remove warning
 815              		.loc 1 258 0
 816 0006 0023     		movs	r3, #0
 817 0008 FB60     		str	r3, [r7, #12]
 259:.\moisture_measurement/cb_logging.c ****     max_index = 0; // remove warning
 818              		.loc 1 259 0
 819 000a 0023     		movs	r3, #0
 820 000c BB60     		str	r3, [r7, #8]
ARM GAS  C:\Users\glenn\AppData\Local\Temp\ccAtjKMd.s 			page 20


 260:.\moisture_measurement/cb_logging.c ****     if( validate_eeprom() )
 821              		.loc 1 260 0
 822 000e FFF7FEFF 		bl	validate_eeprom
 823 0012 0346     		mov	r3, r0
 824 0014 002B     		cmp	r3, #0
 825 0016 20D0     		beq	.L47
 261:.\moisture_measurement/cb_logging.c ****     {
 262:.\moisture_measurement/cb_logging.c ****         
 263:.\moisture_measurement/cb_logging.c ****        log_index = read_32_eeprom( EEPROM_LOGGING_INDEX);
 826              		.loc 1 263 0
 827 0018 0C20     		movs	r0, #12
 828 001a FFF7FEFF 		bl	read_32_eeprom
 829 001e 0346     		mov	r3, r0
 830 0020 1846     		mov	r0, r3
 831 0022 FFF7FEFF 		bl	__aeabi_f2uiz
 832 0026 0346     		mov	r3, r0
 833 0028 FB60     		str	r3, [r7, #12]
 264:.\moisture_measurement/cb_logging.c ****        max_index = read_32_eeprom(EEPROM_MAX_NUMBER_OF_ENTRIES );
 834              		.loc 1 264 0
 835 002a 1020     		movs	r0, #16
 836 002c FFF7FEFF 		bl	read_32_eeprom
 837 0030 0346     		mov	r3, r0
 838 0032 1846     		mov	r0, r3
 839 0034 FFF7FEFF 		bl	__aeabi_f2uiz
 840 0038 0346     		mov	r3, r0
 841 003a BB60     		str	r3, [r7, #8]
 265:.\moisture_measurement/cb_logging.c ****        log_index_float = log_index +1;
 842              		.loc 1 265 0
 843 003c FB68     		ldr	r3, [r7, #12]
 844 003e 0133     		adds	r3, r3, #1
 845 0040 1846     		mov	r0, r3
 846 0042 FFF7FEFF 		bl	__aeabi_ui2f
 847 0046 0346     		mov	r3, r0
 848 0048 7B60     		str	r3, [r7, #4]	@ float
 266:.\moisture_measurement/cb_logging.c ****        if( log_index < max_index )
 849              		.loc 1 266 0
 850 004a FA68     		ldr	r2, [r7, #12]
 851 004c BB68     		ldr	r3, [r7, #8]
 852 004e 9A42     		cmp	r2, r3
 853 0050 03D2     		bcs	.L47
 267:.\moisture_measurement/cb_logging.c ****        {
 268:.\moisture_measurement/cb_logging.c ****           write_32_eeprom(  EEPROM_LOGGING_INDEX,  log_index_float);
 854              		.loc 1 268 0
 855 0052 0C20     		movs	r0, #12
 856 0054 7968     		ldr	r1, [r7, #4]	@ float
 857 0056 FFF7FEFF 		bl	write_32_eeprom
 858              	.L47:
 269:.\moisture_measurement/cb_logging.c ****         
 270:.\moisture_measurement/cb_logging.c ****        }
 271:.\moisture_measurement/cb_logging.c ****     }
 272:.\moisture_measurement/cb_logging.c **** }
 859              		.loc 1 272 0
 860 005a 1037     		adds	r7, r7, #16
 861              		.cfi_def_cfa_offset 8
 862 005c BD46     		mov	sp, r7
 863              		.cfi_def_cfa_register 13
 864              		@ sp needed
ARM GAS  C:\Users\glenn\AppData\Local\Temp\ccAtjKMd.s 			page 21


 865 005e 80BD     		pop	{r7, pc}
 866              		.cfi_endproc
 867              	.LFE77:
 868              		.size	advance_index, .-advance_index
 869              		.section	.text.get_modbus_eeprom_registers,"ax",%progbits
 870              		.align	2
 871              		.global	get_modbus_eeprom_registers
 872              		.thumb
 873              		.thumb_func
 874              		.type	get_modbus_eeprom_registers, %function
 875              	get_modbus_eeprom_registers:
 876              	.LFB78:
 273:.\moisture_measurement/cb_logging.c **** 
 274:.\moisture_measurement/cb_logging.c **** // this function treats eeprom as a 16 bit modbus registes
 275:.\moisture_measurement/cb_logging.c **** int get_modbus_eeprom_registers( unsigned starting_register, unsigned number, uint16 *out )
 276:.\moisture_measurement/cb_logging.c **** {
 877              		.loc 1 276 0
 878              		.cfi_startproc
 879              		@ args = 0, pretend = 0, frame = 24
 880              		@ frame_needed = 1, uses_anonymous_args = 0
 881 0000 80B5     		push	{r7, lr}
 882              		.cfi_def_cfa_offset 8
 883              		.cfi_offset 7, -8
 884              		.cfi_offset 14, -4
 885 0002 86B0     		sub	sp, sp, #24
 886              		.cfi_def_cfa_offset 32
 887 0004 00AF     		add	r7, sp, #0
 888              		.cfi_def_cfa_register 7
 889 0006 F860     		str	r0, [r7, #12]
 890 0008 B960     		str	r1, [r7, #8]
 891 000a 7A60     		str	r2, [r7, #4]
 277:.\moisture_measurement/cb_logging.c **** 
 278:.\moisture_measurement/cb_logging.c ****     int return_value;
 279:.\moisture_measurement/cb_logging.c ****       
 280:.\moisture_measurement/cb_logging.c ****     
 281:.\moisture_measurement/cb_logging.c ****     starting_register = starting_register*2;
 892              		.loc 1 281 0
 893 000c FB68     		ldr	r3, [r7, #12]
 894 000e 5B00     		lsls	r3, r3, #1
 895 0010 FB60     		str	r3, [r7, #12]
 282:.\moisture_measurement/cb_logging.c ****     number = number *sizeof(uint16)/sizeof(uint8);
 896              		.loc 1 282 0
 897 0012 BB68     		ldr	r3, [r7, #8]
 898 0014 5B00     		lsls	r3, r3, #1
 899 0016 BB60     		str	r3, [r7, #8]
 283:.\moisture_measurement/cb_logging.c **** 
 284:.\moisture_measurement/cb_logging.c ****     if( ( starting_register + number ) < EEPROM_1_EEPROM_SIZE )
 900              		.loc 1 284 0
 901 0018 FA68     		ldr	r2, [r7, #12]
 902 001a BB68     		ldr	r3, [r7, #8]
 903 001c 1344     		add	r3, r3, r2
 904 001e B3F5006F 		cmp	r3, #2048
 905 0022 0AD2     		bcs	.L50
 285:.\moisture_measurement/cb_logging.c ****     {
 286:.\moisture_measurement/cb_logging.c ****       memcpy( out, &shaddow_eeprom[starting_register], number );        
 906              		.loc 1 286 0
 907 0024 FB68     		ldr	r3, [r7, #12]
ARM GAS  C:\Users\glenn\AppData\Local\Temp\ccAtjKMd.s 			page 22


 908 0026 084A     		ldr	r2, .L53
 909 0028 1344     		add	r3, r3, r2
 910 002a 7868     		ldr	r0, [r7, #4]
 911 002c 1946     		mov	r1, r3
 912 002e BA68     		ldr	r2, [r7, #8]
 913 0030 FFF7FEFF 		bl	memcpy
 287:.\moisture_measurement/cb_logging.c ****       return_value = 1;
 914              		.loc 1 287 0
 915 0034 0123     		movs	r3, #1
 916 0036 7B61     		str	r3, [r7, #20]
 917 0038 01E0     		b	.L51
 918              	.L50:
 288:.\moisture_measurement/cb_logging.c ****         
 289:.\moisture_measurement/cb_logging.c ****     }
 290:.\moisture_measurement/cb_logging.c ****     else
 291:.\moisture_measurement/cb_logging.c ****     {
 292:.\moisture_measurement/cb_logging.c ****         return_value = 0;
 919              		.loc 1 292 0
 920 003a 0023     		movs	r3, #0
 921 003c 7B61     		str	r3, [r7, #20]
 922              	.L51:
 293:.\moisture_measurement/cb_logging.c ****     }
 294:.\moisture_measurement/cb_logging.c ****     return return_value;
 923              		.loc 1 294 0
 924 003e 7B69     		ldr	r3, [r7, #20]
 295:.\moisture_measurement/cb_logging.c **** }
 925              		.loc 1 295 0
 926 0040 1846     		mov	r0, r3
 927 0042 1837     		adds	r7, r7, #24
 928              		.cfi_def_cfa_offset 8
 929 0044 BD46     		mov	sp, r7
 930              		.cfi_def_cfa_register 13
 931              		@ sp needed
 932 0046 80BD     		pop	{r7, pc}
 933              	.L54:
 934              		.align	2
 935              	.L53:
 936 0048 00000000 		.word	shaddow_eeprom
 937              		.cfi_endproc
 938              	.LFE78:
 939              		.size	get_modbus_eeprom_registers, .-get_modbus_eeprom_registers
 940              		.section	.text.initialize_shaddow_ram_buffer,"ax",%progbits
 941              		.align	2
 942              		.thumb
 943              		.thumb_func
 944              		.type	initialize_shaddow_ram_buffer, %function
 945              	initialize_shaddow_ram_buffer:
 946              	.LFB79:
 296:.\moisture_measurement/cb_logging.c **** 
 297:.\moisture_measurement/cb_logging.c **** /*
 298:.\moisture_measurement/cb_logging.c **** **
 299:.\moisture_measurement/cb_logging.c **** **  Static Functions
 300:.\moisture_measurement/cb_logging.c **** **
 301:.\moisture_measurement/cb_logging.c **** **
 302:.\moisture_measurement/cb_logging.c **** **
 303:.\moisture_measurement/cb_logging.c **** */
 304:.\moisture_measurement/cb_logging.c **** 
ARM GAS  C:\Users\glenn\AppData\Local\Temp\ccAtjKMd.s 			page 23


 305:.\moisture_measurement/cb_logging.c **** static void initialize_shaddow_ram_buffer( void )
 306:.\moisture_measurement/cb_logging.c **** {
 947              		.loc 1 306 0
 948              		.cfi_startproc
 949              		@ args = 0, pretend = 0, frame = 8
 950              		@ frame_needed = 1, uses_anonymous_args = 0
 951 0000 80B5     		push	{r7, lr}
 952              		.cfi_def_cfa_offset 8
 953              		.cfi_offset 7, -8
 954              		.cfi_offset 14, -4
 955 0002 82B0     		sub	sp, sp, #8
 956              		.cfi_def_cfa_offset 16
 957 0004 00AF     		add	r7, sp, #0
 958              		.cfi_def_cfa_register 7
 307:.\moisture_measurement/cb_logging.c ****     unsigned i;
 308:.\moisture_measurement/cb_logging.c ****     for( i = 0; i< EEPROM_1_EEPROM_SIZE; i++ )
 959              		.loc 1 308 0
 960 0006 0023     		movs	r3, #0
 961 0008 7B60     		str	r3, [r7, #4]
 962 000a 0EE0     		b	.L56
 963              	.L57:
 309:.\moisture_measurement/cb_logging.c ****     {
 310:.\moisture_measurement/cb_logging.c ****         shaddow_eeprom[i] = EEPROM_1_ReadByte(i);
 964              		.loc 1 310 0 discriminator 3
 965 000c 7B68     		ldr	r3, [r7, #4]
 966 000e 9BB2     		uxth	r3, r3
 967 0010 1846     		mov	r0, r3
 968 0012 FFF7FEFF 		bl	EEPROM_1_ReadByte
 969 0016 0346     		mov	r3, r0
 970 0018 1946     		mov	r1, r3
 971 001a 074A     		ldr	r2, .L58
 972 001c 7B68     		ldr	r3, [r7, #4]
 973 001e 1344     		add	r3, r3, r2
 974 0020 0A46     		mov	r2, r1
 975 0022 1A70     		strb	r2, [r3]
 308:.\moisture_measurement/cb_logging.c ****     {
 976              		.loc 1 308 0 discriminator 3
 977 0024 7B68     		ldr	r3, [r7, #4]
 978 0026 0133     		adds	r3, r3, #1
 979 0028 7B60     		str	r3, [r7, #4]
 980              	.L56:
 308:.\moisture_measurement/cb_logging.c ****     {
 981              		.loc 1 308 0 is_stmt 0 discriminator 1
 982 002a 7B68     		ldr	r3, [r7, #4]
 983 002c B3F5006F 		cmp	r3, #2048
 984 0030 ECD3     		bcc	.L57
 311:.\moisture_measurement/cb_logging.c ****     }
 312:.\moisture_measurement/cb_logging.c **** }
 985              		.loc 1 312 0 is_stmt 1
 986 0032 0837     		adds	r7, r7, #8
 987              		.cfi_def_cfa_offset 8
 988 0034 BD46     		mov	sp, r7
 989              		.cfi_def_cfa_register 13
 990              		@ sp needed
 991 0036 80BD     		pop	{r7, pc}
 992              	.L59:
 993              		.align	2
ARM GAS  C:\Users\glenn\AppData\Local\Temp\ccAtjKMd.s 			page 24


 994              	.L58:
 995 0038 00000000 		.word	shaddow_eeprom
 996              		.cfi_endproc
 997              	.LFE79:
 998              		.size	initialize_shaddow_ram_buffer, .-initialize_shaddow_ram_buffer
 999              		.section	.text.write_32_eeprom,"ax",%progbits
 1000              		.align	2
 1001              		.thumb
 1002              		.thumb_func
 1003              		.type	write_32_eeprom, %function
 1004              	write_32_eeprom:
 1005              	.LFB80:
 313:.\moisture_measurement/cb_logging.c **** 
 314:.\moisture_measurement/cb_logging.c **** 
 315:.\moisture_measurement/cb_logging.c **** 
 316:.\moisture_measurement/cb_logging.c **** static void write_32_eeprom( int eeprom_position, float value_float )
 317:.\moisture_measurement/cb_logging.c **** {
 1006              		.loc 1 317 0
 1007              		.cfi_startproc
 1008              		@ args = 0, pretend = 0, frame = 16
 1009              		@ frame_needed = 1, uses_anonymous_args = 0
 1010 0000 80B5     		push	{r7, lr}
 1011              		.cfi_def_cfa_offset 8
 1012              		.cfi_offset 7, -8
 1013              		.cfi_offset 14, -4
 1014 0002 84B0     		sub	sp, sp, #16
 1015              		.cfi_def_cfa_offset 24
 1016 0004 00AF     		add	r7, sp, #0
 1017              		.cfi_def_cfa_register 7
 1018 0006 7860     		str	r0, [r7, #4]
 1019 0008 3960     		str	r1, [r7]	@ float
 318:.\moisture_measurement/cb_logging.c ****   uint8 *value;
 319:.\moisture_measurement/cb_logging.c ****   value = (uint8 *)&value_float;
 1020              		.loc 1 319 0
 1021 000a 3B46     		mov	r3, r7
 1022 000c FB60     		str	r3, [r7, #12]
 320:.\moisture_measurement/cb_logging.c ****   EEPROM_1_WriteByte( *value, eeprom_position );
 1023              		.loc 1 320 0
 1024 000e FB68     		ldr	r3, [r7, #12]
 1025 0010 1A78     		ldrb	r2, [r3]	@ zero_extendqisi2
 1026 0012 7B68     		ldr	r3, [r7, #4]
 1027 0014 9BB2     		uxth	r3, r3
 1028 0016 1046     		mov	r0, r2
 1029 0018 1946     		mov	r1, r3
 1030 001a FFF7FEFF 		bl	EEPROM_1_WriteByte
 321:.\moisture_measurement/cb_logging.c ****   shaddow_eeprom[eeprom_position++] = *value++;
 1031              		.loc 1 321 0
 1032 001e 7B68     		ldr	r3, [r7, #4]
 1033 0020 5A1C     		adds	r2, r3, #1
 1034 0022 7A60     		str	r2, [r7, #4]
 1035 0024 FA68     		ldr	r2, [r7, #12]
 1036 0026 511C     		adds	r1, r2, #1
 1037 0028 F960     		str	r1, [r7, #12]
 1038 002a 1178     		ldrb	r1, [r2]	@ zero_extendqisi2
 1039 002c 1B4A     		ldr	r2, .L61
 1040 002e D154     		strb	r1, [r2, r3]
 322:.\moisture_measurement/cb_logging.c ****   EEPROM_1_WriteByte( *value, eeprom_position );
ARM GAS  C:\Users\glenn\AppData\Local\Temp\ccAtjKMd.s 			page 25


 1041              		.loc 1 322 0
 1042 0030 FB68     		ldr	r3, [r7, #12]
 1043 0032 1A78     		ldrb	r2, [r3]	@ zero_extendqisi2
 1044 0034 7B68     		ldr	r3, [r7, #4]
 1045 0036 9BB2     		uxth	r3, r3
 1046 0038 1046     		mov	r0, r2
 1047 003a 1946     		mov	r1, r3
 1048 003c FFF7FEFF 		bl	EEPROM_1_WriteByte
 323:.\moisture_measurement/cb_logging.c ****   shaddow_eeprom[eeprom_position++] = *value++;
 1049              		.loc 1 323 0
 1050 0040 7B68     		ldr	r3, [r7, #4]
 1051 0042 5A1C     		adds	r2, r3, #1
 1052 0044 7A60     		str	r2, [r7, #4]
 1053 0046 FA68     		ldr	r2, [r7, #12]
 1054 0048 511C     		adds	r1, r2, #1
 1055 004a F960     		str	r1, [r7, #12]
 1056 004c 1178     		ldrb	r1, [r2]	@ zero_extendqisi2
 1057 004e 134A     		ldr	r2, .L61
 1058 0050 D154     		strb	r1, [r2, r3]
 324:.\moisture_measurement/cb_logging.c ****   EEPROM_1_WriteByte( *value, eeprom_position );
 1059              		.loc 1 324 0
 1060 0052 FB68     		ldr	r3, [r7, #12]
 1061 0054 1A78     		ldrb	r2, [r3]	@ zero_extendqisi2
 1062 0056 7B68     		ldr	r3, [r7, #4]
 1063 0058 9BB2     		uxth	r3, r3
 1064 005a 1046     		mov	r0, r2
 1065 005c 1946     		mov	r1, r3
 1066 005e FFF7FEFF 		bl	EEPROM_1_WriteByte
 325:.\moisture_measurement/cb_logging.c ****   shaddow_eeprom[eeprom_position++] = *value++;
 1067              		.loc 1 325 0
 1068 0062 7B68     		ldr	r3, [r7, #4]
 1069 0064 5A1C     		adds	r2, r3, #1
 1070 0066 7A60     		str	r2, [r7, #4]
 1071 0068 FA68     		ldr	r2, [r7, #12]
 1072 006a 511C     		adds	r1, r2, #1
 1073 006c F960     		str	r1, [r7, #12]
 1074 006e 1178     		ldrb	r1, [r2]	@ zero_extendqisi2
 1075 0070 0A4A     		ldr	r2, .L61
 1076 0072 D154     		strb	r1, [r2, r3]
 326:.\moisture_measurement/cb_logging.c ****   EEPROM_1_WriteByte( *value, eeprom_position );
 1077              		.loc 1 326 0
 1078 0074 FB68     		ldr	r3, [r7, #12]
 1079 0076 1A78     		ldrb	r2, [r3]	@ zero_extendqisi2
 1080 0078 7B68     		ldr	r3, [r7, #4]
 1081 007a 9BB2     		uxth	r3, r3
 1082 007c 1046     		mov	r0, r2
 1083 007e 1946     		mov	r1, r3
 1084 0080 FFF7FEFF 		bl	EEPROM_1_WriteByte
 327:.\moisture_measurement/cb_logging.c ****   shaddow_eeprom[eeprom_position++] = *value++;
 1085              		.loc 1 327 0
 1086 0084 7B68     		ldr	r3, [r7, #4]
 1087 0086 5A1C     		adds	r2, r3, #1
 1088 0088 7A60     		str	r2, [r7, #4]
 1089 008a FA68     		ldr	r2, [r7, #12]
 1090 008c 511C     		adds	r1, r2, #1
 1091 008e F960     		str	r1, [r7, #12]
 1092 0090 1178     		ldrb	r1, [r2]	@ zero_extendqisi2
ARM GAS  C:\Users\glenn\AppData\Local\Temp\ccAtjKMd.s 			page 26


 1093 0092 024A     		ldr	r2, .L61
 1094 0094 D154     		strb	r1, [r2, r3]
 328:.\moisture_measurement/cb_logging.c **** 
 329:.\moisture_measurement/cb_logging.c **** }
 1095              		.loc 1 329 0
 1096 0096 1037     		adds	r7, r7, #16
 1097              		.cfi_def_cfa_offset 8
 1098 0098 BD46     		mov	sp, r7
 1099              		.cfi_def_cfa_register 13
 1100              		@ sp needed
 1101 009a 80BD     		pop	{r7, pc}
 1102              	.L62:
 1103              		.align	2
 1104              	.L61:
 1105 009c 00000000 		.word	shaddow_eeprom
 1106              		.cfi_endproc
 1107              	.LFE80:
 1108              		.size	write_32_eeprom, .-write_32_eeprom
 1109              		.section	.text.read_32_eeprom,"ax",%progbits
 1110              		.align	2
 1111              		.thumb
 1112              		.thumb_func
 1113              		.type	read_32_eeprom, %function
 1114              	read_32_eeprom:
 1115              	.LFB81:
 330:.\moisture_measurement/cb_logging.c **** 
 331:.\moisture_measurement/cb_logging.c **** static float read_32_eeprom( int eeprom_position )
 332:.\moisture_measurement/cb_logging.c **** {
 1116              		.loc 1 332 0
 1117              		.cfi_startproc
 1118              		@ args = 0, pretend = 0, frame = 16
 1119              		@ frame_needed = 1, uses_anonymous_args = 0
 1120 0000 90B5     		push	{r4, r7, lr}
 1121              		.cfi_def_cfa_offset 12
 1122              		.cfi_offset 4, -12
 1123              		.cfi_offset 7, -8
 1124              		.cfi_offset 14, -4
 1125 0002 85B0     		sub	sp, sp, #20
 1126              		.cfi_def_cfa_offset 32
 1127 0004 00AF     		add	r7, sp, #0
 1128              		.cfi_def_cfa_register 7
 1129 0006 7860     		str	r0, [r7, #4]
 333:.\moisture_measurement/cb_logging.c ****    float return_value;
 334:.\moisture_measurement/cb_logging.c ****    uint8 *temp;
 335:.\moisture_measurement/cb_logging.c ****    temp = (uint8 *)&return_value;
 1130              		.loc 1 335 0
 1131 0008 07F10803 		add	r3, r7, #8
 1132 000c FB60     		str	r3, [r7, #12]
 336:.\moisture_measurement/cb_logging.c ****    *temp++ = EEPROM_1_ReadByte(  eeprom_position++ );
 1133              		.loc 1 336 0
 1134 000e FC68     		ldr	r4, [r7, #12]
 1135 0010 631C     		adds	r3, r4, #1
 1136 0012 FB60     		str	r3, [r7, #12]
 1137 0014 7B68     		ldr	r3, [r7, #4]
 1138 0016 5A1C     		adds	r2, r3, #1
 1139 0018 7A60     		str	r2, [r7, #4]
 1140 001a 9BB2     		uxth	r3, r3
ARM GAS  C:\Users\glenn\AppData\Local\Temp\ccAtjKMd.s 			page 27


 1141 001c 1846     		mov	r0, r3
 1142 001e FFF7FEFF 		bl	EEPROM_1_ReadByte
 1143 0022 0346     		mov	r3, r0
 1144 0024 2370     		strb	r3, [r4]
 337:.\moisture_measurement/cb_logging.c ****    *temp++ = EEPROM_1_ReadByte( eeprom_position++ );
 1145              		.loc 1 337 0
 1146 0026 FC68     		ldr	r4, [r7, #12]
 1147 0028 631C     		adds	r3, r4, #1
 1148 002a FB60     		str	r3, [r7, #12]
 1149 002c 7B68     		ldr	r3, [r7, #4]
 1150 002e 5A1C     		adds	r2, r3, #1
 1151 0030 7A60     		str	r2, [r7, #4]
 1152 0032 9BB2     		uxth	r3, r3
 1153 0034 1846     		mov	r0, r3
 1154 0036 FFF7FEFF 		bl	EEPROM_1_ReadByte
 1155 003a 0346     		mov	r3, r0
 1156 003c 2370     		strb	r3, [r4]
 338:.\moisture_measurement/cb_logging.c ****    *temp++ = EEPROM_1_ReadByte( eeprom_position++ );
 1157              		.loc 1 338 0
 1158 003e FC68     		ldr	r4, [r7, #12]
 1159 0040 631C     		adds	r3, r4, #1
 1160 0042 FB60     		str	r3, [r7, #12]
 1161 0044 7B68     		ldr	r3, [r7, #4]
 1162 0046 5A1C     		adds	r2, r3, #1
 1163 0048 7A60     		str	r2, [r7, #4]
 1164 004a 9BB2     		uxth	r3, r3
 1165 004c 1846     		mov	r0, r3
 1166 004e FFF7FEFF 		bl	EEPROM_1_ReadByte
 1167 0052 0346     		mov	r3, r0
 1168 0054 2370     		strb	r3, [r4]
 339:.\moisture_measurement/cb_logging.c ****    *temp++ = EEPROM_1_ReadByte( eeprom_position++ );
 1169              		.loc 1 339 0
 1170 0056 FC68     		ldr	r4, [r7, #12]
 1171 0058 631C     		adds	r3, r4, #1
 1172 005a FB60     		str	r3, [r7, #12]
 1173 005c 7B68     		ldr	r3, [r7, #4]
 1174 005e 5A1C     		adds	r2, r3, #1
 1175 0060 7A60     		str	r2, [r7, #4]
 1176 0062 9BB2     		uxth	r3, r3
 1177 0064 1846     		mov	r0, r3
 1178 0066 FFF7FEFF 		bl	EEPROM_1_ReadByte
 1179 006a 0346     		mov	r3, r0
 1180 006c 2370     		strb	r3, [r4]
 340:.\moisture_measurement/cb_logging.c ****    return return_value;
 1181              		.loc 1 340 0
 1182 006e BB68     		ldr	r3, [r7, #8]	@ float
 341:.\moisture_measurement/cb_logging.c **** }
 1183              		.loc 1 341 0
 1184 0070 1846     		mov	r0, r3
 1185 0072 1437     		adds	r7, r7, #20
 1186              		.cfi_def_cfa_offset 12
 1187 0074 BD46     		mov	sp, r7
 1188              		.cfi_def_cfa_register 13
 1189              		@ sp needed
 1190 0076 90BD     		pop	{r4, r7, pc}
 1191              		.cfi_endproc
 1192              	.LFE81:
ARM GAS  C:\Users\glenn\AppData\Local\Temp\ccAtjKMd.s 			page 28


 1193              		.size	read_32_eeprom, .-read_32_eeprom
 1194              		.section	.text.validate_eeprom,"ax",%progbits
 1195              		.align	2
 1196              		.thumb
 1197              		.thumb_func
 1198              		.type	validate_eeprom, %function
 1199              	validate_eeprom:
 1200              	.LFB82:
 342:.\moisture_measurement/cb_logging.c **** 
 343:.\moisture_measurement/cb_logging.c **** 
 344:.\moisture_measurement/cb_logging.c **** 
 345:.\moisture_measurement/cb_logging.c **** 
 346:.\moisture_measurement/cb_logging.c **** 
 347:.\moisture_measurement/cb_logging.c **** 
 348:.\moisture_measurement/cb_logging.c **** 
 349:.\moisture_measurement/cb_logging.c **** static int validate_eeprom( void )
 350:.\moisture_measurement/cb_logging.c **** {
 1201              		.loc 1 350 0
 1202              		.cfi_startproc
 1203              		@ args = 0, pretend = 0, frame = 8
 1204              		@ frame_needed = 1, uses_anonymous_args = 0
 1205 0000 80B5     		push	{r7, lr}
 1206              		.cfi_def_cfa_offset 8
 1207              		.cfi_offset 7, -8
 1208              		.cfi_offset 14, -4
 1209 0002 82B0     		sub	sp, sp, #8
 1210              		.cfi_def_cfa_offset 16
 1211 0004 00AF     		add	r7, sp, #0
 1212              		.cfi_def_cfa_register 7
 351:.\moisture_measurement/cb_logging.c ****     uint32 value;
 352:.\moisture_measurement/cb_logging.c ****     int    return_value;
 353:.\moisture_measurement/cb_logging.c ****     
 354:.\moisture_measurement/cb_logging.c ****    
 355:.\moisture_measurement/cb_logging.c ****     value = read_32_eeprom( EEPROM_INITIALIZATION_INDEX );
 1213              		.loc 1 355 0
 1214 0006 0020     		movs	r0, #0
 1215 0008 FFF7FEFF 		bl	read_32_eeprom
 1216 000c 0346     		mov	r3, r0
 1217 000e 1846     		mov	r0, r3
 1218 0010 FFF7FEFF 		bl	__aeabi_f2uiz
 1219 0014 0346     		mov	r3, r0
 1220 0016 3B60     		str	r3, [r7]
 356:.\moisture_measurement/cb_logging.c ****     if( value == (uint32) EEPROM_INITIALIZATION_VALUE )
 1221              		.loc 1 356 0
 1222 0018 3B68     		ldr	r3, [r7]
 1223 001a 212B     		cmp	r3, #33
 1224 001c 02D1     		bne	.L66
 357:.\moisture_measurement/cb_logging.c ****     {
 358:.\moisture_measurement/cb_logging.c ****         return_value = 1;
 1225              		.loc 1 358 0
 1226 001e 0123     		movs	r3, #1
 1227 0020 7B60     		str	r3, [r7, #4]
 1228 0022 01E0     		b	.L67
 1229              	.L66:
 359:.\moisture_measurement/cb_logging.c ****     }
 360:.\moisture_measurement/cb_logging.c ****     else
 361:.\moisture_measurement/cb_logging.c ****     {
ARM GAS  C:\Users\glenn\AppData\Local\Temp\ccAtjKMd.s 			page 29


 362:.\moisture_measurement/cb_logging.c ****         return_value = 0;
 1230              		.loc 1 362 0
 1231 0024 0023     		movs	r3, #0
 1232 0026 7B60     		str	r3, [r7, #4]
 1233              	.L67:
 363:.\moisture_measurement/cb_logging.c ****     }
 364:.\moisture_measurement/cb_logging.c ****     return return_value;
 1234              		.loc 1 364 0
 1235 0028 7B68     		ldr	r3, [r7, #4]
 365:.\moisture_measurement/cb_logging.c ****     
 366:.\moisture_measurement/cb_logging.c **** }
 1236              		.loc 1 366 0
 1237 002a 1846     		mov	r0, r3
 1238 002c 0837     		adds	r7, r7, #8
 1239              		.cfi_def_cfa_offset 8
 1240 002e BD46     		mov	sp, r7
 1241              		.cfi_def_cfa_register 13
 1242              		@ sp needed
 1243 0030 80BD     		pop	{r7, pc}
 1244              		.cfi_endproc
 1245              	.LFE82:
 1246              		.size	validate_eeprom, .-validate_eeprom
 1247 0032 00BF     		.text
 1248              	.Letext0:
 1249              		.file 2 "c:\\program files (x86)\\cypress\\psoc creator\\3.3\\psoc creator\\import\\gnu\\arm\\4.9.
 1250              		.file 3 "c:\\program files (x86)\\cypress\\psoc creator\\3.3\\psoc creator\\import\\gnu\\arm\\4.9.
 1251              		.file 4 "Generated_Source\\PSoC5/cytypes.h"
 1252              		.file 5 "Generated_Source\\PSoC5/core_cm3.h"
 1253              		.file 6 ".\\rtu_modbus/process_modbus_message.h"
 1254              		.file 7 ".\\moisture_measurement\\cb_logging.h"
 1255              		.section	.debug_info,"",%progbits
 1256              	.Ldebug_info0:
 1257 0000 92080000 		.4byte	0x892
 1258 0004 0400     		.2byte	0x4
 1259 0006 00000000 		.4byte	.Ldebug_abbrev0
 1260 000a 04       		.byte	0x4
 1261 000b 01       		.uleb128 0x1
 1262 000c 6C010000 		.4byte	.LASF80
 1263 0010 01       		.byte	0x1
 1264 0011 DF030000 		.4byte	.LASF81
 1265 0015 EB020000 		.4byte	.LASF82
 1266 0019 00000000 		.4byte	.Ldebug_ranges0+0
 1267 001d 00000000 		.4byte	0
 1268 0021 00000000 		.4byte	.Ldebug_line0
 1269 0025 02       		.uleb128 0x2
 1270 0026 01       		.byte	0x1
 1271 0027 06       		.byte	0x6
 1272 0028 2C010000 		.4byte	.LASF0
 1273 002c 02       		.uleb128 0x2
 1274 002d 01       		.byte	0x1
 1275 002e 08       		.byte	0x8
 1276 002f A3020000 		.4byte	.LASF1
 1277 0033 02       		.uleb128 0x2
 1278 0034 02       		.byte	0x2
 1279 0035 05       		.byte	0x5
 1280 0036 78000000 		.4byte	.LASF2
 1281 003a 02       		.uleb128 0x2
ARM GAS  C:\Users\glenn\AppData\Local\Temp\ccAtjKMd.s 			page 30


 1282 003b 02       		.byte	0x2
 1283 003c 07       		.byte	0x7
 1284 003d 7F030000 		.4byte	.LASF3
 1285 0041 03       		.uleb128 0x3
 1286 0042 DA040000 		.4byte	.LASF9
 1287 0046 02       		.byte	0x2
 1288 0047 3F       		.byte	0x3f
 1289 0048 4C000000 		.4byte	0x4c
 1290 004c 02       		.uleb128 0x2
 1291 004d 04       		.byte	0x4
 1292 004e 05       		.byte	0x5
 1293 004f BF030000 		.4byte	.LASF4
 1294 0053 02       		.uleb128 0x2
 1295 0054 04       		.byte	0x4
 1296 0055 07       		.byte	0x7
 1297 0056 42040000 		.4byte	.LASF5
 1298 005a 02       		.uleb128 0x2
 1299 005b 08       		.byte	0x8
 1300 005c 05       		.byte	0x5
 1301 005d 4C010000 		.4byte	.LASF6
 1302 0061 02       		.uleb128 0x2
 1303 0062 08       		.byte	0x8
 1304 0063 07       		.byte	0x7
 1305 0064 D4020000 		.4byte	.LASF7
 1306 0068 04       		.uleb128 0x4
 1307 0069 04       		.byte	0x4
 1308 006a 05       		.byte	0x5
 1309 006b 696E7400 		.ascii	"int\000"
 1310 006f 02       		.uleb128 0x2
 1311 0070 04       		.byte	0x4
 1312 0071 07       		.byte	0x7
 1313 0072 30030000 		.4byte	.LASF8
 1314 0076 03       		.uleb128 0x3
 1315 0077 D7030000 		.4byte	.LASF10
 1316 007b 03       		.byte	0x3
 1317 007c 2C       		.byte	0x2c
 1318 007d 41000000 		.4byte	0x41
 1319 0081 05       		.uleb128 0x5
 1320 0082 9D020000 		.4byte	.LASF11
 1321 0086 04       		.byte	0x4
 1322 0087 9201     		.2byte	0x192
 1323 0089 2C000000 		.4byte	0x2c
 1324 008d 05       		.uleb128 0x5
 1325 008e DF000000 		.4byte	.LASF12
 1326 0092 04       		.byte	0x4
 1327 0093 9301     		.2byte	0x193
 1328 0095 3A000000 		.4byte	0x3a
 1329 0099 05       		.uleb128 0x5
 1330 009a 31040000 		.4byte	.LASF13
 1331 009e 04       		.byte	0x4
 1332 009f 9401     		.2byte	0x194
 1333 00a1 53000000 		.4byte	0x53
 1334 00a5 02       		.uleb128 0x2
 1335 00a6 04       		.byte	0x4
 1336 00a7 04       		.byte	0x4
 1337 00a8 38010000 		.4byte	.LASF14
 1338 00ac 02       		.uleb128 0x2
ARM GAS  C:\Users\glenn\AppData\Local\Temp\ccAtjKMd.s 			page 31


 1339 00ad 08       		.byte	0x8
 1340 00ae 04       		.byte	0x4
 1341 00af 66040000 		.4byte	.LASF15
 1342 00b3 02       		.uleb128 0x2
 1343 00b4 01       		.byte	0x1
 1344 00b5 08       		.byte	0x8
 1345 00b6 BA030000 		.4byte	.LASF16
 1346 00ba 02       		.uleb128 0x2
 1347 00bb 04       		.byte	0x4
 1348 00bc 07       		.byte	0x7
 1349 00bd 90000000 		.4byte	.LASF17
 1350 00c1 06       		.uleb128 0x6
 1351 00c2 01       		.byte	0x1
 1352 00c3 07       		.byte	0x7
 1353 00c4 1A       		.byte	0x1a
 1354 00c5 DC000000 		.4byte	0xdc
 1355 00c9 07       		.uleb128 0x7
 1356 00ca E6000000 		.4byte	.LASF18
 1357 00ce 00       		.sleb128 0
 1358 00cf 07       		.uleb128 0x7
 1359 00d0 5A010000 		.4byte	.LASF19
 1360 00d4 01       		.sleb128 1
 1361 00d5 07       		.uleb128 0x7
 1362 00d6 B7000000 		.4byte	.LASF20
 1363 00da 02       		.sleb128 2
 1364 00db 00       		.byte	0
 1365 00dc 08       		.uleb128 0x8
 1366 00dd C2000000 		.4byte	.LASF21
 1367 00e1 01       		.byte	0x1
 1368 00e2 45       		.byte	0x45
 1369 00e3 A5000000 		.4byte	0xa5
 1370 00e7 00000000 		.4byte	.LFB65
 1371 00eb 40000000 		.4byte	.LFE65-.LFB65
 1372 00ef 01       		.uleb128 0x1
 1373 00f0 9C       		.byte	0x9c
 1374 00f1 12010000 		.4byte	0x112
 1375 00f5 09       		.uleb128 0x9
 1376 00f6 03040000 		.4byte	.LASF23
 1377 00fa 01       		.byte	0x1
 1378 00fb 45       		.byte	0x45
 1379 00fc 99000000 		.4byte	0x99
 1380 0100 02       		.uleb128 0x2
 1381 0101 91       		.byte	0x91
 1382 0102 6C       		.sleb128 -20
 1383 0103 0A       		.uleb128 0xa
 1384 0104 52030000 		.4byte	.LASF25
 1385 0108 01       		.byte	0x1
 1386 0109 47       		.byte	0x47
 1387 010a 8D000000 		.4byte	0x8d
 1388 010e 02       		.uleb128 0x2
 1389 010f 91       		.byte	0x91
 1390 0110 76       		.sleb128 -10
 1391 0111 00       		.byte	0
 1392 0112 08       		.uleb128 0x8
 1393 0113 E4040000 		.4byte	.LASF22
 1394 0117 01       		.byte	0x1
 1395 0118 53       		.byte	0x53
ARM GAS  C:\Users\glenn\AppData\Local\Temp\ccAtjKMd.s 			page 32


 1396 0119 8D000000 		.4byte	0x8d
 1397 011d 00000000 		.4byte	.LFB66
 1398 0121 30000000 		.4byte	.LFE66-.LFB66
 1399 0125 01       		.uleb128 0x1
 1400 0126 9C       		.byte	0x9c
 1401 0127 48010000 		.4byte	0x148
 1402 012b 09       		.uleb128 0x9
 1403 012c 38040000 		.4byte	.LASF24
 1404 0130 01       		.byte	0x1
 1405 0131 53       		.byte	0x53
 1406 0132 6F000000 		.4byte	0x6f
 1407 0136 02       		.uleb128 0x2
 1408 0137 91       		.byte	0x91
 1409 0138 6C       		.sleb128 -20
 1410 0139 0A       		.uleb128 0xa
 1411 013a 52030000 		.4byte	.LASF25
 1412 013e 01       		.byte	0x1
 1413 013f 55       		.byte	0x55
 1414 0140 8D000000 		.4byte	0x8d
 1415 0144 02       		.uleb128 0x2
 1416 0145 91       		.byte	0x91
 1417 0146 76       		.sleb128 -10
 1418 0147 00       		.byte	0
 1419 0148 08       		.uleb128 0x8
 1420 0149 2E020000 		.4byte	.LASF26
 1421 014d 01       		.byte	0x1
 1422 014e 61       		.byte	0x61
 1423 014f 68000000 		.4byte	0x68
 1424 0153 00000000 		.4byte	.LFB67
 1425 0157 28000000 		.4byte	.LFE67-.LFB67
 1426 015b 01       		.uleb128 0x1
 1427 015c 9C       		.byte	0x9c
 1428 015d B6010000 		.4byte	0x1b6
 1429 0161 09       		.uleb128 0x9
 1430 0162 99000000 		.4byte	.LASF27
 1431 0166 01       		.byte	0x1
 1432 0167 61       		.byte	0x61
 1433 0168 6F000000 		.4byte	0x6f
 1434 016c 02       		.uleb128 0x2
 1435 016d 91       		.byte	0x91
 1436 016e 74       		.sleb128 -12
 1437 016f 09       		.uleb128 0x9
 1438 0170 A1000000 		.4byte	.LASF28
 1439 0174 01       		.byte	0x1
 1440 0175 61       		.byte	0x61
 1441 0176 6F000000 		.4byte	0x6f
 1442 017a 02       		.uleb128 0x2
 1443 017b 91       		.byte	0x91
 1444 017c 70       		.sleb128 -16
 1445 017d 09       		.uleb128 0x9
 1446 017e A9000000 		.4byte	.LASF29
 1447 0182 01       		.byte	0x1
 1448 0183 62       		.byte	0x62
 1449 0184 6F000000 		.4byte	0x6f
 1450 0188 02       		.uleb128 0x2
 1451 0189 91       		.byte	0x91
 1452 018a 6C       		.sleb128 -20
ARM GAS  C:\Users\glenn\AppData\Local\Temp\ccAtjKMd.s 			page 33


 1453 018b 09       		.uleb128 0x9
 1454 018c 4F000000 		.4byte	.LASF30
 1455 0190 01       		.byte	0x1
 1456 0191 62       		.byte	0x62
 1457 0192 6F000000 		.4byte	0x6f
 1458 0196 02       		.uleb128 0x2
 1459 0197 91       		.byte	0x91
 1460 0198 68       		.sleb128 -24
 1461 0199 09       		.uleb128 0x9
 1462 019a B1000000 		.4byte	.LASF31
 1463 019e 01       		.byte	0x1
 1464 019f 62       		.byte	0x62
 1465 01a0 6F000000 		.4byte	0x6f
 1466 01a4 02       		.uleb128 0x2
 1467 01a5 91       		.byte	0x91
 1468 01a6 00       		.sleb128 0
 1469 01a7 09       		.uleb128 0x9
 1470 01a8 0B040000 		.4byte	.LASF32
 1471 01ac 01       		.byte	0x1
 1472 01ad 62       		.byte	0x62
 1473 01ae 6F000000 		.4byte	0x6f
 1474 01b2 02       		.uleb128 0x2
 1475 01b3 91       		.byte	0x91
 1476 01b4 04       		.sleb128 4
 1477 01b5 00       		.byte	0
 1478 01b6 08       		.uleb128 0x8
 1479 01b7 6D040000 		.4byte	.LASF33
 1480 01bb 01       		.byte	0x1
 1481 01bc 68       		.byte	0x68
 1482 01bd 68000000 		.4byte	0x68
 1483 01c1 00000000 		.4byte	.LFB68
 1484 01c5 28000000 		.4byte	.LFE68-.LFB68
 1485 01c9 01       		.uleb128 0x1
 1486 01ca 9C       		.byte	0x9c
 1487 01cb 24020000 		.4byte	0x224
 1488 01cf 09       		.uleb128 0x9
 1489 01d0 99000000 		.4byte	.LASF27
 1490 01d4 01       		.byte	0x1
 1491 01d5 68       		.byte	0x68
 1492 01d6 6F000000 		.4byte	0x6f
 1493 01da 02       		.uleb128 0x2
 1494 01db 91       		.byte	0x91
 1495 01dc 74       		.sleb128 -12
 1496 01dd 09       		.uleb128 0x9
 1497 01de A1000000 		.4byte	.LASF28
 1498 01e2 01       		.byte	0x1
 1499 01e3 68       		.byte	0x68
 1500 01e4 6F000000 		.4byte	0x6f
 1501 01e8 02       		.uleb128 0x2
 1502 01e9 91       		.byte	0x91
 1503 01ea 70       		.sleb128 -16
 1504 01eb 09       		.uleb128 0x9
 1505 01ec A9000000 		.4byte	.LASF29
 1506 01f0 01       		.byte	0x1
 1507 01f1 69       		.byte	0x69
 1508 01f2 6F000000 		.4byte	0x6f
 1509 01f6 02       		.uleb128 0x2
ARM GAS  C:\Users\glenn\AppData\Local\Temp\ccAtjKMd.s 			page 34


 1510 01f7 91       		.byte	0x91
 1511 01f8 6C       		.sleb128 -20
 1512 01f9 09       		.uleb128 0x9
 1513 01fa 4F000000 		.4byte	.LASF30
 1514 01fe 01       		.byte	0x1
 1515 01ff 69       		.byte	0x69
 1516 0200 6F000000 		.4byte	0x6f
 1517 0204 02       		.uleb128 0x2
 1518 0205 91       		.byte	0x91
 1519 0206 68       		.sleb128 -24
 1520 0207 09       		.uleb128 0x9
 1521 0208 B1000000 		.4byte	.LASF31
 1522 020c 01       		.byte	0x1
 1523 020d 69       		.byte	0x69
 1524 020e 6F000000 		.4byte	0x6f
 1525 0212 02       		.uleb128 0x2
 1526 0213 91       		.byte	0x91
 1527 0214 00       		.sleb128 0
 1528 0215 09       		.uleb128 0x9
 1529 0216 0B040000 		.4byte	.LASF32
 1530 021a 01       		.byte	0x1
 1531 021b 69       		.byte	0x69
 1532 021c 6F000000 		.4byte	0x6f
 1533 0220 02       		.uleb128 0x2
 1534 0221 91       		.byte	0x91
 1535 0222 04       		.sleb128 4
 1536 0223 00       		.byte	0
 1537 0224 08       		.uleb128 0x8
 1538 0225 1B010000 		.4byte	.LASF34
 1539 0229 01       		.byte	0x1
 1540 022a 6F       		.byte	0x6f
 1541 022b 68000000 		.4byte	0x68
 1542 022f 00000000 		.4byte	.LFB69
 1543 0233 3E000000 		.4byte	.LFE69-.LFB69
 1544 0237 01       		.uleb128 0x1
 1545 0238 9C       		.byte	0x9c
 1546 0239 AE020000 		.4byte	0x2ae
 1547 023d 09       		.uleb128 0x9
 1548 023e 99000000 		.4byte	.LASF27
 1549 0242 01       		.byte	0x1
 1550 0243 6F       		.byte	0x6f
 1551 0244 6F000000 		.4byte	0x6f
 1552 0248 02       		.uleb128 0x2
 1553 0249 91       		.byte	0x91
 1554 024a 6C       		.sleb128 -20
 1555 024b 09       		.uleb128 0x9
 1556 024c A1000000 		.4byte	.LASF28
 1557 0250 01       		.byte	0x1
 1558 0251 6F       		.byte	0x6f
 1559 0252 6F000000 		.4byte	0x6f
 1560 0256 02       		.uleb128 0x2
 1561 0257 91       		.byte	0x91
 1562 0258 68       		.sleb128 -24
 1563 0259 09       		.uleb128 0x9
 1564 025a A9000000 		.4byte	.LASF29
 1565 025e 01       		.byte	0x1
 1566 025f 70       		.byte	0x70
ARM GAS  C:\Users\glenn\AppData\Local\Temp\ccAtjKMd.s 			page 35


 1567 0260 6F000000 		.4byte	0x6f
 1568 0264 02       		.uleb128 0x2
 1569 0265 91       		.byte	0x91
 1570 0266 64       		.sleb128 -28
 1571 0267 09       		.uleb128 0x9
 1572 0268 4F000000 		.4byte	.LASF30
 1573 026c 01       		.byte	0x1
 1574 026d 70       		.byte	0x70
 1575 026e 6F000000 		.4byte	0x6f
 1576 0272 02       		.uleb128 0x2
 1577 0273 91       		.byte	0x91
 1578 0274 60       		.sleb128 -32
 1579 0275 09       		.uleb128 0x9
 1580 0276 B1000000 		.4byte	.LASF31
 1581 027a 01       		.byte	0x1
 1582 027b 70       		.byte	0x70
 1583 027c 6F000000 		.4byte	0x6f
 1584 0280 02       		.uleb128 0x2
 1585 0281 91       		.byte	0x91
 1586 0282 00       		.sleb128 0
 1587 0283 09       		.uleb128 0x9
 1588 0284 0B040000 		.4byte	.LASF32
 1589 0288 01       		.byte	0x1
 1590 0289 70       		.byte	0x70
 1591 028a 6F000000 		.4byte	0x6f
 1592 028e 02       		.uleb128 0x2
 1593 028f 91       		.byte	0x91
 1594 0290 04       		.sleb128 4
 1595 0291 0A       		.uleb128 0xa
 1596 0292 29030000 		.4byte	.LASF35
 1597 0296 01       		.byte	0x1
 1598 0297 72       		.byte	0x72
 1599 0298 A5000000 		.4byte	0xa5
 1600 029c 02       		.uleb128 0x2
 1601 029d 91       		.byte	0x91
 1602 029e 74       		.sleb128 -12
 1603 029f 0A       		.uleb128 0xa
 1604 02a0 19000000 		.4byte	.LASF36
 1605 02a4 01       		.byte	0x1
 1606 02a5 73       		.byte	0x73
 1607 02a6 8D000000 		.4byte	0x8d
 1608 02aa 02       		.uleb128 0x2
 1609 02ab 91       		.byte	0x91
 1610 02ac 72       		.sleb128 -14
 1611 02ad 00       		.byte	0
 1612 02ae 08       		.uleb128 0x8
 1613 02af 82000000 		.4byte	.LASF37
 1614 02b3 01       		.byte	0x1
 1615 02b4 7D       		.byte	0x7d
 1616 02b5 68000000 		.4byte	0x68
 1617 02b9 00000000 		.4byte	.LFB70
 1618 02bd 5C000000 		.4byte	.LFE70-.LFB70
 1619 02c1 01       		.uleb128 0x1
 1620 02c2 9C       		.byte	0x9c
 1621 02c3 2A030000 		.4byte	0x32a
 1622 02c7 09       		.uleb128 0x9
 1623 02c8 99000000 		.4byte	.LASF27
ARM GAS  C:\Users\glenn\AppData\Local\Temp\ccAtjKMd.s 			page 36


 1624 02cc 01       		.byte	0x1
 1625 02cd 7D       		.byte	0x7d
 1626 02ce 6F000000 		.4byte	0x6f
 1627 02d2 02       		.uleb128 0x2
 1628 02d3 91       		.byte	0x91
 1629 02d4 6C       		.sleb128 -20
 1630 02d5 09       		.uleb128 0x9
 1631 02d6 A1000000 		.4byte	.LASF28
 1632 02da 01       		.byte	0x1
 1633 02db 7D       		.byte	0x7d
 1634 02dc 6F000000 		.4byte	0x6f
 1635 02e0 02       		.uleb128 0x2
 1636 02e1 91       		.byte	0x91
 1637 02e2 68       		.sleb128 -24
 1638 02e3 09       		.uleb128 0x9
 1639 02e4 A9000000 		.4byte	.LASF29
 1640 02e8 01       		.byte	0x1
 1641 02e9 7E       		.byte	0x7e
 1642 02ea 6F000000 		.4byte	0x6f
 1643 02ee 02       		.uleb128 0x2
 1644 02ef 91       		.byte	0x91
 1645 02f0 64       		.sleb128 -28
 1646 02f1 09       		.uleb128 0x9
 1647 02f2 4F000000 		.4byte	.LASF30
 1648 02f6 01       		.byte	0x1
 1649 02f7 7E       		.byte	0x7e
 1650 02f8 6F000000 		.4byte	0x6f
 1651 02fc 02       		.uleb128 0x2
 1652 02fd 91       		.byte	0x91
 1653 02fe 60       		.sleb128 -32
 1654 02ff 09       		.uleb128 0x9
 1655 0300 B1000000 		.4byte	.LASF31
 1656 0304 01       		.byte	0x1
 1657 0305 7E       		.byte	0x7e
 1658 0306 6F000000 		.4byte	0x6f
 1659 030a 02       		.uleb128 0x2
 1660 030b 91       		.byte	0x91
 1661 030c 00       		.sleb128 0
 1662 030d 09       		.uleb128 0x9
 1663 030e 0B040000 		.4byte	.LASF32
 1664 0312 01       		.byte	0x1
 1665 0313 7E       		.byte	0x7e
 1666 0314 6F000000 		.4byte	0x6f
 1667 0318 02       		.uleb128 0x2
 1668 0319 91       		.byte	0x91
 1669 031a 04       		.sleb128 4
 1670 031b 0A       		.uleb128 0xa
 1671 031c 73000000 		.4byte	.LASF38
 1672 0320 01       		.byte	0x1
 1673 0321 80       		.byte	0x80
 1674 0322 8D000000 		.4byte	0x8d
 1675 0326 02       		.uleb128 0x2
 1676 0327 91       		.byte	0x91
 1677 0328 76       		.sleb128 -10
 1678 0329 00       		.byte	0
 1679 032a 08       		.uleb128 0x8
 1680 032b 92030000 		.4byte	.LASF39
ARM GAS  C:\Users\glenn\AppData\Local\Temp\ccAtjKMd.s 			page 37


 1681 032f 01       		.byte	0x1
 1682 0330 8E       		.byte	0x8e
 1683 0331 68000000 		.4byte	0x68
 1684 0335 00000000 		.4byte	.LFB71
 1685 0339 38000000 		.4byte	.LFE71-.LFB71
 1686 033d 01       		.uleb128 0x1
 1687 033e 9C       		.byte	0x9c
 1688 033f B4030000 		.4byte	0x3b4
 1689 0343 09       		.uleb128 0x9
 1690 0344 99000000 		.4byte	.LASF27
 1691 0348 01       		.byte	0x1
 1692 0349 8E       		.byte	0x8e
 1693 034a 6F000000 		.4byte	0x6f
 1694 034e 02       		.uleb128 0x2
 1695 034f 91       		.byte	0x91
 1696 0350 6C       		.sleb128 -20
 1697 0351 09       		.uleb128 0x9
 1698 0352 A1000000 		.4byte	.LASF28
 1699 0356 01       		.byte	0x1
 1700 0357 8E       		.byte	0x8e
 1701 0358 6F000000 		.4byte	0x6f
 1702 035c 02       		.uleb128 0x2
 1703 035d 91       		.byte	0x91
 1704 035e 68       		.sleb128 -24
 1705 035f 09       		.uleb128 0x9
 1706 0360 A9000000 		.4byte	.LASF29
 1707 0364 01       		.byte	0x1
 1708 0365 8F       		.byte	0x8f
 1709 0366 6F000000 		.4byte	0x6f
 1710 036a 02       		.uleb128 0x2
 1711 036b 91       		.byte	0x91
 1712 036c 64       		.sleb128 -28
 1713 036d 09       		.uleb128 0x9
 1714 036e 4F000000 		.4byte	.LASF30
 1715 0372 01       		.byte	0x1
 1716 0373 8F       		.byte	0x8f
 1717 0374 6F000000 		.4byte	0x6f
 1718 0378 02       		.uleb128 0x2
 1719 0379 91       		.byte	0x91
 1720 037a 60       		.sleb128 -32
 1721 037b 09       		.uleb128 0x9
 1722 037c B1000000 		.4byte	.LASF31
 1723 0380 01       		.byte	0x1
 1724 0381 8F       		.byte	0x8f
 1725 0382 6F000000 		.4byte	0x6f
 1726 0386 02       		.uleb128 0x2
 1727 0387 91       		.byte	0x91
 1728 0388 00       		.sleb128 0
 1729 0389 09       		.uleb128 0x9
 1730 038a 0B040000 		.4byte	.LASF32
 1731 038e 01       		.byte	0x1
 1732 038f 8F       		.byte	0x8f
 1733 0390 6F000000 		.4byte	0x6f
 1734 0394 02       		.uleb128 0x2
 1735 0395 91       		.byte	0x91
 1736 0396 04       		.sleb128 4
 1737 0397 0A       		.uleb128 0xa
ARM GAS  C:\Users\glenn\AppData\Local\Temp\ccAtjKMd.s 			page 38


 1738 0398 39050000 		.4byte	.LASF40
 1739 039c 01       		.byte	0x1
 1740 039d 91       		.byte	0x91
 1741 039e B4030000 		.4byte	0x3b4
 1742 03a2 02       		.uleb128 0x2
 1743 03a3 91       		.byte	0x91
 1744 03a4 74       		.sleb128 -12
 1745 03a5 0A       		.uleb128 0xa
 1746 03a6 1C040000 		.4byte	.LASF41
 1747 03aa 01       		.byte	0x1
 1748 03ab 92       		.byte	0x92
 1749 03ac BF030000 		.4byte	0x3bf
 1750 03b0 02       		.uleb128 0x2
 1751 03b1 91       		.byte	0x91
 1752 03b2 70       		.sleb128 -16
 1753 03b3 00       		.byte	0
 1754 03b4 0B       		.uleb128 0xb
 1755 03b5 04       		.byte	0x4
 1756 03b6 BA030000 		.4byte	0x3ba
 1757 03ba 0C       		.uleb128 0xc
 1758 03bb 8D000000 		.4byte	0x8d
 1759 03bf 0B       		.uleb128 0xb
 1760 03c0 04       		.byte	0x4
 1761 03c1 81000000 		.4byte	0x81
 1762 03c5 08       		.uleb128 0x8
 1763 03c6 7F020000 		.4byte	.LASF42
 1764 03ca 01       		.byte	0x1
 1765 03cb 9C       		.byte	0x9c
 1766 03cc 68000000 		.4byte	0x68
 1767 03d0 00000000 		.4byte	.LFB72
 1768 03d4 38000000 		.4byte	.LFE72-.LFB72
 1769 03d8 01       		.uleb128 0x1
 1770 03d9 9C       		.byte	0x9c
 1771 03da 4F040000 		.4byte	0x44f
 1772 03de 09       		.uleb128 0x9
 1773 03df 99000000 		.4byte	.LASF27
 1774 03e3 01       		.byte	0x1
 1775 03e4 9C       		.byte	0x9c
 1776 03e5 6F000000 		.4byte	0x6f
 1777 03e9 02       		.uleb128 0x2
 1778 03ea 91       		.byte	0x91
 1779 03eb 6C       		.sleb128 -20
 1780 03ec 09       		.uleb128 0x9
 1781 03ed A1000000 		.4byte	.LASF28
 1782 03f1 01       		.byte	0x1
 1783 03f2 9C       		.byte	0x9c
 1784 03f3 6F000000 		.4byte	0x6f
 1785 03f7 02       		.uleb128 0x2
 1786 03f8 91       		.byte	0x91
 1787 03f9 68       		.sleb128 -24
 1788 03fa 09       		.uleb128 0x9
 1789 03fb A9000000 		.4byte	.LASF29
 1790 03ff 01       		.byte	0x1
 1791 0400 9D       		.byte	0x9d
 1792 0401 6F000000 		.4byte	0x6f
 1793 0405 02       		.uleb128 0x2
 1794 0406 91       		.byte	0x91
ARM GAS  C:\Users\glenn\AppData\Local\Temp\ccAtjKMd.s 			page 39


 1795 0407 64       		.sleb128 -28
 1796 0408 09       		.uleb128 0x9
 1797 0409 4F000000 		.4byte	.LASF30
 1798 040d 01       		.byte	0x1
 1799 040e 9D       		.byte	0x9d
 1800 040f 6F000000 		.4byte	0x6f
 1801 0413 02       		.uleb128 0x2
 1802 0414 91       		.byte	0x91
 1803 0415 60       		.sleb128 -32
 1804 0416 09       		.uleb128 0x9
 1805 0417 B1000000 		.4byte	.LASF31
 1806 041b 01       		.byte	0x1
 1807 041c 9D       		.byte	0x9d
 1808 041d 6F000000 		.4byte	0x6f
 1809 0421 02       		.uleb128 0x2
 1810 0422 91       		.byte	0x91
 1811 0423 00       		.sleb128 0
 1812 0424 09       		.uleb128 0x9
 1813 0425 0B040000 		.4byte	.LASF32
 1814 0429 01       		.byte	0x1
 1815 042a 9D       		.byte	0x9d
 1816 042b 6F000000 		.4byte	0x6f
 1817 042f 02       		.uleb128 0x2
 1818 0430 91       		.byte	0x91
 1819 0431 04       		.sleb128 4
 1820 0432 0A       		.uleb128 0xa
 1821 0433 39050000 		.4byte	.LASF40
 1822 0437 01       		.byte	0x1
 1823 0438 9F       		.byte	0x9f
 1824 0439 B4030000 		.4byte	0x3b4
 1825 043d 02       		.uleb128 0x2
 1826 043e 91       		.byte	0x91
 1827 043f 74       		.sleb128 -12
 1828 0440 0A       		.uleb128 0xa
 1829 0441 1C040000 		.4byte	.LASF41
 1830 0445 01       		.byte	0x1
 1831 0446 A0       		.byte	0xa0
 1832 0447 BF030000 		.4byte	0x3bf
 1833 044b 02       		.uleb128 0x2
 1834 044c 91       		.byte	0x91
 1835 044d 70       		.sleb128 -16
 1836 044e 00       		.byte	0
 1837 044f 08       		.uleb128 0x8
 1838 0450 06050000 		.4byte	.LASF43
 1839 0454 01       		.byte	0x1
 1840 0455 AC       		.byte	0xac
 1841 0456 68000000 		.4byte	0x68
 1842 045a 00000000 		.4byte	.LFB73
 1843 045e 38000000 		.4byte	.LFE73-.LFB73
 1844 0462 01       		.uleb128 0x1
 1845 0463 9C       		.byte	0x9c
 1846 0464 D9040000 		.4byte	0x4d9
 1847 0468 09       		.uleb128 0x9
 1848 0469 99000000 		.4byte	.LASF27
 1849 046d 01       		.byte	0x1
 1850 046e AC       		.byte	0xac
 1851 046f 6F000000 		.4byte	0x6f
ARM GAS  C:\Users\glenn\AppData\Local\Temp\ccAtjKMd.s 			page 40


 1852 0473 02       		.uleb128 0x2
 1853 0474 91       		.byte	0x91
 1854 0475 6C       		.sleb128 -20
 1855 0476 09       		.uleb128 0x9
 1856 0477 A1000000 		.4byte	.LASF28
 1857 047b 01       		.byte	0x1
 1858 047c AC       		.byte	0xac
 1859 047d 6F000000 		.4byte	0x6f
 1860 0481 02       		.uleb128 0x2
 1861 0482 91       		.byte	0x91
 1862 0483 68       		.sleb128 -24
 1863 0484 09       		.uleb128 0x9
 1864 0485 A9000000 		.4byte	.LASF29
 1865 0489 01       		.byte	0x1
 1866 048a AD       		.byte	0xad
 1867 048b 6F000000 		.4byte	0x6f
 1868 048f 02       		.uleb128 0x2
 1869 0490 91       		.byte	0x91
 1870 0491 64       		.sleb128 -28
 1871 0492 09       		.uleb128 0x9
 1872 0493 4F000000 		.4byte	.LASF30
 1873 0497 01       		.byte	0x1
 1874 0498 AD       		.byte	0xad
 1875 0499 6F000000 		.4byte	0x6f
 1876 049d 02       		.uleb128 0x2
 1877 049e 91       		.byte	0x91
 1878 049f 60       		.sleb128 -32
 1879 04a0 09       		.uleb128 0x9
 1880 04a1 B1000000 		.4byte	.LASF31
 1881 04a5 01       		.byte	0x1
 1882 04a6 AD       		.byte	0xad
 1883 04a7 6F000000 		.4byte	0x6f
 1884 04ab 02       		.uleb128 0x2
 1885 04ac 91       		.byte	0x91
 1886 04ad 00       		.sleb128 0
 1887 04ae 09       		.uleb128 0x9
 1888 04af 0B040000 		.4byte	.LASF32
 1889 04b3 01       		.byte	0x1
 1890 04b4 AD       		.byte	0xad
 1891 04b5 6F000000 		.4byte	0x6f
 1892 04b9 02       		.uleb128 0x2
 1893 04ba 91       		.byte	0x91
 1894 04bb 04       		.sleb128 4
 1895 04bc 0A       		.uleb128 0xa
 1896 04bd 39050000 		.4byte	.LASF40
 1897 04c1 01       		.byte	0x1
 1898 04c2 AF       		.byte	0xaf
 1899 04c3 B4030000 		.4byte	0x3b4
 1900 04c7 02       		.uleb128 0x2
 1901 04c8 91       		.byte	0x91
 1902 04c9 74       		.sleb128 -12
 1903 04ca 0A       		.uleb128 0xa
 1904 04cb 1C040000 		.4byte	.LASF41
 1905 04cf 01       		.byte	0x1
 1906 04d0 B0       		.byte	0xb0
 1907 04d1 BF030000 		.4byte	0x3bf
 1908 04d5 02       		.uleb128 0x2
ARM GAS  C:\Users\glenn\AppData\Local\Temp\ccAtjKMd.s 			page 41


 1909 04d6 91       		.byte	0x91
 1910 04d7 70       		.sleb128 -16
 1911 04d8 00       		.byte	0
 1912 04d9 08       		.uleb128 0x8
 1913 04da BC020000 		.4byte	.LASF44
 1914 04de 01       		.byte	0x1
 1915 04df BB       		.byte	0xbb
 1916 04e0 68000000 		.4byte	0x68
 1917 04e4 00000000 		.4byte	.LFB74
 1918 04e8 2A000000 		.4byte	.LFE74-.LFB74
 1919 04ec 01       		.uleb128 0x1
 1920 04ed 9C       		.byte	0x9c
 1921 04ee 55050000 		.4byte	0x555
 1922 04f2 09       		.uleb128 0x9
 1923 04f3 99000000 		.4byte	.LASF27
 1924 04f7 01       		.byte	0x1
 1925 04f8 BB       		.byte	0xbb
 1926 04f9 6F000000 		.4byte	0x6f
 1927 04fd 02       		.uleb128 0x2
 1928 04fe 91       		.byte	0x91
 1929 04ff 6C       		.sleb128 -20
 1930 0500 09       		.uleb128 0x9
 1931 0501 A1000000 		.4byte	.LASF28
 1932 0505 01       		.byte	0x1
 1933 0506 BB       		.byte	0xbb
 1934 0507 6F000000 		.4byte	0x6f
 1935 050b 02       		.uleb128 0x2
 1936 050c 91       		.byte	0x91
 1937 050d 68       		.sleb128 -24
 1938 050e 09       		.uleb128 0x9
 1939 050f A9000000 		.4byte	.LASF29
 1940 0513 01       		.byte	0x1
 1941 0514 BC       		.byte	0xbc
 1942 0515 6F000000 		.4byte	0x6f
 1943 0519 02       		.uleb128 0x2
 1944 051a 91       		.byte	0x91
 1945 051b 64       		.sleb128 -28
 1946 051c 09       		.uleb128 0x9
 1947 051d 4F000000 		.4byte	.LASF30
 1948 0521 01       		.byte	0x1
 1949 0522 BC       		.byte	0xbc
 1950 0523 6F000000 		.4byte	0x6f
 1951 0527 02       		.uleb128 0x2
 1952 0528 91       		.byte	0x91
 1953 0529 60       		.sleb128 -32
 1954 052a 09       		.uleb128 0x9
 1955 052b B1000000 		.4byte	.LASF31
 1956 052f 01       		.byte	0x1
 1957 0530 BC       		.byte	0xbc
 1958 0531 6F000000 		.4byte	0x6f
 1959 0535 02       		.uleb128 0x2
 1960 0536 91       		.byte	0x91
 1961 0537 00       		.sleb128 0
 1962 0538 09       		.uleb128 0x9
 1963 0539 0B040000 		.4byte	.LASF32
 1964 053d 01       		.byte	0x1
 1965 053e BC       		.byte	0xbc
ARM GAS  C:\Users\glenn\AppData\Local\Temp\ccAtjKMd.s 			page 42


 1966 053f 6F000000 		.4byte	0x6f
 1967 0543 02       		.uleb128 0x2
 1968 0544 91       		.byte	0x91
 1969 0545 04       		.sleb128 4
 1970 0546 0A       		.uleb128 0xa
 1971 0547 B1020000 		.4byte	.LASF45
 1972 054b 01       		.byte	0x1
 1973 054c C0       		.byte	0xc0
 1974 054d A5000000 		.4byte	0xa5
 1975 0551 02       		.uleb128 0x2
 1976 0552 91       		.byte	0x91
 1977 0553 74       		.sleb128 -12
 1978 0554 00       		.byte	0
 1979 0555 0D       		.uleb128 0xd
 1980 0556 B2050000 		.4byte	.LASF54
 1981 055a 01       		.byte	0x1
 1982 055b CC       		.byte	0xcc
 1983 055c 00000000 		.4byte	.LFB75
 1984 0560 7C000000 		.4byte	.LFE75-.LFB75
 1985 0564 01       		.uleb128 0x1
 1986 0565 9C       		.byte	0x9c
 1987 0566 DB050000 		.4byte	0x5db
 1988 056a 09       		.uleb128 0x9
 1989 056b 54040000 		.4byte	.LASF46
 1990 056f 01       		.byte	0x1
 1991 0570 CC       		.byte	0xcc
 1992 0571 99000000 		.4byte	0x99
 1993 0575 02       		.uleb128 0x2
 1994 0576 91       		.byte	0x91
 1995 0577 5C       		.sleb128 -36
 1996 0578 09       		.uleb128 0x9
 1997 0579 3D030000 		.4byte	.LASF47
 1998 057d 01       		.byte	0x1
 1999 057e CC       		.byte	0xcc
 2000 057f 99000000 		.4byte	0x99
 2001 0583 02       		.uleb128 0x2
 2002 0584 91       		.byte	0x91
 2003 0585 58       		.sleb128 -40
 2004 0586 0A       		.uleb128 0xa
 2005 0587 DC050000 		.4byte	.LASF48
 2006 058b 01       		.byte	0x1
 2007 058c CF       		.byte	0xcf
 2008 058d A5000000 		.4byte	0xa5
 2009 0591 02       		.uleb128 0x2
 2010 0592 91       		.byte	0x91
 2011 0593 60       		.sleb128 -32
 2012 0594 0A       		.uleb128 0xa
 2013 0595 74050000 		.4byte	.LASF49
 2014 0599 01       		.byte	0x1
 2015 059a D0       		.byte	0xd0
 2016 059b A5000000 		.4byte	0xa5
 2017 059f 02       		.uleb128 0x2
 2018 05a0 91       		.byte	0x91
 2019 05a1 64       		.sleb128 -28
 2020 05a2 0A       		.uleb128 0xa
 2021 05a3 94050000 		.4byte	.LASF50
 2022 05a7 01       		.byte	0x1
ARM GAS  C:\Users\glenn\AppData\Local\Temp\ccAtjKMd.s 			page 43


 2023 05a8 D1       		.byte	0xd1
 2024 05a9 A5000000 		.4byte	0xa5
 2025 05ad 02       		.uleb128 0x2
 2026 05ae 91       		.byte	0x91
 2027 05af 6C       		.sleb128 -20
 2028 05b0 0A       		.uleb128 0xa
 2029 05b1 AB040000 		.4byte	.LASF51
 2030 05b5 01       		.byte	0x1
 2031 05b6 D2       		.byte	0xd2
 2032 05b7 A5000000 		.4byte	0xa5
 2033 05bb 02       		.uleb128 0x2
 2034 05bc 91       		.byte	0x91
 2035 05bd 74       		.sleb128 -12
 2036 05be 0A       		.uleb128 0xa
 2037 05bf FA010000 		.4byte	.LASF52
 2038 05c3 01       		.byte	0x1
 2039 05c4 D3       		.byte	0xd3
 2040 05c5 A5000000 		.4byte	0xa5
 2041 05c9 02       		.uleb128 0x2
 2042 05ca 91       		.byte	0x91
 2043 05cb 70       		.sleb128 -16
 2044 05cc 0A       		.uleb128 0xa
 2045 05cd 7F050000 		.4byte	.LASF53
 2046 05d1 01       		.byte	0x1
 2047 05d2 D4       		.byte	0xd4
 2048 05d3 68000000 		.4byte	0x68
 2049 05d7 02       		.uleb128 0x2
 2050 05d8 91       		.byte	0x91
 2051 05d9 68       		.sleb128 -24
 2052 05da 00       		.byte	0
 2053 05db 0D       		.uleb128 0xd
 2054 05dc F4000000 		.4byte	.LASF55
 2055 05e0 01       		.byte	0x1
 2056 05e1 EC       		.byte	0xec
 2057 05e2 00000000 		.4byte	.LFB76
 2058 05e6 62000000 		.4byte	.LFE76-.LFB76
 2059 05ea 01       		.uleb128 0x1
 2060 05eb 9C       		.byte	0x9c
 2061 05ec 37060000 		.4byte	0x637
 2062 05f0 09       		.uleb128 0x9
 2063 05f1 48050000 		.4byte	.LASF56
 2064 05f5 01       		.byte	0x1
 2065 05f6 EC       		.byte	0xec
 2066 05f7 99000000 		.4byte	0x99
 2067 05fb 02       		.uleb128 0x2
 2068 05fc 91       		.byte	0x91
 2069 05fd 64       		.sleb128 -28
 2070 05fe 09       		.uleb128 0x9
 2071 05ff D9000000 		.4byte	.LASF57
 2072 0603 01       		.byte	0x1
 2073 0604 EC       		.byte	0xec
 2074 0605 A5000000 		.4byte	0xa5
 2075 0609 02       		.uleb128 0x2
 2076 060a 91       		.byte	0x91
 2077 060b 60       		.sleb128 -32
 2078 060c 0A       		.uleb128 0xa
 2079 060d 54040000 		.4byte	.LASF46
ARM GAS  C:\Users\glenn\AppData\Local\Temp\ccAtjKMd.s 			page 44


 2080 0611 01       		.byte	0x1
 2081 0612 EE       		.byte	0xee
 2082 0613 99000000 		.4byte	0x99
 2083 0617 02       		.uleb128 0x2
 2084 0618 91       		.byte	0x91
 2085 0619 74       		.sleb128 -12
 2086 061a 0A       		.uleb128 0xa
 2087 061b 23040000 		.4byte	.LASF58
 2088 061f 01       		.byte	0x1
 2089 0620 EF       		.byte	0xef
 2090 0621 99000000 		.4byte	0x99
 2091 0625 02       		.uleb128 0x2
 2092 0626 91       		.byte	0x91
 2093 0627 70       		.sleb128 -16
 2094 0628 0A       		.uleb128 0xa
 2095 0629 00000000 		.4byte	.LASF59
 2096 062d 01       		.byte	0x1
 2097 062e F0       		.byte	0xf0
 2098 062f 99000000 		.4byte	0x99
 2099 0633 02       		.uleb128 0x2
 2100 0634 91       		.byte	0x91
 2101 0635 6C       		.sleb128 -20
 2102 0636 00       		.byte	0
 2103 0637 0D       		.uleb128 0xd
 2104 0638 3E010000 		.4byte	.LASF60
 2105 063c 01       		.byte	0x1
 2106 063d FD       		.byte	0xfd
 2107 063e 00000000 		.4byte	.LFB77
 2108 0642 60000000 		.4byte	.LFE77-.LFB77
 2109 0646 01       		.uleb128 0x1
 2110 0647 9C       		.byte	0x9c
 2111 0648 79060000 		.4byte	0x679
 2112 064c 0A       		.uleb128 0xa
 2113 064d 57000000 		.4byte	.LASF61
 2114 0651 01       		.byte	0x1
 2115 0652 FF       		.byte	0xff
 2116 0653 99000000 		.4byte	0x99
 2117 0657 02       		.uleb128 0x2
 2118 0658 91       		.byte	0x91
 2119 0659 74       		.sleb128 -12
 2120 065a 0E       		.uleb128 0xe
 2121 065b 0F000000 		.4byte	.LASF62
 2122 065f 01       		.byte	0x1
 2123 0660 0001     		.2byte	0x100
 2124 0662 99000000 		.4byte	0x99
 2125 0666 02       		.uleb128 0x2
 2126 0667 91       		.byte	0x91
 2127 0668 70       		.sleb128 -16
 2128 0669 0E       		.uleb128 0xe
 2129 066a CC050000 		.4byte	.LASF63
 2130 066e 01       		.byte	0x1
 2131 066f 0101     		.2byte	0x101
 2132 0671 A5000000 		.4byte	0xa5
 2133 0675 02       		.uleb128 0x2
 2134 0676 91       		.byte	0x91
 2135 0677 6C       		.sleb128 -20
 2136 0678 00       		.byte	0
ARM GAS  C:\Users\glenn\AppData\Local\Temp\ccAtjKMd.s 			page 45


 2137 0679 0F       		.uleb128 0xf
 2138 067a 58050000 		.4byte	.LASF64
 2139 067e 01       		.byte	0x1
 2140 067f 1301     		.2byte	0x113
 2141 0681 68000000 		.4byte	0x68
 2142 0685 00000000 		.4byte	.LFB78
 2143 0689 4C000000 		.4byte	.LFE78-.LFB78
 2144 068d 01       		.uleb128 0x1
 2145 068e 9C       		.byte	0x9c
 2146 068f D0060000 		.4byte	0x6d0
 2147 0693 10       		.uleb128 0x10
 2148 0694 27050000 		.4byte	.LASF65
 2149 0698 01       		.byte	0x1
 2150 0699 1301     		.2byte	0x113
 2151 069b 6F000000 		.4byte	0x6f
 2152 069f 02       		.uleb128 0x2
 2153 06a0 91       		.byte	0x91
 2154 06a1 6C       		.sleb128 -20
 2155 06a2 10       		.uleb128 0x10
 2156 06a3 8D050000 		.4byte	.LASF66
 2157 06a7 01       		.byte	0x1
 2158 06a8 1301     		.2byte	0x113
 2159 06aa 6F000000 		.4byte	0x6f
 2160 06ae 02       		.uleb128 0x2
 2161 06af 91       		.byte	0x91
 2162 06b0 68       		.sleb128 -24
 2163 06b1 11       		.uleb128 0x11
 2164 06b2 6F757400 		.ascii	"out\000"
 2165 06b6 01       		.byte	0x1
 2166 06b7 1301     		.2byte	0x113
 2167 06b9 D0060000 		.4byte	0x6d0
 2168 06bd 02       		.uleb128 0x2
 2169 06be 91       		.byte	0x91
 2170 06bf 64       		.sleb128 -28
 2171 06c0 0E       		.uleb128 0xe
 2172 06c1 52030000 		.4byte	.LASF25
 2173 06c5 01       		.byte	0x1
 2174 06c6 1601     		.2byte	0x116
 2175 06c8 68000000 		.4byte	0x68
 2176 06cc 02       		.uleb128 0x2
 2177 06cd 91       		.byte	0x91
 2178 06ce 74       		.sleb128 -12
 2179 06cf 00       		.byte	0
 2180 06d0 0B       		.uleb128 0xb
 2181 06d1 04       		.byte	0x4
 2182 06d2 8D000000 		.4byte	0x8d
 2183 06d6 12       		.uleb128 0x12
 2184 06d7 FD000000 		.4byte	.LASF67
 2185 06db 01       		.byte	0x1
 2186 06dc 3101     		.2byte	0x131
 2187 06de 00000000 		.4byte	.LFB79
 2188 06e2 3C000000 		.4byte	.LFE79-.LFB79
 2189 06e6 01       		.uleb128 0x1
 2190 06e7 9C       		.byte	0x9c
 2191 06e8 FA060000 		.4byte	0x6fa
 2192 06ec 13       		.uleb128 0x13
 2193 06ed 6900     		.ascii	"i\000"
ARM GAS  C:\Users\glenn\AppData\Local\Temp\ccAtjKMd.s 			page 46


 2194 06ef 01       		.byte	0x1
 2195 06f0 3301     		.2byte	0x133
 2196 06f2 6F000000 		.4byte	0x6f
 2197 06f6 02       		.uleb128 0x2
 2198 06f7 91       		.byte	0x91
 2199 06f8 74       		.sleb128 -12
 2200 06f9 00       		.byte	0
 2201 06fa 12       		.uleb128 0x12
 2202 06fb 6F020000 		.4byte	.LASF68
 2203 06ff 01       		.byte	0x1
 2204 0700 3C01     		.2byte	0x13c
 2205 0702 00000000 		.4byte	.LFB80
 2206 0706 A0000000 		.4byte	.LFE80-.LFB80
 2207 070a 01       		.uleb128 0x1
 2208 070b 9C       		.byte	0x9c
 2209 070c 3E070000 		.4byte	0x73e
 2210 0710 10       		.uleb128 0x10
 2211 0711 CA040000 		.4byte	.LASF69
 2212 0715 01       		.byte	0x1
 2213 0716 3C01     		.2byte	0x13c
 2214 0718 68000000 		.4byte	0x68
 2215 071c 02       		.uleb128 0x2
 2216 071d 91       		.byte	0x91
 2217 071e 6C       		.sleb128 -20
 2218 071f 10       		.uleb128 0x10
 2219 0720 10040000 		.4byte	.LASF70
 2220 0724 01       		.byte	0x1
 2221 0725 3C01     		.2byte	0x13c
 2222 0727 A5000000 		.4byte	0xa5
 2223 072b 02       		.uleb128 0x2
 2224 072c 91       		.byte	0x91
 2225 072d 68       		.sleb128 -24
 2226 072e 0E       		.uleb128 0xe
 2227 072f D9000000 		.4byte	.LASF57
 2228 0733 01       		.byte	0x1
 2229 0734 3E01     		.2byte	0x13e
 2230 0736 BF030000 		.4byte	0x3bf
 2231 073a 02       		.uleb128 0x2
 2232 073b 91       		.byte	0x91
 2233 073c 74       		.sleb128 -12
 2234 073d 00       		.byte	0
 2235 073e 14       		.uleb128 0x14
 2236 073f A3050000 		.4byte	.LASF71
 2237 0743 01       		.byte	0x1
 2238 0744 4B01     		.2byte	0x14b
 2239 0746 A5000000 		.4byte	0xa5
 2240 074a 00000000 		.4byte	.LFB81
 2241 074e 78000000 		.4byte	.LFE81-.LFB81
 2242 0752 01       		.uleb128 0x1
 2243 0753 9C       		.byte	0x9c
 2244 0754 86070000 		.4byte	0x786
 2245 0758 10       		.uleb128 0x10
 2246 0759 CA040000 		.4byte	.LASF69
 2247 075d 01       		.byte	0x1
 2248 075e 4B01     		.2byte	0x14b
 2249 0760 68000000 		.4byte	0x68
 2250 0764 02       		.uleb128 0x2
ARM GAS  C:\Users\glenn\AppData\Local\Temp\ccAtjKMd.s 			page 47


 2251 0765 91       		.byte	0x91
 2252 0766 64       		.sleb128 -28
 2253 0767 0E       		.uleb128 0xe
 2254 0768 52030000 		.4byte	.LASF25
 2255 076c 01       		.byte	0x1
 2256 076d 4D01     		.2byte	0x14d
 2257 076f A5000000 		.4byte	0xa5
 2258 0773 02       		.uleb128 0x2
 2259 0774 91       		.byte	0x91
 2260 0775 68       		.sleb128 -24
 2261 0776 0E       		.uleb128 0xe
 2262 0777 73000000 		.4byte	.LASF38
 2263 077b 01       		.byte	0x1
 2264 077c 4E01     		.2byte	0x14e
 2265 077e BF030000 		.4byte	0x3bf
 2266 0782 02       		.uleb128 0x2
 2267 0783 91       		.byte	0x91
 2268 0784 6C       		.sleb128 -20
 2269 0785 00       		.byte	0
 2270 0786 14       		.uleb128 0x14
 2271 0787 E1050000 		.4byte	.LASF72
 2272 078b 01       		.byte	0x1
 2273 078c 5D01     		.2byte	0x15d
 2274 078e 68000000 		.4byte	0x68
 2275 0792 00000000 		.4byte	.LFB82
 2276 0796 32000000 		.4byte	.LFE82-.LFB82
 2277 079a 01       		.uleb128 0x1
 2278 079b 9C       		.byte	0x9c
 2279 079c BF070000 		.4byte	0x7bf
 2280 07a0 0E       		.uleb128 0xe
 2281 07a1 D9000000 		.4byte	.LASF57
 2282 07a5 01       		.byte	0x1
 2283 07a6 5F01     		.2byte	0x15f
 2284 07a8 99000000 		.4byte	0x99
 2285 07ac 02       		.uleb128 0x2
 2286 07ad 91       		.byte	0x91
 2287 07ae 70       		.sleb128 -16
 2288 07af 0E       		.uleb128 0xe
 2289 07b0 52030000 		.4byte	.LASF25
 2290 07b4 01       		.byte	0x1
 2291 07b5 6001     		.2byte	0x160
 2292 07b7 68000000 		.4byte	0x68
 2293 07bb 02       		.uleb128 0x2
 2294 07bc 91       		.byte	0x91
 2295 07bd 74       		.sleb128 -12
 2296 07be 00       		.byte	0
 2297 07bf 0A       		.uleb128 0xa
 2298 07c0 61000000 		.4byte	.LASF73
 2299 07c4 01       		.byte	0x1
 2300 07c5 17       		.byte	0x17
 2301 07c6 BA030000 		.4byte	0x3ba
 2302 07ca 05       		.uleb128 0x5
 2303 07cb 03       		.byte	0x3
 2304 07cc 00000000 		.4byte	sampling_interval
 2305 07d0 15       		.uleb128 0x15
 2306 07d1 81000000 		.4byte	0x81
 2307 07d5 E1070000 		.4byte	0x7e1
ARM GAS  C:\Users\glenn\AppData\Local\Temp\ccAtjKMd.s 			page 48


 2308 07d9 16       		.uleb128 0x16
 2309 07da BA000000 		.4byte	0xba
 2310 07de FF07     		.2byte	0x7ff
 2311 07e0 00       		.byte	0
 2312 07e1 0A       		.uleb128 0xa
 2313 07e2 C8030000 		.4byte	.LASF74
 2314 07e6 01       		.byte	0x1
 2315 07e7 43       		.byte	0x43
 2316 07e8 D0070000 		.4byte	0x7d0
 2317 07ec 05       		.uleb128 0x5
 2318 07ed 03       		.byte	0x3
 2319 07ee 00000000 		.4byte	shaddow_eeprom
 2320 07f2 17       		.uleb128 0x17
 2321 07f3 BD040000 		.4byte	.LASF75
 2322 07f7 05       		.byte	0x5
 2323 07f8 9606     		.2byte	0x696
 2324 07fa FE070000 		.4byte	0x7fe
 2325 07fe 18       		.uleb128 0x18
 2326 07ff 76000000 		.4byte	0x76
 2327 0803 15       		.uleb128 0x15
 2328 0804 8D000000 		.4byte	0x8d
 2329 0808 13080000 		.4byte	0x813
 2330 080c 19       		.uleb128 0x19
 2331 080d BA000000 		.4byte	0xba
 2332 0811 01       		.byte	0x1
 2333 0812 00       		.byte	0
 2334 0813 1A       		.uleb128 0x1a
 2335 0814 3B000000 		.4byte	.LASF76
 2336 0818 06       		.byte	0x6
 2337 0819 77       		.byte	0x77
 2338 081a 1E080000 		.4byte	0x81e
 2339 081e 0C       		.uleb128 0xc
 2340 081f 03080000 		.4byte	0x803
 2341 0823 15       		.uleb128 0x15
 2342 0824 A5000000 		.4byte	0xa5
 2343 0828 33080000 		.4byte	0x833
 2344 082c 19       		.uleb128 0x19
 2345 082d BA000000 		.4byte	0xba
 2346 0831 08       		.byte	0x8
 2347 0832 00       		.byte	0
 2348 0833 1B       		.uleb128 0x1b
 2349 0834 20000000 		.4byte	.LASF77
 2350 0838 01       		.byte	0x1
 2351 0839 1A       		.byte	0x1a
 2352 083a 44080000 		.4byte	0x844
 2353 083e 05       		.uleb128 0x5
 2354 083f 03       		.byte	0x3
 2355 0840 00000000 		.4byte	reference_resistance_array
 2356 0844 0C       		.uleb128 0xc
 2357 0845 23080000 		.4byte	0x823
 2358 0849 15       		.uleb128 0x15
 2359 084a 8D000000 		.4byte	0x8d
 2360 084e 59080000 		.4byte	0x859
 2361 0852 19       		.uleb128 0x19
 2362 0853 BA000000 		.4byte	0xba
 2363 0857 08       		.byte	0x8
 2364 0858 00       		.byte	0
ARM GAS  C:\Users\glenn\AppData\Local\Temp\ccAtjKMd.s 			page 49


 2365 0859 1B       		.uleb128 0x1b
 2366 085a 12020000 		.4byte	.LASF78
 2367 085e 01       		.byte	0x1
 2368 085f 2A       		.byte	0x2a
 2369 0860 6A080000 		.4byte	0x86a
 2370 0864 05       		.uleb128 0x5
 2371 0865 03       		.byte	0x3
 2372 0866 00000000 		.4byte	moisture_configuration_data
 2373 086a 0C       		.uleb128 0xc
 2374 086b 49080000 		.4byte	0x849
 2375 086f 15       		.uleb128 0x15
 2376 0870 A5000000 		.4byte	0xa5
 2377 0874 7F080000 		.4byte	0x87f
 2378 0878 19       		.uleb128 0x19
 2379 0879 BA000000 		.4byte	0xba
 2380 087d 01       		.byte	0x1
 2381 087e 00       		.byte	0
 2382 087f 1B       		.uleb128 0x1b
 2383 0880 5F030000 		.4byte	.LASF79
 2384 0884 01       		.byte	0x1
 2385 0885 3C       		.byte	0x3c
 2386 0886 90080000 		.4byte	0x890
 2387 088a 05       		.uleb128 0x5
 2388 088b 03       		.byte	0x3
 2389 088c 00000000 		.4byte	temperature_calibration_factors
 2390 0890 0C       		.uleb128 0xc
 2391 0891 6F080000 		.4byte	0x86f
 2392 0895 00       		.byte	0
 2393              		.section	.debug_abbrev,"",%progbits
 2394              	.Ldebug_abbrev0:
 2395 0000 01       		.uleb128 0x1
 2396 0001 11       		.uleb128 0x11
 2397 0002 01       		.byte	0x1
 2398 0003 25       		.uleb128 0x25
 2399 0004 0E       		.uleb128 0xe
 2400 0005 13       		.uleb128 0x13
 2401 0006 0B       		.uleb128 0xb
 2402 0007 03       		.uleb128 0x3
 2403 0008 0E       		.uleb128 0xe
 2404 0009 1B       		.uleb128 0x1b
 2405 000a 0E       		.uleb128 0xe
 2406 000b 55       		.uleb128 0x55
 2407 000c 17       		.uleb128 0x17
 2408 000d 11       		.uleb128 0x11
 2409 000e 01       		.uleb128 0x1
 2410 000f 10       		.uleb128 0x10
 2411 0010 17       		.uleb128 0x17
 2412 0011 00       		.byte	0
 2413 0012 00       		.byte	0
 2414 0013 02       		.uleb128 0x2
 2415 0014 24       		.uleb128 0x24
 2416 0015 00       		.byte	0
 2417 0016 0B       		.uleb128 0xb
 2418 0017 0B       		.uleb128 0xb
 2419 0018 3E       		.uleb128 0x3e
 2420 0019 0B       		.uleb128 0xb
 2421 001a 03       		.uleb128 0x3
ARM GAS  C:\Users\glenn\AppData\Local\Temp\ccAtjKMd.s 			page 50


 2422 001b 0E       		.uleb128 0xe
 2423 001c 00       		.byte	0
 2424 001d 00       		.byte	0
 2425 001e 03       		.uleb128 0x3
 2426 001f 16       		.uleb128 0x16
 2427 0020 00       		.byte	0
 2428 0021 03       		.uleb128 0x3
 2429 0022 0E       		.uleb128 0xe
 2430 0023 3A       		.uleb128 0x3a
 2431 0024 0B       		.uleb128 0xb
 2432 0025 3B       		.uleb128 0x3b
 2433 0026 0B       		.uleb128 0xb
 2434 0027 49       		.uleb128 0x49
 2435 0028 13       		.uleb128 0x13
 2436 0029 00       		.byte	0
 2437 002a 00       		.byte	0
 2438 002b 04       		.uleb128 0x4
 2439 002c 24       		.uleb128 0x24
 2440 002d 00       		.byte	0
 2441 002e 0B       		.uleb128 0xb
 2442 002f 0B       		.uleb128 0xb
 2443 0030 3E       		.uleb128 0x3e
 2444 0031 0B       		.uleb128 0xb
 2445 0032 03       		.uleb128 0x3
 2446 0033 08       		.uleb128 0x8
 2447 0034 00       		.byte	0
 2448 0035 00       		.byte	0
 2449 0036 05       		.uleb128 0x5
 2450 0037 16       		.uleb128 0x16
 2451 0038 00       		.byte	0
 2452 0039 03       		.uleb128 0x3
 2453 003a 0E       		.uleb128 0xe
 2454 003b 3A       		.uleb128 0x3a
 2455 003c 0B       		.uleb128 0xb
 2456 003d 3B       		.uleb128 0x3b
 2457 003e 05       		.uleb128 0x5
 2458 003f 49       		.uleb128 0x49
 2459 0040 13       		.uleb128 0x13
 2460 0041 00       		.byte	0
 2461 0042 00       		.byte	0
 2462 0043 06       		.uleb128 0x6
 2463 0044 04       		.uleb128 0x4
 2464 0045 01       		.byte	0x1
 2465 0046 0B       		.uleb128 0xb
 2466 0047 0B       		.uleb128 0xb
 2467 0048 3A       		.uleb128 0x3a
 2468 0049 0B       		.uleb128 0xb
 2469 004a 3B       		.uleb128 0x3b
 2470 004b 0B       		.uleb128 0xb
 2471 004c 01       		.uleb128 0x1
 2472 004d 13       		.uleb128 0x13
 2473 004e 00       		.byte	0
 2474 004f 00       		.byte	0
 2475 0050 07       		.uleb128 0x7
 2476 0051 28       		.uleb128 0x28
 2477 0052 00       		.byte	0
 2478 0053 03       		.uleb128 0x3
ARM GAS  C:\Users\glenn\AppData\Local\Temp\ccAtjKMd.s 			page 51


 2479 0054 0E       		.uleb128 0xe
 2480 0055 1C       		.uleb128 0x1c
 2481 0056 0D       		.uleb128 0xd
 2482 0057 00       		.byte	0
 2483 0058 00       		.byte	0
 2484 0059 08       		.uleb128 0x8
 2485 005a 2E       		.uleb128 0x2e
 2486 005b 01       		.byte	0x1
 2487 005c 3F       		.uleb128 0x3f
 2488 005d 19       		.uleb128 0x19
 2489 005e 03       		.uleb128 0x3
 2490 005f 0E       		.uleb128 0xe
 2491 0060 3A       		.uleb128 0x3a
 2492 0061 0B       		.uleb128 0xb
 2493 0062 3B       		.uleb128 0x3b
 2494 0063 0B       		.uleb128 0xb
 2495 0064 27       		.uleb128 0x27
 2496 0065 19       		.uleb128 0x19
 2497 0066 49       		.uleb128 0x49
 2498 0067 13       		.uleb128 0x13
 2499 0068 11       		.uleb128 0x11
 2500 0069 01       		.uleb128 0x1
 2501 006a 12       		.uleb128 0x12
 2502 006b 06       		.uleb128 0x6
 2503 006c 40       		.uleb128 0x40
 2504 006d 18       		.uleb128 0x18
 2505 006e 9642     		.uleb128 0x2116
 2506 0070 19       		.uleb128 0x19
 2507 0071 01       		.uleb128 0x1
 2508 0072 13       		.uleb128 0x13
 2509 0073 00       		.byte	0
 2510 0074 00       		.byte	0
 2511 0075 09       		.uleb128 0x9
 2512 0076 05       		.uleb128 0x5
 2513 0077 00       		.byte	0
 2514 0078 03       		.uleb128 0x3
 2515 0079 0E       		.uleb128 0xe
 2516 007a 3A       		.uleb128 0x3a
 2517 007b 0B       		.uleb128 0xb
 2518 007c 3B       		.uleb128 0x3b
 2519 007d 0B       		.uleb128 0xb
 2520 007e 49       		.uleb128 0x49
 2521 007f 13       		.uleb128 0x13
 2522 0080 02       		.uleb128 0x2
 2523 0081 18       		.uleb128 0x18
 2524 0082 00       		.byte	0
 2525 0083 00       		.byte	0
 2526 0084 0A       		.uleb128 0xa
 2527 0085 34       		.uleb128 0x34
 2528 0086 00       		.byte	0
 2529 0087 03       		.uleb128 0x3
 2530 0088 0E       		.uleb128 0xe
 2531 0089 3A       		.uleb128 0x3a
 2532 008a 0B       		.uleb128 0xb
 2533 008b 3B       		.uleb128 0x3b
 2534 008c 0B       		.uleb128 0xb
 2535 008d 49       		.uleb128 0x49
ARM GAS  C:\Users\glenn\AppData\Local\Temp\ccAtjKMd.s 			page 52


 2536 008e 13       		.uleb128 0x13
 2537 008f 02       		.uleb128 0x2
 2538 0090 18       		.uleb128 0x18
 2539 0091 00       		.byte	0
 2540 0092 00       		.byte	0
 2541 0093 0B       		.uleb128 0xb
 2542 0094 0F       		.uleb128 0xf
 2543 0095 00       		.byte	0
 2544 0096 0B       		.uleb128 0xb
 2545 0097 0B       		.uleb128 0xb
 2546 0098 49       		.uleb128 0x49
 2547 0099 13       		.uleb128 0x13
 2548 009a 00       		.byte	0
 2549 009b 00       		.byte	0
 2550 009c 0C       		.uleb128 0xc
 2551 009d 26       		.uleb128 0x26
 2552 009e 00       		.byte	0
 2553 009f 49       		.uleb128 0x49
 2554 00a0 13       		.uleb128 0x13
 2555 00a1 00       		.byte	0
 2556 00a2 00       		.byte	0
 2557 00a3 0D       		.uleb128 0xd
 2558 00a4 2E       		.uleb128 0x2e
 2559 00a5 01       		.byte	0x1
 2560 00a6 3F       		.uleb128 0x3f
 2561 00a7 19       		.uleb128 0x19
 2562 00a8 03       		.uleb128 0x3
 2563 00a9 0E       		.uleb128 0xe
 2564 00aa 3A       		.uleb128 0x3a
 2565 00ab 0B       		.uleb128 0xb
 2566 00ac 3B       		.uleb128 0x3b
 2567 00ad 0B       		.uleb128 0xb
 2568 00ae 27       		.uleb128 0x27
 2569 00af 19       		.uleb128 0x19
 2570 00b0 11       		.uleb128 0x11
 2571 00b1 01       		.uleb128 0x1
 2572 00b2 12       		.uleb128 0x12
 2573 00b3 06       		.uleb128 0x6
 2574 00b4 40       		.uleb128 0x40
 2575 00b5 18       		.uleb128 0x18
 2576 00b6 9642     		.uleb128 0x2116
 2577 00b8 19       		.uleb128 0x19
 2578 00b9 01       		.uleb128 0x1
 2579 00ba 13       		.uleb128 0x13
 2580 00bb 00       		.byte	0
 2581 00bc 00       		.byte	0
 2582 00bd 0E       		.uleb128 0xe
 2583 00be 34       		.uleb128 0x34
 2584 00bf 00       		.byte	0
 2585 00c0 03       		.uleb128 0x3
 2586 00c1 0E       		.uleb128 0xe
 2587 00c2 3A       		.uleb128 0x3a
 2588 00c3 0B       		.uleb128 0xb
 2589 00c4 3B       		.uleb128 0x3b
 2590 00c5 05       		.uleb128 0x5
 2591 00c6 49       		.uleb128 0x49
 2592 00c7 13       		.uleb128 0x13
ARM GAS  C:\Users\glenn\AppData\Local\Temp\ccAtjKMd.s 			page 53


 2593 00c8 02       		.uleb128 0x2
 2594 00c9 18       		.uleb128 0x18
 2595 00ca 00       		.byte	0
 2596 00cb 00       		.byte	0
 2597 00cc 0F       		.uleb128 0xf
 2598 00cd 2E       		.uleb128 0x2e
 2599 00ce 01       		.byte	0x1
 2600 00cf 3F       		.uleb128 0x3f
 2601 00d0 19       		.uleb128 0x19
 2602 00d1 03       		.uleb128 0x3
 2603 00d2 0E       		.uleb128 0xe
 2604 00d3 3A       		.uleb128 0x3a
 2605 00d4 0B       		.uleb128 0xb
 2606 00d5 3B       		.uleb128 0x3b
 2607 00d6 05       		.uleb128 0x5
 2608 00d7 27       		.uleb128 0x27
 2609 00d8 19       		.uleb128 0x19
 2610 00d9 49       		.uleb128 0x49
 2611 00da 13       		.uleb128 0x13
 2612 00db 11       		.uleb128 0x11
 2613 00dc 01       		.uleb128 0x1
 2614 00dd 12       		.uleb128 0x12
 2615 00de 06       		.uleb128 0x6
 2616 00df 40       		.uleb128 0x40
 2617 00e0 18       		.uleb128 0x18
 2618 00e1 9642     		.uleb128 0x2116
 2619 00e3 19       		.uleb128 0x19
 2620 00e4 01       		.uleb128 0x1
 2621 00e5 13       		.uleb128 0x13
 2622 00e6 00       		.byte	0
 2623 00e7 00       		.byte	0
 2624 00e8 10       		.uleb128 0x10
 2625 00e9 05       		.uleb128 0x5
 2626 00ea 00       		.byte	0
 2627 00eb 03       		.uleb128 0x3
 2628 00ec 0E       		.uleb128 0xe
 2629 00ed 3A       		.uleb128 0x3a
 2630 00ee 0B       		.uleb128 0xb
 2631 00ef 3B       		.uleb128 0x3b
 2632 00f0 05       		.uleb128 0x5
 2633 00f1 49       		.uleb128 0x49
 2634 00f2 13       		.uleb128 0x13
 2635 00f3 02       		.uleb128 0x2
 2636 00f4 18       		.uleb128 0x18
 2637 00f5 00       		.byte	0
 2638 00f6 00       		.byte	0
 2639 00f7 11       		.uleb128 0x11
 2640 00f8 05       		.uleb128 0x5
 2641 00f9 00       		.byte	0
 2642 00fa 03       		.uleb128 0x3
 2643 00fb 08       		.uleb128 0x8
 2644 00fc 3A       		.uleb128 0x3a
 2645 00fd 0B       		.uleb128 0xb
 2646 00fe 3B       		.uleb128 0x3b
 2647 00ff 05       		.uleb128 0x5
 2648 0100 49       		.uleb128 0x49
 2649 0101 13       		.uleb128 0x13
ARM GAS  C:\Users\glenn\AppData\Local\Temp\ccAtjKMd.s 			page 54


 2650 0102 02       		.uleb128 0x2
 2651 0103 18       		.uleb128 0x18
 2652 0104 00       		.byte	0
 2653 0105 00       		.byte	0
 2654 0106 12       		.uleb128 0x12
 2655 0107 2E       		.uleb128 0x2e
 2656 0108 01       		.byte	0x1
 2657 0109 03       		.uleb128 0x3
 2658 010a 0E       		.uleb128 0xe
 2659 010b 3A       		.uleb128 0x3a
 2660 010c 0B       		.uleb128 0xb
 2661 010d 3B       		.uleb128 0x3b
 2662 010e 05       		.uleb128 0x5
 2663 010f 27       		.uleb128 0x27
 2664 0110 19       		.uleb128 0x19
 2665 0111 11       		.uleb128 0x11
 2666 0112 01       		.uleb128 0x1
 2667 0113 12       		.uleb128 0x12
 2668 0114 06       		.uleb128 0x6
 2669 0115 40       		.uleb128 0x40
 2670 0116 18       		.uleb128 0x18
 2671 0117 9642     		.uleb128 0x2116
 2672 0119 19       		.uleb128 0x19
 2673 011a 01       		.uleb128 0x1
 2674 011b 13       		.uleb128 0x13
 2675 011c 00       		.byte	0
 2676 011d 00       		.byte	0
 2677 011e 13       		.uleb128 0x13
 2678 011f 34       		.uleb128 0x34
 2679 0120 00       		.byte	0
 2680 0121 03       		.uleb128 0x3
 2681 0122 08       		.uleb128 0x8
 2682 0123 3A       		.uleb128 0x3a
 2683 0124 0B       		.uleb128 0xb
 2684 0125 3B       		.uleb128 0x3b
 2685 0126 05       		.uleb128 0x5
 2686 0127 49       		.uleb128 0x49
 2687 0128 13       		.uleb128 0x13
 2688 0129 02       		.uleb128 0x2
 2689 012a 18       		.uleb128 0x18
 2690 012b 00       		.byte	0
 2691 012c 00       		.byte	0
 2692 012d 14       		.uleb128 0x14
 2693 012e 2E       		.uleb128 0x2e
 2694 012f 01       		.byte	0x1
 2695 0130 03       		.uleb128 0x3
 2696 0131 0E       		.uleb128 0xe
 2697 0132 3A       		.uleb128 0x3a
 2698 0133 0B       		.uleb128 0xb
 2699 0134 3B       		.uleb128 0x3b
 2700 0135 05       		.uleb128 0x5
 2701 0136 27       		.uleb128 0x27
 2702 0137 19       		.uleb128 0x19
 2703 0138 49       		.uleb128 0x49
 2704 0139 13       		.uleb128 0x13
 2705 013a 11       		.uleb128 0x11
 2706 013b 01       		.uleb128 0x1
ARM GAS  C:\Users\glenn\AppData\Local\Temp\ccAtjKMd.s 			page 55


 2707 013c 12       		.uleb128 0x12
 2708 013d 06       		.uleb128 0x6
 2709 013e 40       		.uleb128 0x40
 2710 013f 18       		.uleb128 0x18
 2711 0140 9642     		.uleb128 0x2116
 2712 0142 19       		.uleb128 0x19
 2713 0143 01       		.uleb128 0x1
 2714 0144 13       		.uleb128 0x13
 2715 0145 00       		.byte	0
 2716 0146 00       		.byte	0
 2717 0147 15       		.uleb128 0x15
 2718 0148 01       		.uleb128 0x1
 2719 0149 01       		.byte	0x1
 2720 014a 49       		.uleb128 0x49
 2721 014b 13       		.uleb128 0x13
 2722 014c 01       		.uleb128 0x1
 2723 014d 13       		.uleb128 0x13
 2724 014e 00       		.byte	0
 2725 014f 00       		.byte	0
 2726 0150 16       		.uleb128 0x16
 2727 0151 21       		.uleb128 0x21
 2728 0152 00       		.byte	0
 2729 0153 49       		.uleb128 0x49
 2730 0154 13       		.uleb128 0x13
 2731 0155 2F       		.uleb128 0x2f
 2732 0156 05       		.uleb128 0x5
 2733 0157 00       		.byte	0
 2734 0158 00       		.byte	0
 2735 0159 17       		.uleb128 0x17
 2736 015a 34       		.uleb128 0x34
 2737 015b 00       		.byte	0
 2738 015c 03       		.uleb128 0x3
 2739 015d 0E       		.uleb128 0xe
 2740 015e 3A       		.uleb128 0x3a
 2741 015f 0B       		.uleb128 0xb
 2742 0160 3B       		.uleb128 0x3b
 2743 0161 05       		.uleb128 0x5
 2744 0162 49       		.uleb128 0x49
 2745 0163 13       		.uleb128 0x13
 2746 0164 3F       		.uleb128 0x3f
 2747 0165 19       		.uleb128 0x19
 2748 0166 3C       		.uleb128 0x3c
 2749 0167 19       		.uleb128 0x19
 2750 0168 00       		.byte	0
 2751 0169 00       		.byte	0
 2752 016a 18       		.uleb128 0x18
 2753 016b 35       		.uleb128 0x35
 2754 016c 00       		.byte	0
 2755 016d 49       		.uleb128 0x49
 2756 016e 13       		.uleb128 0x13
 2757 016f 00       		.byte	0
 2758 0170 00       		.byte	0
 2759 0171 19       		.uleb128 0x19
 2760 0172 21       		.uleb128 0x21
 2761 0173 00       		.byte	0
 2762 0174 49       		.uleb128 0x49
 2763 0175 13       		.uleb128 0x13
ARM GAS  C:\Users\glenn\AppData\Local\Temp\ccAtjKMd.s 			page 56


 2764 0176 2F       		.uleb128 0x2f
 2765 0177 0B       		.uleb128 0xb
 2766 0178 00       		.byte	0
 2767 0179 00       		.byte	0
 2768 017a 1A       		.uleb128 0x1a
 2769 017b 34       		.uleb128 0x34
 2770 017c 00       		.byte	0
 2771 017d 03       		.uleb128 0x3
 2772 017e 0E       		.uleb128 0xe
 2773 017f 3A       		.uleb128 0x3a
 2774 0180 0B       		.uleb128 0xb
 2775 0181 3B       		.uleb128 0x3b
 2776 0182 0B       		.uleb128 0xb
 2777 0183 49       		.uleb128 0x49
 2778 0184 13       		.uleb128 0x13
 2779 0185 3F       		.uleb128 0x3f
 2780 0186 19       		.uleb128 0x19
 2781 0187 3C       		.uleb128 0x3c
 2782 0188 19       		.uleb128 0x19
 2783 0189 00       		.byte	0
 2784 018a 00       		.byte	0
 2785 018b 1B       		.uleb128 0x1b
 2786 018c 34       		.uleb128 0x34
 2787 018d 00       		.byte	0
 2788 018e 03       		.uleb128 0x3
 2789 018f 0E       		.uleb128 0xe
 2790 0190 3A       		.uleb128 0x3a
 2791 0191 0B       		.uleb128 0xb
 2792 0192 3B       		.uleb128 0x3b
 2793 0193 0B       		.uleb128 0xb
 2794 0194 49       		.uleb128 0x49
 2795 0195 13       		.uleb128 0x13
 2796 0196 3F       		.uleb128 0x3f
 2797 0197 19       		.uleb128 0x19
 2798 0198 02       		.uleb128 0x2
 2799 0199 18       		.uleb128 0x18
 2800 019a 00       		.byte	0
 2801 019b 00       		.byte	0
 2802 019c 00       		.byte	0
 2803              		.section	.debug_aranges,"",%progbits
 2804 0000 A4000000 		.4byte	0xa4
 2805 0004 0200     		.2byte	0x2
 2806 0006 00000000 		.4byte	.Ldebug_info0
 2807 000a 04       		.byte	0x4
 2808 000b 00       		.byte	0
 2809 000c 0000     		.2byte	0
 2810 000e 0000     		.2byte	0
 2811 0010 00000000 		.4byte	.LFB65
 2812 0014 40000000 		.4byte	.LFE65-.LFB65
 2813 0018 00000000 		.4byte	.LFB66
 2814 001c 30000000 		.4byte	.LFE66-.LFB66
 2815 0020 00000000 		.4byte	.LFB67
 2816 0024 28000000 		.4byte	.LFE67-.LFB67
 2817 0028 00000000 		.4byte	.LFB68
 2818 002c 28000000 		.4byte	.LFE68-.LFB68
 2819 0030 00000000 		.4byte	.LFB69
 2820 0034 3E000000 		.4byte	.LFE69-.LFB69
ARM GAS  C:\Users\glenn\AppData\Local\Temp\ccAtjKMd.s 			page 57


 2821 0038 00000000 		.4byte	.LFB70
 2822 003c 5C000000 		.4byte	.LFE70-.LFB70
 2823 0040 00000000 		.4byte	.LFB71
 2824 0044 38000000 		.4byte	.LFE71-.LFB71
 2825 0048 00000000 		.4byte	.LFB72
 2826 004c 38000000 		.4byte	.LFE72-.LFB72
 2827 0050 00000000 		.4byte	.LFB73
 2828 0054 38000000 		.4byte	.LFE73-.LFB73
 2829 0058 00000000 		.4byte	.LFB74
 2830 005c 2A000000 		.4byte	.LFE74-.LFB74
 2831 0060 00000000 		.4byte	.LFB75
 2832 0064 7C000000 		.4byte	.LFE75-.LFB75
 2833 0068 00000000 		.4byte	.LFB76
 2834 006c 62000000 		.4byte	.LFE76-.LFB76
 2835 0070 00000000 		.4byte	.LFB77
 2836 0074 60000000 		.4byte	.LFE77-.LFB77
 2837 0078 00000000 		.4byte	.LFB78
 2838 007c 4C000000 		.4byte	.LFE78-.LFB78
 2839 0080 00000000 		.4byte	.LFB79
 2840 0084 3C000000 		.4byte	.LFE79-.LFB79
 2841 0088 00000000 		.4byte	.LFB80
 2842 008c A0000000 		.4byte	.LFE80-.LFB80
 2843 0090 00000000 		.4byte	.LFB81
 2844 0094 78000000 		.4byte	.LFE81-.LFB81
 2845 0098 00000000 		.4byte	.LFB82
 2846 009c 32000000 		.4byte	.LFE82-.LFB82
 2847 00a0 00000000 		.4byte	0
 2848 00a4 00000000 		.4byte	0
 2849              		.section	.debug_ranges,"",%progbits
 2850              	.Ldebug_ranges0:
 2851 0000 00000000 		.4byte	.LFB65
 2852 0004 40000000 		.4byte	.LFE65
 2853 0008 00000000 		.4byte	.LFB66
 2854 000c 30000000 		.4byte	.LFE66
 2855 0010 00000000 		.4byte	.LFB67
 2856 0014 28000000 		.4byte	.LFE67
 2857 0018 00000000 		.4byte	.LFB68
 2858 001c 28000000 		.4byte	.LFE68
 2859 0020 00000000 		.4byte	.LFB69
 2860 0024 3E000000 		.4byte	.LFE69
 2861 0028 00000000 		.4byte	.LFB70
 2862 002c 5C000000 		.4byte	.LFE70
 2863 0030 00000000 		.4byte	.LFB71
 2864 0034 38000000 		.4byte	.LFE71
 2865 0038 00000000 		.4byte	.LFB72
 2866 003c 38000000 		.4byte	.LFE72
 2867 0040 00000000 		.4byte	.LFB73
 2868 0044 38000000 		.4byte	.LFE73
 2869 0048 00000000 		.4byte	.LFB74
 2870 004c 2A000000 		.4byte	.LFE74
 2871 0050 00000000 		.4byte	.LFB75
 2872 0054 7C000000 		.4byte	.LFE75
 2873 0058 00000000 		.4byte	.LFB76
 2874 005c 62000000 		.4byte	.LFE76
 2875 0060 00000000 		.4byte	.LFB77
 2876 0064 60000000 		.4byte	.LFE77
 2877 0068 00000000 		.4byte	.LFB78
ARM GAS  C:\Users\glenn\AppData\Local\Temp\ccAtjKMd.s 			page 58


 2878 006c 4C000000 		.4byte	.LFE78
 2879 0070 00000000 		.4byte	.LFB79
 2880 0074 3C000000 		.4byte	.LFE79
 2881 0078 00000000 		.4byte	.LFB80
 2882 007c A0000000 		.4byte	.LFE80
 2883 0080 00000000 		.4byte	.LFB81
 2884 0084 78000000 		.4byte	.LFE81
 2885 0088 00000000 		.4byte	.LFB82
 2886 008c 32000000 		.4byte	.LFE82
 2887 0090 00000000 		.4byte	0
 2888 0094 00000000 		.4byte	0
 2889              		.section	.debug_line,"",%progbits
 2890              	.Ldebug_line0:
 2891 0000 55030000 		.section	.debug_str,"MS",%progbits,1
 2891      02009D01 
 2891      00000201 
 2891      FB0E0D00 
 2891      01010101 
 2892              	.LASF59:
 2893 0000 706F7369 		.ascii	"position_index\000"
 2893      74696F6E 
 2893      5F696E64 
 2893      657800
 2894              	.LASF62:
 2895 000f 6D61785F 		.ascii	"max_index\000"
 2895      696E6465 
 2895      7800
 2896              	.LASF36:
 2897 0019 74656D70 		.ascii	"temp16\000"
 2897      313600
 2898              	.LASF77:
 2899 0020 72656665 		.ascii	"reference_resistance_array\000"
 2899      72656E63 
 2899      655F7265 
 2899      73697374 
 2899      616E6365 
 2900              	.LASF76:
 2901 003b 6D6F6462 		.ascii	"modbus_address_data\000"
 2901      75735F61 
 2901      64647265 
 2901      73735F64 
 2901      61746100 
 2902              	.LASF30:
 2903 004f 70617261 		.ascii	"param_3\000"
 2903      6D5F3300 
 2904              	.LASF61:
 2905 0057 6C6F675F 		.ascii	"log_index\000"
 2905      696E6465 
 2905      7800
 2906              	.LASF73:
 2907 0061 73616D70 		.ascii	"sampling_interval\000"
 2907      6C696E67 
 2907      5F696E74 
 2907      65727661 
 2907      6C00
 2908              	.LASF38:
 2909 0073 74656D70 		.ascii	"temp\000"
ARM GAS  C:\Users\glenn\AppData\Local\Temp\ccAtjKMd.s 			page 59


 2909      00
 2910              	.LASF2:
 2911 0078 73686F72 		.ascii	"short int\000"
 2911      7420696E 
 2911      7400
 2912              	.LASF37:
 2913 0082 656E6162 		.ascii	"enable_eeprom\000"
 2913      6C655F65 
 2913      6570726F 
 2913      6D00
 2914              	.LASF17:
 2915 0090 73697A65 		.ascii	"sizetype\000"
 2915      74797065 
 2915      00
 2916              	.LASF27:
 2917 0099 6C696E6B 		.ascii	"link_id\000"
 2917      5F696400 
 2918              	.LASF28:
 2919 00a1 70617261 		.ascii	"param_1\000"
 2919      6D5F3100 
 2920              	.LASF29:
 2921 00a9 70617261 		.ascii	"param_2\000"
 2921      6D5F3200 
 2922              	.LASF31:
 2923 00b1 6576656E 		.ascii	"event\000"
 2923      7400
 2924              	.LASF20:
 2925 00b7 57415445 		.ascii	"WATER_MARK\000"
 2925      525F4D41 
 2925      524B00
 2926              	.LASF21:
 2927 00c2 6765745F 		.ascii	"get_reference_resistor\000"
 2927      72656665 
 2927      72656E63 
 2927      655F7265 
 2927      73697374 
 2928              	.LASF57:
 2929 00d9 76616C75 		.ascii	"value\000"
 2929      6500
 2930              	.LASF12:
 2931 00df 75696E74 		.ascii	"uint16\000"
 2931      313600
 2932              	.LASF18:
 2933 00e6 4E4F545F 		.ascii	"NOT_POPULATED\000"
 2933      504F5055 
 2933      4C415445 
 2933      4400
 2934              	.LASF55:
 2935 00f4 6C6F675F 		.ascii	"log_data\000"
 2935      64617461 
 2935      00
 2936              	.LASF67:
 2937 00fd 696E6974 		.ascii	"initialize_shaddow_ram_buffer\000"
 2937      69616C69 
 2937      7A655F73 
 2937      68616464 
 2937      6F775F72 
ARM GAS  C:\Users\glenn\AppData\Local\Temp\ccAtjKMd.s 			page 60


 2938              	.LASF34:
 2939 011b 72657365 		.ascii	"reset_eeprom_log\000"
 2939      745F6565 
 2939      70726F6D 
 2939      5F6C6F67 
 2939      00
 2940              	.LASF0:
 2941 012c 7369676E 		.ascii	"signed char\000"
 2941      65642063 
 2941      68617200 
 2942              	.LASF14:
 2943 0138 666C6F61 		.ascii	"float\000"
 2943      7400
 2944              	.LASF60:
 2945 013e 61647661 		.ascii	"advance_index\000"
 2945      6E63655F 
 2945      696E6465 
 2945      7800
 2946              	.LASF6:
 2947 014c 6C6F6E67 		.ascii	"long long int\000"
 2947      206C6F6E 
 2947      6720696E 
 2947      7400
 2948              	.LASF19:
 2949 015a 52455349 		.ascii	"RESISTIVE_ELEMENT\000"
 2949      53544956 
 2949      455F454C 
 2949      454D454E 
 2949      5400
 2950              	.LASF80:
 2951 016c 474E5520 		.ascii	"GNU C 4.9.3 20150303 (release) [ARM/embedded-4_9-br"
 2951      4320342E 
 2951      392E3320 
 2951      32303135 
 2951      30333033 
 2952 019f 616E6368 		.ascii	"anch revision 221220] -mcpu=cortex-m3 -mthumb -g -O"
 2952      20726576 
 2952      6973696F 
 2952      6E203232 
 2952      31323230 
 2953 01d2 30202D66 		.ascii	"0 -ffunction-sections -ffat-lto-objects\000"
 2953      66756E63 
 2953      74696F6E 
 2953      2D736563 
 2953      74696F6E 
 2954              	.LASF52:
 2955 01fa 6E756D62 		.ascii	"number_of_sensors_float\000"
 2955      65725F6F 
 2955      665F7365 
 2955      6E736F72 
 2955      735F666C 
 2956              	.LASF78:
 2957 0212 6D6F6973 		.ascii	"moisture_configuration_data\000"
 2957      74757265 
 2957      5F636F6E 
 2957      66696775 
 2957      72617469 
ARM GAS  C:\Users\glenn\AppData\Local\Temp\ccAtjKMd.s 			page 61


 2958              	.LASF26:
 2959 022e 73746F72 		.ascii	"store_default_temperature_calibration_values_to_mod"
 2959      655F6465 
 2959      6661756C 
 2959      745F7465 
 2959      6D706572 
 2960 0261 6275735F 		.ascii	"bus_registers\000"
 2960      72656769 
 2960      73746572 
 2960      7300
 2961              	.LASF68:
 2962 026f 77726974 		.ascii	"write_32_eeprom\000"
 2962      655F3332 
 2962      5F656570 
 2962      726F6D00 
 2963              	.LASF42:
 2964 027f 75706461 		.ascii	"update_moisture_configuration\000"
 2964      74655F6D 
 2964      6F697374 
 2964      7572655F 
 2964      636F6E66 
 2965              	.LASF11:
 2966 029d 75696E74 		.ascii	"uint8\000"
 2966      3800
 2967              	.LASF1:
 2968 02a3 756E7369 		.ascii	"unsigned char\000"
 2968      676E6564 
 2968      20636861 
 2968      7200
 2969              	.LASF45:
 2970 02b1 64617461 		.ascii	"data_float\000"
 2970      5F666C6F 
 2970      617400
 2971              	.LASF44:
 2972 02bc 75706461 		.ascii	"update_measurement_rate\000"
 2972      74655F6D 
 2972      65617375 
 2972      72656D65 
 2972      6E745F72 
 2973              	.LASF7:
 2974 02d4 6C6F6E67 		.ascii	"long long unsigned int\000"
 2974      206C6F6E 
 2974      6720756E 
 2974      7369676E 
 2974      65642069 
 2975              	.LASF82:
 2976 02eb 433A5C55 		.ascii	"C:\\Users\\glenn\\OneDrive\\PSOC\\moisture_sensor\\"
 2976      73657273 
 2976      5C676C65 
 2976      6E6E5C4F 
 2976      6E654472 
 2977 0318 5553425F 		.ascii	"USB_UART01.cydsn\000"
 2977      55415254 
 2977      30312E63 
 2977      7964736E 
 2977      00
 2978              	.LASF35:
ARM GAS  C:\Users\glenn\AppData\Local\Temp\ccAtjKMd.s 			page 62


 2979 0329 74656D70 		.ascii	"temp32\000"
 2979      333200
 2980              	.LASF8:
 2981 0330 756E7369 		.ascii	"unsigned int\000"
 2981      676E6564 
 2981      20696E74 
 2981      00
 2982              	.LASF47:
 2983 033d 73616D70 		.ascii	"sample_time_interval\000"
 2983      6C655F74 
 2983      696D655F 
 2983      696E7465 
 2983      7276616C 
 2984              	.LASF25:
 2985 0352 72657475 		.ascii	"return_value\000"
 2985      726E5F76 
 2985      616C7565 
 2985      00
 2986              	.LASF79:
 2987 035f 74656D70 		.ascii	"temperature_calibration_factors\000"
 2987      65726174 
 2987      7572655F 
 2987      63616C69 
 2987      62726174 
 2988              	.LASF3:
 2989 037f 73686F72 		.ascii	"short unsigned int\000"
 2989      7420756E 
 2989      7369676E 
 2989      65642069 
 2989      6E7400
 2990              	.LASF39:
 2991 0392 75706461 		.ascii	"update_reference_resistor_configuration\000"
 2991      74655F72 
 2991      65666572 
 2991      656E6365 
 2991      5F726573 
 2992              	.LASF16:
 2993 03ba 63686172 		.ascii	"char\000"
 2993      00
 2994              	.LASF4:
 2995 03bf 6C6F6E67 		.ascii	"long int\000"
 2995      20696E74 
 2995      00
 2996              	.LASF74:
 2997 03c8 73686164 		.ascii	"shaddow_eeprom\000"
 2997      646F775F 
 2997      65657072 
 2997      6F6D00
 2998              	.LASF10:
 2999 03d7 696E7433 		.ascii	"int32_t\000"
 2999      325F7400 
 3000              	.LASF81:
 3001 03df 2E5C6D6F 		.ascii	".\\moisture_measurement\\cb_logging.c\000"
 3001      69737475 
 3001      72655F6D 
 3001      65617375 
 3001      72656D65 
ARM GAS  C:\Users\glenn\AppData\Local\Temp\ccAtjKMd.s 			page 63


 3002              	.LASF23:
 3003 0403 6368616E 		.ascii	"channel\000"
 3003      6E656C00 
 3004              	.LASF32:
 3005 040b 64617461 		.ascii	"data\000"
 3005      00
 3006              	.LASF70:
 3007 0410 76616C75 		.ascii	"value_float\000"
 3007      655F666C 
 3007      6F617400 
 3008              	.LASF41:
 3009 041c 62756666 		.ascii	"buffer\000"
 3009      657200
 3010              	.LASF58:
 3011 0423 6C6F6767 		.ascii	"logging_index\000"
 3011      696E675F 
 3011      696E6465 
 3011      7800
 3012              	.LASF13:
 3013 0431 75696E74 		.ascii	"uint32\000"
 3013      333200
 3014              	.LASF24:
 3015 0438 73656E73 		.ascii	"sensor_id\000"
 3015      6F725F69 
 3015      6400
 3016              	.LASF5:
 3017 0442 6C6F6E67 		.ascii	"long unsigned int\000"
 3017      20756E73 
 3017      69676E65 
 3017      6420696E 
 3017      7400
 3018              	.LASF46:
 3019 0454 6E756D62 		.ascii	"number_of_sensors\000"
 3019      65725F6F 
 3019      665F7365 
 3019      6E736F72 
 3019      7300
 3020              	.LASF15:
 3021 0466 646F7562 		.ascii	"double\000"
 3021      6C6500
 3022              	.LASF33:
 3023 046d 73746F72 		.ascii	"store_default_resistor_calibration_values_to_modbus"
 3023      655F6465 
 3023      6661756C 
 3023      745F7265 
 3023      73697374 
 3024 04a0 5F726567 		.ascii	"_registers\000"
 3024      69737465 
 3024      727300
 3025              	.LASF51:
 3026 04ab 73616D70 		.ascii	"sample_time_float\000"
 3026      6C655F74 
 3026      696D655F 
 3026      666C6F61 
 3026      7400
 3027              	.LASF75:
 3028 04bd 49544D5F 		.ascii	"ITM_RxBuffer\000"
ARM GAS  C:\Users\glenn\AppData\Local\Temp\ccAtjKMd.s 			page 64


 3028      52784275 
 3028      66666572 
 3028      00
 3029              	.LASF69:
 3030 04ca 65657072 		.ascii	"eeprom_position\000"
 3030      6F6D5F70 
 3030      6F736974 
 3030      696F6E00 
 3031              	.LASF9:
 3032 04da 5F5F696E 		.ascii	"__int32_t\000"
 3032      7433325F 
 3032      7400
 3033              	.LASF22:
 3034 04e4 6765745F 		.ascii	"get_moisture_sensor_configuration\000"
 3034      6D6F6973 
 3034      74757265 
 3034      5F73656E 
 3034      736F725F 
 3035              	.LASF43:
 3036 0506 75706461 		.ascii	"update_temperature_configuration\000"
 3036      74655F74 
 3036      656D7065 
 3036      72617475 
 3036      72655F63 
 3037              	.LASF65:
 3038 0527 73746172 		.ascii	"starting_register\000"
 3038      74696E67 
 3038      5F726567 
 3038      69737465 
 3038      7200
 3039              	.LASF40:
 3040 0539 6D6F6462 		.ascii	"modbus_address\000"
 3040      75735F61 
 3040      64647265 
 3040      737300
 3041              	.LASF56:
 3042 0548 73656E73 		.ascii	"sensor_position\000"
 3042      6F725F70 
 3042      6F736974 
 3042      696F6E00 
 3043              	.LASF64:
 3044 0558 6765745F 		.ascii	"get_modbus_eeprom_registers\000"
 3044      6D6F6462 
 3044      75735F65 
 3044      6570726F 
 3044      6D5F7265 
 3045              	.LASF49:
 3046 0574 696E6974 		.ascii	"init_value\000"
 3046      5F76616C 
 3046      756500
 3047              	.LASF53:
 3048 057f 76616C69 		.ascii	"validate_flag\000"
 3048      64617465 
 3048      5F666C61 
 3048      6700
 3049              	.LASF66:
 3050 058d 6E756D62 		.ascii	"number\000"
ARM GAS  C:\Users\glenn\AppData\Local\Temp\ccAtjKMd.s 			page 65


 3050      657200
 3051              	.LASF50:
 3052 0594 6D61785F 		.ascii	"max_log_number\000"
 3052      6C6F675F 
 3052      6E756D62 
 3052      657200
 3053              	.LASF71:
 3054 05a3 72656164 		.ascii	"read_32_eeprom\000"
 3054      5F33325F 
 3054      65657072 
 3054      6F6D00
 3055              	.LASF54:
 3056 05b2 696E6974 		.ascii	"initialize_eeprom_logging\000"
 3056      69616C69 
 3056      7A655F65 
 3056      6570726F 
 3056      6D5F6C6F 
 3057              	.LASF63:
 3058 05cc 6C6F675F 		.ascii	"log_index_float\000"
 3058      696E6465 
 3058      785F666C 
 3058      6F617400 
 3059              	.LASF48:
 3060 05dc 7A65726F 		.ascii	"zero\000"
 3060      00
 3061              	.LASF72:
 3062 05e1 76616C69 		.ascii	"validate_eeprom\000"
 3062      64617465 
 3062      5F656570 
 3062      726F6D00 
 3063              		.ident	"GCC: (GNU Tools for ARM Embedded Processors) 4.9.3 20150303 (release) [ARM/embedded-4_9-br
