ARM GAS  C:\Users\glenn\AppData\Local\Temp\cci9H0Fa.s 			page 1


   1              		.syntax unified
   2              		.cpu cortex-m3
   3              		.fpu softvfp
   4              		.eabi_attribute 20, 1
   5              		.eabi_attribute 21, 1
   6              		.eabi_attribute 23, 3
   7              		.eabi_attribute 24, 1
   8              		.eabi_attribute 25, 1
   9              		.eabi_attribute 26, 1
  10              		.eabi_attribute 30, 6
  11              		.eabi_attribute 34, 1
  12              		.eabi_attribute 18, 4
  13              		.thumb
  14              		.file	"cf_external_functions.c"
  15              		.text
  16              	.Ltext0:
  17              		.cfi_sections	.debug_frame
  18              		.section	.text.toggle_heart_beat,"ax",%progbits
  19              		.align	2
  20              		.global	toggle_heart_beat
  21              		.thumb
  22              		.thumb_func
  23              		.type	toggle_heart_beat, %function
  24              	toggle_heart_beat:
  25              	.LFB65:
  26              		.file 1 ".\\chain_flow\\cf_external_functions.c"
   1:.\chain_flow/cf_external_functions.c **** /*
   2:.\chain_flow/cf_external_functions.c **** **
   3:.\chain_flow/cf_external_functions.c **** ** File: cf_external_functions.c
   4:.\chain_flow/cf_external_functions.c **** ** This file is manually generated
   5:.\chain_flow/cf_external_functions.c **** ** 
   6:.\chain_flow/cf_external_functions.c **** **
   7:.\chain_flow/cf_external_functions.c **** */
   8:.\chain_flow/cf_external_functions.c **** #include <device.h>
   9:.\chain_flow/cf_external_functions.c **** #include "cf_events.h"
  10:.\chain_flow/cf_external_functions.c **** #include "moving_average.h"
  11:.\chain_flow/cf_external_functions.c **** #include "cf_external_functions.h"
  12:.\chain_flow/cf_external_functions.c **** #include "a_to_d_functions.h"
  13:.\chain_flow/cf_external_functions.c **** #include "sigma_mux.h"
  14:.\chain_flow/cf_external_functions.c **** #include "event_fifo.h"
  15:.\chain_flow/cf_external_functions.c **** #include "digitial_io.h"
  16:.\chain_flow/cf_external_functions.c **** #include "process_modbus_message.h"
  17:.\chain_flow/cf_external_functions.c **** 
  18:.\chain_flow/cf_external_functions.c **** 
  19:.\chain_flow/cf_external_functions.c **** #define TICK_INTERVAL          16
  20:.\chain_flow/cf_external_functions.c **** #define WATCHDOG_ENABLE         0
  21:.\chain_flow/cf_external_functions.c **** 
  22:.\chain_flow/cf_external_functions.c **** 
  23:.\chain_flow/cf_external_functions.c **** 
  24:.\chain_flow/cf_external_functions.c **** 
  25:.\chain_flow/cf_external_functions.c **** 
  26:.\chain_flow/cf_external_functions.c **** 
  27:.\chain_flow/cf_external_functions.c **** int toggle_heart_beat(unsigned link_id, unsigned param_1,
  28:.\chain_flow/cf_external_functions.c ****                       unsigned param_2, unsigned param_3, 
  29:.\chain_flow/cf_external_functions.c **** 			          unsigned event, unsigned data)
  30:.\chain_flow/cf_external_functions.c **** {
  27              		.loc 1 30 0
ARM GAS  C:\Users\glenn\AppData\Local\Temp\cci9H0Fa.s 			page 2


  28              		.cfi_startproc
  29              		@ args = 8, pretend = 0, frame = 16
  30              		@ frame_needed = 1, uses_anonymous_args = 0
  31 0000 80B5     		push	{r7, lr}
  32              		.cfi_def_cfa_offset 8
  33              		.cfi_offset 7, -8
  34              		.cfi_offset 14, -4
  35 0002 84B0     		sub	sp, sp, #16
  36              		.cfi_def_cfa_offset 24
  37 0004 00AF     		add	r7, sp, #0
  38              		.cfi_def_cfa_register 7
  39 0006 F860     		str	r0, [r7, #12]
  40 0008 B960     		str	r1, [r7, #8]
  41 000a 7A60     		str	r2, [r7, #4]
  42 000c 3B60     		str	r3, [r7]
  31:.\chain_flow/cf_external_functions.c **** 	
  32:.\chain_flow/cf_external_functions.c ****            
  33:.\chain_flow/cf_external_functions.c ****    heart_beat_pin_Write( !heart_beat_pin_Read() );
  43              		.loc 1 33 0
  44 000e FFF7FEFF 		bl	heart_beat_pin_Read
  45 0012 0346     		mov	r3, r0
  46 0014 002B     		cmp	r3, #0
  47 0016 0CBF     		ite	eq
  48 0018 0123     		moveq	r3, #1
  49 001a 0023     		movne	r3, #0
  50 001c DBB2     		uxtb	r3, r3
  51 001e 1846     		mov	r0, r3
  52 0020 FFF7FEFF 		bl	heart_beat_pin_Write
  34:.\chain_flow/cf_external_functions.c ****    return CF_DISABLE;       
  53              		.loc 1 34 0
  54 0024 0223     		movs	r3, #2
  35:.\chain_flow/cf_external_functions.c **** 
  36:.\chain_flow/cf_external_functions.c **** }
  55              		.loc 1 36 0
  56 0026 1846     		mov	r0, r3
  57 0028 1037     		adds	r7, r7, #16
  58              		.cfi_def_cfa_offset 8
  59 002a BD46     		mov	sp, r7
  60              		.cfi_def_cfa_register 13
  61              		@ sp needed
  62 002c 80BD     		pop	{r7, pc}
  63              		.cfi_endproc
  64              	.LFE65:
  65              		.size	toggle_heart_beat, .-toggle_heart_beat
  66 002e 00BF     		.section	.text.pat_watch_dog,"ax",%progbits
  67              		.align	2
  68              		.global	pat_watch_dog
  69              		.thumb
  70              		.thumb_func
  71              		.type	pat_watch_dog, %function
  72              	pat_watch_dog:
  73              	.LFB66:
  37:.\chain_flow/cf_external_functions.c **** 
  38:.\chain_flow/cf_external_functions.c **** int  pat_watch_dog(unsigned link_id, unsigned param_1,
  39:.\chain_flow/cf_external_functions.c ****   unsigned param_2, unsigned param_3, unsigned event, unsigned data)
  40:.\chain_flow/cf_external_functions.c **** {
  74              		.loc 1 40 0
ARM GAS  C:\Users\glenn\AppData\Local\Temp\cci9H0Fa.s 			page 3


  75              		.cfi_startproc
  76              		@ args = 8, pretend = 0, frame = 16
  77              		@ frame_needed = 1, uses_anonymous_args = 0
  78 0000 80B5     		push	{r7, lr}
  79              		.cfi_def_cfa_offset 8
  80              		.cfi_offset 7, -8
  81              		.cfi_offset 14, -4
  82 0002 84B0     		sub	sp, sp, #16
  83              		.cfi_def_cfa_offset 24
  84 0004 00AF     		add	r7, sp, #0
  85              		.cfi_def_cfa_register 7
  86 0006 F860     		str	r0, [r7, #12]
  87 0008 B960     		str	r1, [r7, #8]
  88 000a 7A60     		str	r2, [r7, #4]
  89 000c 3B60     		str	r3, [r7]
  41:.\chain_flow/cf_external_functions.c ****     CyWdtClear();
  90              		.loc 1 41 0
  91 000e FFF7FEFF 		bl	CyWdtClear
  42:.\chain_flow/cf_external_functions.c ****     return CF_DISABLE;
  92              		.loc 1 42 0
  93 0012 0223     		movs	r3, #2
  43:.\chain_flow/cf_external_functions.c **** }
  94              		.loc 1 43 0
  95 0014 1846     		mov	r0, r3
  96 0016 1037     		adds	r7, r7, #16
  97              		.cfi_def_cfa_offset 8
  98 0018 BD46     		mov	sp, r7
  99              		.cfi_def_cfa_register 13
 100              		@ sp needed
 101 001a 80BD     		pop	{r7, pc}
 102              		.cfi_endproc
 103              	.LFE66:
 104              		.size	pat_watch_dog, .-pat_watch_dog
 105              		.section	.text.sleep_timer_interrupt,"ax",%progbits
 106              		.align	2
 107              		.global	sleep_timer_interrupt
 108              		.thumb
 109              		.thumb_func
 110              		.type	sleep_timer_interrupt, %function
 111              	sleep_timer_interrupt:
 112              	.LFB67:
  44:.\chain_flow/cf_external_functions.c **** 
  45:.\chain_flow/cf_external_functions.c **** 
  46:.\chain_flow/cf_external_functions.c **** 
  47:.\chain_flow/cf_external_functions.c **** /*
  48:.\chain_flow/cf_external_functions.c **** ** Die Temperature functions
  49:.\chain_flow/cf_external_functions.c **** **
  50:.\chain_flow/cf_external_functions.c **** */
  51:.\chain_flow/cf_external_functions.c **** 
  52:.\chain_flow/cf_external_functions.c **** 
  53:.\chain_flow/cf_external_functions.c **** 
  54:.\chain_flow/cf_external_functions.c **** 
  55:.\chain_flow/cf_external_functions.c **** 
  56:.\chain_flow/cf_external_functions.c **** /*
  57:.\chain_flow/cf_external_functions.c **** **
  58:.\chain_flow/cf_external_functions.c **** ** Initialize Function
  59:.\chain_flow/cf_external_functions.c **** **
ARM GAS  C:\Users\glenn\AppData\Local\Temp\cci9H0Fa.s 			page 4


  60:.\chain_flow/cf_external_functions.c **** **
  61:.\chain_flow/cf_external_functions.c **** */
  62:.\chain_flow/cf_external_functions.c **** CY_ISR_PROTO( sleep_timer_interrupt )
  63:.\chain_flow/cf_external_functions.c **** {
 113              		.loc 1 63 0
 114              		.cfi_startproc
 115              		@ args = 0, pretend = 0, frame = 0
 116              		@ frame_needed = 1, uses_anonymous_args = 0
 117 0000 80B5     		push	{r7, lr}
 118              		.cfi_def_cfa_offset 8
 119              		.cfi_offset 7, -8
 120              		.cfi_offset 14, -4
 121 0002 00AF     		add	r7, sp, #0
 122              		.cfi_def_cfa_register 7
  64:.\chain_flow/cf_external_functions.c ****     SleepTimer_1_GetStatus();
 123              		.loc 1 64 0
 124 0004 FFF7FEFF 		bl	SleepTimer_1_GetStatus
  65:.\chain_flow/cf_external_functions.c ****     cf_send_interrupt_event(  CF_TIME_TICK_EVENT, TICK_INTERVAL );
 125              		.loc 1 65 0
 126 0008 0220     		movs	r0, #2
 127 000a 1021     		movs	r1, #16
 128 000c FFF7FEFF 		bl	cf_send_interrupt_event
  66:.\chain_flow/cf_external_functions.c ****     
  67:.\chain_flow/cf_external_functions.c **** }
 129              		.loc 1 67 0
 130 0010 80BD     		pop	{r7, pc}
 131              		.cfi_endproc
 132              	.LFE67:
 133              		.size	sleep_timer_interrupt, .-sleep_timer_interrupt
 134 0012 00BF     		.section	.text.start_watchdog,"ax",%progbits
 135              		.align	2
 136              		.global	start_watchdog
 137              		.thumb
 138              		.thumb_func
 139              		.type	start_watchdog, %function
 140              	start_watchdog:
 141              	.LFB68:
  68:.\chain_flow/cf_external_functions.c **** 
  69:.\chain_flow/cf_external_functions.c **** 
  70:.\chain_flow/cf_external_functions.c **** 
  71:.\chain_flow/cf_external_functions.c **** int start_watchdog(unsigned link_id, unsigned param_1,
  72:.\chain_flow/cf_external_functions.c ****   unsigned param_2, unsigned param_3, unsigned event, unsigned data)
  73:.\chain_flow/cf_external_functions.c **** {
 142              		.loc 1 73 0
 143              		.cfi_startproc
 144              		@ args = 8, pretend = 0, frame = 16
 145              		@ frame_needed = 1, uses_anonymous_args = 0
 146              		@ link register save eliminated.
 147 0000 80B4     		push	{r7}
 148              		.cfi_def_cfa_offset 4
 149              		.cfi_offset 7, -4
 150 0002 85B0     		sub	sp, sp, #20
 151              		.cfi_def_cfa_offset 24
 152 0004 00AF     		add	r7, sp, #0
 153              		.cfi_def_cfa_register 7
 154 0006 F860     		str	r0, [r7, #12]
 155 0008 B960     		str	r1, [r7, #8]
ARM GAS  C:\Users\glenn\AppData\Local\Temp\cci9H0Fa.s 			page 5


 156 000a 7A60     		str	r2, [r7, #4]
 157 000c 3B60     		str	r3, [r7]
  74:.\chain_flow/cf_external_functions.c ****     #if WATCHDOG_ENABLE
  75:.\chain_flow/cf_external_functions.c ****        CyWdtStart( CYWDT_1024_TICKS, CYWDT_LPMODE_NOCHANGE ); // 2 -3 second interval
  76:.\chain_flow/cf_external_functions.c ****     #endif
  77:.\chain_flow/cf_external_functions.c ****     return CF_DISABLE;
 158              		.loc 1 77 0
 159 000e 0223     		movs	r3, #2
  78:.\chain_flow/cf_external_functions.c **** }
 160              		.loc 1 78 0
 161 0010 1846     		mov	r0, r3
 162 0012 1437     		adds	r7, r7, #20
 163              		.cfi_def_cfa_offset 4
 164 0014 BD46     		mov	sp, r7
 165              		.cfi_def_cfa_register 13
 166              		@ sp needed
 167 0016 5DF8047B 		ldr	r7, [sp], #4
 168              		.cfi_restore 7
 169              		.cfi_def_cfa_offset 0
 170 001a 7047     		bx	lr
 171              		.cfi_endproc
 172              	.LFE68:
 173              		.size	start_watchdog, .-start_watchdog
 174              		.section	.text.enable_timer_interrupt,"ax",%progbits
 175              		.align	2
 176              		.global	enable_timer_interrupt
 177              		.thumb
 178              		.thumb_func
 179              		.type	enable_timer_interrupt, %function
 180              	enable_timer_interrupt:
 181              	.LFB69:
  79:.\chain_flow/cf_external_functions.c **** 
  80:.\chain_flow/cf_external_functions.c **** 
  81:.\chain_flow/cf_external_functions.c **** 
  82:.\chain_flow/cf_external_functions.c **** 
  83:.\chain_flow/cf_external_functions.c **** 
  84:.\chain_flow/cf_external_functions.c **** 
  85:.\chain_flow/cf_external_functions.c **** int enable_timer_interrupt(unsigned link_id, unsigned param_1,
  86:.\chain_flow/cf_external_functions.c ****   unsigned param_2, unsigned param_3, unsigned event, unsigned data)
  87:.\chain_flow/cf_external_functions.c **** {
 182              		.loc 1 87 0
 183              		.cfi_startproc
 184              		@ args = 8, pretend = 0, frame = 16
 185              		@ frame_needed = 1, uses_anonymous_args = 0
 186 0000 80B5     		push	{r7, lr}
 187              		.cfi_def_cfa_offset 8
 188              		.cfi_offset 7, -8
 189              		.cfi_offset 14, -4
 190 0002 84B0     		sub	sp, sp, #16
 191              		.cfi_def_cfa_offset 24
 192 0004 00AF     		add	r7, sp, #0
 193              		.cfi_def_cfa_register 7
 194 0006 F860     		str	r0, [r7, #12]
 195 0008 B960     		str	r1, [r7, #8]
 196 000a 7A60     		str	r2, [r7, #4]
 197 000c 3B60     		str	r3, [r7]
  88:.\chain_flow/cf_external_functions.c **** 
ARM GAS  C:\Users\glenn\AppData\Local\Temp\cci9H0Fa.s 			page 6


  89:.\chain_flow/cf_external_functions.c ****     isr_1_StartEx(sleep_timer_interrupt); 
 198              		.loc 1 89 0
 199 000e 0548     		ldr	r0, .L10
 200 0010 FFF7FEFF 		bl	isr_1_StartEx
  90:.\chain_flow/cf_external_functions.c ****     SleepTimer_1_Start();
 201              		.loc 1 90 0
 202 0014 FFF7FEFF 		bl	SleepTimer_1_Start
  91:.\chain_flow/cf_external_functions.c ****     return CF_DISABLE;
 203              		.loc 1 91 0
 204 0018 0223     		movs	r3, #2
  92:.\chain_flow/cf_external_functions.c **** }
 205              		.loc 1 92 0
 206 001a 1846     		mov	r0, r3
 207 001c 1037     		adds	r7, r7, #16
 208              		.cfi_def_cfa_offset 8
 209 001e BD46     		mov	sp, r7
 210              		.cfi_def_cfa_register 13
 211              		@ sp needed
 212 0020 80BD     		pop	{r7, pc}
 213              	.L11:
 214 0022 00BF     		.align	2
 215              	.L10:
 216 0024 00000000 		.word	sleep_timer_interrupt
 217              		.cfi_endproc
 218              	.LFE69:
 219              		.size	enable_timer_interrupt, .-enable_timer_interrupt
 220              		.section	.text.enable_interrupts,"ax",%progbits
 221              		.align	2
 222              		.global	enable_interrupts
 223              		.thumb
 224              		.thumb_func
 225              		.type	enable_interrupts, %function
 226              	enable_interrupts:
 227              	.LFB70:
  93:.\chain_flow/cf_external_functions.c **** 
  94:.\chain_flow/cf_external_functions.c **** int enable_interrupts(unsigned link_id, unsigned param_1,
  95:.\chain_flow/cf_external_functions.c ****   unsigned param_2, unsigned param_3, unsigned event, unsigned data)
  96:.\chain_flow/cf_external_functions.c **** {
 228              		.loc 1 96 0
 229              		.cfi_startproc
 230              		@ args = 8, pretend = 0, frame = 16
 231              		@ frame_needed = 1, uses_anonymous_args = 0
 232              		@ link register save eliminated.
 233 0000 80B4     		push	{r7}
 234              		.cfi_def_cfa_offset 4
 235              		.cfi_offset 7, -4
 236 0002 85B0     		sub	sp, sp, #20
 237              		.cfi_def_cfa_offset 24
 238 0004 00AF     		add	r7, sp, #0
 239              		.cfi_def_cfa_register 7
 240 0006 F860     		str	r0, [r7, #12]
 241 0008 B960     		str	r1, [r7, #8]
 242 000a 7A60     		str	r2, [r7, #4]
 243 000c 3B60     		str	r3, [r7]
  97:.\chain_flow/cf_external_functions.c ****    CyGlobalIntEnable;
 244              		.loc 1 97 0
 245              	@ 97 ".\chain_flow\cf_external_functions.c" 1
ARM GAS  C:\Users\glenn\AppData\Local\Temp\cci9H0Fa.s 			page 7


 246 000e 62B6     		CPSIE   i
 247              	@ 0 "" 2
  98:.\chain_flow/cf_external_functions.c ****    return CF_DISABLE;
 248              		.loc 1 98 0
 249              		.thumb
 250 0010 0223     		movs	r3, #2
  99:.\chain_flow/cf_external_functions.c **** }
 251              		.loc 1 99 0
 252 0012 1846     		mov	r0, r3
 253 0014 1437     		adds	r7, r7, #20
 254              		.cfi_def_cfa_offset 4
 255 0016 BD46     		mov	sp, r7
 256              		.cfi_def_cfa_register 13
 257              		@ sp needed
 258 0018 5DF8047B 		ldr	r7, [sp], #4
 259              		.cfi_restore 7
 260              		.cfi_def_cfa_offset 0
 261 001c 7047     		bx	lr
 262              		.cfi_endproc
 263              	.LFE70:
 264              		.size	enable_interrupts, .-enable_interrupts
 265 001e 00BF     		.section	.text.init_event_queue,"ax",%progbits
 266              		.align	2
 267              		.global	init_event_queue
 268              		.thumb
 269              		.thumb_func
 270              		.type	init_event_queue, %function
 271              	init_event_queue:
 272              	.LFB71:
 100:.\chain_flow/cf_external_functions.c **** 
 101:.\chain_flow/cf_external_functions.c **** 
 102:.\chain_flow/cf_external_functions.c **** 
 103:.\chain_flow/cf_external_functions.c **** 
 104:.\chain_flow/cf_external_functions.c **** 
 105:.\chain_flow/cf_external_functions.c **** 
 106:.\chain_flow/cf_external_functions.c **** 
 107:.\chain_flow/cf_external_functions.c ****  
 108:.\chain_flow/cf_external_functions.c ****     
 109:.\chain_flow/cf_external_functions.c **** int init_event_queue(unsigned link_id, unsigned param_1,
 110:.\chain_flow/cf_external_functions.c ****   unsigned param_2, unsigned param_3, unsigned event, unsigned data)
 111:.\chain_flow/cf_external_functions.c **** {
 273              		.loc 1 111 0
 274              		.cfi_startproc
 275              		@ args = 8, pretend = 0, frame = 16
 276              		@ frame_needed = 1, uses_anonymous_args = 0
 277 0000 80B5     		push	{r7, lr}
 278              		.cfi_def_cfa_offset 8
 279              		.cfi_offset 7, -8
 280              		.cfi_offset 14, -4
 281 0002 84B0     		sub	sp, sp, #16
 282              		.cfi_def_cfa_offset 24
 283 0004 00AF     		add	r7, sp, #0
 284              		.cfi_def_cfa_register 7
 285 0006 F860     		str	r0, [r7, #12]
 286 0008 B960     		str	r1, [r7, #8]
 287 000a 7A60     		str	r2, [r7, #4]
 288 000c 3B60     		str	r3, [r7]
ARM GAS  C:\Users\glenn\AppData\Local\Temp\cci9H0Fa.s 			page 8


 112:.\chain_flow/cf_external_functions.c ****   
 113:.\chain_flow/cf_external_functions.c ****     EF_initialize();
 289              		.loc 1 113 0
 290 000e FFF7FEFF 		bl	EF_initialize
 114:.\chain_flow/cf_external_functions.c ****     return CF_DISABLE;
 291              		.loc 1 114 0
 292 0012 0223     		movs	r3, #2
 115:.\chain_flow/cf_external_functions.c ****     
 116:.\chain_flow/cf_external_functions.c **** }  
 293              		.loc 1 116 0
 294 0014 1846     		mov	r0, r3
 295 0016 1037     		adds	r7, r7, #16
 296              		.cfi_def_cfa_offset 8
 297 0018 BD46     		mov	sp, r7
 298              		.cfi_def_cfa_register 13
 299              		@ sp needed
 300 001a 80BD     		pop	{r7, pc}
 301              		.cfi_endproc
 302              	.LFE71:
 303              		.size	init_event_queue, .-init_event_queue
 304              		.section	.text.switch_on_fn,"ax",%progbits
 305              		.align	2
 306              		.global	switch_on_fn
 307              		.thumb
 308              		.thumb_func
 309              		.type	switch_on_fn, %function
 310              	switch_on_fn:
 311              	.LFB72:
 117:.\chain_flow/cf_external_functions.c **** 
 118:.\chain_flow/cf_external_functions.c **** 
 119:.\chain_flow/cf_external_functions.c **** 
 120:.\chain_flow/cf_external_functions.c **** 
 121:.\chain_flow/cf_external_functions.c **** 
 122:.\chain_flow/cf_external_functions.c **** 
 123:.\chain_flow/cf_external_functions.c **** int switch_on_fn(unsigned link_id, unsigned param_1,
 124:.\chain_flow/cf_external_functions.c ****   unsigned param_2, unsigned param_3, unsigned event, unsigned data)
 125:.\chain_flow/cf_external_functions.c **** {
 312              		.loc 1 125 0
 313              		.cfi_startproc
 314              		@ args = 8, pretend = 0, frame = 24
 315              		@ frame_needed = 1, uses_anonymous_args = 0
 316 0000 80B5     		push	{r7, lr}
 317              		.cfi_def_cfa_offset 8
 318              		.cfi_offset 7, -8
 319              		.cfi_offset 14, -4
 320 0002 86B0     		sub	sp, sp, #24
 321              		.cfi_def_cfa_offset 32
 322 0004 00AF     		add	r7, sp, #0
 323              		.cfi_def_cfa_register 7
 324 0006 F860     		str	r0, [r7, #12]
 325 0008 B960     		str	r1, [r7, #8]
 326 000a 7A60     		str	r2, [r7, #4]
 327 000c 3B60     		str	r3, [r7]
 126:.\chain_flow/cf_external_functions.c ****    int return_value;
 127:.\chain_flow/cf_external_functions.c ****     
 128:.\chain_flow/cf_external_functions.c ****    if( read_board_switch() == 1 )
 328              		.loc 1 128 0
ARM GAS  C:\Users\glenn\AppData\Local\Temp\cci9H0Fa.s 			page 9


 329 000e FFF7FEFF 		bl	read_board_switch
 330 0012 0346     		mov	r3, r0
 331 0014 012B     		cmp	r3, #1
 332 0016 02D1     		bne	.L17
 129:.\chain_flow/cf_external_functions.c ****    {
 130:.\chain_flow/cf_external_functions.c ****       return_value = 1;
 333              		.loc 1 130 0
 334 0018 0123     		movs	r3, #1
 335 001a 7B61     		str	r3, [r7, #20]
 336 001c 01E0     		b	.L18
 337              	.L17:
 131:.\chain_flow/cf_external_functions.c ****    }
 132:.\chain_flow/cf_external_functions.c ****    else
 133:.\chain_flow/cf_external_functions.c ****    {
 134:.\chain_flow/cf_external_functions.c ****       return_value = 0;
 338              		.loc 1 134 0
 339 001e 0023     		movs	r3, #0
 340 0020 7B61     		str	r3, [r7, #20]
 341              	.L18:
 135:.\chain_flow/cf_external_functions.c ****    }
 136:.\chain_flow/cf_external_functions.c ****    return return_value;
 342              		.loc 1 136 0
 343 0022 7B69     		ldr	r3, [r7, #20]
 137:.\chain_flow/cf_external_functions.c **** 
 138:.\chain_flow/cf_external_functions.c **** }
 344              		.loc 1 138 0
 345 0024 1846     		mov	r0, r3
 346 0026 1837     		adds	r7, r7, #24
 347              		.cfi_def_cfa_offset 8
 348 0028 BD46     		mov	sp, r7
 349              		.cfi_def_cfa_register 13
 350              		@ sp needed
 351 002a 80BD     		pop	{r7, pc}
 352              		.cfi_endproc
 353              	.LFE72:
 354              		.size	switch_on_fn, .-switch_on_fn
 355              		.section	.text.switch_off_fn,"ax",%progbits
 356              		.align	2
 357              		.global	switch_off_fn
 358              		.thumb
 359              		.thumb_func
 360              		.type	switch_off_fn, %function
 361              	switch_off_fn:
 362              	.LFB73:
 139:.\chain_flow/cf_external_functions.c **** 
 140:.\chain_flow/cf_external_functions.c **** int switch_off_fn(unsigned link_id, unsigned param_1,
 141:.\chain_flow/cf_external_functions.c ****   unsigned param_2, unsigned param_3, unsigned event, unsigned data)
 142:.\chain_flow/cf_external_functions.c **** {
 363              		.loc 1 142 0
 364              		.cfi_startproc
 365              		@ args = 8, pretend = 0, frame = 24
 366              		@ frame_needed = 1, uses_anonymous_args = 0
 367 0000 80B5     		push	{r7, lr}
 368              		.cfi_def_cfa_offset 8
 369              		.cfi_offset 7, -8
 370              		.cfi_offset 14, -4
 371 0002 86B0     		sub	sp, sp, #24
ARM GAS  C:\Users\glenn\AppData\Local\Temp\cci9H0Fa.s 			page 10


 372              		.cfi_def_cfa_offset 32
 373 0004 00AF     		add	r7, sp, #0
 374              		.cfi_def_cfa_register 7
 375 0006 F860     		str	r0, [r7, #12]
 376 0008 B960     		str	r1, [r7, #8]
 377 000a 7A60     		str	r2, [r7, #4]
 378 000c 3B60     		str	r3, [r7]
 143:.\chain_flow/cf_external_functions.c ****     int return_value;
 144:.\chain_flow/cf_external_functions.c ****     if( read_board_switch() == 0 )
 379              		.loc 1 144 0
 380 000e FFF7FEFF 		bl	read_board_switch
 381 0012 0346     		mov	r3, r0
 382 0014 002B     		cmp	r3, #0
 383 0016 02D1     		bne	.L21
 145:.\chain_flow/cf_external_functions.c ****     {
 146:.\chain_flow/cf_external_functions.c ****         return_value = 1;
 384              		.loc 1 146 0
 385 0018 0123     		movs	r3, #1
 386 001a 7B61     		str	r3, [r7, #20]
 387 001c 01E0     		b	.L22
 388              	.L21:
 147:.\chain_flow/cf_external_functions.c ****     }
 148:.\chain_flow/cf_external_functions.c ****     else
 149:.\chain_flow/cf_external_functions.c ****     {
 150:.\chain_flow/cf_external_functions.c ****         return_value = 0;
 389              		.loc 1 150 0
 390 001e 0023     		movs	r3, #0
 391 0020 7B61     		str	r3, [r7, #20]
 392              	.L22:
 151:.\chain_flow/cf_external_functions.c ****     }
 152:.\chain_flow/cf_external_functions.c ****     return return_value;
 393              		.loc 1 152 0
 394 0022 7B69     		ldr	r3, [r7, #20]
 153:.\chain_flow/cf_external_functions.c ****     
 154:.\chain_flow/cf_external_functions.c **** }
 395              		.loc 1 154 0
 396 0024 1846     		mov	r0, r3
 397 0026 1837     		adds	r7, r7, #24
 398              		.cfi_def_cfa_offset 8
 399 0028 BD46     		mov	sp, r7
 400              		.cfi_def_cfa_register 13
 401              		@ sp needed
 402 002a 80BD     		pop	{r7, pc}
 403              		.cfi_endproc
 404              	.LFE73:
 405              		.size	switch_off_fn, .-switch_off_fn
 406              		.section	.text.set_modbus_watch_dog_flag,"ax",%progbits
 407              		.align	2
 408              		.global	set_modbus_watch_dog_flag
 409              		.thumb
 410              		.thumb_func
 411              		.type	set_modbus_watch_dog_flag, %function
 412              	set_modbus_watch_dog_flag:
 413              	.LFB74:
 155:.\chain_flow/cf_external_functions.c **** 
 156:.\chain_flow/cf_external_functions.c **** 
 157:.\chain_flow/cf_external_functions.c **** 
ARM GAS  C:\Users\glenn\AppData\Local\Temp\cci9H0Fa.s 			page 11


 158:.\chain_flow/cf_external_functions.c **** 
 159:.\chain_flow/cf_external_functions.c **** int set_modbus_watch_dog_flag(unsigned link_id, unsigned param_1,
 160:.\chain_flow/cf_external_functions.c ****   unsigned param_2, unsigned param_3, unsigned event, unsigned data)
 161:.\chain_flow/cf_external_functions.c **** {
 414              		.loc 1 161 0
 415              		.cfi_startproc
 416              		@ args = 8, pretend = 0, frame = 24
 417              		@ frame_needed = 1, uses_anonymous_args = 0
 418 0000 80B5     		push	{r7, lr}
 419              		.cfi_def_cfa_offset 8
 420              		.cfi_offset 7, -8
 421              		.cfi_offset 14, -4
 422 0002 86B0     		sub	sp, sp, #24
 423              		.cfi_def_cfa_offset 32
 424 0004 00AF     		add	r7, sp, #0
 425              		.cfi_def_cfa_register 7
 426 0006 F860     		str	r0, [r7, #12]
 427 0008 B960     		str	r1, [r7, #8]
 428 000a 7A60     		str	r2, [r7, #4]
 429 000c 3B60     		str	r3, [r7]
 162:.\chain_flow/cf_external_functions.c ****     uint16 temp;
 163:.\chain_flow/cf_external_functions.c ****     temp = 1;
 430              		.loc 1 163 0
 431 000e 0123     		movs	r3, #1
 432 0010 FB82     		strh	r3, [r7, #22]	@ movhi
 164:.\chain_flow/cf_external_functions.c ****     store_modbus_data_registers( MOD_RTU_WATCH_DOG_FLAG, 1, &temp);
 433              		.loc 1 164 0
 434 0012 07F11603 		add	r3, r7, #22
 435 0016 0220     		movs	r0, #2
 436 0018 0121     		movs	r1, #1
 437 001a 1A46     		mov	r2, r3
 438 001c FFF7FEFF 		bl	store_modbus_data_registers
 165:.\chain_flow/cf_external_functions.c ****     return 0;
 439              		.loc 1 165 0
 440 0020 0023     		movs	r3, #0
 166:.\chain_flow/cf_external_functions.c **** }
 441              		.loc 1 166 0
 442 0022 1846     		mov	r0, r3
 443 0024 1837     		adds	r7, r7, #24
 444              		.cfi_def_cfa_offset 8
 445 0026 BD46     		mov	sp, r7
 446              		.cfi_def_cfa_register 13
 447              		@ sp needed
 448 0028 80BD     		pop	{r7, pc}
 449              		.cfi_endproc
 450              	.LFE74:
 451              		.size	set_modbus_watch_dog_flag, .-set_modbus_watch_dog_flag
 452 002a 00BF     		.section	.text.set_minute_rollover,"ax",%progbits
 453              		.align	2
 454              		.global	set_minute_rollover
 455              		.thumb
 456              		.thumb_func
 457              		.type	set_minute_rollover, %function
 458              	set_minute_rollover:
 459              	.LFB75:
 167:.\chain_flow/cf_external_functions.c **** 
 168:.\chain_flow/cf_external_functions.c **** int set_minute_rollover(unsigned link_id, unsigned param_1,
ARM GAS  C:\Users\glenn\AppData\Local\Temp\cci9H0Fa.s 			page 12


 169:.\chain_flow/cf_external_functions.c ****   unsigned param_2, unsigned param_3, unsigned event, unsigned data)
 170:.\chain_flow/cf_external_functions.c **** {
 460              		.loc 1 170 0
 461              		.cfi_startproc
 462              		@ args = 8, pretend = 0, frame = 24
 463              		@ frame_needed = 1, uses_anonymous_args = 0
 464 0000 80B5     		push	{r7, lr}
 465              		.cfi_def_cfa_offset 8
 466              		.cfi_offset 7, -8
 467              		.cfi_offset 14, -4
 468 0002 86B0     		sub	sp, sp, #24
 469              		.cfi_def_cfa_offset 32
 470 0004 00AF     		add	r7, sp, #0
 471              		.cfi_def_cfa_register 7
 472 0006 F860     		str	r0, [r7, #12]
 473 0008 B960     		str	r1, [r7, #8]
 474 000a 7A60     		str	r2, [r7, #4]
 475 000c 3B60     		str	r3, [r7]
 171:.\chain_flow/cf_external_functions.c ****    uint16 temp;
 172:.\chain_flow/cf_external_functions.c ****     temp = 1;
 476              		.loc 1 172 0
 477 000e 0123     		movs	r3, #1
 478 0010 FB82     		strh	r3, [r7, #22]	@ movhi
 173:.\chain_flow/cf_external_functions.c ****     store_modbus_data_registers(MOD_MINUTE_ROLLOVER , 1, &temp);
 479              		.loc 1 173 0
 480 0012 07F11603 		add	r3, r7, #22
 481 0016 0620     		movs	r0, #6
 482 0018 0121     		movs	r1, #1
 483 001a 1A46     		mov	r2, r3
 484 001c FFF7FEFF 		bl	store_modbus_data_registers
 174:.\chain_flow/cf_external_functions.c ****     return 0;
 485              		.loc 1 174 0
 486 0020 0023     		movs	r3, #0
 175:.\chain_flow/cf_external_functions.c **** }
 487              		.loc 1 175 0
 488 0022 1846     		mov	r0, r3
 489 0024 1837     		adds	r7, r7, #24
 490              		.cfi_def_cfa_offset 8
 491 0026 BD46     		mov	sp, r7
 492              		.cfi_def_cfa_register 13
 493              		@ sp needed
 494 0028 80BD     		pop	{r7, pc}
 495              		.cfi_endproc
 496              	.LFE75:
 497              		.size	set_minute_rollover, .-set_minute_rollover
 498 002a 00BF     		.section	.text.update_modbus_rtc_values,"ax",%progbits
 499              		.align	2
 500              		.global	update_modbus_rtc_values
 501              		.thumb
 502              		.thumb_func
 503              		.type	update_modbus_rtc_values, %function
 504              	update_modbus_rtc_values:
 505              	.LFB76:
 176:.\chain_flow/cf_external_functions.c ****        
 177:.\chain_flow/cf_external_functions.c ****  
 178:.\chain_flow/cf_external_functions.c **** int update_modbus_rtc_values(unsigned link_id, unsigned param_1,
 179:.\chain_flow/cf_external_functions.c ****   unsigned param_2, unsigned param_3, unsigned event, unsigned data)
ARM GAS  C:\Users\glenn\AppData\Local\Temp\cci9H0Fa.s 			page 13


 180:.\chain_flow/cf_external_functions.c **** {
 506              		.loc 1 180 0
 507              		.cfi_startproc
 508              		@ args = 8, pretend = 0, frame = 24
 509              		@ frame_needed = 1, uses_anonymous_args = 0
 510 0000 80B5     		push	{r7, lr}
 511              		.cfi_def_cfa_offset 8
 512              		.cfi_offset 7, -8
 513              		.cfi_offset 14, -4
 514 0002 86B0     		sub	sp, sp, #24
 515              		.cfi_def_cfa_offset 32
 516 0004 00AF     		add	r7, sp, #0
 517              		.cfi_def_cfa_register 7
 518 0006 F860     		str	r0, [r7, #12]
 519 0008 B960     		str	r1, [r7, #8]
 520 000a 7A60     		str	r2, [r7, #4]
 521 000c 3B60     		str	r3, [r7]
 181:.\chain_flow/cf_external_functions.c ****     uint16 temp;
 182:.\chain_flow/cf_external_functions.c ****     temp =   RTC_1_ReadSecond();                     
 522              		.loc 1 182 0
 523 000e FFF7FEFF 		bl	RTC_1_ReadSecond
 524 0012 0346     		mov	r3, r0
 525 0014 9BB2     		uxth	r3, r3
 526 0016 FB82     		strh	r3, [r7, #22]	@ movhi
 183:.\chain_flow/cf_external_functions.c ****     store_modbus_data_registers( MOD_SECOND, 1, &temp );
 527              		.loc 1 183 0
 528 0018 07F11603 		add	r3, r7, #22
 529 001c 0D20     		movs	r0, #13
 530 001e 0121     		movs	r1, #1
 531 0020 1A46     		mov	r2, r3
 532 0022 FFF7FEFF 		bl	store_modbus_data_registers
 184:.\chain_flow/cf_external_functions.c ****     temp =   RTC_1_ReadMinute();                     
 533              		.loc 1 184 0
 534 0026 FFF7FEFF 		bl	RTC_1_ReadMinute
 535 002a 0346     		mov	r3, r0
 536 002c 9BB2     		uxth	r3, r3
 537 002e FB82     		strh	r3, [r7, #22]	@ movhi
 185:.\chain_flow/cf_external_functions.c ****     store_modbus_data_registers(  MOD_MINUTE,  1, &temp);
 538              		.loc 1 185 0
 539 0030 07F11603 		add	r3, r7, #22
 540 0034 0C20     		movs	r0, #12
 541 0036 0121     		movs	r1, #1
 542 0038 1A46     		mov	r2, r3
 543 003a FFF7FEFF 		bl	store_modbus_data_registers
 186:.\chain_flow/cf_external_functions.c ****     temp =  RTC_1_ReadHour();                     ;
 544              		.loc 1 186 0
 545 003e FFF7FEFF 		bl	RTC_1_ReadHour
 546 0042 0346     		mov	r3, r0
 547 0044 9BB2     		uxth	r3, r3
 548 0046 FB82     		strh	r3, [r7, #22]	@ movhi
 187:.\chain_flow/cf_external_functions.c ****     store_modbus_data_registers( MOD_HOUR,  1, &temp);
 549              		.loc 1 187 0
 550 0048 07F11603 		add	r3, r7, #22
 551 004c 0B20     		movs	r0, #11
 552 004e 0121     		movs	r1, #1
 553 0050 1A46     		mov	r2, r3
 554 0052 FFF7FEFF 		bl	store_modbus_data_registers
ARM GAS  C:\Users\glenn\AppData\Local\Temp\cci9H0Fa.s 			page 14


 188:.\chain_flow/cf_external_functions.c ****     temp = RTC_1_ReadDayOfMonth();                
 555              		.loc 1 188 0
 556 0056 FFF7FEFF 		bl	RTC_1_ReadDayOfMonth
 557 005a 0346     		mov	r3, r0
 558 005c 9BB2     		uxth	r3, r3
 559 005e FB82     		strh	r3, [r7, #22]	@ movhi
 189:.\chain_flow/cf_external_functions.c ****     store_modbus_data_registers( MOD_DAY,  1, &temp);
 560              		.loc 1 189 0
 561 0060 07F11603 		add	r3, r7, #22
 562 0064 0A20     		movs	r0, #10
 563 0066 0121     		movs	r1, #1
 564 0068 1A46     		mov	r2, r3
 565 006a FFF7FEFF 		bl	store_modbus_data_registers
 190:.\chain_flow/cf_external_functions.c ****     temp = RTC_1_ReadMonth();                      
 566              		.loc 1 190 0
 567 006e FFF7FEFF 		bl	RTC_1_ReadMonth
 568 0072 0346     		mov	r3, r0
 569 0074 9BB2     		uxth	r3, r3
 570 0076 FB82     		strh	r3, [r7, #22]	@ movhi
 191:.\chain_flow/cf_external_functions.c ****     store_modbus_data_registers(  MOD_MONTH,  1, &temp);
 571              		.loc 1 191 0
 572 0078 07F11603 		add	r3, r7, #22
 573 007c 0920     		movs	r0, #9
 574 007e 0121     		movs	r1, #1
 575 0080 1A46     		mov	r2, r3
 576 0082 FFF7FEFF 		bl	store_modbus_data_registers
 192:.\chain_flow/cf_external_functions.c ****     temp =  RTC_1_ReadYear();                      
 577              		.loc 1 192 0
 578 0086 FFF7FEFF 		bl	RTC_1_ReadYear
 579 008a 0346     		mov	r3, r0
 580 008c FB82     		strh	r3, [r7, #22]	@ movhi
 193:.\chain_flow/cf_external_functions.c ****     store_modbus_data_registers( MOD_YEAR, 1, &temp);
 581              		.loc 1 193 0
 582 008e 07F11603 		add	r3, r7, #22
 583 0092 0820     		movs	r0, #8
 584 0094 0121     		movs	r1, #1
 585 0096 1A46     		mov	r2, r3
 586 0098 FFF7FEFF 		bl	store_modbus_data_registers
 194:.\chain_flow/cf_external_functions.c ****     return 0;
 587              		.loc 1 194 0
 588 009c 0023     		movs	r3, #0
 195:.\chain_flow/cf_external_functions.c **** }
 589              		.loc 1 195 0
 590 009e 1846     		mov	r0, r3
 591 00a0 1837     		adds	r7, r7, #24
 592              		.cfi_def_cfa_offset 8
 593 00a2 BD46     		mov	sp, r7
 594              		.cfi_def_cfa_register 13
 595              		@ sp needed
 596 00a4 80BD     		pop	{r7, pc}
 597              		.cfi_endproc
 598              	.LFE76:
 599              		.size	update_modbus_rtc_values, .-update_modbus_rtc_values
 600 00a6 00BF     		.section	.text.set_modbus_reset_flag,"ax",%progbits
 601              		.align	2
 602              		.global	set_modbus_reset_flag
 603              		.thumb
ARM GAS  C:\Users\glenn\AppData\Local\Temp\cci9H0Fa.s 			page 15


 604              		.thumb_func
 605              		.type	set_modbus_reset_flag, %function
 606              	set_modbus_reset_flag:
 607              	.LFB77:
 196:.\chain_flow/cf_external_functions.c **** 
 197:.\chain_flow/cf_external_functions.c **** 
 198:.\chain_flow/cf_external_functions.c **** int set_modbus_reset_flag(unsigned link_id, unsigned param_1,
 199:.\chain_flow/cf_external_functions.c ****   unsigned param_2, unsigned param_3, unsigned event, unsigned data)
 200:.\chain_flow/cf_external_functions.c **** {
 608              		.loc 1 200 0
 609              		.cfi_startproc
 610              		@ args = 8, pretend = 0, frame = 24
 611              		@ frame_needed = 1, uses_anonymous_args = 0
 612 0000 80B5     		push	{r7, lr}
 613              		.cfi_def_cfa_offset 8
 614              		.cfi_offset 7, -8
 615              		.cfi_offset 14, -4
 616 0002 86B0     		sub	sp, sp, #24
 617              		.cfi_def_cfa_offset 32
 618 0004 00AF     		add	r7, sp, #0
 619              		.cfi_def_cfa_register 7
 620 0006 F860     		str	r0, [r7, #12]
 621 0008 B960     		str	r1, [r7, #8]
 622 000a 7A60     		str	r2, [r7, #4]
 623 000c 3B60     		str	r3, [r7]
 201:.\chain_flow/cf_external_functions.c ****    uint16 temp;
 202:.\chain_flow/cf_external_functions.c ****     temp = 1;
 624              		.loc 1 202 0
 625 000e 0123     		movs	r3, #1
 626 0010 FB82     		strh	r3, [r7, #22]	@ movhi
 203:.\chain_flow/cf_external_functions.c ****     store_modbus_data_registers( MOD_POWER_UP_EVENT, 1, &temp);
 627              		.loc 1 203 0
 628 0012 07F11603 		add	r3, r7, #22
 629 0016 0520     		movs	r0, #5
 630 0018 0121     		movs	r1, #1
 631 001a 1A46     		mov	r2, r3
 632 001c FFF7FEFF 		bl	store_modbus_data_registers
 204:.\chain_flow/cf_external_functions.c ****     return 0;
 633              		.loc 1 204 0
 634 0020 0023     		movs	r3, #0
 205:.\chain_flow/cf_external_functions.c **** }
 635              		.loc 1 205 0
 636 0022 1846     		mov	r0, r3
 637 0024 1837     		adds	r7, r7, #24
 638              		.cfi_def_cfa_offset 8
 639 0026 BD46     		mov	sp, r7
 640              		.cfi_def_cfa_register 13
 641              		@ sp needed
 642 0028 80BD     		pop	{r7, pc}
 643              		.cfi_endproc
 644              	.LFE77:
 645              		.size	set_modbus_reset_flag, .-set_modbus_reset_flag
 646 002a 00BF     		.section	.text.initialize_controller_wd_flag,"ax",%progbits
 647              		.align	2
 648              		.global	initialize_controller_wd_flag
 649              		.thumb
 650              		.thumb_func
ARM GAS  C:\Users\glenn\AppData\Local\Temp\cci9H0Fa.s 			page 16


 651              		.type	initialize_controller_wd_flag, %function
 652              	initialize_controller_wd_flag:
 653              	.LFB78:
 206:.\chain_flow/cf_external_functions.c **** 
 207:.\chain_flow/cf_external_functions.c **** 
 208:.\chain_flow/cf_external_functions.c **** 
 209:.\chain_flow/cf_external_functions.c **** 
 210:.\chain_flow/cf_external_functions.c **** int initialize_controller_wd_flag(unsigned link_id, unsigned param_1,
 211:.\chain_flow/cf_external_functions.c ****   unsigned param_2, unsigned param_3, unsigned event, unsigned data)
 212:.\chain_flow/cf_external_functions.c **** {
 654              		.loc 1 212 0
 655              		.cfi_startproc
 656              		@ args = 8, pretend = 0, frame = 24
 657              		@ frame_needed = 1, uses_anonymous_args = 0
 658 0000 80B5     		push	{r7, lr}
 659              		.cfi_def_cfa_offset 8
 660              		.cfi_offset 7, -8
 661              		.cfi_offset 14, -4
 662 0002 86B0     		sub	sp, sp, #24
 663              		.cfi_def_cfa_offset 32
 664 0004 00AF     		add	r7, sp, #0
 665              		.cfi_def_cfa_register 7
 666 0006 F860     		str	r0, [r7, #12]
 667 0008 B960     		str	r1, [r7, #8]
 668 000a 7A60     		str	r2, [r7, #4]
 669 000c 3B60     		str	r3, [r7]
 213:.\chain_flow/cf_external_functions.c ****      uint16 temp;
 214:.\chain_flow/cf_external_functions.c ****     
 215:.\chain_flow/cf_external_functions.c ****      temp = 0;
 670              		.loc 1 215 0
 671 000e 0023     		movs	r3, #0
 672 0010 FB82     		strh	r3, [r7, #22]	@ movhi
 216:.\chain_flow/cf_external_functions.c ****      
 217:.\chain_flow/cf_external_functions.c ****      store_modbus_data_registers( MOD_CONTROLLER_WATCH_DOG_FLAG, 0, &temp );
 673              		.loc 1 217 0
 674 0012 07F11603 		add	r3, r7, #22
 675 0016 0320     		movs	r0, #3
 676 0018 0021     		movs	r1, #0
 677 001a 1A46     		mov	r2, r3
 678 001c FFF7FEFF 		bl	store_modbus_data_registers
 218:.\chain_flow/cf_external_functions.c ****      return 0;
 679              		.loc 1 218 0
 680 0020 0023     		movs	r3, #0
 219:.\chain_flow/cf_external_functions.c **** }
 681              		.loc 1 219 0
 682 0022 1846     		mov	r0, r3
 683 0024 1837     		adds	r7, r7, #24
 684              		.cfi_def_cfa_offset 8
 685 0026 BD46     		mov	sp, r7
 686              		.cfi_def_cfa_register 13
 687              		@ sp needed
 688 0028 80BD     		pop	{r7, pc}
 689              		.cfi_endproc
 690              	.LFE78:
 691              		.size	initialize_controller_wd_flag, .-initialize_controller_wd_flag
 692 002a 00BF     		.text
 693              	.Letext0:
ARM GAS  C:\Users\glenn\AppData\Local\Temp\cci9H0Fa.s 			page 17


 694              		.file 2 "c:\\program files (x86)\\cypress\\psoc creator\\3.3\\psoc creator\\import\\gnu\\arm\\4.9.
 695              		.file 3 "c:\\program files (x86)\\cypress\\psoc creator\\3.3\\psoc creator\\import\\gnu\\arm\\4.9.
 696              		.file 4 "Generated_Source\\PSoC5/cytypes.h"
 697              		.file 5 "Generated_Source\\PSoC5/core_cm3.h"
 698              		.file 6 ".\\rtu_modbus/process_modbus_message.h"