ARM GAS  C:\Users\glenn\AppData\Local\Temp\cch5WG0y.s 			page 1


   1              		.syntax unified
   2              		.cpu cortex-m3
   3              		.fpu softvfp
   4              		.eabi_attribute 20, 1
   5              		.eabi_attribute 21, 1
   6              		.eabi_attribute 23, 3
   7              		.eabi_attribute 24, 1
   8              		.eabi_attribute 25, 1
   9              		.eabi_attribute 26, 1
  10              		.eabi_attribute 30, 6
  11              		.eabi_attribute 34, 1
  12              		.eabi_attribute 18, 4
  13              		.thumb
  14              		.file	"cf_status_bit.c"
  15              		.text
  16              	.Ltext0:
  17              		.cfi_sections	.debug_frame
  18              		.bss
  19              		.align	2
  20              	cf_status_register:
  21 0000 00000000 		.space	4
  22              		.section	.text.cf_initialize_status_manager,"ax",%progbits
  23              		.align	2
  24              		.global	cf_initialize_status_manager
  25              		.thumb
  26              		.thumb_func
  27              		.type	cf_initialize_status_manager, %function
  28              	cf_initialize_status_manager:
  29              	.LFB63:
  30              		.file 1 ".\\chain_flow\\cf_status_bit.c"
   1:.\chain_flow/cf_status_bit.c **** /*
   2:.\chain_flow/cf_status_bit.c **** **
   3:.\chain_flow/cf_status_bit.c **** ** File cf_status_bit.c
   4:.\chain_flow/cf_status_bit.c **** **
   5:.\chain_flow/cf_status_bit.c **** **
   6:.\chain_flow/cf_status_bit.c **** **
   7:.\chain_flow/cf_status_bit.c **** */
   8:.\chain_flow/cf_status_bit.c **** #include <device.h>
   9:.\chain_flow/cf_status_bit.c **** #include "cf_status_bit.h"
  10:.\chain_flow/cf_status_bit.c **** 
  11:.\chain_flow/cf_status_bit.c **** 
  12:.\chain_flow/cf_status_bit.c **** static uint32 cf_status_register;
  13:.\chain_flow/cf_status_bit.c **** 
  14:.\chain_flow/cf_status_bit.c **** 
  15:.\chain_flow/cf_status_bit.c **** 
  16:.\chain_flow/cf_status_bit.c **** void cf_initialize_status_manager( void )
  17:.\chain_flow/cf_status_bit.c **** {
  31              		.loc 1 17 0
  32              		.cfi_startproc
  33              		@ args = 0, pretend = 0, frame = 0
  34              		@ frame_needed = 1, uses_anonymous_args = 0
  35              		@ link register save eliminated.
  36 0000 80B4     		push	{r7}
  37              		.cfi_def_cfa_offset 4
  38              		.cfi_offset 7, -4
  39 0002 00AF     		add	r7, sp, #0
  40              		.cfi_def_cfa_register 7
ARM GAS  C:\Users\glenn\AppData\Local\Temp\cch5WG0y.s 			page 2


  18:.\chain_flow/cf_status_bit.c ****    cf_status_register = 0;
  41              		.loc 1 18 0
  42 0004 034B     		ldr	r3, .L2
  43 0006 0022     		movs	r2, #0
  44 0008 1A60     		str	r2, [r3]
  19:.\chain_flow/cf_status_bit.c **** }
  45              		.loc 1 19 0
  46 000a BD46     		mov	sp, r7
  47              		.cfi_def_cfa_register 13
  48              		@ sp needed
  49 000c 5DF8047B 		ldr	r7, [sp], #4
  50              		.cfi_restore 7
  51              		.cfi_def_cfa_offset 0
  52 0010 7047     		bx	lr
  53              	.L3:
  54 0012 00BF     		.align	2
  55              	.L2:
  56 0014 00000000 		.word	cf_status_register
  57              		.cfi_endproc
  58              	.LFE63:
  59              		.size	cf_initialize_status_manager, .-cf_initialize_status_manager
  60              		.section	.text.cf_set_interrupt_status_bit,"ax",%progbits
  61              		.align	2
  62              		.global	cf_set_interrupt_status_bit
  63              		.thumb
  64              		.thumb_func
  65              		.type	cf_set_interrupt_status_bit, %function
  66              	cf_set_interrupt_status_bit:
  67              	.LFB64:
  20:.\chain_flow/cf_status_bit.c **** 
  21:.\chain_flow/cf_status_bit.c **** void cf_set_interrupt_status_bit( uint32 status_bit )
  22:.\chain_flow/cf_status_bit.c **** {
  68              		.loc 1 22 0
  69              		.cfi_startproc
  70              		@ args = 0, pretend = 0, frame = 8
  71              		@ frame_needed = 1, uses_anonymous_args = 0
  72              		@ link register save eliminated.
  73 0000 80B4     		push	{r7}
  74              		.cfi_def_cfa_offset 4
  75              		.cfi_offset 7, -4
  76 0002 83B0     		sub	sp, sp, #12
  77              		.cfi_def_cfa_offset 16
  78 0004 00AF     		add	r7, sp, #0
  79              		.cfi_def_cfa_register 7
  80 0006 7860     		str	r0, [r7, #4]
  23:.\chain_flow/cf_status_bit.c ****       cf_status_register |= status_bit;
  81              		.loc 1 23 0
  82 0008 054B     		ldr	r3, .L5
  83 000a 1A68     		ldr	r2, [r3]
  84 000c 7B68     		ldr	r3, [r7, #4]
  85 000e 1343     		orrs	r3, r3, r2
  86 0010 034A     		ldr	r2, .L5
  87 0012 1360     		str	r3, [r2]
  24:.\chain_flow/cf_status_bit.c **** 
  25:.\chain_flow/cf_status_bit.c **** }
  88              		.loc 1 25 0
  89 0014 0C37     		adds	r7, r7, #12
ARM GAS  C:\Users\glenn\AppData\Local\Temp\cch5WG0y.s 			page 3


  90              		.cfi_def_cfa_offset 4
  91 0016 BD46     		mov	sp, r7
  92              		.cfi_def_cfa_register 13
  93              		@ sp needed
  94 0018 5DF8047B 		ldr	r7, [sp], #4
  95              		.cfi_restore 7
  96              		.cfi_def_cfa_offset 0
  97 001c 7047     		bx	lr
  98              	.L6:
  99 001e 00BF     		.align	2
 100              	.L5:
 101 0020 00000000 		.word	cf_status_register
 102              		.cfi_endproc
 103              	.LFE64:
 104              		.size	cf_set_interrupt_status_bit, .-cf_set_interrupt_status_bit
 105              		.section	.text.cf_set_status_bit,"ax",%progbits
 106              		.align	2
 107              		.global	cf_set_status_bit
 108              		.thumb
 109              		.thumb_func
 110              		.type	cf_set_status_bit, %function
 111              	cf_set_status_bit:
 112              	.LFB65:
  26:.\chain_flow/cf_status_bit.c **** 
  27:.\chain_flow/cf_status_bit.c **** void cf_set_status_bit( uint32 status_bit )
  28:.\chain_flow/cf_status_bit.c **** {
 113              		.loc 1 28 0
 114              		.cfi_startproc
 115              		@ args = 0, pretend = 0, frame = 8
 116              		@ frame_needed = 1, uses_anonymous_args = 0
 117              		@ link register save eliminated.
 118 0000 80B4     		push	{r7}
 119              		.cfi_def_cfa_offset 4
 120              		.cfi_offset 7, -4
 121 0002 83B0     		sub	sp, sp, #12
 122              		.cfi_def_cfa_offset 16
 123 0004 00AF     		add	r7, sp, #0
 124              		.cfi_def_cfa_register 7
 125 0006 7860     		str	r0, [r7, #4]
  29:.\chain_flow/cf_status_bit.c ****    CyGlobalIntDisable;
 126              		.loc 1 29 0
 127              	@ 29 ".\chain_flow\cf_status_bit.c" 1
 128 0008 72B6     		CPSID   i
 129              	@ 0 "" 2
  30:.\chain_flow/cf_status_bit.c ****    cf_status_register |= status_bit;
 130              		.loc 1 30 0
 131              		.thumb
 132 000a 064B     		ldr	r3, .L8
 133 000c 1A68     		ldr	r2, [r3]
 134 000e 7B68     		ldr	r3, [r7, #4]
 135 0010 1343     		orrs	r3, r3, r2
 136 0012 044A     		ldr	r2, .L8
 137 0014 1360     		str	r3, [r2]
  31:.\chain_flow/cf_status_bit.c ****    CyGlobalIntEnable;
 138              		.loc 1 31 0
 139              	@ 31 ".\chain_flow\cf_status_bit.c" 1
 140 0016 62B6     		CPSIE   i
ARM GAS  C:\Users\glenn\AppData\Local\Temp\cch5WG0y.s 			page 4


 141              	@ 0 "" 2
  32:.\chain_flow/cf_status_bit.c **** }
 142              		.loc 1 32 0
 143              		.thumb
 144 0018 0C37     		adds	r7, r7, #12
 145              		.cfi_def_cfa_offset 4
 146 001a BD46     		mov	sp, r7
 147              		.cfi_def_cfa_register 13
 148              		@ sp needed
 149 001c 5DF8047B 		ldr	r7, [sp], #4
 150              		.cfi_restore 7
 151              		.cfi_def_cfa_offset 0
 152 0020 7047     		bx	lr
 153              	.L9:
 154 0022 00BF     		.align	2
 155              	.L8:
 156 0024 00000000 		.word	cf_status_register
 157              		.cfi_endproc
 158              	.LFE65:
 159              		.size	cf_set_status_bit, .-cf_set_status_bit
 160              		.section	.text.cf_get_status,"ax",%progbits
 161              		.align	2
 162              		.global	cf_get_status
 163              		.thumb
 164              		.thumb_func
 165              		.type	cf_get_status, %function
 166              	cf_get_status:
 167              	.LFB66:
  33:.\chain_flow/cf_status_bit.c **** 
  34:.\chain_flow/cf_status_bit.c **** 
  35:.\chain_flow/cf_status_bit.c **** uint32 cf_get_status( )
  36:.\chain_flow/cf_status_bit.c **** {
 168              		.loc 1 36 0
 169              		.cfi_startproc
 170              		@ args = 0, pretend = 0, frame = 8
 171              		@ frame_needed = 1, uses_anonymous_args = 0
 172              		@ link register save eliminated.
 173 0000 80B4     		push	{r7}
 174              		.cfi_def_cfa_offset 4
 175              		.cfi_offset 7, -4
 176 0002 83B0     		sub	sp, sp, #12
 177              		.cfi_def_cfa_offset 16
 178 0004 00AF     		add	r7, sp, #0
 179              		.cfi_def_cfa_register 7
  37:.\chain_flow/cf_status_bit.c ****    int return_value;
  38:.\chain_flow/cf_status_bit.c ****    CyGlobalIntDisable;
 180              		.loc 1 38 0
 181              	@ 38 ".\chain_flow\cf_status_bit.c" 1
 182 0006 72B6     		CPSID   i
 183              	@ 0 "" 2
  39:.\chain_flow/cf_status_bit.c ****    // add interrupt protoection
  40:.\chain_flow/cf_status_bit.c ****    return_value = cf_status_register;
 184              		.loc 1 40 0
 185              		.thumb
 186 0008 064B     		ldr	r3, .L12
 187 000a 1B68     		ldr	r3, [r3]
 188 000c 7B60     		str	r3, [r7, #4]
ARM GAS  C:\Users\glenn\AppData\Local\Temp\cch5WG0y.s 			page 5


  41:.\chain_flow/cf_status_bit.c ****    cf_status_register = 0;
 189              		.loc 1 41 0
 190 000e 054B     		ldr	r3, .L12
 191 0010 0022     		movs	r2, #0
 192 0012 1A60     		str	r2, [r3]
  42:.\chain_flow/cf_status_bit.c ****    CyGlobalIntEnable;
 193              		.loc 1 42 0
 194              	@ 42 ".\chain_flow\cf_status_bit.c" 1
 195 0014 62B6     		CPSIE   i
 196              	@ 0 "" 2
  43:.\chain_flow/cf_status_bit.c ****    return return_value;
 197              		.loc 1 43 0
 198              		.thumb
 199 0016 7B68     		ldr	r3, [r7, #4]
  44:.\chain_flow/cf_status_bit.c **** }
 200              		.loc 1 44 0
 201 0018 1846     		mov	r0, r3
 202 001a 0C37     		adds	r7, r7, #12
 203              		.cfi_def_cfa_offset 4
 204 001c BD46     		mov	sp, r7
 205              		.cfi_def_cfa_register 13
 206              		@ sp needed
 207 001e 5DF8047B 		ldr	r7, [sp], #4
 208              		.cfi_restore 7
 209              		.cfi_def_cfa_offset 0
 210 0022 7047     		bx	lr
 211              	.L13:
 212              		.align	2
 213              	.L12:
 214 0024 00000000 		.word	cf_status_register
 215              		.cfi_endproc
 216              	.LFE66:
 217              		.size	cf_get_status, .-cf_get_status
 218              		.text
 219              	.Letext0:
 220              		.file 2 "c:\\program files (x86)\\cypress\\psoc creator\\3.3\\psoc creator\\import\\gnu\\arm\\4.9.
 221              		.file 3 "c:\\program files (x86)\\cypress\\psoc creator\\3.3\\psoc creator\\import\\gnu\\arm\\4.9.
 222              		.file 4 "Generated_Source\\PSoC5/cytypes.h"
 223              		.file 5 "Generated_Source\\PSoC5/core_cm3.h"