ARM GAS  C:\Users\glenn\AppData\Local\Temp\ccNMOhlg.s 			page 1


   1              		.syntax unified
   2              		.cpu cortex-m3
   3              		.fpu softvfp
   4              		.eabi_attribute 20, 1
   5              		.eabi_attribute 21, 1
   6              		.eabi_attribute 23, 3
   7              		.eabi_attribute 24, 1
   8              		.eabi_attribute 25, 1
   9              		.eabi_attribute 26, 1
  10              		.eabi_attribute 30, 6
  11              		.eabi_attribute 34, 1
  12              		.eabi_attribute 18, 4
  13              		.thumb
  14              		.file	"chain_flow_support.c"
  15              		.text
  16              	.Ltext0:
  17              		.cfi_sections	.debug_frame
  18              		.comm	chain_state,13,4
  19              		.comm	link_state,81,4
  20              		.comm	link_data,324,4
  21              		.global	start_state
  22              		.section	.rodata
  23              		.align	2
  24              		.type	start_state, %object
  25              		.size	start_state, 52
  26              	start_state:
  27 0000 01000000 		.word	1
  28 0004 01000000 		.word	1
  29 0008 01000000 		.word	1
  30 000c 01000000 		.word	1
  31 0010 01000000 		.word	1
  32 0014 01000000 		.word	1
  33 0018 01000000 		.word	1
  34 001c 01000000 		.word	1
  35 0020 01000000 		.word	1
  36 0024 01000000 		.word	1
  37 0028 00000000 		.word	0
  38 002c 00000000 		.word	0
  39 0030 01000000 		.word	1
  40              		.global	CHAIN_initialization_LINKS
  41              		.align	2
  42              		.type	CHAIN_initialization_LINKS, %object
  43              		.size	CHAIN_initialization_LINKS, 340
  44              	CHAIN_initialization_LINKS:
  45 0034 00000000 		.word	one_step_fn
  46 0038 00000000 		.word	initialize_die_temp_measurement
  47 003c 00000000 		.word	0
  48 0040 00000000 		.word	0
  49 0044 00000000 		.word	0
  50 0048 00000000 		.word	one_step_fn
  51 004c 00000000 		.word	initialize_modbus_rtu
  52 0050 00000000 		.word	0
  53 0054 00000000 		.word	0
  54 0058 00000000 		.word	0
  55 005c 00000000 		.word	one_step_fn
  56 0060 00000000 		.word	init_event_queue
  57 0064 00000000 		.word	0
ARM GAS  C:\Users\glenn\AppData\Local\Temp\ccNMOhlg.s 			page 2


  58 0068 00000000 		.word	0
  59 006c 00000000 		.word	0
  60 0070 00000000 		.word	one_step_fn
  61 0074 00000000 		.word	init_rtc
  62 0078 00000000 		.word	0
  63 007c 00000000 		.word	0
  64 0080 00000000 		.word	0
  65 0084 00000000 		.word	one_step_fn
  66 0088 00000000 		.word	set_modbus_reset_flag
  67 008c 00000000 		.word	0
  68 0090 00000000 		.word	0
  69 0094 00000000 		.word	0
  70 0098 00000000 		.word	one_step_fn
  71 009c 00000000 		.word	initialize_controller_wd_flag
  72 00a0 00000000 		.word	0
  73 00a4 00000000 		.word	0
  74 00a8 00000000 		.word	0
  75 00ac 00000000 		.word	one_step_fn
  76 00b0 00000000 		.word	enable_eeprom
  77 00b4 00000000 		.word	0
  78 00b8 00000000 		.word	0
  79 00bc 00000000 		.word	0
  80 00c0 00000000 		.word	one_step_fn
  81 00c4 00000000 		.word	remove_power
  82 00c8 00000000 		.word	0
  83 00cc 00000000 		.word	0
  84 00d0 00000000 		.word	0
  85 00d4 00000000 		.word	one_step_fn
  86 00d8 00000000 		.word	store_default_temperature_calibration_values_to_modbus_registers
  87 00dc 00000000 		.word	0
  88 00e0 00000000 		.word	0
  89 00e4 00000000 		.word	0
  90 00e8 00000000 		.word	one_step_fn
  91 00ec 00000000 		.word	store_default_resistor_calibration_values_to_modbus_registers
  92 00f0 00000000 		.word	0
  93 00f4 00000000 		.word	0
  94 00f8 00000000 		.word	0
  95 00fc 00000000 		.word	one_step_fn
  96 0100 00000000 		.word	set_up_moisture_interrupt
  97 0104 00000000 		.word	0
  98 0108 00000000 		.word	0
  99 010c 00000000 		.word	0
 100 0110 00000000 		.word	one_step_fn
 101 0114 00000000 		.word	setup_soil_temperature_measurements
 102 0118 00000000 		.word	0
 103 011c 00000000 		.word	0
 104 0120 00000000 		.word	0
 105 0124 00000000 		.word	one_step_fn
 106 0128 00000000 		.word	init_moisture_processing
 107 012c 00000000 		.word	0
 108 0130 00000000 		.word	0
 109 0134 00000000 		.word	0
 110 0138 00000000 		.word	one_step_fn
 111 013c 00000000 		.word	start_watchdog
 112 0140 00000000 		.word	0
 113 0144 00000000 		.word	0
 114 0148 00000000 		.word	0
ARM GAS  C:\Users\glenn\AppData\Local\Temp\ccNMOhlg.s 			page 3


 115 014c 00000000 		.word	one_step_fn
 116 0150 00000000 		.word	enable_timer_interrupt
 117 0154 00000000 		.word	0
 118 0158 00000000 		.word	0
 119 015c 00000000 		.word	0
 120 0160 00000000 		.word	one_step_fn
 121 0164 00000000 		.word	enable_interrupts
 122 0168 00000000 		.word	0
 123 016c 00000000 		.word	0
 124 0170 00000000 		.word	0
 125 0174 00000000 		.word	terminate_fn
 126 0178 00000000 		.word	0
 127 017c 00000000 		.word	0
 128 0180 00000000 		.word	0
 129 0184 00000000 		.word	0
 130              		.global	CHAIN_second_tick_chain_LINKS
 131              		.align	2
 132              		.type	CHAIN_second_tick_chain_LINKS, %object
 133              		.size	CHAIN_second_tick_chain_LINKS, 180
 134              	CHAIN_second_tick_chain_LINKS:
 135 0188 00000000 		.word	wait_event_fn
 136 018c 00000000 		.word	0
 137 0190 05000000 		.word	5
 138 0194 00000000 		.word	0
 139 0198 00000000 		.word	0
 140 019c 00000000 		.word	one_step_fn
 141 01a0 00000000 		.word	set_modbus_watch_dog_flag
 142 01a4 00000000 		.word	0
 143 01a8 00000000 		.word	0
 144 01ac 00000000 		.word	0
 145 01b0 00000000 		.word	one_step_fn
 146 01b4 00000000 		.word	update_modbus_rtc_values
 147 01b8 00000000 		.word	0
 148 01bc 00000000 		.word	0
 149 01c0 00000000 		.word	0
 150 01c4 00000000 		.word	one_step_fn
 151 01c8 00000000 		.word	meaure_die_temperature
 152 01cc 00000000 		.word	0
 153 01d0 00000000 		.word	0
 154 01d4 00000000 		.word	0
 155 01d8 00000000 		.word	one_step_fn
 156 01dc 00000000 		.word	measure_soil_temperature
 157 01e0 00000000 		.word	0
 158 01e4 00000000 		.word	0
 159 01e8 00000000 		.word	0
 160 01ec 00000000 		.word	one_step_fn
 161 01f0 00000000 		.word	check_moisture_active_flag
 162 01f4 00000000 		.word	0
 163 01f8 00000000 		.word	0
 164 01fc 00000000 		.word	0
 165 0200 00000000 		.word	one_step_fn
 166 0204 00000000 		.word	check_logging_active_flag
 167 0208 00000000 		.word	0
 168 020c 00000000 		.word	0
 169 0210 00000000 		.word	0
 170 0214 00000000 		.word	one_step_fn
 171 0218 00000000 		.word	check_for_moisture_measurement
ARM GAS  C:\Users\glenn\AppData\Local\Temp\ccNMOhlg.s 			page 4


 172 021c 00000000 		.word	0
 173 0220 00000000 		.word	0
 174 0224 00000000 		.word	0
 175 0228 00000000 		.word	reset_fn
 176 022c 00000000 		.word	0
 177 0230 00000000 		.word	0
 178 0234 00000000 		.word	0
 179 0238 00000000 		.word	0
 180              		.global	CHAIN_minute_tick_chain_LINKS
 181              		.align	2
 182              		.type	CHAIN_minute_tick_chain_LINKS, %object
 183              		.size	CHAIN_minute_tick_chain_LINKS, 80
 184              	CHAIN_minute_tick_chain_LINKS:
 185 023c 00000000 		.word	wait_event_fn
 186 0240 00000000 		.word	0
 187 0244 06000000 		.word	6
 188 0248 00000000 		.word	0
 189 024c 00000000 		.word	0
 190 0250 00000000 		.word	one_step_fn
 191 0254 00000000 		.word	update_soil_temperature_minute
 192 0258 00000000 		.word	0
 193 025c 00000000 		.word	0
 194 0260 00000000 		.word	0
 195 0264 00000000 		.word	one_step_fn
 196 0268 00000000 		.word	set_minute_rollover
 197 026c 00000000 		.word	0
 198 0270 00000000 		.word	0
 199 0274 00000000 		.word	0
 200 0278 00000000 		.word	reset_fn
 201 027c 00000000 		.word	0
 202 0280 00000000 		.word	0
 203 0284 00000000 		.word	0
 204 0288 00000000 		.word	0
 205              		.global	CHAIN_measure_channel_LINKS
 206              		.align	2
 207              		.type	CHAIN_measure_channel_LINKS, %object
 208              		.size	CHAIN_measure_channel_LINKS, 280
 209              	CHAIN_measure_channel_LINKS:
 210 028c 00000000 		.word	wait_event_fn
 211 0290 00000000 		.word	0
 212 0294 09000000 		.word	9
 213 0298 00000000 		.word	0
 214 029c 00000000 		.word	0
 215 02a0 00000000 		.word	one_step_fn
 216 02a4 00000000 		.word	turn_on_timer_clock
 217 02a8 00000000 		.word	0
 218 02ac 00000000 		.word	0
 219 02b0 00000000 		.word	0
 220 02b4 00000000 		.word	wait_event_count_fn
 221 02b8 00000000 		.word	0
 222 02bc 0A000000 		.word	10
 223 02c0 01000000 		.word	1
 224 02c4 00000000 		.word	0
 225 02c8 00000000 		.word	one_step_fn
 226 02cc 00000000 		.word	set_source_channel
 227 02d0 00000000 		.word	0
 228 02d4 00000000 		.word	0
ARM GAS  C:\Users\glenn\AppData\Local\Temp\ccNMOhlg.s 			page 5


 229 02d8 00000000 		.word	0
 230 02dc 00000000 		.word	wait_event_count_fn
 231 02e0 00000000 		.word	0
 232 02e4 0A000000 		.word	10
 233 02e8 02000000 		.word	2
 234 02ec 00000000 		.word	0
 235 02f0 00000000 		.word	one_step_fn
 236 02f4 00000000 		.word	make_source_measurement
 237 02f8 00000000 		.word	0
 238 02fc 00000000 		.word	0
 239 0300 00000000 		.word	0
 240 0304 00000000 		.word	one_step_fn
 241 0308 00000000 		.word	remove_power
 242 030c 00000000 		.word	0
 243 0310 00000000 		.word	0
 244 0314 00000000 		.word	0
 245 0318 00000000 		.word	wait_event_count_fn
 246 031c 00000000 		.word	0
 247 0320 0A000000 		.word	10
 248 0324 02000000 		.word	2
 249 0328 00000000 		.word	0
 250 032c 00000000 		.word	one_step_fn
 251 0330 00000000 		.word	set_sink_channel
 252 0334 00000000 		.word	0
 253 0338 00000000 		.word	0
 254 033c 00000000 		.word	0
 255 0340 00000000 		.word	wait_event_count_fn
 256 0344 00000000 		.word	0
 257 0348 0A000000 		.word	10
 258 034c 02000000 		.word	2
 259 0350 00000000 		.word	0
 260 0354 00000000 		.word	one_step_fn
 261 0358 00000000 		.word	make_dummy_measurement
 262 035c 00000000 		.word	0
 263 0360 00000000 		.word	0
 264 0364 00000000 		.word	0
 265 0368 00000000 		.word	one_step_fn
 266 036c 00000000 		.word	remove_power
 267 0370 00000000 		.word	0
 268 0374 00000000 		.word	0
 269 0378 00000000 		.word	0
 270 037c 00000000 		.word	one_step_fn
 271 0380 00000000 		.word	update_new_measurement_available
 272 0384 00000000 		.word	0
 273 0388 00000000 		.word	0
 274 038c 00000000 		.word	0
 275 0390 00000000 		.word	reset_fn
 276 0394 00000000 		.word	0
 277 0398 00000000 		.word	0
 278 039c 00000000 		.word	0
 279 03a0 00000000 		.word	0
 280              		.global	CHAIN_reset_log_LINKS
 281              		.align	2
 282              		.type	CHAIN_reset_log_LINKS, %object
 283              		.size	CHAIN_reset_log_LINKS, 60
 284              	CHAIN_reset_log_LINKS:
 285 03a4 00000000 		.word	wait_event_fn
ARM GAS  C:\Users\glenn\AppData\Local\Temp\ccNMOhlg.s 			page 6


 286 03a8 00000000 		.word	0
 287 03ac 0F000000 		.word	15
 288 03b0 00000000 		.word	0
 289 03b4 00000000 		.word	0
 290 03b8 00000000 		.word	one_step_fn
 291 03bc 00000000 		.word	reset_eeprom_log
 292 03c0 00000000 		.word	0
 293 03c4 00000000 		.word	0
 294 03c8 00000000 		.word	0
 295 03cc 00000000 		.word	reset_fn
 296 03d0 00000000 		.word	0
 297 03d4 00000000 		.word	0
 298 03d8 00000000 		.word	0
 299 03dc 00000000 		.word	0
 300              		.global	CHAIN_set_measurement_rate_LINKS
 301              		.align	2
 302              		.type	CHAIN_set_measurement_rate_LINKS, %object
 303              		.size	CHAIN_set_measurement_rate_LINKS, 60
 304              	CHAIN_set_measurement_rate_LINKS:
 305 03e0 00000000 		.word	wait_event_fn
 306 03e4 00000000 		.word	0
 307 03e8 10000000 		.word	16
 308 03ec 00000000 		.word	0
 309 03f0 00000000 		.word	0
 310 03f4 00000000 		.word	one_step_fn
 311 03f8 00000000 		.word	update_measurement_rate
 312 03fc 00000000 		.word	0
 313 0400 00000000 		.word	0
 314 0404 00000000 		.word	0
 315 0408 00000000 		.word	reset_fn
 316 040c 00000000 		.word	0
 317 0410 00000000 		.word	0
 318 0414 00000000 		.word	0
 319 0418 00000000 		.word	0
 320              		.global	CHAIN_update_moisture_configuration_parameters_LINKS
 321              		.align	2
 322              		.type	CHAIN_update_moisture_configuration_parameters_LINKS, %object
 323              		.size	CHAIN_update_moisture_configuration_parameters_LINKS, 60
 324              	CHAIN_update_moisture_configuration_parameters_LINKS:
 325 041c 00000000 		.word	wait_event_fn
 326 0420 00000000 		.word	0
 327 0424 11000000 		.word	17
 328 0428 00000000 		.word	0
 329 042c 00000000 		.word	0
 330 0430 00000000 		.word	one_step_fn
 331 0434 00000000 		.word	update_moisture_configuration
 332 0438 00000000 		.word	0
 333 043c 00000000 		.word	0
 334 0440 00000000 		.word	0
 335 0444 00000000 		.word	reset_fn
 336 0448 00000000 		.word	0
 337 044c 00000000 		.word	0
 338 0450 00000000 		.word	0
 339 0454 00000000 		.word	0
 340              		.global	CHAIN_update_reference_resistor_LINKS
 341              		.align	2
 342              		.type	CHAIN_update_reference_resistor_LINKS, %object
ARM GAS  C:\Users\glenn\AppData\Local\Temp\ccNMOhlg.s 			page 7


 343              		.size	CHAIN_update_reference_resistor_LINKS, 60
 344              	CHAIN_update_reference_resistor_LINKS:
 345 0458 00000000 		.word	wait_event_fn
 346 045c 00000000 		.word	0
 347 0460 13000000 		.word	19
 348 0464 00000000 		.word	0
 349 0468 00000000 		.word	0
 350 046c 00000000 		.word	one_step_fn
 351 0470 00000000 		.word	update_reference_resistor_configuration
 352 0474 00000000 		.word	0
 353 0478 00000000 		.word	0
 354 047c 00000000 		.word	0
 355 0480 00000000 		.word	reset_fn
 356 0484 00000000 		.word	0
 357 0488 00000000 		.word	0
 358 048c 00000000 		.word	0
 359 0490 00000000 		.word	0
 360              		.global	CHAIN_update_temperature_parameters_LINKS
 361              		.align	2
 362              		.type	CHAIN_update_temperature_parameters_LINKS, %object
 363              		.size	CHAIN_update_temperature_parameters_LINKS, 60
 364              	CHAIN_update_temperature_parameters_LINKS:
 365 0494 00000000 		.word	wait_event_fn
 366 0498 00000000 		.word	0
 367 049c 12000000 		.word	18
 368 04a0 00000000 		.word	0
 369 04a4 00000000 		.word	0
 370 04a8 00000000 		.word	one_step_fn
 371 04ac 00000000 		.word	update_temperature_configuration
 372 04b0 00000000 		.word	0
 373 04b4 00000000 		.word	0
 374 04b8 00000000 		.word	0
 375 04bc 00000000 		.word	reset_fn
 376 04c0 00000000 		.word	0
 377 04c4 00000000 		.word	0
 378 04c8 00000000 		.word	0
 379 04cc 00000000 		.word	0
 380              		.global	CHAIN_hour_tick_chain_LINKS
 381              		.align	2
 382              		.type	CHAIN_hour_tick_chain_LINKS, %object
 383              		.size	CHAIN_hour_tick_chain_LINKS, 40
 384              	CHAIN_hour_tick_chain_LINKS:
 385 04d0 00000000 		.word	wait_event_fn
 386 04d4 00000000 		.word	0
 387 04d8 07000000 		.word	7
 388 04dc 00000000 		.word	0
 389 04e0 00000000 		.word	0
 390 04e4 00000000 		.word	reset_fn
 391 04e8 00000000 		.word	0
 392 04ec 00000000 		.word	0
 393 04f0 00000000 		.word	0
 394 04f4 00000000 		.word	0
 395              		.global	CHAIN_commissioning_heart_beat_LINKS
 396              		.align	2
 397              		.type	CHAIN_commissioning_heart_beat_LINKS, %object
 398              		.size	CHAIN_commissioning_heart_beat_LINKS, 80
 399              	CHAIN_commissioning_heart_beat_LINKS:
ARM GAS  C:\Users\glenn\AppData\Local\Temp\ccNMOhlg.s 			page 8


 400 04f8 00000000 		.word	wait_time_fn
 401 04fc 00000000 		.word	0
 402 0500 64000000 		.word	100
 403 0504 00000000 		.word	0
 404 0508 00000000 		.word	0
 405 050c 00000000 		.word	one_step_fn
 406 0510 00000000 		.word	toggle_heart_beat
 407 0514 00000000 		.word	0
 408 0518 00000000 		.word	0
 409 051c 00000000 		.word	0
 410 0520 00000000 		.word	one_step_fn
 411 0524 00000000 		.word	pat_watch_dog
 412 0528 00000000 		.word	0
 413 052c 00000000 		.word	0
 414 0530 00000000 		.word	0
 415 0534 00000000 		.word	reset_fn
 416 0538 00000000 		.word	0
 417 053c 00000000 		.word	0
 418 0540 00000000 		.word	0
 419 0544 00000000 		.word	0
 420              		.global	CHAIN_heart_beat_LINKS
 421              		.align	2
 422              		.type	CHAIN_heart_beat_LINKS, %object
 423              		.size	CHAIN_heart_beat_LINKS, 80
 424              	CHAIN_heart_beat_LINKS:
 425 0548 00000000 		.word	wait_time_fn
 426 054c 00000000 		.word	0
 427 0550 E8030000 		.word	1000
 428 0554 00000000 		.word	0
 429 0558 00000000 		.word	0
 430 055c 00000000 		.word	one_step_fn
 431 0560 00000000 		.word	toggle_heart_beat
 432 0564 00000000 		.word	0
 433 0568 00000000 		.word	0
 434 056c 00000000 		.word	0
 435 0570 00000000 		.word	one_step_fn
 436 0574 00000000 		.word	pat_watch_dog
 437 0578 00000000 		.word	0
 438 057c 00000000 		.word	0
 439 0580 00000000 		.word	0
 440 0584 00000000 		.word	reset_fn
 441 0588 00000000 		.word	0
 442 058c 00000000 		.word	0
 443 0590 00000000 		.word	0
 444 0594 00000000 		.word	0
 445              		.global	CHAIN_handle_commissioning_LINKS
 446              		.align	2
 447              		.type	CHAIN_handle_commissioning_LINKS, %object
 448              		.size	CHAIN_handle_commissioning_LINKS, 240
 449              	CHAIN_handle_commissioning_LINKS:
 450 0598 00000000 		.word	one_step_fn
 451 059c 00000000 		.word	set_normal_modbus_address
 452 05a0 00000000 		.word	0
 453 05a4 00000000 		.word	0
 454 05a8 00000000 		.word	0
 455 05ac 00000000 		.word	disable_chain_fn
 456 05b0 00000000 		.word	0
ARM GAS  C:\Users\glenn\AppData\Local\Temp\ccNMOhlg.s 			page 9


 457 05b4 0A000000 		.word	10
 458 05b8 FFFFFFFF 		.word	-1
 459 05bc FFFFFFFF 		.word	-1
 460 05c0 00000000 		.word	enable_chain_fn
 461 05c4 00000000 		.word	0
 462 05c8 0B000000 		.word	11
 463 05cc FFFFFFFF 		.word	-1
 464 05d0 FFFFFFFF 		.word	-1
 465 05d4 00000000 		.word	wait_condition_fn
 466 05d8 00000000 		.word	switch_off_fn
 467 05dc 00000000 		.word	0
 468 05e0 00000000 		.word	0
 469 05e4 00000000 		.word	0
 470 05e8 00000000 		.word	wait_condition_fn
 471 05ec 00000000 		.word	switch_on_fn
 472 05f0 00000000 		.word	0
 473 05f4 00000000 		.word	0
 474 05f8 00000000 		.word	0
 475 05fc 00000000 		.word	wait_condition_fn
 476 0600 00000000 		.word	switch_off_fn
 477 0604 00000000 		.word	0
 478 0608 00000000 		.word	0
 479 060c 00000000 		.word	0
 480 0610 00000000 		.word	disable_chain_fn
 481 0614 00000000 		.word	0
 482 0618 0B000000 		.word	11
 483 061c FFFFFFFF 		.word	-1
 484 0620 FFFFFFFF 		.word	-1
 485 0624 00000000 		.word	enable_chain_fn
 486 0628 00000000 		.word	0
 487 062c 0A000000 		.word	10
 488 0630 FFFFFFFF 		.word	-1
 489 0634 FFFFFFFF 		.word	-1
 490 0638 00000000 		.word	one_step_fn
 491 063c 00000000 		.word	set_commissiong_address
 492 0640 00000000 		.word	0
 493 0644 00000000 		.word	0
 494 0648 00000000 		.word	0
 495 064c 00000000 		.word	verify_condition_fn
 496 0650 00000000 		.word	switch_off_fn
 497 0654 00000000 		.word	0
 498 0658 00000000 		.word	0
 499 065c 00000000 		.word	0
 500 0660 00000000 		.word	wait_event_fn
 501 0664 00000000 		.word	0
 502 0668 08000000 		.word	8
 503 066c E0930400 		.word	300000
 504 0670 00000000 		.word	0
 505 0674 00000000 		.word	reset_fn
 506 0678 00000000 		.word	0
 507 067c 00000000 		.word	0
 508 0680 00000000 		.word	0
 509 0684 00000000 		.word	0
 510              		.global	chain_control
 511              		.align	2
 512              		.type	chain_control, %object
 513              		.size	chain_control, 208
ARM GAS  C:\Users\glenn\AppData\Local\Temp\ccNMOhlg.s 			page 10


 514              	chain_control:
 515 0688 00000000 		.word	0
 516 068c 00000000 		.word	0
 517 0690 11000000 		.word	17
 518 0694 00000000 		.word	CHAIN_initialization_LINKS
 519 0698 11000000 		.word	17
 520 069c 01000000 		.word	1
 521 06a0 09000000 		.word	9
 522 06a4 00000000 		.word	CHAIN_second_tick_chain_LINKS
 523 06a8 1A000000 		.word	26
 524 06ac 02000000 		.word	2
 525 06b0 04000000 		.word	4
 526 06b4 00000000 		.word	CHAIN_minute_tick_chain_LINKS
 527 06b8 1E000000 		.word	30
 528 06bc 03000000 		.word	3
 529 06c0 0E000000 		.word	14
 530 06c4 00000000 		.word	CHAIN_measure_channel_LINKS
 531 06c8 2C000000 		.word	44
 532 06cc 04000000 		.word	4
 533 06d0 03000000 		.word	3
 534 06d4 00000000 		.word	CHAIN_reset_log_LINKS
 535 06d8 2F000000 		.word	47
 536 06dc 05000000 		.word	5
 537 06e0 03000000 		.word	3
 538 06e4 00000000 		.word	CHAIN_set_measurement_rate_LINKS
 539 06e8 32000000 		.word	50
 540 06ec 06000000 		.word	6
 541 06f0 03000000 		.word	3
 542 06f4 00000000 		.word	CHAIN_update_moisture_configuration_parameters_LINKS
 543 06f8 35000000 		.word	53
 544 06fc 07000000 		.word	7
 545 0700 03000000 		.word	3
 546 0704 00000000 		.word	CHAIN_update_reference_resistor_LINKS
 547 0708 38000000 		.word	56
 548 070c 08000000 		.word	8
 549 0710 03000000 		.word	3
 550 0714 00000000 		.word	CHAIN_update_temperature_parameters_LINKS
 551 0718 3B000000 		.word	59
 552 071c 09000000 		.word	9
 553 0720 02000000 		.word	2
 554 0724 00000000 		.word	CHAIN_hour_tick_chain_LINKS
 555 0728 3D000000 		.word	61
 556 072c 0A000000 		.word	10
 557 0730 04000000 		.word	4
 558 0734 00000000 		.word	CHAIN_commissioning_heart_beat_LINKS
 559 0738 41000000 		.word	65
 560 073c 0B000000 		.word	11
 561 0740 04000000 		.word	4
 562 0744 00000000 		.word	CHAIN_heart_beat_LINKS
 563 0748 45000000 		.word	69
 564 074c 0C000000 		.word	12
 565 0750 0C000000 		.word	12
 566 0754 00000000 		.word	CHAIN_handle_commissioning_LINKS
 567              		.section	.text.chain_enable_for_event,"ax",%progbits
 568              		.align	2
 569              		.thumb
 570              		.thumb_func
ARM GAS  C:\Users\glenn\AppData\Local\Temp\ccNMOhlg.s 			page 11


 571              		.type	chain_enable_for_event, %function
 572              	chain_enable_for_event:
 573              	.LFB63:
 574              		.file 1 ".\\chain_flow\\chain_flow_support.c"
   1:.\chain_flow/chain_flow_support.c **** /*
   2:.\chain_flow/chain_flow_support.c **** **
   3:.\chain_flow/chain_flow_support.c **** ** File: cf_chain_flow_support.c
   4:.\chain_flow/chain_flow_support.c **** **
   5:.\chain_flow/chain_flow_support.c **** **
   6:.\chain_flow/chain_flow_support.c **** */
   7:.\chain_flow/chain_flow_support.c **** #include <stdio.h>
   8:.\chain_flow/chain_flow_support.c **** #include <assert.h>
   9:.\chain_flow/chain_flow_support.c **** #include <string.h>
  10:.\chain_flow/chain_flow_support.c **** 
  11:.\chain_flow/chain_flow_support.c **** #include "cf_chain_flow_support.h"
  12:.\chain_flow/chain_flow_support.c **** 
  13:.\chain_flow/chain_flow_support.c **** #include "cf_runtime_functions.h"
  14:.\chain_flow/chain_flow_support.c **** #include "cf_external_functions.h"
  15:.\chain_flow/chain_flow_support.c **** #include "cf_events.h"
  16:.\chain_flow/chain_flow_support.c **** 
  17:.\chain_flow/chain_flow_support.c **** int blink_heart_beat( unsigned link_id, CF_FUN_AUX param_1, unsigned param_2,
  18:.\chain_flow/chain_flow_support.c ****                       unsigned param_3, unsigned param_4,  unsigned event, unsigned event_data);
  19:.\chain_flow/chain_flow_support.c **** #include "cf_chain_flow_include.h"
  20:.\chain_flow/chain_flow_support.c **** 
  21:.\chain_flow/chain_flow_support.c **** 
  22:.\chain_flow/chain_flow_support.c **** 
  23:.\chain_flow/chain_flow_support.c **** #define CHAIN_ENABLE_MASK  1
  24:.\chain_flow/chain_flow_support.c **** #define CHAIN_RESUME_MASK 2
  25:.\chain_flow/chain_flow_support.c **** #define CHAIN_ACTIVE_MASK  3
  26:.\chain_flow/chain_flow_support.c **** 
  27:.\chain_flow/chain_flow_support.c **** #define LINK_ACTIVE_MASK 1
  28:.\chain_flow/chain_flow_support.c **** #define LINK_INIT_MASK   2
  29:.\chain_flow/chain_flow_support.c **** #define LINK_RESET_STATE 1
  30:.\chain_flow/chain_flow_support.c **** 
  31:.\chain_flow/chain_flow_support.c **** 
  32:.\chain_flow/chain_flow_support.c **** 
  33:.\chain_flow/chain_flow_support.c **** static void chain_execute_chain( unsigned chain_id, unsigned event, unsigned event_data );
  34:.\chain_flow/chain_flow_support.c **** static unsigned execute_cell( unsigned link_index,  const LINK_CELL *cell_ptr, unsigned event, unsi
  35:.\chain_flow/chain_flow_support.c **** static unsigned check_return_code( unsigned chain_id, unsigned link_offset, unsigned return_code );
  36:.\chain_flow/chain_flow_support.c **** 
  37:.\chain_flow/chain_flow_support.c **** static inline int  chain_enable_for_event( unsigned chain_id )
  38:.\chain_flow/chain_flow_support.c **** {
 575              		.loc 1 38 0
 576              		.cfi_startproc
 577              		@ args = 0, pretend = 0, frame = 16
 578              		@ frame_needed = 1, uses_anonymous_args = 0
 579              		@ link register save eliminated.
 580 0000 80B4     		push	{r7}
 581              		.cfi_def_cfa_offset 4
 582              		.cfi_offset 7, -4
 583 0002 85B0     		sub	sp, sp, #20
 584              		.cfi_def_cfa_offset 24
 585 0004 00AF     		add	r7, sp, #0
 586              		.cfi_def_cfa_register 7
 587 0006 7860     		str	r0, [r7, #4]
  39:.\chain_flow/chain_flow_support.c ****    int return_value;
  40:.\chain_flow/chain_flow_support.c ****    if( chain_state[chain_id] == CHAIN_ACTIVE_MASK )
ARM GAS  C:\Users\glenn\AppData\Local\Temp\ccNMOhlg.s 			page 12


 588              		.loc 1 40 0
 589 0008 084A     		ldr	r2, .L5
 590 000a 7B68     		ldr	r3, [r7, #4]
 591 000c 1344     		add	r3, r3, r2
 592 000e 1B78     		ldrb	r3, [r3]	@ zero_extendqisi2
 593 0010 032B     		cmp	r3, #3
 594 0012 02D1     		bne	.L2
  41:.\chain_flow/chain_flow_support.c ****    {
  42:.\chain_flow/chain_flow_support.c ****          return_value = 1;
 595              		.loc 1 42 0
 596 0014 0123     		movs	r3, #1
 597 0016 FB60     		str	r3, [r7, #12]
 598 0018 01E0     		b	.L3
 599              	.L2:
  43:.\chain_flow/chain_flow_support.c ****    }
  44:.\chain_flow/chain_flow_support.c ****    else
  45:.\chain_flow/chain_flow_support.c ****    {
  46:.\chain_flow/chain_flow_support.c ****           return_value = 0;
 600              		.loc 1 46 0
 601 001a 0023     		movs	r3, #0
 602 001c FB60     		str	r3, [r7, #12]
 603              	.L3:
  47:.\chain_flow/chain_flow_support.c ****    }
  48:.\chain_flow/chain_flow_support.c ****    return return_value;
 604              		.loc 1 48 0
 605 001e FB68     		ldr	r3, [r7, #12]
  49:.\chain_flow/chain_flow_support.c **** }
 606              		.loc 1 49 0
 607 0020 1846     		mov	r0, r3
 608 0022 1437     		adds	r7, r7, #20
 609              		.cfi_def_cfa_offset 4
 610 0024 BD46     		mov	sp, r7
 611              		.cfi_def_cfa_register 13
 612              		@ sp needed
 613 0026 5DF8047B 		ldr	r7, [sp], #4
 614              		.cfi_restore 7
 615              		.cfi_def_cfa_offset 0
 616 002a 7047     		bx	lr
 617              	.L6:
 618              		.align	2
 619              	.L5:
 620 002c 00000000 		.word	chain_state
 621              		.cfi_endproc
 622              	.LFE63:
 623              		.size	chain_enable_for_event, .-chain_enable_for_event
 624              		.section	.text.chain_get_link_number,"ax",%progbits
 625              		.align	2
 626              		.thumb
 627              		.thumb_func
 628              		.type	chain_get_link_number, %function
 629              	chain_get_link_number:
 630              	.LFB64:
  50:.\chain_flow/chain_flow_support.c **** 
  51:.\chain_flow/chain_flow_support.c **** 
  52:.\chain_flow/chain_flow_support.c **** static inline int  chain_get_link_number( unsigned chain_id )
  53:.\chain_flow/chain_flow_support.c **** {
 631              		.loc 1 53 0
ARM GAS  C:\Users\glenn\AppData\Local\Temp\ccNMOhlg.s 			page 13


 632              		.cfi_startproc
 633              		@ args = 0, pretend = 0, frame = 8
 634              		@ frame_needed = 1, uses_anonymous_args = 0
 635              		@ link register save eliminated.
 636 0000 80B4     		push	{r7}
 637              		.cfi_def_cfa_offset 4
 638              		.cfi_offset 7, -4
 639 0002 83B0     		sub	sp, sp, #12
 640              		.cfi_def_cfa_offset 16
 641 0004 00AF     		add	r7, sp, #0
 642              		.cfi_def_cfa_register 7
 643 0006 7860     		str	r0, [r7, #4]
  54:.\chain_flow/chain_flow_support.c ****    return chain_control[chain_id].link_number;
 644              		.loc 1 54 0
 645 0008 054A     		ldr	r2, .L9
 646 000a 7B68     		ldr	r3, [r7, #4]
 647 000c 1B01     		lsls	r3, r3, #4
 648 000e 1344     		add	r3, r3, r2
 649 0010 0833     		adds	r3, r3, #8
 650 0012 1B68     		ldr	r3, [r3]
  55:.\chain_flow/chain_flow_support.c **** }
 651              		.loc 1 55 0
 652 0014 1846     		mov	r0, r3
 653 0016 0C37     		adds	r7, r7, #12
 654              		.cfi_def_cfa_offset 4
 655 0018 BD46     		mov	sp, r7
 656              		.cfi_def_cfa_register 13
 657              		@ sp needed
 658 001a 5DF8047B 		ldr	r7, [sp], #4
 659              		.cfi_restore 7
 660              		.cfi_def_cfa_offset 0
 661 001e 7047     		bx	lr
 662              	.L10:
 663              		.align	2
 664              	.L9:
 665 0020 00000000 		.word	chain_control
 666              		.cfi_endproc
 667              	.LFE64:
 668              		.size	chain_get_link_number, .-chain_get_link_number
 669              		.section	.text.chain_get_link_offset,"ax",%progbits
 670              		.align	2
 671              		.thumb
 672              		.thumb_func
 673              		.type	chain_get_link_offset, %function
 674              	chain_get_link_offset:
 675              	.LFB65:
  56:.\chain_flow/chain_flow_support.c **** 
  57:.\chain_flow/chain_flow_support.c **** static inline int  chain_get_link_offset( unsigned chain_id )
  58:.\chain_flow/chain_flow_support.c **** {
 676              		.loc 1 58 0
 677              		.cfi_startproc
 678              		@ args = 0, pretend = 0, frame = 8
 679              		@ frame_needed = 1, uses_anonymous_args = 0
 680              		@ link register save eliminated.
 681 0000 80B4     		push	{r7}
 682              		.cfi_def_cfa_offset 4
 683              		.cfi_offset 7, -4
ARM GAS  C:\Users\glenn\AppData\Local\Temp\ccNMOhlg.s 			page 14


 684 0002 83B0     		sub	sp, sp, #12
 685              		.cfi_def_cfa_offset 16
 686 0004 00AF     		add	r7, sp, #0
 687              		.cfi_def_cfa_register 7
 688 0006 7860     		str	r0, [r7, #4]
  59:.\chain_flow/chain_flow_support.c ****    return chain_control[chain_id].link_index;
 689              		.loc 1 59 0
 690 0008 054A     		ldr	r2, .L13
 691 000a 7B68     		ldr	r3, [r7, #4]
 692 000c 1B01     		lsls	r3, r3, #4
 693 000e 1344     		add	r3, r3, r2
 694 0010 1B68     		ldr	r3, [r3]
  60:.\chain_flow/chain_flow_support.c **** }
 695              		.loc 1 60 0
 696 0012 1846     		mov	r0, r3
 697 0014 0C37     		adds	r7, r7, #12
 698              		.cfi_def_cfa_offset 4
 699 0016 BD46     		mov	sp, r7
 700              		.cfi_def_cfa_register 13
 701              		@ sp needed
 702 0018 5DF8047B 		ldr	r7, [sp], #4
 703              		.cfi_restore 7
 704              		.cfi_def_cfa_offset 0
 705 001c 7047     		bx	lr
 706              	.L14:
 707 001e 00BF     		.align	2
 708              	.L13:
 709 0020 00000000 		.word	chain_control
 710              		.cfi_endproc
 711              	.LFE65:
 712              		.size	chain_get_link_offset, .-chain_get_link_offset
 713              		.section	.text.get_cell_pointer,"ax",%progbits
 714              		.align	2
 715              		.thumb
 716              		.thumb_func
 717              		.type	get_cell_pointer, %function
 718              	get_cell_pointer:
 719              	.LFB66:
  61:.\chain_flow/chain_flow_support.c **** 
  62:.\chain_flow/chain_flow_support.c **** static inline const LINK_CELL *get_cell_pointer( unsigned chain_id )
  63:.\chain_flow/chain_flow_support.c **** {
 720              		.loc 1 63 0
 721              		.cfi_startproc
 722              		@ args = 0, pretend = 0, frame = 8
 723              		@ frame_needed = 1, uses_anonymous_args = 0
 724              		@ link register save eliminated.
 725 0000 80B4     		push	{r7}
 726              		.cfi_def_cfa_offset 4
 727              		.cfi_offset 7, -4
 728 0002 83B0     		sub	sp, sp, #12
 729              		.cfi_def_cfa_offset 16
 730 0004 00AF     		add	r7, sp, #0
 731              		.cfi_def_cfa_register 7
 732 0006 7860     		str	r0, [r7, #4]
  64:.\chain_flow/chain_flow_support.c ****   return chain_control[chain_id].link_cells;
 733              		.loc 1 64 0
 734 0008 054A     		ldr	r2, .L17
ARM GAS  C:\Users\glenn\AppData\Local\Temp\ccNMOhlg.s 			page 15


 735 000a 7B68     		ldr	r3, [r7, #4]
 736 000c 1B01     		lsls	r3, r3, #4
 737 000e 1344     		add	r3, r3, r2
 738 0010 0833     		adds	r3, r3, #8
 739 0012 5B68     		ldr	r3, [r3, #4]
  65:.\chain_flow/chain_flow_support.c **** }
 740              		.loc 1 65 0
 741 0014 1846     		mov	r0, r3
 742 0016 0C37     		adds	r7, r7, #12
 743              		.cfi_def_cfa_offset 4
 744 0018 BD46     		mov	sp, r7
 745              		.cfi_def_cfa_register 13
 746              		@ sp needed
 747 001a 5DF8047B 		ldr	r7, [sp], #4
 748              		.cfi_restore 7
 749              		.cfi_def_cfa_offset 0
 750 001e 7047     		bx	lr
 751              	.L18:
 752              		.align	2
 753              	.L17:
 754 0020 00000000 		.word	chain_control
 755              		.cfi_endproc
 756              	.LFE66:
 757              		.size	get_cell_pointer, .-get_cell_pointer
 758              		.section	.text.reset_all_links,"ax",%progbits
 759              		.align	2
 760              		.thumb
 761              		.thumb_func
 762              		.type	reset_all_links, %function
 763              	reset_all_links:
 764              	.LFB67:
  66:.\chain_flow/chain_flow_support.c **** 
  67:.\chain_flow/chain_flow_support.c **** static inline void reset_all_links( int chain_id )
  68:.\chain_flow/chain_flow_support.c **** {
 765              		.loc 1 68 0
 766              		.cfi_startproc
 767              		@ args = 0, pretend = 0, frame = 24
 768              		@ frame_needed = 1, uses_anonymous_args = 0
 769              		@ link register save eliminated.
 770 0000 80B4     		push	{r7}
 771              		.cfi_def_cfa_offset 4
 772              		.cfi_offset 7, -4
 773 0002 87B0     		sub	sp, sp, #28
 774              		.cfi_def_cfa_offset 32
 775 0004 00AF     		add	r7, sp, #0
 776              		.cfi_def_cfa_register 7
 777 0006 7860     		str	r0, [r7, #4]
  69:.\chain_flow/chain_flow_support.c ****     unsigned link_number;
  70:.\chain_flow/chain_flow_support.c ****     unsigned link_offset;
  71:.\chain_flow/chain_flow_support.c ****     unsigned i;
  72:.\chain_flow/chain_flow_support.c **** 
  73:.\chain_flow/chain_flow_support.c ****     link_offset = chain_control[ chain_id ].link_index;
 778              		.loc 1 73 0
 779 0008 104A     		ldr	r2, .L22
 780 000a 7B68     		ldr	r3, [r7, #4]
 781 000c 1B01     		lsls	r3, r3, #4
 782 000e 1344     		add	r3, r3, r2
ARM GAS  C:\Users\glenn\AppData\Local\Temp\ccNMOhlg.s 			page 16


 783 0010 1B68     		ldr	r3, [r3]
 784 0012 7B61     		str	r3, [r7, #20]
  74:.\chain_flow/chain_flow_support.c ****     link_number = chain_control[ chain_id ].link_number;
 785              		.loc 1 74 0
 786 0014 0D4A     		ldr	r2, .L22
 787 0016 7B68     		ldr	r3, [r7, #4]
 788 0018 1B01     		lsls	r3, r3, #4
 789 001a 1344     		add	r3, r3, r2
 790 001c 0833     		adds	r3, r3, #8
 791 001e 1B68     		ldr	r3, [r3]
 792 0020 FB60     		str	r3, [r7, #12]
  75:.\chain_flow/chain_flow_support.c ****     for( i = 0; i< link_number; i++ )
 793              		.loc 1 75 0
 794 0022 0023     		movs	r3, #0
 795 0024 3B61     		str	r3, [r7, #16]
 796 0026 08E0     		b	.L20
 797              	.L21:
  76:.\chain_flow/chain_flow_support.c ****     {
  77:.\chain_flow/chain_flow_support.c ****         link_state[link_offset++] = LINK_RESET_STATE;
 798              		.loc 1 77 0 discriminator 3
 799 0028 7B69     		ldr	r3, [r7, #20]
 800 002a 5A1C     		adds	r2, r3, #1
 801 002c 7A61     		str	r2, [r7, #20]
 802 002e 084A     		ldr	r2, .L22+4
 803 0030 0121     		movs	r1, #1
 804 0032 D154     		strb	r1, [r2, r3]
  75:.\chain_flow/chain_flow_support.c ****     for( i = 0; i< link_number; i++ )
 805              		.loc 1 75 0 discriminator 3
 806 0034 3B69     		ldr	r3, [r7, #16]
 807 0036 0133     		adds	r3, r3, #1
 808 0038 3B61     		str	r3, [r7, #16]
 809              	.L20:
  75:.\chain_flow/chain_flow_support.c ****     for( i = 0; i< link_number; i++ )
 810              		.loc 1 75 0 is_stmt 0 discriminator 1
 811 003a 3A69     		ldr	r2, [r7, #16]
 812 003c FB68     		ldr	r3, [r7, #12]
 813 003e 9A42     		cmp	r2, r3
 814 0040 F2D3     		bcc	.L21
  78:.\chain_flow/chain_flow_support.c ****     }
  79:.\chain_flow/chain_flow_support.c ****     
  80:.\chain_flow/chain_flow_support.c **** }
 815              		.loc 1 80 0 is_stmt 1
 816 0042 1C37     		adds	r7, r7, #28
 817              		.cfi_def_cfa_offset 4
 818 0044 BD46     		mov	sp, r7
 819              		.cfi_def_cfa_register 13
 820              		@ sp needed
 821 0046 5DF8047B 		ldr	r7, [sp], #4
 822              		.cfi_restore 7
 823              		.cfi_def_cfa_offset 0
 824 004a 7047     		bx	lr
 825              	.L23:
 826              		.align	2
 827              	.L22:
 828 004c 00000000 		.word	chain_control
 829 0050 00000000 		.word	link_state
 830              		.cfi_endproc
ARM GAS  C:\Users\glenn\AppData\Local\Temp\ccNMOhlg.s 			page 17


 831              	.LFE67:
 832              		.size	reset_all_links, .-reset_all_links
 833              		.section	.text.is_link_active,"ax",%progbits
 834              		.align	2
 835              		.thumb
 836              		.thumb_func
 837              		.type	is_link_active, %function
 838              	is_link_active:
 839              	.LFB68:
  81:.\chain_flow/chain_flow_support.c **** 
  82:.\chain_flow/chain_flow_support.c **** static inline unsigned is_link_active( unsigned link_offset )
  83:.\chain_flow/chain_flow_support.c **** {
 840              		.loc 1 83 0
 841              		.cfi_startproc
 842              		@ args = 0, pretend = 0, frame = 8
 843              		@ frame_needed = 1, uses_anonymous_args = 0
 844              		@ link register save eliminated.
 845 0000 80B4     		push	{r7}
 846              		.cfi_def_cfa_offset 4
 847              		.cfi_offset 7, -4
 848 0002 83B0     		sub	sp, sp, #12
 849              		.cfi_def_cfa_offset 16
 850 0004 00AF     		add	r7, sp, #0
 851              		.cfi_def_cfa_register 7
 852 0006 7860     		str	r0, [r7, #4]
  84:.\chain_flow/chain_flow_support.c ****    return link_state[ link_offset] &LINK_ACTIVE_MASK;
 853              		.loc 1 84 0
 854 0008 054A     		ldr	r2, .L26
 855 000a 7B68     		ldr	r3, [r7, #4]
 856 000c 1344     		add	r3, r3, r2
 857 000e 1B78     		ldrb	r3, [r3]	@ zero_extendqisi2
 858 0010 03F00103 		and	r3, r3, #1
  85:.\chain_flow/chain_flow_support.c **** }
 859              		.loc 1 85 0
 860 0014 1846     		mov	r0, r3
 861 0016 0C37     		adds	r7, r7, #12
 862              		.cfi_def_cfa_offset 4
 863 0018 BD46     		mov	sp, r7
 864              		.cfi_def_cfa_register 13
 865              		@ sp needed
 866 001a 5DF8047B 		ldr	r7, [sp], #4
 867              		.cfi_restore 7
 868              		.cfi_def_cfa_offset 0
 869 001e 7047     		bx	lr
 870              	.L27:
 871              		.align	2
 872              	.L26:
 873 0020 00000000 		.word	link_state
 874              		.cfi_endproc
 875              	.LFE68:
 876              		.size	is_link_active, .-is_link_active
 877              		.section	.text.is_link_initialized,"ax",%progbits
 878              		.align	2
 879              		.thumb
 880              		.thumb_func
 881              		.type	is_link_initialized, %function
 882              	is_link_initialized:
ARM GAS  C:\Users\glenn\AppData\Local\Temp\ccNMOhlg.s 			page 18


 883              	.LFB69:
  86:.\chain_flow/chain_flow_support.c **** 
  87:.\chain_flow/chain_flow_support.c **** static inline unsigned is_link_initialized( unsigned link_offset )
  88:.\chain_flow/chain_flow_support.c **** {
 884              		.loc 1 88 0
 885              		.cfi_startproc
 886              		@ args = 0, pretend = 0, frame = 8
 887              		@ frame_needed = 1, uses_anonymous_args = 0
 888              		@ link register save eliminated.
 889 0000 80B4     		push	{r7}
 890              		.cfi_def_cfa_offset 4
 891              		.cfi_offset 7, -4
 892 0002 83B0     		sub	sp, sp, #12
 893              		.cfi_def_cfa_offset 16
 894 0004 00AF     		add	r7, sp, #0
 895              		.cfi_def_cfa_register 7
 896 0006 7860     		str	r0, [r7, #4]
  89:.\chain_flow/chain_flow_support.c ****    return link_state[ link_offset] &LINK_INIT_MASK;
 897              		.loc 1 89 0
 898 0008 054A     		ldr	r2, .L30
 899 000a 7B68     		ldr	r3, [r7, #4]
 900 000c 1344     		add	r3, r3, r2
 901 000e 1B78     		ldrb	r3, [r3]	@ zero_extendqisi2
 902 0010 03F00203 		and	r3, r3, #2
  90:.\chain_flow/chain_flow_support.c **** }
 903              		.loc 1 90 0
 904 0014 1846     		mov	r0, r3
 905 0016 0C37     		adds	r7, r7, #12
 906              		.cfi_def_cfa_offset 4
 907 0018 BD46     		mov	sp, r7
 908              		.cfi_def_cfa_register 13
 909              		@ sp needed
 910 001a 5DF8047B 		ldr	r7, [sp], #4
 911              		.cfi_restore 7
 912              		.cfi_def_cfa_offset 0
 913 001e 7047     		bx	lr
 914              	.L31:
 915              		.align	2
 916              	.L30:
 917 0020 00000000 		.word	link_state
 918              		.cfi_endproc
 919              	.LFE69:
 920              		.size	is_link_initialized, .-is_link_initialized
 921              		.section	.text.mark_disable_link,"ax",%progbits
 922              		.align	2
 923              		.thumb
 924              		.thumb_func
 925              		.type	mark_disable_link, %function
 926              	mark_disable_link:
 927              	.LFB70:
  91:.\chain_flow/chain_flow_support.c **** 
  92:.\chain_flow/chain_flow_support.c **** static inline void mark_disable_link( unsigned link_offset )
  93:.\chain_flow/chain_flow_support.c **** {
 928              		.loc 1 93 0
 929              		.cfi_startproc
 930              		@ args = 0, pretend = 0, frame = 8
 931              		@ frame_needed = 1, uses_anonymous_args = 0
ARM GAS  C:\Users\glenn\AppData\Local\Temp\ccNMOhlg.s 			page 19


 932              		@ link register save eliminated.
 933 0000 80B4     		push	{r7}
 934              		.cfi_def_cfa_offset 4
 935              		.cfi_offset 7, -4
 936 0002 83B0     		sub	sp, sp, #12
 937              		.cfi_def_cfa_offset 16
 938 0004 00AF     		add	r7, sp, #0
 939              		.cfi_def_cfa_register 7
 940 0006 7860     		str	r0, [r7, #4]
  94:.\chain_flow/chain_flow_support.c ****    link_state[ link_offset] &= ~LINK_ACTIVE_MASK;
 941              		.loc 1 94 0
 942 0008 084A     		ldr	r2, .L33
 943 000a 7B68     		ldr	r3, [r7, #4]
 944 000c 1344     		add	r3, r3, r2
 945 000e 1B78     		ldrb	r3, [r3]	@ zero_extendqisi2
 946 0010 23F00103 		bic	r3, r3, #1
 947 0014 D9B2     		uxtb	r1, r3
 948 0016 054A     		ldr	r2, .L33
 949 0018 7B68     		ldr	r3, [r7, #4]
 950 001a 1344     		add	r3, r3, r2
 951 001c 0A46     		mov	r2, r1
 952 001e 1A70     		strb	r2, [r3]
  95:.\chain_flow/chain_flow_support.c **** }
 953              		.loc 1 95 0
 954 0020 0C37     		adds	r7, r7, #12
 955              		.cfi_def_cfa_offset 4
 956 0022 BD46     		mov	sp, r7
 957              		.cfi_def_cfa_register 13
 958              		@ sp needed
 959 0024 5DF8047B 		ldr	r7, [sp], #4
 960              		.cfi_restore 7
 961              		.cfi_def_cfa_offset 0
 962 0028 7047     		bx	lr
 963              	.L34:
 964 002a 00BF     		.align	2
 965              	.L33:
 966 002c 00000000 		.word	link_state
 967              		.cfi_endproc
 968              	.LFE70:
 969              		.size	mark_disable_link, .-mark_disable_link
 970              		.section	.text.mark_initialize_link,"ax",%progbits
 971              		.align	2
 972              		.thumb
 973              		.thumb_func
 974              		.type	mark_initialize_link, %function
 975              	mark_initialize_link:
 976              	.LFB71:
  96:.\chain_flow/chain_flow_support.c **** 
  97:.\chain_flow/chain_flow_support.c **** static inline void mark_initialize_link( unsigned link_offset )
  98:.\chain_flow/chain_flow_support.c **** {
 977              		.loc 1 98 0
 978              		.cfi_startproc
 979              		@ args = 0, pretend = 0, frame = 8
 980              		@ frame_needed = 1, uses_anonymous_args = 0
 981              		@ link register save eliminated.
 982 0000 80B4     		push	{r7}
 983              		.cfi_def_cfa_offset 4
ARM GAS  C:\Users\glenn\AppData\Local\Temp\ccNMOhlg.s 			page 20


 984              		.cfi_offset 7, -4
 985 0002 83B0     		sub	sp, sp, #12
 986              		.cfi_def_cfa_offset 16
 987 0004 00AF     		add	r7, sp, #0
 988              		.cfi_def_cfa_register 7
 989 0006 7860     		str	r0, [r7, #4]
  99:.\chain_flow/chain_flow_support.c ****    link_state[ link_offset ] |= LINK_INIT_MASK;
 990              		.loc 1 99 0
 991 0008 084A     		ldr	r2, .L36
 992 000a 7B68     		ldr	r3, [r7, #4]
 993 000c 1344     		add	r3, r3, r2
 994 000e 1B78     		ldrb	r3, [r3]	@ zero_extendqisi2
 995 0010 43F00203 		orr	r3, r3, #2
 996 0014 D9B2     		uxtb	r1, r3
 997 0016 054A     		ldr	r2, .L36
 998 0018 7B68     		ldr	r3, [r7, #4]
 999 001a 1344     		add	r3, r3, r2
 1000 001c 0A46     		mov	r2, r1
 1001 001e 1A70     		strb	r2, [r3]
 100:.\chain_flow/chain_flow_support.c **** }
 1002              		.loc 1 100 0
 1003 0020 0C37     		adds	r7, r7, #12
 1004              		.cfi_def_cfa_offset 4
 1005 0022 BD46     		mov	sp, r7
 1006              		.cfi_def_cfa_register 13
 1007              		@ sp needed
 1008 0024 5DF8047B 		ldr	r7, [sp], #4
 1009              		.cfi_restore 7
 1010              		.cfi_def_cfa_offset 0
 1011 0028 7047     		bx	lr
 1012              	.L37:
 1013 002a 00BF     		.align	2
 1014              	.L36:
 1015 002c 00000000 		.word	link_state
 1016              		.cfi_endproc
 1017              	.LFE71:
 1018              		.size	mark_initialize_link, .-mark_initialize_link
 1019              		.section	.text.cf_change_state,"ax",%progbits
 1020              		.align	2
 1021              		.global	cf_change_state
 1022              		.thumb
 1023              		.thumb_func
 1024              		.type	cf_change_state, %function
 1025              	cf_change_state:
 1026              	.LFB72:
 101:.\chain_flow/chain_flow_support.c **** 
 102:.\chain_flow/chain_flow_support.c **** void cf_change_state( unsigned chain_id, unsigned link_index)
 103:.\chain_flow/chain_flow_support.c **** {
 1027              		.loc 1 103 0
 1028              		.cfi_startproc
 1029              		@ args = 0, pretend = 0, frame = 24
 1030              		@ frame_needed = 1, uses_anonymous_args = 0
 1031 0000 80B5     		push	{r7, lr}
 1032              		.cfi_def_cfa_offset 8
 1033              		.cfi_offset 7, -8
 1034              		.cfi_offset 14, -4
 1035 0002 86B0     		sub	sp, sp, #24
ARM GAS  C:\Users\glenn\AppData\Local\Temp\ccNMOhlg.s 			page 21


 1036              		.cfi_def_cfa_offset 32
 1037 0004 00AF     		add	r7, sp, #0
 1038              		.cfi_def_cfa_register 7
 1039 0006 7860     		str	r0, [r7, #4]
 1040 0008 3960     		str	r1, [r7]
 104:.\chain_flow/chain_flow_support.c ****     unsigned link_base;
 105:.\chain_flow/chain_flow_support.c ****     unsigned link_number;
 106:.\chain_flow/chain_flow_support.c ****     unsigned      i;
 107:.\chain_flow/chain_flow_support.c ****     
 108:.\chain_flow/chain_flow_support.c ****     link_base    =  chain_get_link_offset( chain_id );
 1041              		.loc 1 108 0
 1042 000a 7868     		ldr	r0, [r7, #4]
 1043 000c FFF7FEFF 		bl	chain_get_link_offset
 1044 0010 0346     		mov	r3, r0
 1045 0012 3B61     		str	r3, [r7, #16]
 109:.\chain_flow/chain_flow_support.c ****     link_number  =  chain_get_link_number(  chain_id );
 1046              		.loc 1 109 0
 1047 0014 7868     		ldr	r0, [r7, #4]
 1048 0016 FFF7FEFF 		bl	chain_get_link_number
 1049 001a 0346     		mov	r3, r0
 1050 001c FB60     		str	r3, [r7, #12]
 110:.\chain_flow/chain_flow_support.c ****     /*
 111:.\chain_flow/chain_flow_support.c ****        Mark all cells except for the first cell inactive
 112:.\chain_flow/chain_flow_support.c ****     */
 113:.\chain_flow/chain_flow_support.c ****     for( i = 1; i < link_number; i++)
 1051              		.loc 1 113 0
 1052 001e 0123     		movs	r3, #1
 1053 0020 7B61     		str	r3, [r7, #20]
 1054 0022 0FE0     		b	.L39
 1055              	.L40:
 114:.\chain_flow/chain_flow_support.c ****     {
 115:.\chain_flow/chain_flow_support.c ****        link_state[i+link_base] &= ~LINK_ACTIVE_MASK;
 1056              		.loc 1 115 0 discriminator 3
 1057 0024 7A69     		ldr	r2, [r7, #20]
 1058 0026 3B69     		ldr	r3, [r7, #16]
 1059 0028 1344     		add	r3, r3, r2
 1060 002a 7969     		ldr	r1, [r7, #20]
 1061 002c 3A69     		ldr	r2, [r7, #16]
 1062 002e 0A44     		add	r2, r2, r1
 1063 0030 0E49     		ldr	r1, .L42
 1064 0032 8A5C     		ldrb	r2, [r1, r2]	@ zero_extendqisi2
 1065 0034 22F00102 		bic	r2, r2, #1
 1066 0038 D1B2     		uxtb	r1, r2
 1067 003a 0C4A     		ldr	r2, .L42
 1068 003c D154     		strb	r1, [r2, r3]
 113:.\chain_flow/chain_flow_support.c ****     {
 1069              		.loc 1 113 0 discriminator 3
 1070 003e 7B69     		ldr	r3, [r7, #20]
 1071 0040 0133     		adds	r3, r3, #1
 1072 0042 7B61     		str	r3, [r7, #20]
 1073              	.L39:
 113:.\chain_flow/chain_flow_support.c ****     {
 1074              		.loc 1 113 0 is_stmt 0 discriminator 1
 1075 0044 7A69     		ldr	r2, [r7, #20]
 1076 0046 FB68     		ldr	r3, [r7, #12]
 1077 0048 9A42     		cmp	r2, r3
 1078 004a EBD3     		bcc	.L40
ARM GAS  C:\Users\glenn\AppData\Local\Temp\ccNMOhlg.s 			page 22


 116:.\chain_flow/chain_flow_support.c ****     }
 117:.\chain_flow/chain_flow_support.c ****     if( ( link_index < link_number ) && ( link_index != 0 ))
 1079              		.loc 1 117 0 is_stmt 1
 1080 004c 3A68     		ldr	r2, [r7]
 1081 004e FB68     		ldr	r3, [r7, #12]
 1082 0050 9A42     		cmp	r2, r3
 1083 0052 08D2     		bcs	.L38
 1084              		.loc 1 117 0 is_stmt 0 discriminator 1
 1085 0054 3B68     		ldr	r3, [r7]
 1086 0056 002B     		cmp	r3, #0
 1087 0058 05D0     		beq	.L38
 118:.\chain_flow/chain_flow_support.c ****     {
 119:.\chain_flow/chain_flow_support.c ****         link_state[ link_index +link_base] = LINK_RESET_STATE;
 1088              		.loc 1 119 0 is_stmt 1
 1089 005a 3A68     		ldr	r2, [r7]
 1090 005c 3B69     		ldr	r3, [r7, #16]
 1091 005e 1344     		add	r3, r3, r2
 1092 0060 024A     		ldr	r2, .L42
 1093 0062 0121     		movs	r1, #1
 1094 0064 D154     		strb	r1, [r2, r3]
 1095              	.L38:
 120:.\chain_flow/chain_flow_support.c ****     }
 121:.\chain_flow/chain_flow_support.c ****     
 122:.\chain_flow/chain_flow_support.c **** }
 1096              		.loc 1 122 0
 1097 0066 1837     		adds	r7, r7, #24
 1098              		.cfi_def_cfa_offset 8
 1099 0068 BD46     		mov	sp, r7
 1100              		.cfi_def_cfa_register 13
 1101              		@ sp needed
 1102 006a 80BD     		pop	{r7, pc}
 1103              	.L43:
 1104              		.align	2
 1105              	.L42:
 1106 006c 00000000 		.word	link_state
 1107              		.cfi_endproc
 1108              	.LFE72:
 1109              		.size	cf_change_state, .-cf_change_state
 1110              		.section	.text.cf_get_cell_value,"ax",%progbits
 1111              		.align	2
 1112              		.global	cf_get_cell_value
 1113              		.thumb
 1114              		.thumb_func
 1115              		.type	cf_get_cell_value, %function
 1116              	cf_get_cell_value:
 1117              	.LFB73:
 123:.\chain_flow/chain_flow_support.c **** 
 124:.\chain_flow/chain_flow_support.c **** unsigned cf_get_cell_value( unsigned link_id )
 125:.\chain_flow/chain_flow_support.c **** {
 1118              		.loc 1 125 0
 1119              		.cfi_startproc
 1120              		@ args = 0, pretend = 0, frame = 8
 1121              		@ frame_needed = 1, uses_anonymous_args = 0
 1122              		@ link register save eliminated.
 1123 0000 80B4     		push	{r7}
 1124              		.cfi_def_cfa_offset 4
 1125              		.cfi_offset 7, -4
ARM GAS  C:\Users\glenn\AppData\Local\Temp\ccNMOhlg.s 			page 23


 1126 0002 83B0     		sub	sp, sp, #12
 1127              		.cfi_def_cfa_offset 16
 1128 0004 00AF     		add	r7, sp, #0
 1129              		.cfi_def_cfa_register 7
 1130 0006 7860     		str	r0, [r7, #4]
 126:.\chain_flow/chain_flow_support.c ****     return link_data[link_id];
 1131              		.loc 1 126 0
 1132 0008 044A     		ldr	r2, .L46
 1133 000a 7B68     		ldr	r3, [r7, #4]
 1134 000c 52F82330 		ldr	r3, [r2, r3, lsl #2]
 127:.\chain_flow/chain_flow_support.c **** }
 1135              		.loc 1 127 0
 1136 0010 1846     		mov	r0, r3
 1137 0012 0C37     		adds	r7, r7, #12
 1138              		.cfi_def_cfa_offset 4
 1139 0014 BD46     		mov	sp, r7
 1140              		.cfi_def_cfa_register 13
 1141              		@ sp needed
 1142 0016 5DF8047B 		ldr	r7, [sp], #4
 1143              		.cfi_restore 7
 1144              		.cfi_def_cfa_offset 0
 1145 001a 7047     		bx	lr
 1146              	.L47:
 1147              		.align	2
 1148              	.L46:
 1149 001c 00000000 		.word	link_data
 1150              		.cfi_endproc
 1151              	.LFE73:
 1152              		.size	cf_get_cell_value, .-cf_get_cell_value
 1153              		.section	.text.cf_store_cell_value,"ax",%progbits
 1154              		.align	2
 1155              		.global	cf_store_cell_value
 1156              		.thumb
 1157              		.thumb_func
 1158              		.type	cf_store_cell_value, %function
 1159              	cf_store_cell_value:
 1160              	.LFB74:
 128:.\chain_flow/chain_flow_support.c **** 
 129:.\chain_flow/chain_flow_support.c **** void  cf_store_cell_value( unsigned link_id , unsigned value )
 130:.\chain_flow/chain_flow_support.c **** {
 1161              		.loc 1 130 0
 1162              		.cfi_startproc
 1163              		@ args = 0, pretend = 0, frame = 8
 1164              		@ frame_needed = 1, uses_anonymous_args = 0
 1165              		@ link register save eliminated.
 1166 0000 80B4     		push	{r7}
 1167              		.cfi_def_cfa_offset 4
 1168              		.cfi_offset 7, -4
 1169 0002 83B0     		sub	sp, sp, #12
 1170              		.cfi_def_cfa_offset 16
 1171 0004 00AF     		add	r7, sp, #0
 1172              		.cfi_def_cfa_register 7
 1173 0006 7860     		str	r0, [r7, #4]
 1174 0008 3960     		str	r1, [r7]
 131:.\chain_flow/chain_flow_support.c ****     link_data[link_id] = value;
 1175              		.loc 1 131 0
 1176 000a 0549     		ldr	r1, .L49
ARM GAS  C:\Users\glenn\AppData\Local\Temp\ccNMOhlg.s 			page 24


 1177 000c 7B68     		ldr	r3, [r7, #4]
 1178 000e 3A68     		ldr	r2, [r7]
 1179 0010 41F82320 		str	r2, [r1, r3, lsl #2]
 132:.\chain_flow/chain_flow_support.c **** }
 1180              		.loc 1 132 0
 1181 0014 0C37     		adds	r7, r7, #12
 1182              		.cfi_def_cfa_offset 4
 1183 0016 BD46     		mov	sp, r7
 1184              		.cfi_def_cfa_register 13
 1185              		@ sp needed
 1186 0018 5DF8047B 		ldr	r7, [sp], #4
 1187              		.cfi_restore 7
 1188              		.cfi_def_cfa_offset 0
 1189 001c 7047     		bx	lr
 1190              	.L50:
 1191 001e 00BF     		.align	2
 1192              	.L49:
 1193 0020 00000000 		.word	link_data
 1194              		.cfi_endproc
 1195              	.LFE74:
 1196              		.size	cf_store_cell_value, .-cf_store_cell_value
 1197              		.section	.text.initialize_cf_system,"ax",%progbits
 1198              		.align	2
 1199              		.global	initialize_cf_system
 1200              		.thumb
 1201              		.thumb_func
 1202              		.type	initialize_cf_system, %function
 1203              	initialize_cf_system:
 1204              	.LFB75:
 133:.\chain_flow/chain_flow_support.c **** 
 134:.\chain_flow/chain_flow_support.c **** 
 135:.\chain_flow/chain_flow_support.c **** void initialize_cf_system( void )
 136:.\chain_flow/chain_flow_support.c **** {
 1205              		.loc 1 136 0
 1206              		.cfi_startproc
 1207              		@ args = 0, pretend = 0, frame = 8
 1208              		@ frame_needed = 1, uses_anonymous_args = 0
 1209 0000 80B5     		push	{r7, lr}
 1210              		.cfi_def_cfa_offset 8
 1211              		.cfi_offset 7, -8
 1212              		.cfi_offset 14, -4
 1213 0002 82B0     		sub	sp, sp, #8
 1214              		.cfi_def_cfa_offset 16
 1215 0004 00AF     		add	r7, sp, #0
 1216              		.cfi_def_cfa_register 7
 137:.\chain_flow/chain_flow_support.c ****    int i;
 138:.\chain_flow/chain_flow_support.c ****    cf_initialize_event_manager();
 1217              		.loc 1 138 0
 1218 0006 FFF7FEFF 		bl	cf_initialize_event_manager
 139:.\chain_flow/chain_flow_support.c ****    memset(link_state,0,sizeof(link_state));
 1219              		.loc 1 139 0
 1220 000a 1648     		ldr	r0, .L56
 1221 000c 0021     		movs	r1, #0
 1222 000e 5122     		movs	r2, #81
 1223 0010 FFF7FEFF 		bl	memset
 140:.\chain_flow/chain_flow_support.c ****    memset(link_data,0,sizeof(start_state));
 1224              		.loc 1 140 0
ARM GAS  C:\Users\glenn\AppData\Local\Temp\ccNMOhlg.s 			page 25


 1225 0014 1448     		ldr	r0, .L56+4
 1226 0016 0021     		movs	r1, #0
 1227 0018 3422     		movs	r2, #52
 1228 001a FFF7FEFF 		bl	memset
 141:.\chain_flow/chain_flow_support.c ****    for( i = 0; i < CHAIN_NUM; i++ )
 1229              		.loc 1 141 0
 1230 001e 0023     		movs	r3, #0
 1231 0020 7B60     		str	r3, [r7, #4]
 1232 0022 19E0     		b	.L52
 1233              	.L55:
 142:.\chain_flow/chain_flow_support.c ****    {
 143:.\chain_flow/chain_flow_support.c ****      if( start_state[i] != 0 )
 1234              		.loc 1 143 0
 1235 0024 114A     		ldr	r2, .L56+8
 1236 0026 7B68     		ldr	r3, [r7, #4]
 1237 0028 52F82330 		ldr	r3, [r2, r3, lsl #2]
 1238 002c 002B     		cmp	r3, #0
 1239 002e 04D0     		beq	.L53
 144:.\chain_flow/chain_flow_support.c ****      {
 145:.\chain_flow/chain_flow_support.c ****         cf_enable_chain( i );
 1240              		.loc 1 145 0
 1241 0030 7B68     		ldr	r3, [r7, #4]
 1242 0032 1846     		mov	r0, r3
 1243 0034 FFF7FEFF 		bl	cf_enable_chain
 1244 0038 0BE0     		b	.L54
 1245              	.L53:
 146:.\chain_flow/chain_flow_support.c ****         
 147:.\chain_flow/chain_flow_support.c ****      }
 148:.\chain_flow/chain_flow_support.c ****      else
 149:.\chain_flow/chain_flow_support.c ****      {
 150:.\chain_flow/chain_flow_support.c ****         chain_state[i] &= ~CHAIN_ACTIVE_MASK;
 1246              		.loc 1 150 0
 1247 003a 0D4A     		ldr	r2, .L56+12
 1248 003c 7B68     		ldr	r3, [r7, #4]
 1249 003e 1344     		add	r3, r3, r2
 1250 0040 1B78     		ldrb	r3, [r3]	@ zero_extendqisi2
 1251 0042 23F00303 		bic	r3, r3, #3
 1252 0046 D9B2     		uxtb	r1, r3
 1253 0048 094A     		ldr	r2, .L56+12
 1254 004a 7B68     		ldr	r3, [r7, #4]
 1255 004c 1344     		add	r3, r3, r2
 1256 004e 0A46     		mov	r2, r1
 1257 0050 1A70     		strb	r2, [r3]
 1258              	.L54:
 141:.\chain_flow/chain_flow_support.c ****    {
 1259              		.loc 1 141 0 discriminator 2
 1260 0052 7B68     		ldr	r3, [r7, #4]
 1261 0054 0133     		adds	r3, r3, #1
 1262 0056 7B60     		str	r3, [r7, #4]
 1263              	.L52:
 141:.\chain_flow/chain_flow_support.c ****    {
 1264              		.loc 1 141 0 is_stmt 0 discriminator 1
 1265 0058 7B68     		ldr	r3, [r7, #4]
 1266 005a 0C2B     		cmp	r3, #12
 1267 005c E2DD     		ble	.L55
 151:.\chain_flow/chain_flow_support.c ****      }
 152:.\chain_flow/chain_flow_support.c ****    }
ARM GAS  C:\Users\glenn\AppData\Local\Temp\ccNMOhlg.s 			page 26


 153:.\chain_flow/chain_flow_support.c **** }
 1268              		.loc 1 153 0 is_stmt 1
 1269 005e 0837     		adds	r7, r7, #8
 1270              		.cfi_def_cfa_offset 8
 1271 0060 BD46     		mov	sp, r7
 1272              		.cfi_def_cfa_register 13
 1273              		@ sp needed
 1274 0062 80BD     		pop	{r7, pc}
 1275              	.L57:
 1276              		.align	2
 1277              	.L56:
 1278 0064 00000000 		.word	link_state
 1279 0068 00000000 		.word	link_data
 1280 006c 00000000 		.word	start_state
 1281 0070 00000000 		.word	chain_state
 1282              		.cfi_endproc
 1283              	.LFE75:
 1284              		.size	initialize_cf_system, .-initialize_cf_system
 1285              		.section	.rodata
 1286              		.align	2
 1287              	.LC0:
 1288 0758 2E5C6368 		.ascii	".\\chain_flow\\chain_flow_support.c\000"
 1288      61696E5F 
 1288      666C6F77 
 1288      5C636861 
 1288      696E5F66 
 1289 077a 0000     		.align	2
 1290              	.LC1:
 1291 077c 63686169 		.ascii	"chain_id<CHAIN_NUM\000"
 1291      6E5F6964 
 1291      3C434841 
 1291      494E5F4E 
 1291      554D00
 1292              		.section	.text.cf_enable_chain,"ax",%progbits
 1293              		.align	2
 1294              		.global	cf_enable_chain
 1295              		.thumb
 1296              		.thumb_func
 1297              		.type	cf_enable_chain, %function
 1298              	cf_enable_chain:
 1299              	.LFB76:
 154:.\chain_flow/chain_flow_support.c **** 
 155:.\chain_flow/chain_flow_support.c **** void cf_enable_chain(unsigned chain_id )
 156:.\chain_flow/chain_flow_support.c **** {
 1300              		.loc 1 156 0
 1301              		.cfi_startproc
 1302              		@ args = 0, pretend = 0, frame = 8
 1303              		@ frame_needed = 1, uses_anonymous_args = 0
 1304 0000 80B5     		push	{r7, lr}
 1305              		.cfi_def_cfa_offset 8
 1306              		.cfi_offset 7, -8
 1307              		.cfi_offset 14, -4
 1308 0002 82B0     		sub	sp, sp, #8
 1309              		.cfi_def_cfa_offset 16
 1310 0004 00AF     		add	r7, sp, #0
 1311              		.cfi_def_cfa_register 7
 1312 0006 7860     		str	r0, [r7, #4]
ARM GAS  C:\Users\glenn\AppData\Local\Temp\ccNMOhlg.s 			page 27


 157:.\chain_flow/chain_flow_support.c ****    assert(chain_id<CHAIN_NUM);
 1313              		.loc 1 157 0
 1314 0008 7B68     		ldr	r3, [r7, #4]
 1315 000a 0C2B     		cmp	r3, #12
 1316 000c 05D9     		bls	.L59
 1317              		.loc 1 157 0 is_stmt 0 discriminator 1
 1318 000e 0C48     		ldr	r0, .L60
 1319 0010 9D21     		movs	r1, #157
 1320 0012 0C4A     		ldr	r2, .L60+4
 1321 0014 0C4B     		ldr	r3, .L60+8
 1322 0016 FFF7FEFF 		bl	__assert_func
 1323              	.L59:
 158:.\chain_flow/chain_flow_support.c ****    chain_state[chain_id] |= CHAIN_ACTIVE_MASK;
 1324              		.loc 1 158 0 is_stmt 1
 1325 001a 0C4A     		ldr	r2, .L60+12
 1326 001c 7B68     		ldr	r3, [r7, #4]
 1327 001e 1344     		add	r3, r3, r2
 1328 0020 1B78     		ldrb	r3, [r3]	@ zero_extendqisi2
 1329 0022 43F00303 		orr	r3, r3, #3
 1330 0026 D9B2     		uxtb	r1, r3
 1331 0028 084A     		ldr	r2, .L60+12
 1332 002a 7B68     		ldr	r3, [r7, #4]
 1333 002c 1344     		add	r3, r3, r2
 1334 002e 0A46     		mov	r2, r1
 1335 0030 1A70     		strb	r2, [r3]
 159:.\chain_flow/chain_flow_support.c ****    reset_all_links(chain_id);
 1336              		.loc 1 159 0
 1337 0032 7B68     		ldr	r3, [r7, #4]
 1338 0034 1846     		mov	r0, r3
 1339 0036 FFF7FEFF 		bl	reset_all_links
 160:.\chain_flow/chain_flow_support.c **** }
 1340              		.loc 1 160 0
 1341 003a 0837     		adds	r7, r7, #8
 1342              		.cfi_def_cfa_offset 8
 1343 003c BD46     		mov	sp, r7
 1344              		.cfi_def_cfa_register 13
 1345              		@ sp needed
 1346 003e 80BD     		pop	{r7, pc}
 1347              	.L61:
 1348              		.align	2
 1349              	.L60:
 1350 0040 58070000 		.word	.LC0
 1351 0044 94070000 		.word	__FUNCTION__.7836
 1352 0048 7C070000 		.word	.LC1
 1353 004c 00000000 		.word	chain_state
 1354              		.cfi_endproc
 1355              	.LFE76:
 1356              		.size	cf_enable_chain, .-cf_enable_chain
 1357              		.section	.text.cf_disable_chain,"ax",%progbits
 1358              		.align	2
 1359              		.global	cf_disable_chain
 1360              		.thumb
 1361              		.thumb_func
 1362              		.type	cf_disable_chain, %function
 1363              	cf_disable_chain:
 1364              	.LFB77:
 161:.\chain_flow/chain_flow_support.c **** 
ARM GAS  C:\Users\glenn\AppData\Local\Temp\ccNMOhlg.s 			page 28


 162:.\chain_flow/chain_flow_support.c **** void cf_disable_chain(unsigned chain_id )
 163:.\chain_flow/chain_flow_support.c **** {
 1365              		.loc 1 163 0
 1366              		.cfi_startproc
 1367              		@ args = 0, pretend = 0, frame = 8
 1368              		@ frame_needed = 1, uses_anonymous_args = 0
 1369 0000 80B5     		push	{r7, lr}
 1370              		.cfi_def_cfa_offset 8
 1371              		.cfi_offset 7, -8
 1372              		.cfi_offset 14, -4
 1373 0002 82B0     		sub	sp, sp, #8
 1374              		.cfi_def_cfa_offset 16
 1375 0004 00AF     		add	r7, sp, #0
 1376              		.cfi_def_cfa_register 7
 1377 0006 7860     		str	r0, [r7, #4]
 164:.\chain_flow/chain_flow_support.c ****    assert(chain_id<CHAIN_NUM);
 1378              		.loc 1 164 0
 1379 0008 7B68     		ldr	r3, [r7, #4]
 1380 000a 0C2B     		cmp	r3, #12
 1381 000c 05D9     		bls	.L63
 1382              		.loc 1 164 0 is_stmt 0 discriminator 1
 1383 000e 0A48     		ldr	r0, .L64
 1384 0010 A421     		movs	r1, #164
 1385 0012 0A4A     		ldr	r2, .L64+4
 1386 0014 0A4B     		ldr	r3, .L64+8
 1387 0016 FFF7FEFF 		bl	__assert_func
 1388              	.L63:
 165:.\chain_flow/chain_flow_support.c ****    chain_state[chain_id] &= ~CHAIN_ENABLE_MASK;
 1389              		.loc 1 165 0 is_stmt 1
 1390 001a 0A4A     		ldr	r2, .L64+12
 1391 001c 7B68     		ldr	r3, [r7, #4]
 1392 001e 1344     		add	r3, r3, r2
 1393 0020 1B78     		ldrb	r3, [r3]	@ zero_extendqisi2
 1394 0022 23F00103 		bic	r3, r3, #1
 1395 0026 D9B2     		uxtb	r1, r3
 1396 0028 064A     		ldr	r2, .L64+12
 1397 002a 7B68     		ldr	r3, [r7, #4]
 1398 002c 1344     		add	r3, r3, r2
 1399 002e 0A46     		mov	r2, r1
 1400 0030 1A70     		strb	r2, [r3]
 166:.\chain_flow/chain_flow_support.c ****    
 167:.\chain_flow/chain_flow_support.c **** }
 1401              		.loc 1 167 0
 1402 0032 0837     		adds	r7, r7, #8
 1403              		.cfi_def_cfa_offset 8
 1404 0034 BD46     		mov	sp, r7
 1405              		.cfi_def_cfa_register 13
 1406              		@ sp needed
 1407 0036 80BD     		pop	{r7, pc}
 1408              	.L65:
 1409              		.align	2
 1410              	.L64:
 1411 0038 58070000 		.word	.LC0
 1412 003c A4070000 		.word	__FUNCTION__.7840
 1413 0040 7C070000 		.word	.LC1
 1414 0044 00000000 		.word	chain_state
 1415              		.cfi_endproc
ARM GAS  C:\Users\glenn\AppData\Local\Temp\ccNMOhlg.s 			page 29


 1416              	.LFE77:
 1417              		.size	cf_disable_chain, .-cf_disable_chain
 1418              		.section	.text.cf_resume_chain,"ax",%progbits
 1419              		.align	2
 1420              		.global	cf_resume_chain
 1421              		.thumb
 1422              		.thumb_func
 1423              		.type	cf_resume_chain, %function
 1424              	cf_resume_chain:
 1425              	.LFB78:
 168:.\chain_flow/chain_flow_support.c **** 
 169:.\chain_flow/chain_flow_support.c **** 
 170:.\chain_flow/chain_flow_support.c **** 
 171:.\chain_flow/chain_flow_support.c **** void cf_resume_chain(unsigned chain_id )
 172:.\chain_flow/chain_flow_support.c **** {
 1426              		.loc 1 172 0
 1427              		.cfi_startproc
 1428              		@ args = 0, pretend = 0, frame = 8
 1429              		@ frame_needed = 1, uses_anonymous_args = 0
 1430 0000 80B5     		push	{r7, lr}
 1431              		.cfi_def_cfa_offset 8
 1432              		.cfi_offset 7, -8
 1433              		.cfi_offset 14, -4
 1434 0002 82B0     		sub	sp, sp, #8
 1435              		.cfi_def_cfa_offset 16
 1436 0004 00AF     		add	r7, sp, #0
 1437              		.cfi_def_cfa_register 7
 1438 0006 7860     		str	r0, [r7, #4]
 173:.\chain_flow/chain_flow_support.c ****     assert(chain_id<CHAIN_NUM);
 1439              		.loc 1 173 0
 1440 0008 7B68     		ldr	r3, [r7, #4]
 1441 000a 0C2B     		cmp	r3, #12
 1442 000c 05D9     		bls	.L67
 1443              		.loc 1 173 0 is_stmt 0 discriminator 1
 1444 000e 0A48     		ldr	r0, .L68
 1445 0010 AD21     		movs	r1, #173
 1446 0012 0A4A     		ldr	r2, .L68+4
 1447 0014 0A4B     		ldr	r3, .L68+8
 1448 0016 FFF7FEFF 		bl	__assert_func
 1449              	.L67:
 174:.\chain_flow/chain_flow_support.c ****    chain_state[chain_id] |= CHAIN_RESUME_MASK;
 1450              		.loc 1 174 0 is_stmt 1
 1451 001a 0A4A     		ldr	r2, .L68+12
 1452 001c 7B68     		ldr	r3, [r7, #4]
 1453 001e 1344     		add	r3, r3, r2
 1454 0020 1B78     		ldrb	r3, [r3]	@ zero_extendqisi2
 1455 0022 43F00203 		orr	r3, r3, #2
 1456 0026 D9B2     		uxtb	r1, r3
 1457 0028 064A     		ldr	r2, .L68+12
 1458 002a 7B68     		ldr	r3, [r7, #4]
 1459 002c 1344     		add	r3, r3, r2
 1460 002e 0A46     		mov	r2, r1
 1461 0030 1A70     		strb	r2, [r3]
 175:.\chain_flow/chain_flow_support.c **** 
 176:.\chain_flow/chain_flow_support.c **** }
 1462              		.loc 1 176 0
 1463 0032 0837     		adds	r7, r7, #8
ARM GAS  C:\Users\glenn\AppData\Local\Temp\ccNMOhlg.s 			page 30


 1464              		.cfi_def_cfa_offset 8
 1465 0034 BD46     		mov	sp, r7
 1466              		.cfi_def_cfa_register 13
 1467              		@ sp needed
 1468 0036 80BD     		pop	{r7, pc}
 1469              	.L69:
 1470              		.align	2
 1471              	.L68:
 1472 0038 58070000 		.word	.LC0
 1473 003c B8070000 		.word	__FUNCTION__.7844
 1474 0040 7C070000 		.word	.LC1
 1475 0044 00000000 		.word	chain_state
 1476              		.cfi_endproc
 1477              	.LFE78:
 1478              		.size	cf_resume_chain, .-cf_resume_chain
 1479              		.section	.text.cf_suspend_chain,"ax",%progbits
 1480              		.align	2
 1481              		.global	cf_suspend_chain
 1482              		.thumb
 1483              		.thumb_func
 1484              		.type	cf_suspend_chain, %function
 1485              	cf_suspend_chain:
 1486              	.LFB79:
 177:.\chain_flow/chain_flow_support.c **** 
 178:.\chain_flow/chain_flow_support.c **** void cf_suspend_chain(unsigned chain_id )
 179:.\chain_flow/chain_flow_support.c **** {
 1487              		.loc 1 179 0
 1488              		.cfi_startproc
 1489              		@ args = 0, pretend = 0, frame = 8
 1490              		@ frame_needed = 1, uses_anonymous_args = 0
 1491 0000 80B5     		push	{r7, lr}
 1492              		.cfi_def_cfa_offset 8
 1493              		.cfi_offset 7, -8
 1494              		.cfi_offset 14, -4
 1495 0002 82B0     		sub	sp, sp, #8
 1496              		.cfi_def_cfa_offset 16
 1497 0004 00AF     		add	r7, sp, #0
 1498              		.cfi_def_cfa_register 7
 1499 0006 7860     		str	r0, [r7, #4]
 180:.\chain_flow/chain_flow_support.c ****    assert(chain_id<CHAIN_NUM);
 1500              		.loc 1 180 0
 1501 0008 7B68     		ldr	r3, [r7, #4]
 1502 000a 0C2B     		cmp	r3, #12
 1503 000c 05D9     		bls	.L71
 1504              		.loc 1 180 0 is_stmt 0 discriminator 1
 1505 000e 0A48     		ldr	r0, .L72
 1506 0010 B421     		movs	r1, #180
 1507 0012 0A4A     		ldr	r2, .L72+4
 1508 0014 0A4B     		ldr	r3, .L72+8
 1509 0016 FFF7FEFF 		bl	__assert_func
 1510              	.L71:
 181:.\chain_flow/chain_flow_support.c ****    chain_state[chain_id] &= ~CHAIN_RESUME_MASK;
 1511              		.loc 1 181 0 is_stmt 1
 1512 001a 0A4A     		ldr	r2, .L72+12
 1513 001c 7B68     		ldr	r3, [r7, #4]
 1514 001e 1344     		add	r3, r3, r2
 1515 0020 1B78     		ldrb	r3, [r3]	@ zero_extendqisi2
ARM GAS  C:\Users\glenn\AppData\Local\Temp\ccNMOhlg.s 			page 31


 1516 0022 23F00203 		bic	r3, r3, #2
 1517 0026 D9B2     		uxtb	r1, r3
 1518 0028 064A     		ldr	r2, .L72+12
 1519 002a 7B68     		ldr	r3, [r7, #4]
 1520 002c 1344     		add	r3, r3, r2
 1521 002e 0A46     		mov	r2, r1
 1522 0030 1A70     		strb	r2, [r3]
 182:.\chain_flow/chain_flow_support.c **** 
 183:.\chain_flow/chain_flow_support.c **** }
 1523              		.loc 1 183 0
 1524 0032 0837     		adds	r7, r7, #8
 1525              		.cfi_def_cfa_offset 8
 1526 0034 BD46     		mov	sp, r7
 1527              		.cfi_def_cfa_register 13
 1528              		@ sp needed
 1529 0036 80BD     		pop	{r7, pc}
 1530              	.L73:
 1531              		.align	2
 1532              	.L72:
 1533 0038 58070000 		.word	.LC0
 1534 003c C8070000 		.word	__FUNCTION__.7848
 1535 0040 7C070000 		.word	.LC1
 1536 0044 00000000 		.word	chain_state
 1537              		.cfi_endproc
 1538              	.LFE79:
 1539              		.size	cf_suspend_chain, .-cf_suspend_chain
 1540              		.section	.text.cf_process_cf_event,"ax",%progbits
 1541              		.align	2
 1542              		.global	cf_process_cf_event
 1543              		.thumb
 1544              		.thumb_func
 1545              		.type	cf_process_cf_event, %function
 1546              	cf_process_cf_event:
 1547              	.LFB80:
 184:.\chain_flow/chain_flow_support.c **** 
 185:.\chain_flow/chain_flow_support.c **** 
 186:.\chain_flow/chain_flow_support.c **** 
 187:.\chain_flow/chain_flow_support.c **** void cf_process_cf_event( unsigned event, unsigned event_data )
 188:.\chain_flow/chain_flow_support.c **** {
 1548              		.loc 1 188 0
 1549              		.cfi_startproc
 1550              		@ args = 0, pretend = 0, frame = 16
 1551              		@ frame_needed = 1, uses_anonymous_args = 0
 1552 0000 80B5     		push	{r7, lr}
 1553              		.cfi_def_cfa_offset 8
 1554              		.cfi_offset 7, -8
 1555              		.cfi_offset 14, -4
 1556 0002 84B0     		sub	sp, sp, #16
 1557              		.cfi_def_cfa_offset 24
 1558 0004 00AF     		add	r7, sp, #0
 1559              		.cfi_def_cfa_register 7
 1560 0006 7860     		str	r0, [r7, #4]
 1561 0008 3960     		str	r1, [r7]
 189:.\chain_flow/chain_flow_support.c ****    
 190:.\chain_flow/chain_flow_support.c ****    int i;
 191:.\chain_flow/chain_flow_support.c ****    for( i = 0; i < CHAIN_NUM; i++ )
 1562              		.loc 1 191 0
ARM GAS  C:\Users\glenn\AppData\Local\Temp\ccNMOhlg.s 			page 32


 1563 000a 0023     		movs	r3, #0
 1564 000c FB60     		str	r3, [r7, #12]
 1565 000e 0FE0     		b	.L75
 1566              	.L77:
 192:.\chain_flow/chain_flow_support.c ****    {
 193:.\chain_flow/chain_flow_support.c ****      if( chain_enable_for_event( i ) != 0 )
 1567              		.loc 1 193 0
 1568 0010 FB68     		ldr	r3, [r7, #12]
 1569 0012 1846     		mov	r0, r3
 1570 0014 FFF7FEFF 		bl	chain_enable_for_event
 1571 0018 0346     		mov	r3, r0
 1572 001a 002B     		cmp	r3, #0
 1573 001c 05D0     		beq	.L76
 194:.\chain_flow/chain_flow_support.c ****      {
 195:.\chain_flow/chain_flow_support.c ****             chain_execute_chain( i, event, event_data );
 1574              		.loc 1 195 0
 1575 001e FB68     		ldr	r3, [r7, #12]
 1576 0020 1846     		mov	r0, r3
 1577 0022 7968     		ldr	r1, [r7, #4]
 1578 0024 3A68     		ldr	r2, [r7]
 1579 0026 FFF7FEFF 		bl	chain_execute_chain
 1580              	.L76:
 191:.\chain_flow/chain_flow_support.c ****    {
 1581              		.loc 1 191 0 discriminator 2
 1582 002a FB68     		ldr	r3, [r7, #12]
 1583 002c 0133     		adds	r3, r3, #1
 1584 002e FB60     		str	r3, [r7, #12]
 1585              	.L75:
 191:.\chain_flow/chain_flow_support.c ****    {
 1586              		.loc 1 191 0 is_stmt 0 discriminator 1
 1587 0030 FB68     		ldr	r3, [r7, #12]
 1588 0032 0C2B     		cmp	r3, #12
 1589 0034 ECDD     		ble	.L77
 196:.\chain_flow/chain_flow_support.c ****      }
 197:.\chain_flow/chain_flow_support.c **** 
 198:.\chain_flow/chain_flow_support.c **** 
 199:.\chain_flow/chain_flow_support.c ****   }
 200:.\chain_flow/chain_flow_support.c **** 
 201:.\chain_flow/chain_flow_support.c ****   
 202:.\chain_flow/chain_flow_support.c **** }
 1590              		.loc 1 202 0 is_stmt 1
 1591 0036 1037     		adds	r7, r7, #16
 1592              		.cfi_def_cfa_offset 8
 1593 0038 BD46     		mov	sp, r7
 1594              		.cfi_def_cfa_register 13
 1595              		@ sp needed
 1596 003a 80BD     		pop	{r7, pc}
 1597              		.cfi_endproc
 1598              	.LFE80:
 1599              		.size	cf_process_cf_event, .-cf_process_cf_event
 1600              		.section	.text.chain_execute_chain,"ax",%progbits
 1601              		.align	2
 1602              		.thumb
 1603              		.thumb_func
 1604              		.type	chain_execute_chain, %function
 1605              	chain_execute_chain:
 1606              	.LFB81:
ARM GAS  C:\Users\glenn\AppData\Local\Temp\ccNMOhlg.s 			page 33


 203:.\chain_flow/chain_flow_support.c **** 
 204:.\chain_flow/chain_flow_support.c **** 
 205:.\chain_flow/chain_flow_support.c **** 
 206:.\chain_flow/chain_flow_support.c **** 
 207:.\chain_flow/chain_flow_support.c **** 
 208:.\chain_flow/chain_flow_support.c **** static void chain_execute_chain( unsigned chain_id, unsigned event, unsigned event_data )
 209:.\chain_flow/chain_flow_support.c **** {
 1607              		.loc 1 209 0
 1608              		.cfi_startproc
 1609              		@ args = 0, pretend = 0, frame = 40
 1610              		@ frame_needed = 1, uses_anonymous_args = 0
 1611 0000 80B5     		push	{r7, lr}
 1612              		.cfi_def_cfa_offset 8
 1613              		.cfi_offset 7, -8
 1614              		.cfi_offset 14, -4
 1615 0002 8AB0     		sub	sp, sp, #40
 1616              		.cfi_def_cfa_offset 48
 1617 0004 00AF     		add	r7, sp, #0
 1618              		.cfi_def_cfa_register 7
 1619 0006 F860     		str	r0, [r7, #12]
 1620 0008 B960     		str	r1, [r7, #8]
 1621 000a 7A60     		str	r2, [r7, #4]
 210:.\chain_flow/chain_flow_support.c ****    unsigned        return_code;
 211:.\chain_flow/chain_flow_support.c ****    unsigned        link_number;
 212:.\chain_flow/chain_flow_support.c ****    unsigned        link_offset;
 213:.\chain_flow/chain_flow_support.c ****    unsigned        i;
 214:.\chain_flow/chain_flow_support.c ****    const LINK_CELL *cell_ptr;
 215:.\chain_flow/chain_flow_support.c **** 
 216:.\chain_flow/chain_flow_support.c ****    if( chain_enable_for_event( chain_id ) == 0 )
 1622              		.loc 1 216 0
 1623 000c F868     		ldr	r0, [r7, #12]
 1624 000e FFF7FEFF 		bl	chain_enable_for_event
 1625 0012 0346     		mov	r3, r0
 1626 0014 002B     		cmp	r3, #0
 1627 0016 00D1     		bne	.L79
 217:.\chain_flow/chain_flow_support.c ****    {
 218:.\chain_flow/chain_flow_support.c ****        return;
 1628              		.loc 1 218 0
 1629 0018 33E0     		b	.L78
 1630              	.L79:
 219:.\chain_flow/chain_flow_support.c ****    }
 220:.\chain_flow/chain_flow_support.c ****    link_number = chain_get_link_number( chain_id );
 1631              		.loc 1 220 0
 1632 001a F868     		ldr	r0, [r7, #12]
 1633 001c FFF7FEFF 		bl	chain_get_link_number
 1634 0020 0346     		mov	r3, r0
 1635 0022 BB61     		str	r3, [r7, #24]
 221:.\chain_flow/chain_flow_support.c ****    link_offset = chain_get_link_offset( chain_id );
 1636              		.loc 1 221 0
 1637 0024 F868     		ldr	r0, [r7, #12]
 1638 0026 FFF7FEFF 		bl	chain_get_link_offset
 1639 002a 0346     		mov	r3, r0
 1640 002c 7B62     		str	r3, [r7, #36]
 222:.\chain_flow/chain_flow_support.c ****    cell_ptr    = get_cell_pointer( chain_id );
 1641              		.loc 1 222 0
 1642 002e F868     		ldr	r0, [r7, #12]
 1643 0030 FFF7FEFF 		bl	get_cell_pointer
ARM GAS  C:\Users\glenn\AppData\Local\Temp\ccNMOhlg.s 			page 34


 1644 0034 F861     		str	r0, [r7, #28]
 223:.\chain_flow/chain_flow_support.c ****    for( i = 0; i < link_number; i++ )
 1645              		.loc 1 223 0
 1646 0036 0023     		movs	r3, #0
 1647 0038 3B62     		str	r3, [r7, #32]
 1648 003a 1EE0     		b	.L81
 1649              	.L83:
 224:.\chain_flow/chain_flow_support.c ****    {
 225:.\chain_flow/chain_flow_support.c ****       if( is_link_active( link_offset ) != 0 )
 1650              		.loc 1 225 0
 1651 003c 786A     		ldr	r0, [r7, #36]
 1652 003e FFF7FEFF 		bl	is_link_active
 1653 0042 0346     		mov	r3, r0
 1654 0044 002B     		cmp	r3, #0
 1655 0046 0FD0     		beq	.L82
 226:.\chain_flow/chain_flow_support.c ****       {
 227:.\chain_flow/chain_flow_support.c ****          return_code = execute_cell( link_offset, cell_ptr, event,event_data );
 1656              		.loc 1 227 0
 1657 0048 786A     		ldr	r0, [r7, #36]
 1658 004a F969     		ldr	r1, [r7, #28]
 1659 004c BA68     		ldr	r2, [r7, #8]
 1660 004e 7B68     		ldr	r3, [r7, #4]
 1661 0050 FFF7FEFF 		bl	execute_cell
 1662 0054 7861     		str	r0, [r7, #20]
 228:.\chain_flow/chain_flow_support.c ****          if( check_return_code( chain_id, link_offset,return_code ) == 0 )
 1663              		.loc 1 228 0
 1664 0056 F868     		ldr	r0, [r7, #12]
 1665 0058 796A     		ldr	r1, [r7, #36]
 1666 005a 7A69     		ldr	r2, [r7, #20]
 1667 005c FFF7FEFF 		bl	check_return_code
 1668 0060 0346     		mov	r3, r0
 1669 0062 002B     		cmp	r3, #0
 1670 0064 00D1     		bne	.L82
 229:.\chain_flow/chain_flow_support.c ****          {
 230:.\chain_flow/chain_flow_support.c ****             break;
 1671              		.loc 1 230 0
 1672 0066 0CE0     		b	.L78
 1673              	.L82:
 231:.\chain_flow/chain_flow_support.c ****          }
 232:.\chain_flow/chain_flow_support.c ****       }
 233:.\chain_flow/chain_flow_support.c ****       cell_ptr++;
 1674              		.loc 1 233 0 discriminator 2
 1675 0068 FB69     		ldr	r3, [r7, #28]
 1676 006a 1433     		adds	r3, r3, #20
 1677 006c FB61     		str	r3, [r7, #28]
 234:.\chain_flow/chain_flow_support.c ****       link_offset++;
 1678              		.loc 1 234 0 discriminator 2
 1679 006e 7B6A     		ldr	r3, [r7, #36]
 1680 0070 0133     		adds	r3, r3, #1
 1681 0072 7B62     		str	r3, [r7, #36]
 223:.\chain_flow/chain_flow_support.c ****    {
 1682              		.loc 1 223 0 discriminator 2
 1683 0074 3B6A     		ldr	r3, [r7, #32]
 1684 0076 0133     		adds	r3, r3, #1
 1685 0078 3B62     		str	r3, [r7, #32]
 1686              	.L81:
 223:.\chain_flow/chain_flow_support.c ****    {
ARM GAS  C:\Users\glenn\AppData\Local\Temp\ccNMOhlg.s 			page 35


 1687              		.loc 1 223 0 is_stmt 0 discriminator 1
 1688 007a 3A6A     		ldr	r2, [r7, #32]
 1689 007c BB69     		ldr	r3, [r7, #24]
 1690 007e 9A42     		cmp	r2, r3
 1691 0080 DCD3     		bcc	.L83
 1692              	.L78:
 235:.\chain_flow/chain_flow_support.c ****    }
 236:.\chain_flow/chain_flow_support.c **** }
 1693              		.loc 1 236 0 is_stmt 1
 1694 0082 2837     		adds	r7, r7, #40
 1695              		.cfi_def_cfa_offset 8
 1696 0084 BD46     		mov	sp, r7
 1697              		.cfi_def_cfa_register 13
 1698              		@ sp needed
 1699 0086 80BD     		pop	{r7, pc}
 1700              		.cfi_endproc
 1701              	.LFE81:
 1702              		.size	chain_execute_chain, .-chain_execute_chain
 1703              		.section	.text.execute_cell,"ax",%progbits
 1704              		.align	2
 1705              		.thumb
 1706              		.thumb_func
 1707              		.type	execute_cell, %function
 1708              	execute_cell:
 1709              	.LFB82:
 237:.\chain_flow/chain_flow_support.c **** 
 238:.\chain_flow/chain_flow_support.c **** 
 239:.\chain_flow/chain_flow_support.c **** static unsigned execute_cell(  unsigned link_index,  const LINK_CELL *cell_ptr, unsigned event, uns
 240:.\chain_flow/chain_flow_support.c **** {
 1710              		.loc 1 240 0
 1711              		.cfi_startproc
 1712              		@ args = 0, pretend = 0, frame = 24
 1713              		@ frame_needed = 1, uses_anonymous_args = 0
 1714 0000 B0B5     		push	{r4, r5, r7, lr}
 1715              		.cfi_def_cfa_offset 16
 1716              		.cfi_offset 4, -16
 1717              		.cfi_offset 5, -12
 1718              		.cfi_offset 7, -8
 1719              		.cfi_offset 14, -4
 1720 0002 8AB0     		sub	sp, sp, #40
 1721              		.cfi_def_cfa_offset 56
 1722 0004 04AF     		add	r7, sp, #16
 1723              		.cfi_def_cfa 7, 40
 1724 0006 F860     		str	r0, [r7, #12]
 1725 0008 B960     		str	r1, [r7, #8]
 1726 000a 7A60     		str	r2, [r7, #4]
 1727 000c 3B60     		str	r3, [r7]
 241:.\chain_flow/chain_flow_support.c ****     unsigned return_code;
 242:.\chain_flow/chain_flow_support.c **** 
 243:.\chain_flow/chain_flow_support.c ****     if( is_link_initialized( link_index ) == 0 )
 1728              		.loc 1 243 0
 1729 000e F868     		ldr	r0, [r7, #12]
 1730 0010 FFF7FEFF 		bl	is_link_initialized
 1731 0014 0346     		mov	r3, r0
 1732 0016 002B     		cmp	r3, #0
 1733 0018 14D1     		bne	.L85
 244:.\chain_flow/chain_flow_support.c ****     {
ARM GAS  C:\Users\glenn\AppData\Local\Temp\ccNMOhlg.s 			page 36


 245:.\chain_flow/chain_flow_support.c ****        cell_ptr->func( link_index, cell_ptr->param_1, cell_ptr->param_2, 
 1734              		.loc 1 245 0
 1735 001a BB68     		ldr	r3, [r7, #8]
 1736 001c 1C68     		ldr	r4, [r3]
 1737 001e BB68     		ldr	r3, [r7, #8]
 1738 0020 5968     		ldr	r1, [r3, #4]
 1739 0022 BB68     		ldr	r3, [r7, #8]
 1740 0024 9A68     		ldr	r2, [r3, #8]
 1741 0026 BB68     		ldr	r3, [r7, #8]
 1742 0028 DD68     		ldr	r5, [r3, #12]
 1743 002a BB68     		ldr	r3, [r7, #8]
 1744 002c 1B69     		ldr	r3, [r3, #16]
 1745 002e 0093     		str	r3, [sp]
 1746 0030 0123     		movs	r3, #1
 1747 0032 0193     		str	r3, [sp, #4]
 1748 0034 0023     		movs	r3, #0
 1749 0036 0293     		str	r3, [sp, #8]
 1750 0038 F868     		ldr	r0, [r7, #12]
 1751 003a 2B46     		mov	r3, r5
 1752 003c A047     		blx	r4
 246:.\chain_flow/chain_flow_support.c ****         cell_ptr->param_3,cell_ptr->param_4, CF_INIT_EVENT, 0 );
 247:.\chain_flow/chain_flow_support.c ****        
 248:.\chain_flow/chain_flow_support.c ****        mark_initialize_link( link_index );
 1753              		.loc 1 248 0
 1754 003e F868     		ldr	r0, [r7, #12]
 1755 0040 FFF7FEFF 		bl	mark_initialize_link
 1756              	.L85:
 249:.\chain_flow/chain_flow_support.c ****     }
 250:.\chain_flow/chain_flow_support.c ****     return_code = cell_ptr->func( link_index, cell_ptr->param_1, cell_ptr->param_2,
 1757              		.loc 1 250 0
 1758 0044 BB68     		ldr	r3, [r7, #8]
 1759 0046 1C68     		ldr	r4, [r3]
 1760 0048 BB68     		ldr	r3, [r7, #8]
 1761 004a 5968     		ldr	r1, [r3, #4]
 1762 004c BB68     		ldr	r3, [r7, #8]
 1763 004e 9A68     		ldr	r2, [r3, #8]
 1764 0050 BB68     		ldr	r3, [r7, #8]
 1765 0052 DD68     		ldr	r5, [r3, #12]
 1766 0054 BB68     		ldr	r3, [r7, #8]
 1767 0056 1B69     		ldr	r3, [r3, #16]
 1768 0058 0093     		str	r3, [sp]
 1769 005a 7B68     		ldr	r3, [r7, #4]
 1770 005c 0193     		str	r3, [sp, #4]
 1771 005e 3B68     		ldr	r3, [r7]
 1772 0060 0293     		str	r3, [sp, #8]
 1773 0062 F868     		ldr	r0, [r7, #12]
 1774 0064 2B46     		mov	r3, r5
 1775 0066 A047     		blx	r4
 1776 0068 0346     		mov	r3, r0
 1777 006a 7B61     		str	r3, [r7, #20]
 251:.\chain_flow/chain_flow_support.c ****         cell_ptr->param_3,cell_ptr->param_4, event, event_data );
 252:.\chain_flow/chain_flow_support.c **** 
 253:.\chain_flow/chain_flow_support.c ****     return return_code;
 1778              		.loc 1 253 0
 1779 006c 7B69     		ldr	r3, [r7, #20]
 254:.\chain_flow/chain_flow_support.c **** }
 1780              		.loc 1 254 0
ARM GAS  C:\Users\glenn\AppData\Local\Temp\ccNMOhlg.s 			page 37


 1781 006e 1846     		mov	r0, r3
 1782 0070 1837     		adds	r7, r7, #24
 1783              		.cfi_def_cfa_offset 16
 1784 0072 BD46     		mov	sp, r7
 1785              		.cfi_def_cfa_register 13
 1786              		@ sp needed
 1787 0074 B0BD     		pop	{r4, r5, r7, pc}
 1788              		.cfi_endproc
 1789              	.LFE82:
 1790              		.size	execute_cell, .-execute_cell
 1791 0076 00BF     		.section	.rodata
 1792 078f 00       		.align	2
 1793              	.LC2:
 1794 0790 3000     		.ascii	"0\000"
 1795              		.section	.text.check_return_code,"ax",%progbits
 1796              		.align	2
 1797              		.thumb
 1798              		.thumb_func
 1799              		.type	check_return_code, %function
 1800              	check_return_code:
 1801              	.LFB83:
 255:.\chain_flow/chain_flow_support.c **** 
 256:.\chain_flow/chain_flow_support.c **** static unsigned check_return_code( unsigned chain_id, unsigned link_offset, unsigned return_code )
 257:.\chain_flow/chain_flow_support.c **** {
 1802              		.loc 1 257 0
 1803              		.cfi_startproc
 1804              		@ args = 0, pretend = 0, frame = 24
 1805              		@ frame_needed = 1, uses_anonymous_args = 0
 1806 0000 80B5     		push	{r7, lr}
 1807              		.cfi_def_cfa_offset 8
 1808              		.cfi_offset 7, -8
 1809              		.cfi_offset 14, -4
 1810 0002 86B0     		sub	sp, sp, #24
 1811              		.cfi_def_cfa_offset 32
 1812 0004 00AF     		add	r7, sp, #0
 1813              		.cfi_def_cfa_register 7
 1814 0006 F860     		str	r0, [r7, #12]
 1815 0008 B960     		str	r1, [r7, #8]
 1816 000a 7A60     		str	r2, [r7, #4]
 258:.\chain_flow/chain_flow_support.c ****       unsigned return_value;
 259:.\chain_flow/chain_flow_support.c **** 
 260:.\chain_flow/chain_flow_support.c ****       switch( return_code )
 1817              		.loc 1 260 0
 1818 000c 7B68     		ldr	r3, [r7, #4]
 1819 000e 042B     		cmp	r3, #4
 1820 0010 25D8     		bhi	.L88
 1821 0012 01A2     		adr	r2, .L90
 1822 0014 52F823F0 		ldr	pc, [r2, r3, lsl #2]
 1823              		.p2align 2
 1824              	.L90:
 1825 0018 2D000000 		.word	.L89+1
 1826 001c 33000000 		.word	.L91+1
 1827 0020 39000000 		.word	.L92+1
 1828 0024 45000000 		.word	.L93+1
 1829 0028 53000000 		.word	.L94+1
 1830              		.p2align 1
 1831              	.L89:
ARM GAS  C:\Users\glenn\AppData\Local\Temp\ccNMOhlg.s 			page 38


 261:.\chain_flow/chain_flow_support.c ****       {
 262:.\chain_flow/chain_flow_support.c ****           case CF_CONTINUE:
 263:.\chain_flow/chain_flow_support.c ****                 return_value = 1;
 1832              		.loc 1 263 0
 1833 002c 0123     		movs	r3, #1
 1834 002e 7B61     		str	r3, [r7, #20]
 264:.\chain_flow/chain_flow_support.c ****                 break;
 1835              		.loc 1 264 0
 1836 0030 1CE0     		b	.L95
 1837              	.L91:
 265:.\chain_flow/chain_flow_support.c **** 
 266:.\chain_flow/chain_flow_support.c ****           case CF_HALT:
 267:.\chain_flow/chain_flow_support.c ****                 return_value = 0;
 1838              		.loc 1 267 0
 1839 0032 0023     		movs	r3, #0
 1840 0034 7B61     		str	r3, [r7, #20]
 268:.\chain_flow/chain_flow_support.c ****                 break;
 1841              		.loc 1 268 0
 1842 0036 19E0     		b	.L95
 1843              	.L92:
 269:.\chain_flow/chain_flow_support.c **** 
 270:.\chain_flow/chain_flow_support.c ****           case CF_DISABLE:
 271:.\chain_flow/chain_flow_support.c ****                return_value = 1;
 1844              		.loc 1 271 0
 1845 0038 0123     		movs	r3, #1
 1846 003a 7B61     		str	r3, [r7, #20]
 272:.\chain_flow/chain_flow_support.c ****                mark_disable_link( link_offset );
 1847              		.loc 1 272 0
 1848 003c B868     		ldr	r0, [r7, #8]
 1849 003e FFF7FEFF 		bl	mark_disable_link
 273:.\chain_flow/chain_flow_support.c ****                break;
 1850              		.loc 1 273 0
 1851 0042 13E0     		b	.L95
 1852              	.L93:
 274:.\chain_flow/chain_flow_support.c **** 
 275:.\chain_flow/chain_flow_support.c ****           case CF_RESET:
 276:.\chain_flow/chain_flow_support.c ****                return_value = 0;
 1853              		.loc 1 276 0
 1854 0044 0023     		movs	r3, #0
 1855 0046 7B61     		str	r3, [r7, #20]
 277:.\chain_flow/chain_flow_support.c ****                reset_all_links(chain_id);
 1856              		.loc 1 277 0
 1857 0048 FB68     		ldr	r3, [r7, #12]
 1858 004a 1846     		mov	r0, r3
 1859 004c FFF7FEFF 		bl	reset_all_links
 278:.\chain_flow/chain_flow_support.c ****                break;
 1860              		.loc 1 278 0
 1861 0050 0CE0     		b	.L95
 1862              	.L94:
 279:.\chain_flow/chain_flow_support.c **** 
 280:.\chain_flow/chain_flow_support.c ****            case CF_TERMINATE:
 281:.\chain_flow/chain_flow_support.c ****                return_value = 0;
 1863              		.loc 1 281 0
 1864 0052 0023     		movs	r3, #0
 1865 0054 7B61     		str	r3, [r7, #20]
 282:.\chain_flow/chain_flow_support.c ****                cf_disable_chain( chain_id );
 1866              		.loc 1 282 0
ARM GAS  C:\Users\glenn\AppData\Local\Temp\ccNMOhlg.s 			page 39


 1867 0056 F868     		ldr	r0, [r7, #12]
 1868 0058 FFF7FEFF 		bl	cf_disable_chain
 283:.\chain_flow/chain_flow_support.c ****                break;
 1869              		.loc 1 283 0
 1870 005c 06E0     		b	.L95
 1871              	.L88:
 284:.\chain_flow/chain_flow_support.c **** 
 285:.\chain_flow/chain_flow_support.c ****            default:
 286:.\chain_flow/chain_flow_support.c ****                 assert(0); // should not happen
 1872              		.loc 1 286 0
 1873 005e 0648     		ldr	r0, .L97
 1874 0060 4FF48F71 		mov	r1, #286
 1875 0064 054A     		ldr	r2, .L97+4
 1876 0066 064B     		ldr	r3, .L97+8
 1877 0068 FFF7FEFF 		bl	__assert_func
 1878              	.L95:
 287:.\chain_flow/chain_flow_support.c ****      }
 288:.\chain_flow/chain_flow_support.c ****      return return_value;
 1879              		.loc 1 288 0
 1880 006c 7B69     		ldr	r3, [r7, #20]
 289:.\chain_flow/chain_flow_support.c **** }
 1881              		.loc 1 289 0
 1882 006e 1846     		mov	r0, r3
 1883 0070 1837     		adds	r7, r7, #24
 1884              		.cfi_def_cfa_offset 8
 1885 0072 BD46     		mov	sp, r7
 1886              		.cfi_def_cfa_register 13
 1887              		@ sp needed
 1888 0074 80BD     		pop	{r7, pc}
 1889              	.L98:
 1890 0076 00BF     		.align	2
 1891              	.L97:
 1892 0078 58070000 		.word	.LC0
 1893 007c DC070000 		.word	__FUNCTION__.7890
 1894 0080 90070000 		.word	.LC2
 1895              		.cfi_endproc
 1896              	.LFE83:
 1897              		.size	check_return_code, .-check_return_code
 1898              		.section	.rodata
 1899 0792 0000     		.align	2
 1900              		.type	__FUNCTION__.7836, %object
 1901              		.size	__FUNCTION__.7836, 16
 1902              	__FUNCTION__.7836:
 1903 0794 63665F65 		.ascii	"cf_enable_chain\000"
 1903      6E61626C 
 1903      655F6368 
 1903      61696E00 
 1904              		.align	2
 1905              		.type	__FUNCTION__.7840, %object
 1906              		.size	__FUNCTION__.7840, 17
 1907              	__FUNCTION__.7840:
 1908 07a4 63665F64 		.ascii	"cf_disable_chain\000"
 1908      69736162 
 1908      6C655F63 
 1908      6861696E 
 1908      00
 1909 07b5 000000   		.align	2
ARM GAS  C:\Users\glenn\AppData\Local\Temp\ccNMOhlg.s 			page 40


 1910              		.type	__FUNCTION__.7844, %object
 1911              		.size	__FUNCTION__.7844, 16
 1912              	__FUNCTION__.7844:
 1913 07b8 63665F72 		.ascii	"cf_resume_chain\000"
 1913      6573756D 
 1913      655F6368 
 1913      61696E00 
 1914              		.align	2
 1915              		.type	__FUNCTION__.7848, %object
 1916              		.size	__FUNCTION__.7848, 17
 1917              	__FUNCTION__.7848:
 1918 07c8 63665F73 		.ascii	"cf_suspend_chain\000"
 1918      75737065 
 1918      6E645F63 
 1918      6861696E 
 1918      00
 1919 07d9 000000   		.align	2
 1920              		.type	__FUNCTION__.7890, %object
 1921              		.size	__FUNCTION__.7890, 18
 1922              	__FUNCTION__.7890:
 1923 07dc 63686563 		.ascii	"check_return_code\000"
 1923      6B5F7265 
 1923      7475726E 
 1923      5F636F64 
 1923      6500
 1924 07ee 0000     		.text
 1925              	.Letext0:
 1926              		.file 2 "c:\\program files (x86)\\cypress\\psoc creator\\3.3\\psoc creator\\import\\gnu\\arm\\4.9.
 1927              		.file 3 ".\\chain_flow\\cf_chain_flow_support.h"
 1928              		.file 4 "c:\\program files (x86)\\cypress\\psoc creator\\3.3\\psoc creator\\import\\gnu\\arm\\4.9.
 1929              		.file 5 "Generated_Source\\PSoC5/core_cm3.h"
 1930              		.file 6 ".\\chain_flow\\chain_flow_assembler/cf_chain_flow_include.h"