ARM GAS  C:\Users\glenn\AppData\Local\Temp\cc58Te5j.s 			page 1


   1              		.syntax unified
   2              		.cpu cortex-m3
   3              		.fpu softvfp
   4              		.eabi_attribute 20, 1
   5              		.eabi_attribute 21, 1
   6              		.eabi_attribute 23, 3
   7              		.eabi_attribute 24, 1
   8              		.eabi_attribute 25, 1
   9              		.eabi_attribute 26, 1
  10              		.eabi_attribute 30, 6
  11              		.eabi_attribute 34, 1
  12              		.eabi_attribute 18, 4
  13              		.thumb
  14              		.file	"cyfitter_cfg.c"
  15              		.text
  16              	.Ltext0:
  17              		.cfi_sections	.debug_frame
  18              		.section	.text.CYMEMZERO,"ax",%progbits
  19              		.align	2
  20              		.thumb
  21              		.thumb_func
  22              		.type	CYMEMZERO, %function
  23              	CYMEMZERO:
  24              	.LFB0:
  25              		.file 1 ".\\Generated_Source\\PSoC5\\cyfitter_cfg.c"
   1:.\Generated_Source\PSoC5/cyfitter_cfg.c **** /*******************************************************************************
   2:.\Generated_Source\PSoC5/cyfitter_cfg.c **** * File Name: cyfitter_cfg.c
   3:.\Generated_Source\PSoC5/cyfitter_cfg.c **** * 
   4:.\Generated_Source\PSoC5/cyfitter_cfg.c **** * PSoC Creator  3.3 CP3
   5:.\Generated_Source\PSoC5/cyfitter_cfg.c **** *
   6:.\Generated_Source\PSoC5/cyfitter_cfg.c **** * Description:
   7:.\Generated_Source\PSoC5/cyfitter_cfg.c **** * This file contains device initialization code.
   8:.\Generated_Source\PSoC5/cyfitter_cfg.c **** * Except for the user defined sections in CyClockStartupError(), this file should not be modified.
   9:.\Generated_Source\PSoC5/cyfitter_cfg.c **** * This file is automatically generated by PSoC Creator.
  10:.\Generated_Source\PSoC5/cyfitter_cfg.c **** *
  11:.\Generated_Source\PSoC5/cyfitter_cfg.c **** ********************************************************************************
  12:.\Generated_Source\PSoC5/cyfitter_cfg.c **** * Copyright (c) 2007-2016 Cypress Semiconductor.  All rights reserved.
  13:.\Generated_Source\PSoC5/cyfitter_cfg.c **** * You may use this file only in accordance with the license, terms, conditions, 
  14:.\Generated_Source\PSoC5/cyfitter_cfg.c **** * disclaimers, and limitations in the end user license agreement accompanying 
  15:.\Generated_Source\PSoC5/cyfitter_cfg.c **** * the software package with which this file was provided.
  16:.\Generated_Source\PSoC5/cyfitter_cfg.c **** ********************************************************************************/
  17:.\Generated_Source\PSoC5/cyfitter_cfg.c **** 
  18:.\Generated_Source\PSoC5/cyfitter_cfg.c **** #include <string.h>
  19:.\Generated_Source\PSoC5/cyfitter_cfg.c **** #include "cytypes.h"
  20:.\Generated_Source\PSoC5/cyfitter_cfg.c **** #include "cydevice_trm.h"
  21:.\Generated_Source\PSoC5/cyfitter_cfg.c **** #include "cyfitter.h"
  22:.\Generated_Source\PSoC5/cyfitter_cfg.c **** #include "CyLib.h"
  23:.\Generated_Source\PSoC5/cyfitter_cfg.c **** #include "cyfitter_cfg.h"
  24:.\Generated_Source\PSoC5/cyfitter_cfg.c **** 
  25:.\Generated_Source\PSoC5/cyfitter_cfg.c **** #define CY_NEED_CYCLOCKSTARTUPERROR 1
  26:.\Generated_Source\PSoC5/cyfitter_cfg.c **** 
  27:.\Generated_Source\PSoC5/cyfitter_cfg.c **** 
  28:.\Generated_Source\PSoC5/cyfitter_cfg.c **** #if defined(__GNUC__) || defined(__ARMCC_VERSION)
  29:.\Generated_Source\PSoC5/cyfitter_cfg.c ****     #define CYPACKED 
  30:.\Generated_Source\PSoC5/cyfitter_cfg.c ****     #define CYPACKED_ATTR __attribute__ ((packed))
  31:.\Generated_Source\PSoC5/cyfitter_cfg.c ****     #define CYALIGNED __attribute__ ((aligned))
  32:.\Generated_Source\PSoC5/cyfitter_cfg.c ****     #define CY_CFG_UNUSED __attribute__ ((unused))
ARM GAS  C:\Users\glenn\AppData\Local\Temp\cc58Te5j.s 			page 2


  33:.\Generated_Source\PSoC5/cyfitter_cfg.c ****     #ifndef CY_CFG_SECTION
  34:.\Generated_Source\PSoC5/cyfitter_cfg.c ****         #define CY_CFG_SECTION __attribute__ ((section(".psocinit")))
  35:.\Generated_Source\PSoC5/cyfitter_cfg.c ****     #endif
  36:.\Generated_Source\PSoC5/cyfitter_cfg.c ****     
  37:.\Generated_Source\PSoC5/cyfitter_cfg.c ****     #if defined(__ARMCC_VERSION)
  38:.\Generated_Source\PSoC5/cyfitter_cfg.c ****         #define CY_CFG_MEMORY_BARRIER() __memory_changed()
  39:.\Generated_Source\PSoC5/cyfitter_cfg.c ****     #else
  40:.\Generated_Source\PSoC5/cyfitter_cfg.c ****         #define CY_CFG_MEMORY_BARRIER() __sync_synchronize()
  41:.\Generated_Source\PSoC5/cyfitter_cfg.c ****     #endif
  42:.\Generated_Source\PSoC5/cyfitter_cfg.c ****     
  43:.\Generated_Source\PSoC5/cyfitter_cfg.c **** #elif defined(__ICCARM__)
  44:.\Generated_Source\PSoC5/cyfitter_cfg.c ****     #include <intrinsics.h>
  45:.\Generated_Source\PSoC5/cyfitter_cfg.c **** 
  46:.\Generated_Source\PSoC5/cyfitter_cfg.c ****     #define CYPACKED __packed
  47:.\Generated_Source\PSoC5/cyfitter_cfg.c ****     #define CYPACKED_ATTR 
  48:.\Generated_Source\PSoC5/cyfitter_cfg.c ****     #define CYALIGNED _Pragma("data_alignment=4")
  49:.\Generated_Source\PSoC5/cyfitter_cfg.c ****     #define CY_CFG_UNUSED _Pragma("diag_suppress=Pe177")
  50:.\Generated_Source\PSoC5/cyfitter_cfg.c ****     #define CY_CFG_SECTION _Pragma("location=\".psocinit\"")
  51:.\Generated_Source\PSoC5/cyfitter_cfg.c ****     
  52:.\Generated_Source\PSoC5/cyfitter_cfg.c ****     #define CY_CFG_MEMORY_BARRIER() __DMB()
  53:.\Generated_Source\PSoC5/cyfitter_cfg.c ****     
  54:.\Generated_Source\PSoC5/cyfitter_cfg.c **** #else
  55:.\Generated_Source\PSoC5/cyfitter_cfg.c ****     #error Unsupported toolchain
  56:.\Generated_Source\PSoC5/cyfitter_cfg.c **** #endif
  57:.\Generated_Source\PSoC5/cyfitter_cfg.c **** 
  58:.\Generated_Source\PSoC5/cyfitter_cfg.c **** 
  59:.\Generated_Source\PSoC5/cyfitter_cfg.c **** CY_CFG_UNUSED
  60:.\Generated_Source\PSoC5/cyfitter_cfg.c **** static void CYMEMZERO(void *s, size_t n);
  61:.\Generated_Source\PSoC5/cyfitter_cfg.c **** CY_CFG_UNUSED
  62:.\Generated_Source\PSoC5/cyfitter_cfg.c **** static void CYMEMZERO(void *s, size_t n)
  63:.\Generated_Source\PSoC5/cyfitter_cfg.c **** {
  26              		.loc 1 63 0
  27              		.cfi_startproc
  28              		@ args = 0, pretend = 0, frame = 8
  29              		@ frame_needed = 1, uses_anonymous_args = 0
  30 0000 80B5     		push	{r7, lr}
  31              		.cfi_def_cfa_offset 8
  32              		.cfi_offset 7, -8
  33              		.cfi_offset 14, -4
  34 0002 82B0     		sub	sp, sp, #8
  35              		.cfi_def_cfa_offset 16
  36 0004 00AF     		add	r7, sp, #0
  37              		.cfi_def_cfa_register 7
  38 0006 7860     		str	r0, [r7, #4]
  39 0008 3960     		str	r1, [r7]
  64:.\Generated_Source\PSoC5/cyfitter_cfg.c **** 	(void)memset(s, 0, n);
  40              		.loc 1 64 0
  41 000a 7868     		ldr	r0, [r7, #4]
  42 000c 0021     		movs	r1, #0
  43 000e 3A68     		ldr	r2, [r7]
  44 0010 FFF7FEFF 		bl	memset
  65:.\Generated_Source\PSoC5/cyfitter_cfg.c **** }
  45              		.loc 1 65 0
  46 0014 0837     		adds	r7, r7, #8
  47              		.cfi_def_cfa_offset 8
  48 0016 BD46     		mov	sp, r7
  49              		.cfi_def_cfa_register 13
ARM GAS  C:\Users\glenn\AppData\Local\Temp\cc58Te5j.s 			page 3


  50              		@ sp needed
  51 0018 80BD     		pop	{r7, pc}
  52              		.cfi_endproc
  53              	.LFE0:
  54              		.size	CYMEMZERO, .-CYMEMZERO
  55 001a 00BF     		.section	.text.CYCONFIGCPY,"ax",%progbits
  56              		.align	2
  57              		.thumb
  58              		.thumb_func
  59              		.type	CYCONFIGCPY, %function
  60              	CYCONFIGCPY:
  61              	.LFB1:
  66:.\Generated_Source\PSoC5/cyfitter_cfg.c **** CY_CFG_UNUSED
  67:.\Generated_Source\PSoC5/cyfitter_cfg.c **** static void CYCONFIGCPY(void *dest, const void *src, size_t n);
  68:.\Generated_Source\PSoC5/cyfitter_cfg.c **** CY_CFG_UNUSED
  69:.\Generated_Source\PSoC5/cyfitter_cfg.c **** static void CYCONFIGCPY(void *dest, const void *src, size_t n)
  70:.\Generated_Source\PSoC5/cyfitter_cfg.c **** {
  62              		.loc 1 70 0
  63              		.cfi_startproc
  64              		@ args = 0, pretend = 0, frame = 16
  65              		@ frame_needed = 1, uses_anonymous_args = 0
  66 0000 80B5     		push	{r7, lr}
  67              		.cfi_def_cfa_offset 8
  68              		.cfi_offset 7, -8
  69              		.cfi_offset 14, -4
  70 0002 84B0     		sub	sp, sp, #16
  71              		.cfi_def_cfa_offset 24
  72 0004 00AF     		add	r7, sp, #0
  73              		.cfi_def_cfa_register 7
  74 0006 F860     		str	r0, [r7, #12]
  75 0008 B960     		str	r1, [r7, #8]
  76 000a 7A60     		str	r2, [r7, #4]
  71:.\Generated_Source\PSoC5/cyfitter_cfg.c **** 	(void)memcpy(dest, src, n);
  77              		.loc 1 71 0
  78 000c F868     		ldr	r0, [r7, #12]
  79 000e B968     		ldr	r1, [r7, #8]
  80 0010 7A68     		ldr	r2, [r7, #4]
  81 0012 FFF7FEFF 		bl	memcpy
  72:.\Generated_Source\PSoC5/cyfitter_cfg.c **** }
  82              		.loc 1 72 0
  83 0016 1037     		adds	r7, r7, #16
  84              		.cfi_def_cfa_offset 8
  85 0018 BD46     		mov	sp, r7
  86              		.cfi_def_cfa_register 13
  87              		@ sp needed
  88 001a 80BD     		pop	{r7, pc}
  89              		.cfi_endproc
  90              	.LFE1:
  91              		.size	CYCONFIGCPY, .-CYCONFIGCPY
  92              		.section	.text.CYCONFIGCPYCODE,"ax",%progbits
  93              		.align	2
  94              		.thumb
  95              		.thumb_func
  96              		.type	CYCONFIGCPYCODE, %function
  97              	CYCONFIGCPYCODE:
  98              	.LFB2:
  73:.\Generated_Source\PSoC5/cyfitter_cfg.c **** CY_CFG_UNUSED
ARM GAS  C:\Users\glenn\AppData\Local\Temp\cc58Te5j.s 			page 4


  74:.\Generated_Source\PSoC5/cyfitter_cfg.c **** static void CYCONFIGCPYCODE(void *dest, const void *src, size_t n);
  75:.\Generated_Source\PSoC5/cyfitter_cfg.c **** CY_CFG_UNUSED
  76:.\Generated_Source\PSoC5/cyfitter_cfg.c **** static void CYCONFIGCPYCODE(void *dest, const void *src, size_t n)
  77:.\Generated_Source\PSoC5/cyfitter_cfg.c **** {
  99              		.loc 1 77 0
 100              		.cfi_startproc
 101              		@ args = 0, pretend = 0, frame = 16
 102              		@ frame_needed = 1, uses_anonymous_args = 0
 103 0000 80B5     		push	{r7, lr}
 104              		.cfi_def_cfa_offset 8
 105              		.cfi_offset 7, -8
 106              		.cfi_offset 14, -4
 107 0002 84B0     		sub	sp, sp, #16
 108              		.cfi_def_cfa_offset 24
 109 0004 00AF     		add	r7, sp, #0
 110              		.cfi_def_cfa_register 7
 111 0006 F860     		str	r0, [r7, #12]
 112 0008 B960     		str	r1, [r7, #8]
 113 000a 7A60     		str	r2, [r7, #4]
  78:.\Generated_Source\PSoC5/cyfitter_cfg.c **** 	(void)memcpy(dest, src, n);
 114              		.loc 1 78 0
 115 000c F868     		ldr	r0, [r7, #12]
 116 000e B968     		ldr	r1, [r7, #8]
 117 0010 7A68     		ldr	r2, [r7, #4]
 118 0012 FFF7FEFF 		bl	memcpy
  79:.\Generated_Source\PSoC5/cyfitter_cfg.c **** }
 119              		.loc 1 79 0
 120 0016 1037     		adds	r7, r7, #16
 121              		.cfi_def_cfa_offset 8
 122 0018 BD46     		mov	sp, r7
 123              		.cfi_def_cfa_register 13
 124              		@ sp needed
 125 001a 80BD     		pop	{r7, pc}
 126              		.cfi_endproc
 127              	.LFE2:
 128              		.size	CYCONFIGCPYCODE, .-CYCONFIGCPYCODE
 129              		.section	.text.CyClockStartupError,"ax",%progbits
 130              		.align	2
 131              		.thumb
 132              		.thumb_func
 133              		.type	CyClockStartupError, %function
 134              	CyClockStartupError:
 135              	.LFB3:
  80:.\Generated_Source\PSoC5/cyfitter_cfg.c **** 
  81:.\Generated_Source\PSoC5/cyfitter_cfg.c **** 
  82:.\Generated_Source\PSoC5/cyfitter_cfg.c **** 
  83:.\Generated_Source\PSoC5/cyfitter_cfg.c **** /* Clock startup error codes                                                   */
  84:.\Generated_Source\PSoC5/cyfitter_cfg.c **** #define CYCLOCKSTART_NO_ERROR    0u
  85:.\Generated_Source\PSoC5/cyfitter_cfg.c **** #define CYCLOCKSTART_XTAL_ERROR  1u
  86:.\Generated_Source\PSoC5/cyfitter_cfg.c **** #define CYCLOCKSTART_32KHZ_ERROR 2u
  87:.\Generated_Source\PSoC5/cyfitter_cfg.c **** #define CYCLOCKSTART_PLL_ERROR   3u
  88:.\Generated_Source\PSoC5/cyfitter_cfg.c **** 
  89:.\Generated_Source\PSoC5/cyfitter_cfg.c **** #ifdef CY_NEED_CYCLOCKSTARTUPERROR
  90:.\Generated_Source\PSoC5/cyfitter_cfg.c **** /*******************************************************************************
  91:.\Generated_Source\PSoC5/cyfitter_cfg.c **** * Function Name: CyClockStartupError
  92:.\Generated_Source\PSoC5/cyfitter_cfg.c **** ********************************************************************************
  93:.\Generated_Source\PSoC5/cyfitter_cfg.c **** * Summary:
ARM GAS  C:\Users\glenn\AppData\Local\Temp\cc58Te5j.s 			page 5


  94:.\Generated_Source\PSoC5/cyfitter_cfg.c **** *  If an error is encountered during clock configuration (crystal startup error,
  95:.\Generated_Source\PSoC5/cyfitter_cfg.c **** *  PLL lock error, etc.), the system will end up here.  Unless reimplemented by
  96:.\Generated_Source\PSoC5/cyfitter_cfg.c **** *  the customer, this function will stop in an infinite loop.
  97:.\Generated_Source\PSoC5/cyfitter_cfg.c **** *
  98:.\Generated_Source\PSoC5/cyfitter_cfg.c **** * Parameters:
  99:.\Generated_Source\PSoC5/cyfitter_cfg.c **** *   void
 100:.\Generated_Source\PSoC5/cyfitter_cfg.c **** *
 101:.\Generated_Source\PSoC5/cyfitter_cfg.c **** * Return:
 102:.\Generated_Source\PSoC5/cyfitter_cfg.c **** *   void
 103:.\Generated_Source\PSoC5/cyfitter_cfg.c **** *
 104:.\Generated_Source\PSoC5/cyfitter_cfg.c **** *******************************************************************************/
 105:.\Generated_Source\PSoC5/cyfitter_cfg.c **** CY_CFG_UNUSED
 106:.\Generated_Source\PSoC5/cyfitter_cfg.c **** static void CyClockStartupError(uint8 errorCode);
 107:.\Generated_Source\PSoC5/cyfitter_cfg.c **** CY_CFG_UNUSED
 108:.\Generated_Source\PSoC5/cyfitter_cfg.c **** static void CyClockStartupError(uint8 errorCode)
 109:.\Generated_Source\PSoC5/cyfitter_cfg.c **** {
 136              		.loc 1 109 0
 137              		.cfi_startproc
 138              		@ args = 0, pretend = 0, frame = 8
 139              		@ frame_needed = 1, uses_anonymous_args = 0
 140              		@ link register save eliminated.
 141 0000 80B4     		push	{r7}
 142              		.cfi_def_cfa_offset 4
 143              		.cfi_offset 7, -4
 144 0002 83B0     		sub	sp, sp, #12
 145              		.cfi_def_cfa_offset 16
 146 0004 00AF     		add	r7, sp, #0
 147              		.cfi_def_cfa_register 7
 148 0006 0346     		mov	r3, r0
 149 0008 FB71     		strb	r3, [r7, #7]
 150              	.L5:
 110:.\Generated_Source\PSoC5/cyfitter_cfg.c ****     /* To remove the compiler warning if errorCode not used.                */
 111:.\Generated_Source\PSoC5/cyfitter_cfg.c ****     errorCode = errorCode;
 112:.\Generated_Source\PSoC5/cyfitter_cfg.c **** 
 113:.\Generated_Source\PSoC5/cyfitter_cfg.c ****     /* `#START CyClockStartupError` */
 114:.\Generated_Source\PSoC5/cyfitter_cfg.c **** 
 115:.\Generated_Source\PSoC5/cyfitter_cfg.c ****     /* If we have a clock startup error (bad MHz crystal, PLL lock, etc.),  */
 116:.\Generated_Source\PSoC5/cyfitter_cfg.c ****     /* we will end up here to allow the customer to implement something to  */
 117:.\Generated_Source\PSoC5/cyfitter_cfg.c ****     /* deal with the clock condition.                                       */
 118:.\Generated_Source\PSoC5/cyfitter_cfg.c **** 
 119:.\Generated_Source\PSoC5/cyfitter_cfg.c ****     /* `#END` */
 120:.\Generated_Source\PSoC5/cyfitter_cfg.c **** 
 121:.\Generated_Source\PSoC5/cyfitter_cfg.c ****     /* If nothing else, stop here since the clocks have not started         */
 122:.\Generated_Source\PSoC5/cyfitter_cfg.c ****     /* correctly.                                                           */
 123:.\Generated_Source\PSoC5/cyfitter_cfg.c ****     while(1) {}
 151              		.loc 1 123 0 discriminator 1
 152 000a FEE7     		b	.L5
 153              		.cfi_endproc
 154              	.LFE3:
 155              		.size	CyClockStartupError, .-CyClockStartupError
 156              		.section	.text.cfg_write_bytes32,"ax",%progbits
 157              		.align	2
 158              		.thumb
 159              		.thumb_func
 160              		.type	cfg_write_bytes32, %function
 161              	cfg_write_bytes32:
 162              	.LFB4:
ARM GAS  C:\Users\glenn\AppData\Local\Temp\cc58Te5j.s 			page 6


 124:.\Generated_Source\PSoC5/cyfitter_cfg.c **** }
 125:.\Generated_Source\PSoC5/cyfitter_cfg.c **** #endif
 126:.\Generated_Source\PSoC5/cyfitter_cfg.c **** 
 127:.\Generated_Source\PSoC5/cyfitter_cfg.c **** #define CY_CFG_BASE_ADDR_COUNT 39u
 128:.\Generated_Source\PSoC5/cyfitter_cfg.c **** CYPACKED typedef struct
 129:.\Generated_Source\PSoC5/cyfitter_cfg.c **** {
 130:.\Generated_Source\PSoC5/cyfitter_cfg.c **** 	uint8 offset;
 131:.\Generated_Source\PSoC5/cyfitter_cfg.c **** 	uint8 value;
 132:.\Generated_Source\PSoC5/cyfitter_cfg.c **** } CYPACKED_ATTR cy_cfg_addrvalue_t;
 133:.\Generated_Source\PSoC5/cyfitter_cfg.c **** 
 134:.\Generated_Source\PSoC5/cyfitter_cfg.c **** 
 135:.\Generated_Source\PSoC5/cyfitter_cfg.c **** 
 136:.\Generated_Source\PSoC5/cyfitter_cfg.c **** /*******************************************************************************
 137:.\Generated_Source\PSoC5/cyfitter_cfg.c **** * Function Name: cfg_write_bytes32
 138:.\Generated_Source\PSoC5/cyfitter_cfg.c **** ********************************************************************************
 139:.\Generated_Source\PSoC5/cyfitter_cfg.c **** * Summary:
 140:.\Generated_Source\PSoC5/cyfitter_cfg.c **** *  This function is used for setting up the chip configuration areas that
 141:.\Generated_Source\PSoC5/cyfitter_cfg.c **** *  contain relatively sparse data.
 142:.\Generated_Source\PSoC5/cyfitter_cfg.c **** *
 143:.\Generated_Source\PSoC5/cyfitter_cfg.c **** * Parameters:
 144:.\Generated_Source\PSoC5/cyfitter_cfg.c **** *   void
 145:.\Generated_Source\PSoC5/cyfitter_cfg.c **** *
 146:.\Generated_Source\PSoC5/cyfitter_cfg.c **** * Return:
 147:.\Generated_Source\PSoC5/cyfitter_cfg.c **** *   void
 148:.\Generated_Source\PSoC5/cyfitter_cfg.c **** *
 149:.\Generated_Source\PSoC5/cyfitter_cfg.c **** *******************************************************************************/
 150:.\Generated_Source\PSoC5/cyfitter_cfg.c **** static void cfg_write_bytes32(const uint32 addr_table[], const cy_cfg_addrvalue_t data_table[]);
 151:.\Generated_Source\PSoC5/cyfitter_cfg.c **** static void cfg_write_bytes32(const uint32 addr_table[], const cy_cfg_addrvalue_t data_table[])
 152:.\Generated_Source\PSoC5/cyfitter_cfg.c **** {
 163              		.loc 1 152 0
 164              		.cfi_startproc
 165              		@ args = 0, pretend = 0, frame = 24
 166              		@ frame_needed = 1, uses_anonymous_args = 0
 167              		@ link register save eliminated.
 168 0000 80B4     		push	{r7}
 169              		.cfi_def_cfa_offset 4
 170              		.cfi_offset 7, -4
 171 0002 87B0     		sub	sp, sp, #28
 172              		.cfi_def_cfa_offset 32
 173 0004 00AF     		add	r7, sp, #0
 174              		.cfi_def_cfa_register 7
 175 0006 7860     		str	r0, [r7, #4]
 176 0008 3960     		str	r1, [r7]
 153:.\Generated_Source\PSoC5/cyfitter_cfg.c **** 	/* For 32-bit little-endian architectures */
 154:.\Generated_Source\PSoC5/cyfitter_cfg.c **** 	uint32 i, j = 0u;
 177              		.loc 1 154 0
 178 000a 0023     		movs	r3, #0
 179 000c 3B61     		str	r3, [r7, #16]
 155:.\Generated_Source\PSoC5/cyfitter_cfg.c **** 	for (i = 0u; i < CY_CFG_BASE_ADDR_COUNT; i++)
 180              		.loc 1 155 0
 181 000e 0023     		movs	r3, #0
 182 0010 7B61     		str	r3, [r7, #20]
 183 0012 27E0     		b	.L7
 184              	.L10:
 185              	.LBB2:
 156:.\Generated_Source\PSoC5/cyfitter_cfg.c **** 	{
 157:.\Generated_Source\PSoC5/cyfitter_cfg.c **** 		uint32 baseAddr = addr_table[i];
ARM GAS  C:\Users\glenn\AppData\Local\Temp\cc58Te5j.s 			page 7


 186              		.loc 1 157 0
 187 0014 7B69     		ldr	r3, [r7, #20]
 188 0016 9B00     		lsls	r3, r3, #2
 189 0018 7A68     		ldr	r2, [r7, #4]
 190 001a 1344     		add	r3, r3, r2
 191 001c 1B68     		ldr	r3, [r3]
 192 001e BB60     		str	r3, [r7, #8]
 158:.\Generated_Source\PSoC5/cyfitter_cfg.c **** 		uint8 count = (uint8)baseAddr;
 193              		.loc 1 158 0
 194 0020 BB68     		ldr	r3, [r7, #8]
 195 0022 FB73     		strb	r3, [r7, #15]
 159:.\Generated_Source\PSoC5/cyfitter_cfg.c **** 		baseAddr &= 0xFFFFFF00u;
 196              		.loc 1 159 0
 197 0024 BB68     		ldr	r3, [r7, #8]
 198 0026 23F0FF03 		bic	r3, r3, #255
 199 002a BB60     		str	r3, [r7, #8]
 160:.\Generated_Source\PSoC5/cyfitter_cfg.c **** 		while (count != 0u)
 200              		.loc 1 160 0
 201 002c 14E0     		b	.L8
 202              	.L9:
 161:.\Generated_Source\PSoC5/cyfitter_cfg.c **** 		{
 162:.\Generated_Source\PSoC5/cyfitter_cfg.c **** 			CY_SET_XTND_REG8((void CYFAR *)(baseAddr + data_table[j].offset), data_table[j].value);
 203              		.loc 1 162 0
 204 002e 3B69     		ldr	r3, [r7, #16]
 205 0030 5B00     		lsls	r3, r3, #1
 206 0032 3A68     		ldr	r2, [r7]
 207 0034 1344     		add	r3, r3, r2
 208 0036 1B78     		ldrb	r3, [r3]	@ zero_extendqisi2
 209 0038 1A46     		mov	r2, r3
 210 003a BB68     		ldr	r3, [r7, #8]
 211 003c 1344     		add	r3, r3, r2
 212 003e 1946     		mov	r1, r3
 213 0040 3B69     		ldr	r3, [r7, #16]
 214 0042 5B00     		lsls	r3, r3, #1
 215 0044 3A68     		ldr	r2, [r7]
 216 0046 1344     		add	r3, r3, r2
 217 0048 5B78     		ldrb	r3, [r3, #1]	@ zero_extendqisi2
 218 004a 0B70     		strb	r3, [r1]
 163:.\Generated_Source\PSoC5/cyfitter_cfg.c **** 			j++;
 219              		.loc 1 163 0
 220 004c 3B69     		ldr	r3, [r7, #16]
 221 004e 0133     		adds	r3, r3, #1
 222 0050 3B61     		str	r3, [r7, #16]
 164:.\Generated_Source\PSoC5/cyfitter_cfg.c **** 			count--;
 223              		.loc 1 164 0
 224 0052 FB7B     		ldrb	r3, [r7, #15]	@ zero_extendqisi2
 225 0054 013B     		subs	r3, r3, #1
 226 0056 FB73     		strb	r3, [r7, #15]
 227              	.L8:
 160:.\Generated_Source\PSoC5/cyfitter_cfg.c **** 		{
 228              		.loc 1 160 0
 229 0058 FB7B     		ldrb	r3, [r7, #15]	@ zero_extendqisi2
 230 005a 002B     		cmp	r3, #0
 231 005c E7D1     		bne	.L9
 232              	.LBE2:
 155:.\Generated_Source\PSoC5/cyfitter_cfg.c **** 	{
 233              		.loc 1 155 0 discriminator 2
ARM GAS  C:\Users\glenn\AppData\Local\Temp\cc58Te5j.s 			page 8


 234 005e 7B69     		ldr	r3, [r7, #20]
 235 0060 0133     		adds	r3, r3, #1
 236 0062 7B61     		str	r3, [r7, #20]
 237              	.L7:
 155:.\Generated_Source\PSoC5/cyfitter_cfg.c **** 	{
 238              		.loc 1 155 0 is_stmt 0 discriminator 1
 239 0064 7B69     		ldr	r3, [r7, #20]
 240 0066 262B     		cmp	r3, #38
 241 0068 D4D9     		bls	.L10
 165:.\Generated_Source\PSoC5/cyfitter_cfg.c **** 		}
 166:.\Generated_Source\PSoC5/cyfitter_cfg.c **** 	}
 167:.\Generated_Source\PSoC5/cyfitter_cfg.c **** }
 242              		.loc 1 167 0 is_stmt 1
 243 006a 1C37     		adds	r7, r7, #28
 244              		.cfi_def_cfa_offset 4
 245 006c BD46     		mov	sp, r7
 246              		.cfi_def_cfa_register 13
 247              		@ sp needed
 248 006e 5DF8047B 		ldr	r7, [sp], #4
 249              		.cfi_restore 7
 250              		.cfi_def_cfa_offset 0
 251 0072 7047     		bx	lr
 252              		.cfi_endproc
 253              	.LFE4:
 254              		.size	cfg_write_bytes32, .-cfg_write_bytes32
 255              		.section	.text.ClockSetup,"ax",%progbits
 256              		.align	2
 257              		.thumb
 258              		.thumb_func
 259              		.type	ClockSetup, %function
 260              	ClockSetup:
 261              	.LFB5:
 168:.\Generated_Source\PSoC5/cyfitter_cfg.c **** 
 169:.\Generated_Source\PSoC5/cyfitter_cfg.c **** /*******************************************************************************
 170:.\Generated_Source\PSoC5/cyfitter_cfg.c **** * Function Name: ClockSetup
 171:.\Generated_Source\PSoC5/cyfitter_cfg.c **** ********************************************************************************
 172:.\Generated_Source\PSoC5/cyfitter_cfg.c **** *
 173:.\Generated_Source\PSoC5/cyfitter_cfg.c **** * Summary:
 174:.\Generated_Source\PSoC5/cyfitter_cfg.c **** *  Performs the initialization of all of the clocks in the device based on the
 175:.\Generated_Source\PSoC5/cyfitter_cfg.c **** *  settings in the Clock tab of the DWR.  This includes enabling the requested
 176:.\Generated_Source\PSoC5/cyfitter_cfg.c **** *  clocks and setting the necessary dividers to produce the desired frequency. 
 177:.\Generated_Source\PSoC5/cyfitter_cfg.c **** *
 178:.\Generated_Source\PSoC5/cyfitter_cfg.c **** * Parameters:
 179:.\Generated_Source\PSoC5/cyfitter_cfg.c **** *  void
 180:.\Generated_Source\PSoC5/cyfitter_cfg.c **** *
 181:.\Generated_Source\PSoC5/cyfitter_cfg.c **** * Return:
 182:.\Generated_Source\PSoC5/cyfitter_cfg.c **** *  void
 183:.\Generated_Source\PSoC5/cyfitter_cfg.c **** *
 184:.\Generated_Source\PSoC5/cyfitter_cfg.c **** *******************************************************************************/
 185:.\Generated_Source\PSoC5/cyfitter_cfg.c **** static void ClockSetup(void);
 186:.\Generated_Source\PSoC5/cyfitter_cfg.c **** static void ClockSetup(void)
 187:.\Generated_Source\PSoC5/cyfitter_cfg.c **** {
 262              		.loc 1 187 0
 263              		.cfi_startproc
 264              		@ args = 0, pretend = 0, frame = 8
 265              		@ frame_needed = 1, uses_anonymous_args = 0
 266 0000 80B5     		push	{r7, lr}
ARM GAS  C:\Users\glenn\AppData\Local\Temp\cc58Te5j.s 			page 9


 267              		.cfi_def_cfa_offset 8
 268              		.cfi_offset 7, -8
 269              		.cfi_offset 14, -4
 270 0002 82B0     		sub	sp, sp, #8
 271              		.cfi_def_cfa_offset 16
 272 0004 00AF     		add	r7, sp, #0
 273              		.cfi_def_cfa_register 7
 188:.\Generated_Source\PSoC5/cyfitter_cfg.c **** 	/* CYDEV_CLKDIST_ACFG0_CFG0 Address: CYREG_CLKDIST_ACFG0_CFG0 Size (bytes): 4 */
 189:.\Generated_Source\PSoC5/cyfitter_cfg.c **** 	static const uint8 CYCODE BS_CYDEV_CLKDIST_ACFG0_CFG0_VAL[] = {
 190:.\Generated_Source\PSoC5/cyfitter_cfg.c **** 		0x14u, 0x00u, 0x18u, 0x01u};
 191:.\Generated_Source\PSoC5/cyfitter_cfg.c **** 
 192:.\Generated_Source\PSoC5/cyfitter_cfg.c **** 	uint8 x32TrHold;
 193:.\Generated_Source\PSoC5/cyfitter_cfg.c **** 	uint32 timeout;
 194:.\Generated_Source\PSoC5/cyfitter_cfg.c **** 	uint8 pllLock;
 195:.\Generated_Source\PSoC5/cyfitter_cfg.c **** 
 196:.\Generated_Source\PSoC5/cyfitter_cfg.c **** 	x32TrHold = CY_GET_XTND_REG8((void CYFAR *)CYREG_X32_TR);
 274              		.loc 1 196 0
 275 0006 634B     		ldr	r3, .L19
 276 0008 1B78     		ldrb	r3, [r3]
 277 000a BB70     		strb	r3, [r7, #2]
 197:.\Generated_Source\PSoC5/cyfitter_cfg.c **** 
 198:.\Generated_Source\PSoC5/cyfitter_cfg.c **** 	/* Configure Digital Clocks based on settings from Clock DWR */
 199:.\Generated_Source\PSoC5/cyfitter_cfg.c **** 	CY_SET_XTND_REG16((void CYFAR *)(CYREG_CLKDIST_DCFG0_CFG0), 0x0000u);
 278              		.loc 1 199 0
 279 000c 624B     		ldr	r3, .L19+4
 280 000e 0022     		movs	r2, #0
 281 0010 1A80     		strh	r2, [r3]	@ movhi
 200:.\Generated_Source\PSoC5/cyfitter_cfg.c **** 	CY_SET_XTND_REG8((void CYFAR *)(CYREG_CLKDIST_DCFG0_CFG0 + 0x2u), 0x50u);
 282              		.loc 1 200 0
 283 0012 624B     		ldr	r3, .L19+8
 284 0014 5022     		movs	r2, #80
 285 0016 1A70     		strb	r2, [r3]
 201:.\Generated_Source\PSoC5/cyfitter_cfg.c **** 	CY_SET_XTND_REG16((void CYFAR *)(CYREG_CLKDIST_DCFG1_CFG0), 0x0027u);
 286              		.loc 1 201 0
 287 0018 614B     		ldr	r3, .L19+12
 288 001a 2722     		movs	r2, #39
 289 001c 1A80     		strh	r2, [r3]	@ movhi
 202:.\Generated_Source\PSoC5/cyfitter_cfg.c **** 	CY_SET_XTND_REG8((void CYFAR *)(CYREG_CLKDIST_DCFG1_CFG0 + 0x2u), 0x18u);
 290              		.loc 1 202 0
 291 001e 614B     		ldr	r3, .L19+16
 292 0020 1822     		movs	r2, #24
 293 0022 1A70     		strb	r2, [r3]
 203:.\Generated_Source\PSoC5/cyfitter_cfg.c **** 	CY_SET_XTND_REG16((void CYFAR *)(CYREG_CLKDIST_DCFG2_CFG0), 0x004Du);
 294              		.loc 1 203 0
 295 0024 604B     		ldr	r3, .L19+20
 296 0026 4D22     		movs	r2, #77
 297 0028 1A80     		strh	r2, [r3]	@ movhi
 204:.\Generated_Source\PSoC5/cyfitter_cfg.c **** 	CY_SET_XTND_REG8((void CYFAR *)(CYREG_CLKDIST_DCFG2_CFG0 + 0x2u), 0x19u);
 298              		.loc 1 204 0
 299 002a 604B     		ldr	r3, .L19+24
 300 002c 1922     		movs	r2, #25
 301 002e 1A70     		strb	r2, [r3]
 205:.\Generated_Source\PSoC5/cyfitter_cfg.c **** 	CY_SET_XTND_REG16((void CYFAR *)(CYREG_CLKDIST_DCFG3_CFG0), 0x2EDFu);
 302              		.loc 1 205 0
 303 0030 5F4B     		ldr	r3, .L19+28
 304 0032 42F6DF62 		movw	r2, #11999
 305 0036 1A80     		strh	r2, [r3]	@ movhi
ARM GAS  C:\Users\glenn\AppData\Local\Temp\cc58Te5j.s 			page 10


 206:.\Generated_Source\PSoC5/cyfitter_cfg.c **** 	CY_SET_XTND_REG8((void CYFAR *)(CYREG_CLKDIST_DCFG3_CFG0 + 0x2u), 0x19u);
 306              		.loc 1 206 0
 307 0038 5E4B     		ldr	r3, .L19+32
 308 003a 1922     		movs	r2, #25
 309 003c 1A70     		strb	r2, [r3]
 207:.\Generated_Source\PSoC5/cyfitter_cfg.c **** 	CY_SET_XTND_REG16((void CYFAR *)(CYREG_CLKDIST_DCFG4_CFG0), 0x5DBFu);
 310              		.loc 1 207 0
 311 003e 5E4B     		ldr	r3, .L19+36
 312 0040 45F6BF52 		movw	r2, #23999
 313 0044 1A80     		strh	r2, [r3]	@ movhi
 208:.\Generated_Source\PSoC5/cyfitter_cfg.c **** 	CY_SET_XTND_REG8((void CYFAR *)(CYREG_CLKDIST_DCFG4_CFG0 + 0x2u), 0x19u);
 314              		.loc 1 208 0
 315 0046 5D4B     		ldr	r3, .L19+40
 316 0048 1922     		movs	r2, #25
 317 004a 1A70     		strb	r2, [r3]
 209:.\Generated_Source\PSoC5/cyfitter_cfg.c **** 	CY_SET_XTND_REG16((void CYFAR *)(CYREG_CLKDIST_DCFG5_CFG0), 0x0110u);
 318              		.loc 1 209 0
 319 004c 5C4B     		ldr	r3, .L19+44
 320 004e 4FF48872 		mov	r2, #272
 321 0052 1A80     		strh	r2, [r3]	@ movhi
 210:.\Generated_Source\PSoC5/cyfitter_cfg.c **** 	CY_SET_XTND_REG8((void CYFAR *)(CYREG_CLKDIST_DCFG5_CFG0 + 0x2u), 0x1Du);
 322              		.loc 1 210 0
 323 0054 5B4B     		ldr	r3, .L19+48
 324 0056 1D22     		movs	r2, #29
 325 0058 1A70     		strb	r2, [r3]
 211:.\Generated_Source\PSoC5/cyfitter_cfg.c **** 	CY_SET_XTND_REG16((void CYFAR *)(CYREG_CLKDIST_DCFG6_CFG0), 0x028Eu);
 326              		.loc 1 211 0
 327 005a 5B4B     		ldr	r3, .L19+52
 328 005c 40F28E22 		movw	r2, #654
 329 0060 1A80     		strh	r2, [r3]	@ movhi
 212:.\Generated_Source\PSoC5/cyfitter_cfg.c **** 	CY_SET_XTND_REG8((void CYFAR *)(CYREG_CLKDIST_DCFG6_CFG0 + 0x2u), 0x1Du);
 330              		.loc 1 212 0
 331 0062 5A4B     		ldr	r3, .L19+56
 332 0064 1D22     		movs	r2, #29
 333 0066 1A70     		strb	r2, [r3]
 213:.\Generated_Source\PSoC5/cyfitter_cfg.c **** 
 214:.\Generated_Source\PSoC5/cyfitter_cfg.c **** 	/* Configure Analog Clocks based on settings from Clock DWR */
 215:.\Generated_Source\PSoC5/cyfitter_cfg.c **** 	CYCONFIGCPYCODE((void CYFAR *)(CYREG_CLKDIST_ACFG0_CFG0), (const void CYCODE *)(BS_CYDEV_CLKDIST_A
 334              		.loc 1 215 0
 335 0068 5948     		ldr	r0, .L19+60
 336 006a 5A49     		ldr	r1, .L19+64
 337 006c 0422     		movs	r2, #4
 338 006e FFF7FEFF 		bl	CYCONFIGCPYCODE
 216:.\Generated_Source\PSoC5/cyfitter_cfg.c **** 
 217:.\Generated_Source\PSoC5/cyfitter_cfg.c **** 	/* Configure ILO based on settings from Clock DWR */
 218:.\Generated_Source\PSoC5/cyfitter_cfg.c **** 	CY_SET_XTND_REG8((void CYFAR *)(CYREG_SLOWCLK_ILO_CR0), 0x06u);
 339              		.loc 1 218 0
 340 0072 594B     		ldr	r3, .L19+68
 341 0074 0622     		movs	r2, #6
 342 0076 1A70     		strb	r2, [r3]
 219:.\Generated_Source\PSoC5/cyfitter_cfg.c **** 
 220:.\Generated_Source\PSoC5/cyfitter_cfg.c **** 	/* Configure XTAL 32kHz based on settings from Clock DWR */
 221:.\Generated_Source\PSoC5/cyfitter_cfg.c **** 	CY_SET_XTND_REG8((void CYFAR *)(CYREG_SLOWCLK_X32_TST), 0xF3u);
 343              		.loc 1 221 0
 344 0078 584B     		ldr	r3, .L19+72
 345 007a F322     		movs	r2, #243
 346 007c 1A70     		strb	r2, [r3]
ARM GAS  C:\Users\glenn\AppData\Local\Temp\cc58Te5j.s 			page 11


 222:.\Generated_Source\PSoC5/cyfitter_cfg.c **** 	CY_SET_XTND_REG8((void CYFAR *)(CYREG_X32_TR), 0x03u);
 347              		.loc 1 222 0
 348 007e 454B     		ldr	r3, .L19
 349 0080 0322     		movs	r2, #3
 350 0082 1A70     		strb	r2, [r3]
 223:.\Generated_Source\PSoC5/cyfitter_cfg.c **** 	CY_SET_XTND_REG8((void CYFAR *)(CYREG_SLOWCLK_X32_CFG), 0x84u);
 351              		.loc 1 223 0
 352 0084 564B     		ldr	r3, .L19+76
 353 0086 8422     		movs	r2, #132
 354 0088 1A70     		strb	r2, [r3]
 224:.\Generated_Source\PSoC5/cyfitter_cfg.c **** 	CY_SET_XTND_REG8((void CYFAR *)(CYREG_SLOWCLK_X32_CR), 0x05u);
 355              		.loc 1 224 0
 356 008a 564B     		ldr	r3, .L19+80
 357 008c 0522     		movs	r2, #5
 358 008e 1A70     		strb	r2, [r3]
 225:.\Generated_Source\PSoC5/cyfitter_cfg.c **** 	/* Wait up to 1000000us for the XTAL 32kHz to lock */
 226:.\Generated_Source\PSoC5/cyfitter_cfg.c **** 	for (timeout = 1000000u / 10u; (timeout > 0u) && ((CY_GET_XTND_REG8((void CYFAR *)CYREG_SLOWCLK_X3
 359              		.loc 1 226 0
 360 0090 554B     		ldr	r3, .L19+84
 361 0092 7B60     		str	r3, [r7, #4]
 362 0094 06E0     		b	.L12
 363              	.L14:
 227:.\Generated_Source\PSoC5/cyfitter_cfg.c **** 	{ 
 228:.\Generated_Source\PSoC5/cyfitter_cfg.c **** 		
 229:.\Generated_Source\PSoC5/cyfitter_cfg.c **** 		CyDelayCycles(10u * 48u); /* Delay 10us based on 48MHz clock */
 364              		.loc 1 229 0 discriminator 4
 365 0096 4FF4F070 		mov	r0, #480
 366 009a FFF7FEFF 		bl	CyDelayCycles
 226:.\Generated_Source\PSoC5/cyfitter_cfg.c **** 	{ 
 367              		.loc 1 226 0 discriminator 4
 368 009e 7B68     		ldr	r3, [r7, #4]
 369 00a0 013B     		subs	r3, r3, #1
 370 00a2 7B60     		str	r3, [r7, #4]
 371              	.L12:
 226:.\Generated_Source\PSoC5/cyfitter_cfg.c **** 	{ 
 372              		.loc 1 226 0 is_stmt 0 discriminator 1
 373 00a4 7B68     		ldr	r3, [r7, #4]
 374 00a6 002B     		cmp	r3, #0
 375 00a8 06D0     		beq	.L13
 226:.\Generated_Source\PSoC5/cyfitter_cfg.c **** 	{ 
 376              		.loc 1 226 0 discriminator 3
 377 00aa 4E4B     		ldr	r3, .L19+80
 378 00ac 1B78     		ldrb	r3, [r3]
 379 00ae DBB2     		uxtb	r3, r3
 380 00b0 03F02003 		and	r3, r3, #32
 381 00b4 002B     		cmp	r3, #0
 382 00b6 EED0     		beq	.L14
 383              	.L13:
 230:.\Generated_Source\PSoC5/cyfitter_cfg.c **** 	}
 231:.\Generated_Source\PSoC5/cyfitter_cfg.c **** 	CY_SET_XTND_REG8((void CYFAR *)(CYREG_X32_TR), (x32TrHold));
 384              		.loc 1 231 0 is_stmt 1
 385 00b8 364A     		ldr	r2, .L19
 386 00ba BB78     		ldrb	r3, [r7, #2]
 387 00bc 1370     		strb	r3, [r2]
 232:.\Generated_Source\PSoC5/cyfitter_cfg.c **** 
 233:.\Generated_Source\PSoC5/cyfitter_cfg.c **** 	/* Configure IMO based on settings from Clock DWR */
 234:.\Generated_Source\PSoC5/cyfitter_cfg.c **** 	CY_SET_XTND_REG8((void CYFAR *)(CYREG_FASTCLK_IMO_CR), 0x52u);
ARM GAS  C:\Users\glenn\AppData\Local\Temp\cc58Te5j.s 			page 12


 388              		.loc 1 234 0
 389 00be 4B4B     		ldr	r3, .L19+88
 390 00c0 5222     		movs	r2, #82
 391 00c2 1A70     		strb	r2, [r3]
 235:.\Generated_Source\PSoC5/cyfitter_cfg.c **** 	CY_SET_XTND_REG8((void CYFAR *)(CYREG_IMO_TR1), (CY_GET_XTND_REG8((void CYFAR *)CYREG_FLSHID_CUST_
 392              		.loc 1 235 0
 393 00c4 4A4B     		ldr	r3, .L19+92
 394 00c6 4B4A     		ldr	r2, .L19+96
 395 00c8 1278     		ldrb	r2, [r2]
 396 00ca D2B2     		uxtb	r2, r2
 397 00cc 1A70     		strb	r2, [r3]
 236:.\Generated_Source\PSoC5/cyfitter_cfg.c **** 
 237:.\Generated_Source\PSoC5/cyfitter_cfg.c **** 	/* Configure PLL based on settings from Clock DWR */
 238:.\Generated_Source\PSoC5/cyfitter_cfg.c **** 	CY_SET_XTND_REG16((void CYFAR *)(CYREG_FASTCLK_PLL_P), 0x0818u);
 398              		.loc 1 238 0
 399 00ce 4A4B     		ldr	r3, .L19+100
 400 00d0 40F61802 		movw	r2, #2072
 401 00d4 1A80     		strh	r2, [r3]	@ movhi
 239:.\Generated_Source\PSoC5/cyfitter_cfg.c **** 	CY_SET_XTND_REG16((void CYFAR *)(CYREG_FASTCLK_PLL_CFG0), 0x1251u);
 402              		.loc 1 239 0
 403 00d6 494B     		ldr	r3, .L19+104
 404 00d8 41F25122 		movw	r2, #4689
 405 00dc 1A80     		strh	r2, [r3]	@ movhi
 240:.\Generated_Source\PSoC5/cyfitter_cfg.c **** 	/* Wait up to 250us for the PLL to lock */
 241:.\Generated_Source\PSoC5/cyfitter_cfg.c **** 	pllLock = 0u;
 406              		.loc 1 241 0
 407 00de 0023     		movs	r3, #0
 408 00e0 FB70     		strb	r3, [r7, #3]
 242:.\Generated_Source\PSoC5/cyfitter_cfg.c **** 	for (timeout = 250u / 10u; (timeout > 0u) && (pllLock != 0x03u); timeout--)
 409              		.loc 1 242 0
 410 00e2 1923     		movs	r3, #25
 411 00e4 7B60     		str	r3, [r7, #4]
 412 00e6 14E0     		b	.L15
 413              	.L17:
 243:.\Generated_Source\PSoC5/cyfitter_cfg.c **** 	{ 
 244:.\Generated_Source\PSoC5/cyfitter_cfg.c **** 		pllLock = 0x03u & ((uint8)((uint8)pllLock << 1) | ((CY_GET_XTND_REG8((void CYFAR *)CYREG_FASTCLK_
 414              		.loc 1 244 0 discriminator 4
 415 00e8 FB78     		ldrb	r3, [r7, #3]
 416 00ea 5B00     		lsls	r3, r3, #1
 417 00ec DAB2     		uxtb	r2, r3
 418 00ee 444B     		ldr	r3, .L19+108
 419 00f0 1B78     		ldrb	r3, [r3]
 420 00f2 DBB2     		uxtb	r3, r3
 421 00f4 03F00103 		and	r3, r3, #1
 422 00f8 DBB2     		uxtb	r3, r3
 423 00fa 1343     		orrs	r3, r3, r2
 424 00fc DBB2     		uxtb	r3, r3
 425 00fe 03F00303 		and	r3, r3, #3
 426 0102 FB70     		strb	r3, [r7, #3]
 245:.\Generated_Source\PSoC5/cyfitter_cfg.c **** 		CyDelayCycles(10u * 48u); /* Delay 10us based on 48MHz clock */
 427              		.loc 1 245 0 discriminator 4
 428 0104 4FF4F070 		mov	r0, #480
 429 0108 FFF7FEFF 		bl	CyDelayCycles
 242:.\Generated_Source\PSoC5/cyfitter_cfg.c **** 	for (timeout = 250u / 10u; (timeout > 0u) && (pllLock != 0x03u); timeout--)
 430              		.loc 1 242 0 discriminator 4
 431 010c 7B68     		ldr	r3, [r7, #4]
 432 010e 013B     		subs	r3, r3, #1
ARM GAS  C:\Users\glenn\AppData\Local\Temp\cc58Te5j.s 			page 13


 433 0110 7B60     		str	r3, [r7, #4]
 434              	.L15:
 242:.\Generated_Source\PSoC5/cyfitter_cfg.c **** 	for (timeout = 250u / 10u; (timeout > 0u) && (pllLock != 0x03u); timeout--)
 435              		.loc 1 242 0 is_stmt 0 discriminator 1
 436 0112 7B68     		ldr	r3, [r7, #4]
 437 0114 002B     		cmp	r3, #0
 438 0116 02D0     		beq	.L16
 242:.\Generated_Source\PSoC5/cyfitter_cfg.c **** 	for (timeout = 250u / 10u; (timeout > 0u) && (pllLock != 0x03u); timeout--)
 439              		.loc 1 242 0 discriminator 3
 440 0118 FB78     		ldrb	r3, [r7, #3]	@ zero_extendqisi2
 441 011a 032B     		cmp	r3, #3
 442 011c E4D1     		bne	.L17
 443              	.L16:
 246:.\Generated_Source\PSoC5/cyfitter_cfg.c **** 	}
 247:.\Generated_Source\PSoC5/cyfitter_cfg.c **** 	/* If we ran out of time the PLL didn't lock so go to the error function */
 248:.\Generated_Source\PSoC5/cyfitter_cfg.c **** 	if (timeout == 0u)
 444              		.loc 1 248 0 is_stmt 1
 445 011e 7B68     		ldr	r3, [r7, #4]
 446 0120 002B     		cmp	r3, #0
 447 0122 02D1     		bne	.L18
 249:.\Generated_Source\PSoC5/cyfitter_cfg.c **** 	{
 250:.\Generated_Source\PSoC5/cyfitter_cfg.c **** 		CyClockStartupError(CYCLOCKSTART_PLL_ERROR);
 448              		.loc 1 250 0
 449 0124 0320     		movs	r0, #3
 450 0126 FFF7FEFF 		bl	CyClockStartupError
 451              	.L18:
 251:.\Generated_Source\PSoC5/cyfitter_cfg.c **** 	}
 252:.\Generated_Source\PSoC5/cyfitter_cfg.c **** 
 253:.\Generated_Source\PSoC5/cyfitter_cfg.c **** 	/* Configure Bus/Master Clock based on settings from Clock DWR */
 254:.\Generated_Source\PSoC5/cyfitter_cfg.c **** 	CY_SET_XTND_REG16((void CYFAR *)(CYREG_CLKDIST_MSTR0), 0x0100u);
 452              		.loc 1 254 0
 453 012a 364B     		ldr	r3, .L19+112
 454 012c 4FF48072 		mov	r2, #256
 455 0130 1A80     		strh	r2, [r3]	@ movhi
 255:.\Generated_Source\PSoC5/cyfitter_cfg.c **** 	CY_SET_XTND_REG8((void CYFAR *)(CYREG_CLKDIST_MSTR0), 0x07u);
 456              		.loc 1 255 0
 457 0132 344B     		ldr	r3, .L19+112
 458 0134 0722     		movs	r2, #7
 459 0136 1A70     		strb	r2, [r3]
 256:.\Generated_Source\PSoC5/cyfitter_cfg.c **** 	CY_SET_XTND_REG8((void CYFAR *)(CYREG_CLKDIST_BCFG0), 0x00u);
 460              		.loc 1 256 0
 461 0138 334B     		ldr	r3, .L19+116
 462 013a 0022     		movs	r2, #0
 463 013c 1A70     		strb	r2, [r3]
 257:.\Generated_Source\PSoC5/cyfitter_cfg.c **** 	CY_SET_XTND_REG8((void CYFAR *)(CYREG_CLKDIST_BCFG2), 0x48u);
 464              		.loc 1 257 0
 465 013e 334B     		ldr	r3, .L19+120
 466 0140 4822     		movs	r2, #72
 467 0142 1A70     		strb	r2, [r3]
 258:.\Generated_Source\PSoC5/cyfitter_cfg.c **** 	CY_SET_XTND_REG8((void CYFAR *)(CYREG_CLKDIST_MSTR0), 0x00u);
 468              		.loc 1 258 0
 469 0144 2F4B     		ldr	r3, .L19+112
 470 0146 0022     		movs	r2, #0
 471 0148 1A70     		strb	r2, [r3]
 259:.\Generated_Source\PSoC5/cyfitter_cfg.c **** 
 260:.\Generated_Source\PSoC5/cyfitter_cfg.c **** 	/* Configure USB Clock based on settings from Clock DWR */
 261:.\Generated_Source\PSoC5/cyfitter_cfg.c **** 	CY_SET_XTND_REG8((void CYFAR *)(CYREG_CLKDIST_UCFG), 0x00u);
ARM GAS  C:\Users\glenn\AppData\Local\Temp\cc58Te5j.s 			page 14


 472              		.loc 1 261 0
 473 014a 314B     		ldr	r3, .L19+124
 474 014c 0022     		movs	r2, #0
 475 014e 1A70     		strb	r2, [r3]
 262:.\Generated_Source\PSoC5/cyfitter_cfg.c **** 	CY_SET_XTND_REG8((void CYFAR *)(CYREG_CLKDIST_LD), 0x02u);
 476              		.loc 1 262 0
 477 0150 304B     		ldr	r3, .L19+128
 478 0152 0222     		movs	r2, #2
 479 0154 1A70     		strb	r2, [r3]
 263:.\Generated_Source\PSoC5/cyfitter_cfg.c **** 	CY_SET_XTND_REG8((void CYFAR *)(CYREG_CLKDIST_DLY1), 0x04u);
 480              		.loc 1 263 0
 481 0156 304B     		ldr	r3, .L19+132
 482 0158 0422     		movs	r2, #4
 483 015a 1A70     		strb	r2, [r3]
 264:.\Generated_Source\PSoC5/cyfitter_cfg.c **** 
 265:.\Generated_Source\PSoC5/cyfitter_cfg.c **** 	CY_SET_XTND_REG8((void CYFAR *)(CYREG_PM_ACT_CFG2), ((CY_GET_XTND_REG8((void CYFAR *)CYREG_PM_ACT_
 484              		.loc 1 265 0
 485 015c 2F4A     		ldr	r2, .L19+136
 486 015e 2F4B     		ldr	r3, .L19+136
 487 0160 1B78     		ldrb	r3, [r3]
 488 0162 DBB2     		uxtb	r3, r3
 489 0164 43F07F03 		orr	r3, r3, #127
 490 0168 DBB2     		uxtb	r3, r3
 491 016a 1370     		strb	r3, [r2]
 266:.\Generated_Source\PSoC5/cyfitter_cfg.c **** 	CY_SET_XTND_REG8((void CYFAR *)(CYREG_PM_ACT_CFG1), ((CY_GET_XTND_REG8((void CYFAR *)CYREG_PM_ACT_
 492              		.loc 1 266 0
 493 016c 2C4A     		ldr	r2, .L19+140
 494 016e 2C4B     		ldr	r3, .L19+140
 495 0170 1B78     		ldrb	r3, [r3]
 496 0172 DBB2     		uxtb	r3, r3
 497 0174 43F00103 		orr	r3, r3, #1
 498 0178 DBB2     		uxtb	r3, r3
 499 017a 1370     		strb	r3, [r2]
 267:.\Generated_Source\PSoC5/cyfitter_cfg.c **** 	CY_SET_XTND_REG8((void CYFAR *)(CYREG_PM_ACT_CFG0), ((CY_GET_XTND_REG8((void CYFAR *)CYREG_PM_ACT_
 500              		.loc 1 267 0
 501 017c 294A     		ldr	r2, .L19+144
 502 017e 294B     		ldr	r3, .L19+144
 503 0180 1B78     		ldrb	r3, [r3]
 504 0182 DBB2     		uxtb	r3, r3
 505 0184 63F07F03 		orn	r3, r3, #127
 506 0188 DBB2     		uxtb	r3, r3
 507 018a 1370     		strb	r3, [r2]
 268:.\Generated_Source\PSoC5/cyfitter_cfg.c **** }
 508              		.loc 1 268 0
 509 018c 0837     		adds	r7, r7, #8
 510              		.cfi_def_cfa_offset 8
 511 018e BD46     		mov	sp, r7
 512              		.cfi_def_cfa_register 13
 513              		@ sp needed
 514 0190 80BD     		pop	{r7, pc}
 515              	.L20:
 516 0192 00BF     		.align	2
 517              	.L19:
 518 0194 98460040 		.word	1073759896
 519 0198 80400040 		.word	1073758336
 520 019c 82400040 		.word	1073758338
 521 01a0 84400040 		.word	1073758340
ARM GAS  C:\Users\glenn\AppData\Local\Temp\cc58Te5j.s 			page 15


 522 01a4 86400040 		.word	1073758342
 523 01a8 88400040 		.word	1073758344
 524 01ac 8A400040 		.word	1073758346
 525 01b0 8C400040 		.word	1073758348
 526 01b4 8E400040 		.word	1073758350
 527 01b8 90400040 		.word	1073758352
 528 01bc 92400040 		.word	1073758354
 529 01c0 94400040 		.word	1073758356
 530 01c4 96400040 		.word	1073758358
 531 01c8 98400040 		.word	1073758360
 532 01cc 9A400040 		.word	1073758362
 533 01d0 00410040 		.word	1073758464
 534 01d4 7C000000 		.word	BS_CYDEV_CLKDIST_ACFG0_CFG0_VAL.4874
 535 01d8 00430040 		.word	1073758976
 536 01dc 0A430040 		.word	1073758986
 537 01e0 09430040 		.word	1073758985
 538 01e4 08430040 		.word	1073758984
 539 01e8 A0860100 		.word	100000
 540 01ec 00420040 		.word	1073758720
 541 01f0 A1460040 		.word	1073759905
 542 01f4 0F010049 		.word	1224737039
 543 01f8 22420040 		.word	1073758754
 544 01fc 20420040 		.word	1073758752
 545 0200 25420040 		.word	1073758757
 546 0204 04400040 		.word	1073758212
 547 0208 06400040 		.word	1073758214
 548 020c 08400040 		.word	1073758216
 549 0210 09400040 		.word	1073758217
 550 0214 01400040 		.word	1073758209
 551 0218 0B400040 		.word	1073758219
 552 021c A2430040 		.word	1073759138
 553 0220 A1430040 		.word	1073759137
 554 0224 A0430040 		.word	1073759136
 555              		.cfi_endproc
 556              	.LFE5:
 557              		.size	ClockSetup, .-ClockSetup
 558              		.section	.text.AnalogSetDefault,"ax",%progbits
 559              		.align	2
 560              		.thumb
 561              		.thumb_func
 562              		.type	AnalogSetDefault, %function
 563              	AnalogSetDefault:
 564              	.LFB6:
 269:.\Generated_Source\PSoC5/cyfitter_cfg.c **** 
 270:.\Generated_Source\PSoC5/cyfitter_cfg.c **** 
 271:.\Generated_Source\PSoC5/cyfitter_cfg.c **** /* Analog API Functions */
 272:.\Generated_Source\PSoC5/cyfitter_cfg.c **** 
 273:.\Generated_Source\PSoC5/cyfitter_cfg.c **** 
 274:.\Generated_Source\PSoC5/cyfitter_cfg.c **** /*******************************************************************************
 275:.\Generated_Source\PSoC5/cyfitter_cfg.c **** * Function Name: AnalogSetDefault
 276:.\Generated_Source\PSoC5/cyfitter_cfg.c **** ********************************************************************************
 277:.\Generated_Source\PSoC5/cyfitter_cfg.c **** *
 278:.\Generated_Source\PSoC5/cyfitter_cfg.c **** * Summary:
 279:.\Generated_Source\PSoC5/cyfitter_cfg.c **** *  Sets up the analog portions of the chip to default values based on chip
 280:.\Generated_Source\PSoC5/cyfitter_cfg.c **** *  configuration options from the project.
 281:.\Generated_Source\PSoC5/cyfitter_cfg.c **** *
 282:.\Generated_Source\PSoC5/cyfitter_cfg.c **** * Parameters:
ARM GAS  C:\Users\glenn\AppData\Local\Temp\cc58Te5j.s 			page 16


 283:.\Generated_Source\PSoC5/cyfitter_cfg.c **** *  void
 284:.\Generated_Source\PSoC5/cyfitter_cfg.c **** *
 285:.\Generated_Source\PSoC5/cyfitter_cfg.c **** * Return:
 286:.\Generated_Source\PSoC5/cyfitter_cfg.c **** *  void
 287:.\Generated_Source\PSoC5/cyfitter_cfg.c **** *
 288:.\Generated_Source\PSoC5/cyfitter_cfg.c **** *******************************************************************************/
 289:.\Generated_Source\PSoC5/cyfitter_cfg.c **** static void AnalogSetDefault(void);
 290:.\Generated_Source\PSoC5/cyfitter_cfg.c **** static void AnalogSetDefault(void)
 291:.\Generated_Source\PSoC5/cyfitter_cfg.c **** {
 565              		.loc 1 291 0
 566              		.cfi_startproc
 567              		@ args = 0, pretend = 0, frame = 8
 568              		@ frame_needed = 1, uses_anonymous_args = 0
 569 0000 80B5     		push	{r7, lr}
 570              		.cfi_def_cfa_offset 8
 571              		.cfi_offset 7, -8
 572              		.cfi_offset 14, -4
 573 0002 82B0     		sub	sp, sp, #8
 574              		.cfi_def_cfa_offset 16
 575 0004 00AF     		add	r7, sp, #0
 576              		.cfi_def_cfa_register 7
 292:.\Generated_Source\PSoC5/cyfitter_cfg.c **** 	uint8 bg_xover_inl_trim = CY_GET_XTND_REG8((void CYFAR *)(CYREG_FLSHID_MFG_CFG_BG_XOVER_INL_TRIM +
 577              		.loc 1 292 0
 578 0006 224B     		ldr	r3, .L22
 579 0008 1B78     		ldrb	r3, [r3]
 580 000a FB71     		strb	r3, [r7, #7]
 293:.\Generated_Source\PSoC5/cyfitter_cfg.c **** 	uint8 cr4 = CY_GET_XTND_REG8((void CYFAR *)(CYREG_RESET_CR4));
 581              		.loc 1 293 0
 582 000c 214B     		ldr	r3, .L22+4
 583 000e 1B78     		ldrb	r3, [r3]
 584 0010 BB71     		strb	r3, [r7, #6]
 294:.\Generated_Source\PSoC5/cyfitter_cfg.c **** 	uint8 cr5 = CY_GET_XTND_REG8((void CYFAR *)(CYREG_RESET_CR5));
 585              		.loc 1 294 0
 586 0012 214B     		ldr	r3, .L22+8
 587 0014 1B78     		ldrb	r3, [r3]
 588 0016 7B71     		strb	r3, [r7, #5]
 295:.\Generated_Source\PSoC5/cyfitter_cfg.c **** 	CY_SET_XTND_REG8((void CYFAR *)(CYREG_BG_DFT0), (bg_xover_inl_trim & 0x07u));
 589              		.loc 1 295 0
 590 0018 204A     		ldr	r2, .L22+12
 591 001a FB79     		ldrb	r3, [r7, #7]
 592 001c 03F00703 		and	r3, r3, #7
 593 0020 DBB2     		uxtb	r3, r3
 594 0022 1370     		strb	r3, [r2]
 296:.\Generated_Source\PSoC5/cyfitter_cfg.c **** 	CY_SET_XTND_REG8((void CYFAR *)(CYREG_BG_DFT1), ((bg_xover_inl_trim >> 4) & 0x0Fu));
 595              		.loc 1 296 0
 596 0024 1E4A     		ldr	r2, .L22+16
 597 0026 FB79     		ldrb	r3, [r7, #7]	@ zero_extendqisi2
 598 0028 1B09     		lsrs	r3, r3, #4
 599 002a DBB2     		uxtb	r3, r3
 600 002c 1370     		strb	r3, [r2]
 297:.\Generated_Source\PSoC5/cyfitter_cfg.c **** 	/* Disable PRES while setting up SAR voltage reference */
 298:.\Generated_Source\PSoC5/cyfitter_cfg.c **** 	CY_SET_XTND_REG8((void CYFAR *)(CYREG_RESET_CR4), (cr4 | 0x03u));
 601              		.loc 1 298 0
 602 002e 194A     		ldr	r2, .L22+4
 603 0030 BB79     		ldrb	r3, [r7, #6]
 604 0032 43F00303 		orr	r3, r3, #3
 605 0036 DBB2     		uxtb	r3, r3
ARM GAS  C:\Users\glenn\AppData\Local\Temp\cc58Te5j.s 			page 17


 606 0038 1370     		strb	r3, [r2]
 299:.\Generated_Source\PSoC5/cyfitter_cfg.c **** 	CY_SET_XTND_REG8((void CYFAR *)(CYREG_RESET_CR5), (cr5 | 0x03u));
 607              		.loc 1 299 0
 608 003a 174A     		ldr	r2, .L22+8
 609 003c 7B79     		ldrb	r3, [r7, #5]
 610 003e 43F00303 		orr	r3, r3, #3
 611 0042 DBB2     		uxtb	r3, r3
 612 0044 1370     		strb	r3, [r2]
 300:.\Generated_Source\PSoC5/cyfitter_cfg.c **** 	CY_SET_XTND_REG8((void CYFAR *)CYREG_PRT0_AMUX, 0x80u);
 613              		.loc 1 300 0
 614 0046 174B     		ldr	r3, .L22+20
 615 0048 8022     		movs	r2, #128
 616 004a 1A70     		strb	r2, [r3]
 301:.\Generated_Source\PSoC5/cyfitter_cfg.c **** 	CY_SET_XTND_REG8((void CYFAR *)CYREG_SAR0_CSR1, 0x40u);
 617              		.loc 1 301 0
 618 004c 164B     		ldr	r3, .L22+24
 619 004e 4022     		movs	r2, #64
 620 0050 1A70     		strb	r2, [r3]
 302:.\Generated_Source\PSoC5/cyfitter_cfg.c **** 	CY_SET_XTND_REG8((void CYFAR *)CYREG_SAR0_CSR3, 0x40u);
 621              		.loc 1 302 0
 622 0052 164B     		ldr	r3, .L22+28
 623 0054 4022     		movs	r2, #64
 624 0056 1A70     		strb	r2, [r3]
 303:.\Generated_Source\PSoC5/cyfitter_cfg.c **** 	CY_SET_XTND_REG8((void CYFAR *)CYREG_DAC3_SW4, 0x30u);
 625              		.loc 1 303 0
 626 0058 154B     		ldr	r3, .L22+32
 627 005a 3022     		movs	r2, #48
 628 005c 1A70     		strb	r2, [r3]
 304:.\Generated_Source\PSoC5/cyfitter_cfg.c **** 	CY_SET_XTND_REG8((void CYFAR *)CYREG_DSM0_SW0, 0xD0u);
 629              		.loc 1 304 0
 630 005e 154B     		ldr	r3, .L22+36
 631 0060 D022     		movs	r2, #208
 632 0062 1A70     		strb	r2, [r3]
 305:.\Generated_Source\PSoC5/cyfitter_cfg.c **** 	CY_SET_XTND_REG8((void CYFAR *)CYREG_SAR0_SW3, 0x21u);
 633              		.loc 1 305 0
 634 0064 144B     		ldr	r3, .L22+40
 635 0066 2122     		movs	r2, #33
 636 0068 1A70     		strb	r2, [r3]
 306:.\Generated_Source\PSoC5/cyfitter_cfg.c **** 	CY_SET_XTND_REG8((void CYFAR *)CYREG_BUS_SW0, 0x90u);
 637              		.loc 1 306 0
 638 006a 144B     		ldr	r3, .L22+44
 639 006c 9022     		movs	r2, #144
 640 006e 1A70     		strb	r2, [r3]
 307:.\Generated_Source\PSoC5/cyfitter_cfg.c **** 	CyDelayUs(10u); /* Allow vref to settle before re-enabling PRES */
 641              		.loc 1 307 0
 642 0070 0A20     		movs	r0, #10
 643 0072 FFF7FEFF 		bl	CyDelayUs
 308:.\Generated_Source\PSoC5/cyfitter_cfg.c **** 	CY_SET_XTND_REG8((void CYFAR *)(CYREG_RESET_CR5), (cr5));
 644              		.loc 1 308 0
 645 0076 084A     		ldr	r2, .L22+8
 646 0078 7B79     		ldrb	r3, [r7, #5]
 647 007a 1370     		strb	r3, [r2]
 309:.\Generated_Source\PSoC5/cyfitter_cfg.c **** 	CY_SET_XTND_REG8((void CYFAR *)(CYREG_RESET_CR4), (cr4));
 648              		.loc 1 309 0
 649 007c 054A     		ldr	r2, .L22+4
 650 007e BB79     		ldrb	r3, [r7, #6]
 651 0080 1370     		strb	r3, [r2]
ARM GAS  C:\Users\glenn\AppData\Local\Temp\cc58Te5j.s 			page 18


 310:.\Generated_Source\PSoC5/cyfitter_cfg.c **** 	CY_SET_XTND_REG8((void CYFAR *)CYREG_PUMP_CR0, 0x44u);
 652              		.loc 1 310 0
 653 0082 0F4B     		ldr	r3, .L22+48
 654 0084 4422     		movs	r2, #68
 655 0086 1A70     		strb	r2, [r3]
 311:.\Generated_Source\PSoC5/cyfitter_cfg.c **** }
 656              		.loc 1 311 0
 657 0088 0837     		adds	r7, r7, #8
 658              		.cfi_def_cfa_offset 8
 659 008a BD46     		mov	sp, r7
 660              		.cfi_def_cfa_register 13
 661              		@ sp needed
 662 008c 80BD     		pop	{r7, pc}
 663              	.L23:
 664 008e 00BF     		.align	2
 665              	.L22:
 666 0090 CF010049 		.word	1224737231
 667 0094 F8460040 		.word	1073759992
 668 0098 F9460040 		.word	1073759993
 669 009c 6E580040 		.word	1073764462
 670 00a0 6F580040 		.word	1073764463
 671 00a4 0C510040 		.word	1073762572
 672 00a8 01590040 		.word	1073764609
 673 00ac 03590040 		.word	1073764611
 674 00b0 9C5A0040 		.word	1073765020
 675 00b4 005B0040 		.word	1073765120
 676 00b8 235B0040 		.word	1073765155
 677 00bc 585B0040 		.word	1073765208
 678 00c0 76580040 		.word	1073764470
 679              		.cfi_endproc
 680              	.LFE6:
 681              		.size	AnalogSetDefault, .-AnalogSetDefault
 682              		.section	.text.SetAnalogRoutingPumps,"ax",%progbits
 683              		.align	2
 684              		.global	SetAnalogRoutingPumps
 685              		.thumb
 686              		.thumb_func
 687              		.type	SetAnalogRoutingPumps, %function
 688              	SetAnalogRoutingPumps:
 689              	.LFB7:
 312:.\Generated_Source\PSoC5/cyfitter_cfg.c **** 
 313:.\Generated_Source\PSoC5/cyfitter_cfg.c **** 
 314:.\Generated_Source\PSoC5/cyfitter_cfg.c **** /*******************************************************************************
 315:.\Generated_Source\PSoC5/cyfitter_cfg.c **** * Function Name: SetAnalogRoutingPumps
 316:.\Generated_Source\PSoC5/cyfitter_cfg.c **** ********************************************************************************
 317:.\Generated_Source\PSoC5/cyfitter_cfg.c **** *
 318:.\Generated_Source\PSoC5/cyfitter_cfg.c **** * Summary:
 319:.\Generated_Source\PSoC5/cyfitter_cfg.c **** * Enables or disables the analog pumps feeding analog routing switches.
 320:.\Generated_Source\PSoC5/cyfitter_cfg.c **** * Intended to be called at startup, based on the Vdda system configuration;
 321:.\Generated_Source\PSoC5/cyfitter_cfg.c **** * may be called during operation when the user informs us that the Vdda voltage
 322:.\Generated_Source\PSoC5/cyfitter_cfg.c **** * crossed the pump threshold.
 323:.\Generated_Source\PSoC5/cyfitter_cfg.c **** *
 324:.\Generated_Source\PSoC5/cyfitter_cfg.c **** * Parameters:
 325:.\Generated_Source\PSoC5/cyfitter_cfg.c **** *  enabled - 1 to enable the pumps, 0 to disable the pumps
 326:.\Generated_Source\PSoC5/cyfitter_cfg.c **** *
 327:.\Generated_Source\PSoC5/cyfitter_cfg.c **** * Return:
 328:.\Generated_Source\PSoC5/cyfitter_cfg.c **** *  void
ARM GAS  C:\Users\glenn\AppData\Local\Temp\cc58Te5j.s 			page 19


 329:.\Generated_Source\PSoC5/cyfitter_cfg.c **** *
 330:.\Generated_Source\PSoC5/cyfitter_cfg.c **** *******************************************************************************/
 331:.\Generated_Source\PSoC5/cyfitter_cfg.c **** void SetAnalogRoutingPumps(uint8 enabled)
 332:.\Generated_Source\PSoC5/cyfitter_cfg.c **** {
 690              		.loc 1 332 0
 691              		.cfi_startproc
 692              		@ args = 0, pretend = 0, frame = 16
 693              		@ frame_needed = 1, uses_anonymous_args = 0
 694              		@ link register save eliminated.
 695 0000 80B4     		push	{r7}
 696              		.cfi_def_cfa_offset 4
 697              		.cfi_offset 7, -4
 698 0002 85B0     		sub	sp, sp, #20
 699              		.cfi_def_cfa_offset 24
 700 0004 00AF     		add	r7, sp, #0
 701              		.cfi_def_cfa_register 7
 702 0006 0346     		mov	r3, r0
 703 0008 FB71     		strb	r3, [r7, #7]
 333:.\Generated_Source\PSoC5/cyfitter_cfg.c **** 	uint8 regValue = CY_GET_XTND_REG8((void CYFAR *)CYREG_PUMP_CR0);
 704              		.loc 1 333 0
 705 000a 0B4B     		ldr	r3, .L27
 706 000c 1B78     		ldrb	r3, [r3]
 707 000e FB73     		strb	r3, [r7, #15]
 334:.\Generated_Source\PSoC5/cyfitter_cfg.c **** 	if (enabled != 0u)
 708              		.loc 1 334 0
 709 0010 FB79     		ldrb	r3, [r7, #7]	@ zero_extendqisi2
 710 0012 002B     		cmp	r3, #0
 711 0014 04D0     		beq	.L25
 335:.\Generated_Source\PSoC5/cyfitter_cfg.c **** 	{
 336:.\Generated_Source\PSoC5/cyfitter_cfg.c **** 		regValue |= 0x22u;
 712              		.loc 1 336 0
 713 0016 FB7B     		ldrb	r3, [r7, #15]
 714 0018 43F02203 		orr	r3, r3, #34
 715 001c FB73     		strb	r3, [r7, #15]
 716 001e 03E0     		b	.L26
 717              	.L25:
 337:.\Generated_Source\PSoC5/cyfitter_cfg.c **** 	}
 338:.\Generated_Source\PSoC5/cyfitter_cfg.c **** 	else
 339:.\Generated_Source\PSoC5/cyfitter_cfg.c **** 	{
 340:.\Generated_Source\PSoC5/cyfitter_cfg.c **** 		regValue &= (uint8)~0x22u;
 718              		.loc 1 340 0
 719 0020 FB7B     		ldrb	r3, [r7, #15]
 720 0022 23F02203 		bic	r3, r3, #34
 721 0026 FB73     		strb	r3, [r7, #15]
 722              	.L26:
 341:.\Generated_Source\PSoC5/cyfitter_cfg.c **** 	}
 342:.\Generated_Source\PSoC5/cyfitter_cfg.c **** 	CY_SET_XTND_REG8((void CYFAR *)CYREG_PUMP_CR0, regValue);
 723              		.loc 1 342 0
 724 0028 034A     		ldr	r2, .L27
 725 002a FB7B     		ldrb	r3, [r7, #15]
 726 002c 1370     		strb	r3, [r2]
 343:.\Generated_Source\PSoC5/cyfitter_cfg.c **** }
 727              		.loc 1 343 0
 728 002e 1437     		adds	r7, r7, #20
 729              		.cfi_def_cfa_offset 4
 730 0030 BD46     		mov	sp, r7
 731              		.cfi_def_cfa_register 13
ARM GAS  C:\Users\glenn\AppData\Local\Temp\cc58Te5j.s 			page 20


 732              		@ sp needed
 733 0032 5DF8047B 		ldr	r7, [sp], #4
 734              		.cfi_restore 7
 735              		.cfi_def_cfa_offset 0
 736 0036 7047     		bx	lr
 737              	.L28:
 738              		.align	2
 739              	.L27:
 740 0038 76580040 		.word	1073764470
 741              		.cfi_endproc
 742              	.LFE7:
 743              		.size	SetAnalogRoutingPumps, .-SetAnalogRoutingPumps
 744              		.global	Sink_Source_Setup__addrTable
 745              		.section	.rodata
 746              		.align	2
 747              		.type	Sink_Source_Setup__addrTable, %object
 748              		.size	Sink_Source_Setup__addrTable, 88
 749              	Sink_Source_Setup__addrTable:
 750 0000 3D510040 		.word	1073762621
 751 0004 24430040 		.word	1073759012
 752 0008 3D510040 		.word	1073762621
 753 000c 24430040 		.word	1073759012
 754 0010 3D510040 		.word	1073762621
 755 0014 24430040 		.word	1073759012
 756 0018 3D510040 		.word	1073762621
 757 001c 24430040 		.word	1073759012
 758 0020 3D510040 		.word	1073762621
 759 0024 24430040 		.word	1073759012
 760 0028 3D510040 		.word	1073762621
 761 002c 585B0040 		.word	1073765208
 762 0030 3D510040 		.word	1073762621
 763 0034 24430040 		.word	1073759012
 764 0038 FD510040 		.word	1073762813
 765 003c 24430040 		.word	1073759012
 766 0040 FD510040 		.word	1073762813
 767 0044 24430040 		.word	1073759012
 768 0048 0D510040 		.word	1073762573
 769 004c 005B0040 		.word	1073765120
 770 0050 0D510040 		.word	1073762573
 771 0054 24430040 		.word	1073759012
 772              		.global	Sink_Source_Setup__maskTable
 773              		.align	2
 774              		.type	Sink_Source_Setup__maskTable, %object
 775              		.size	Sink_Source_Setup__maskTable, 22
 776              	Sink_Source_Setup__maskTable:
 777 0058 01       		.byte	1
 778 0059 00       		.byte	0
 779 005a 02       		.byte	2
 780 005b 00       		.byte	0
 781 005c 08       		.byte	8
 782 005d 00       		.byte	0
 783 005e 10       		.byte	16
 784 005f 00       		.byte	0
 785 0060 20       		.byte	32
 786 0061 00       		.byte	0
 787 0062 40       		.byte	64
 788 0063 40       		.byte	64
ARM GAS  C:\Users\glenn\AppData\Local\Temp\cc58Te5j.s 			page 21


 789 0064 80       		.byte	-128
 790 0065 00       		.byte	0
 791 0066 01       		.byte	1
 792 0067 00       		.byte	0
 793 0068 02       		.byte	2
 794 0069 00       		.byte	0
 795 006a 20       		.byte	32
 796 006b 20       		.byte	32
 797 006c 40       		.byte	64
 798 006d 00       		.byte	0
 799              		.section	.text.Sink_Source_Setup_Set,"ax",%progbits
 800              		.align	2
 801              		.global	Sink_Source_Setup_Set
 802              		.thumb
 803              		.thumb_func
 804              		.type	Sink_Source_Setup_Set, %function
 805              	Sink_Source_Setup_Set:
 806              	.LFB8:
 344:.\Generated_Source\PSoC5/cyfitter_cfg.c **** 
 345:.\Generated_Source\PSoC5/cyfitter_cfg.c **** #define CY_AMUX_UNUSED CYREG_BOOST_SR
 346:.\Generated_Source\PSoC5/cyfitter_cfg.c **** /* This is an implementation detail of the AMux. Code that depends on it may be
 347:.\Generated_Source\PSoC5/cyfitter_cfg.c ****    incompatible with other versions of PSoC Creator. */
 348:.\Generated_Source\PSoC5/cyfitter_cfg.c **** uint8 CYXDATA * const CYCODE Sink_Source_Setup__addrTable[22] = {
 349:.\Generated_Source\PSoC5/cyfitter_cfg.c **** 	(uint8 CYXDATA *)CYREG_PRT3_AG, (uint8 CYXDATA *)CY_AMUX_UNUSED, 
 350:.\Generated_Source\PSoC5/cyfitter_cfg.c **** 	(uint8 CYXDATA *)CYREG_PRT3_AG, (uint8 CYXDATA *)CY_AMUX_UNUSED, 
 351:.\Generated_Source\PSoC5/cyfitter_cfg.c **** 	(uint8 CYXDATA *)CYREG_PRT3_AG, (uint8 CYXDATA *)CY_AMUX_UNUSED, 
 352:.\Generated_Source\PSoC5/cyfitter_cfg.c **** 	(uint8 CYXDATA *)CYREG_PRT3_AG, (uint8 CYXDATA *)CY_AMUX_UNUSED, 
 353:.\Generated_Source\PSoC5/cyfitter_cfg.c **** 	(uint8 CYXDATA *)CYREG_PRT3_AG, (uint8 CYXDATA *)CY_AMUX_UNUSED, 
 354:.\Generated_Source\PSoC5/cyfitter_cfg.c **** 	(uint8 CYXDATA *)CYREG_PRT3_AG, (uint8 CYXDATA *)CYREG_BUS_SW0, 
 355:.\Generated_Source\PSoC5/cyfitter_cfg.c **** 	(uint8 CYXDATA *)CYREG_PRT3_AG, (uint8 CYXDATA *)CY_AMUX_UNUSED, 
 356:.\Generated_Source\PSoC5/cyfitter_cfg.c **** 	(uint8 CYXDATA *)CYREG_PRT15_AG, (uint8 CYXDATA *)CY_AMUX_UNUSED, 
 357:.\Generated_Source\PSoC5/cyfitter_cfg.c **** 	(uint8 CYXDATA *)CYREG_PRT15_AG, (uint8 CYXDATA *)CY_AMUX_UNUSED, 
 358:.\Generated_Source\PSoC5/cyfitter_cfg.c **** 	(uint8 CYXDATA *)CYREG_PRT0_AG, (uint8 CYXDATA *)CYREG_DSM0_SW0, 
 359:.\Generated_Source\PSoC5/cyfitter_cfg.c **** 	(uint8 CYXDATA *)CYREG_PRT0_AG, (uint8 CYXDATA *)CY_AMUX_UNUSED, 
 360:.\Generated_Source\PSoC5/cyfitter_cfg.c **** };
 361:.\Generated_Source\PSoC5/cyfitter_cfg.c **** 
 362:.\Generated_Source\PSoC5/cyfitter_cfg.c **** /* This is an implementation detail of the AMux. Code that depends on it may be
 363:.\Generated_Source\PSoC5/cyfitter_cfg.c ****    incompatible with other versions of PSoC Creator. */
 364:.\Generated_Source\PSoC5/cyfitter_cfg.c **** const uint8 CYCODE Sink_Source_Setup__maskTable[22] = {
 365:.\Generated_Source\PSoC5/cyfitter_cfg.c **** 	0x01u, 0x00u, 
 366:.\Generated_Source\PSoC5/cyfitter_cfg.c **** 	0x02u, 0x00u, 
 367:.\Generated_Source\PSoC5/cyfitter_cfg.c **** 	0x08u, 0x00u, 
 368:.\Generated_Source\PSoC5/cyfitter_cfg.c **** 	0x10u, 0x00u, 
 369:.\Generated_Source\PSoC5/cyfitter_cfg.c **** 	0x20u, 0x00u, 
 370:.\Generated_Source\PSoC5/cyfitter_cfg.c **** 	0x40u, 0x40u, 
 371:.\Generated_Source\PSoC5/cyfitter_cfg.c **** 	0x80u, 0x00u, 
 372:.\Generated_Source\PSoC5/cyfitter_cfg.c **** 	0x01u, 0x00u, 
 373:.\Generated_Source\PSoC5/cyfitter_cfg.c **** 	0x02u, 0x00u, 
 374:.\Generated_Source\PSoC5/cyfitter_cfg.c **** 	0x20u, 0x20u, 
 375:.\Generated_Source\PSoC5/cyfitter_cfg.c **** 	0x40u, 0x00u, 
 376:.\Generated_Source\PSoC5/cyfitter_cfg.c **** };
 377:.\Generated_Source\PSoC5/cyfitter_cfg.c **** 
 378:.\Generated_Source\PSoC5/cyfitter_cfg.c **** /*******************************************************************************
 379:.\Generated_Source\PSoC5/cyfitter_cfg.c **** * Function Name: Sink_Source_Setup_Set
 380:.\Generated_Source\PSoC5/cyfitter_cfg.c **** ********************************************************************************
 381:.\Generated_Source\PSoC5/cyfitter_cfg.c **** * Summary:
 382:.\Generated_Source\PSoC5/cyfitter_cfg.c **** *  This function is used to set a particular channel as active on the AMux.
ARM GAS  C:\Users\glenn\AppData\Local\Temp\cc58Te5j.s 			page 22


 383:.\Generated_Source\PSoC5/cyfitter_cfg.c **** *
 384:.\Generated_Source\PSoC5/cyfitter_cfg.c **** * Parameters:  
 385:.\Generated_Source\PSoC5/cyfitter_cfg.c **** *   channel - The mux channel input to set as active
 386:.\Generated_Source\PSoC5/cyfitter_cfg.c **** *
 387:.\Generated_Source\PSoC5/cyfitter_cfg.c **** * Return:
 388:.\Generated_Source\PSoC5/cyfitter_cfg.c **** *   void
 389:.\Generated_Source\PSoC5/cyfitter_cfg.c **** *
 390:.\Generated_Source\PSoC5/cyfitter_cfg.c **** *******************************************************************************/
 391:.\Generated_Source\PSoC5/cyfitter_cfg.c **** void Sink_Source_Setup_Set(uint8 channel)
 392:.\Generated_Source\PSoC5/cyfitter_cfg.c **** {
 807              		.loc 1 392 0
 808              		.cfi_startproc
 809              		@ args = 0, pretend = 0, frame = 8
 810              		@ frame_needed = 1, uses_anonymous_args = 0
 811              		@ link register save eliminated.
 812 0000 80B4     		push	{r7}
 813              		.cfi_def_cfa_offset 4
 814              		.cfi_offset 7, -4
 815 0002 83B0     		sub	sp, sp, #12
 816              		.cfi_def_cfa_offset 16
 817 0004 00AF     		add	r7, sp, #0
 818              		.cfi_def_cfa_register 7
 819 0006 0346     		mov	r3, r0
 820 0008 FB71     		strb	r3, [r7, #7]
 393:.\Generated_Source\PSoC5/cyfitter_cfg.c **** 	if (channel < 11)
 821              		.loc 1 393 0
 822 000a FB79     		ldrb	r3, [r7, #7]	@ zero_extendqisi2
 823 000c 0A2B     		cmp	r3, #10
 824 000e 24D8     		bhi	.L29
 394:.\Generated_Source\PSoC5/cyfitter_cfg.c **** 	{
 395:.\Generated_Source\PSoC5/cyfitter_cfg.c **** 		channel += channel;
 825              		.loc 1 395 0
 826 0010 FA79     		ldrb	r2, [r7, #7]
 827 0012 FB79     		ldrb	r3, [r7, #7]
 828 0014 1344     		add	r3, r3, r2
 829 0016 FB71     		strb	r3, [r7, #7]
 396:.\Generated_Source\PSoC5/cyfitter_cfg.c **** 		*Sink_Source_Setup__addrTable[channel] |= Sink_Source_Setup__maskTable[channel];
 830              		.loc 1 396 0
 831 0018 FB79     		ldrb	r3, [r7, #7]	@ zero_extendqisi2
 832 001a 124A     		ldr	r2, .L31
 833 001c 52F82330 		ldr	r3, [r2, r3, lsl #2]
 834 0020 FA79     		ldrb	r2, [r7, #7]	@ zero_extendqisi2
 835 0022 1049     		ldr	r1, .L31
 836 0024 51F82220 		ldr	r2, [r1, r2, lsl #2]
 837 0028 1178     		ldrb	r1, [r2]	@ zero_extendqisi2
 838 002a FA79     		ldrb	r2, [r7, #7]	@ zero_extendqisi2
 839 002c 0E48     		ldr	r0, .L31+4
 840 002e 825C     		ldrb	r2, [r0, r2]	@ zero_extendqisi2
 841 0030 0A43     		orrs	r2, r2, r1
 842 0032 D2B2     		uxtb	r2, r2
 843 0034 1A70     		strb	r2, [r3]
 397:.\Generated_Source\PSoC5/cyfitter_cfg.c **** 		channel++;
 844              		.loc 1 397 0
 845 0036 FB79     		ldrb	r3, [r7, #7]	@ zero_extendqisi2
 846 0038 0133     		adds	r3, r3, #1
 847 003a FB71     		strb	r3, [r7, #7]
 398:.\Generated_Source\PSoC5/cyfitter_cfg.c **** 		*Sink_Source_Setup__addrTable[channel] |= Sink_Source_Setup__maskTable[channel];
ARM GAS  C:\Users\glenn\AppData\Local\Temp\cc58Te5j.s 			page 23


 848              		.loc 1 398 0
 849 003c FB79     		ldrb	r3, [r7, #7]	@ zero_extendqisi2
 850 003e 094A     		ldr	r2, .L31
 851 0040 52F82330 		ldr	r3, [r2, r3, lsl #2]
 852 0044 FA79     		ldrb	r2, [r7, #7]	@ zero_extendqisi2
 853 0046 0749     		ldr	r1, .L31
 854 0048 51F82220 		ldr	r2, [r1, r2, lsl #2]
 855 004c 1178     		ldrb	r1, [r2]	@ zero_extendqisi2
 856 004e FA79     		ldrb	r2, [r7, #7]	@ zero_extendqisi2
 857 0050 0548     		ldr	r0, .L31+4
 858 0052 825C     		ldrb	r2, [r0, r2]	@ zero_extendqisi2
 859 0054 0A43     		orrs	r2, r2, r1
 860 0056 D2B2     		uxtb	r2, r2
 861 0058 1A70     		strb	r2, [r3]
 862              	.L29:
 399:.\Generated_Source\PSoC5/cyfitter_cfg.c **** 	}
 400:.\Generated_Source\PSoC5/cyfitter_cfg.c **** }
 863              		.loc 1 400 0
 864 005a 0C37     		adds	r7, r7, #12
 865              		.cfi_def_cfa_offset 4
 866 005c BD46     		mov	sp, r7
 867              		.cfi_def_cfa_register 13
 868              		@ sp needed
 869 005e 5DF8047B 		ldr	r7, [sp], #4
 870              		.cfi_restore 7
 871              		.cfi_def_cfa_offset 0
 872 0062 7047     		bx	lr
 873              	.L32:
 874              		.align	2
 875              	.L31:
 876 0064 00000000 		.word	Sink_Source_Setup__addrTable
 877 0068 00000000 		.word	Sink_Source_Setup__maskTable
 878              		.cfi_endproc
 879              	.LFE8:
 880              		.size	Sink_Source_Setup_Set, .-Sink_Source_Setup_Set
 881              		.section	.text.Sink_Source_Setup_Unset,"ax",%progbits
 882              		.align	2
 883              		.global	Sink_Source_Setup_Unset
 884              		.thumb
 885              		.thumb_func
 886              		.type	Sink_Source_Setup_Unset, %function
 887              	Sink_Source_Setup_Unset:
 888              	.LFB9:
 401:.\Generated_Source\PSoC5/cyfitter_cfg.c **** 
 402:.\Generated_Source\PSoC5/cyfitter_cfg.c **** /*******************************************************************************
 403:.\Generated_Source\PSoC5/cyfitter_cfg.c **** * Function Name: Sink_Source_Setup_Unset
 404:.\Generated_Source\PSoC5/cyfitter_cfg.c **** ********************************************************************************
 405:.\Generated_Source\PSoC5/cyfitter_cfg.c **** * Summary:
 406:.\Generated_Source\PSoC5/cyfitter_cfg.c **** *  This function is used to clear a particular channel from being active on the
 407:.\Generated_Source\PSoC5/cyfitter_cfg.c **** *  AMux.
 408:.\Generated_Source\PSoC5/cyfitter_cfg.c **** *
 409:.\Generated_Source\PSoC5/cyfitter_cfg.c **** * Parameters:  
 410:.\Generated_Source\PSoC5/cyfitter_cfg.c **** *   channel - The mux channel input to mark inactive
 411:.\Generated_Source\PSoC5/cyfitter_cfg.c **** *
 412:.\Generated_Source\PSoC5/cyfitter_cfg.c **** * Return:
 413:.\Generated_Source\PSoC5/cyfitter_cfg.c **** *   void
 414:.\Generated_Source\PSoC5/cyfitter_cfg.c **** *
ARM GAS  C:\Users\glenn\AppData\Local\Temp\cc58Te5j.s 			page 24


 415:.\Generated_Source\PSoC5/cyfitter_cfg.c **** *******************************************************************************/
 416:.\Generated_Source\PSoC5/cyfitter_cfg.c **** void Sink_Source_Setup_Unset(uint8 channel)
 417:.\Generated_Source\PSoC5/cyfitter_cfg.c **** {
 889              		.loc 1 417 0
 890              		.cfi_startproc
 891              		@ args = 0, pretend = 0, frame = 8
 892              		@ frame_needed = 1, uses_anonymous_args = 0
 893              		@ link register save eliminated.
 894 0000 80B4     		push	{r7}
 895              		.cfi_def_cfa_offset 4
 896              		.cfi_offset 7, -4
 897 0002 83B0     		sub	sp, sp, #12
 898              		.cfi_def_cfa_offset 16
 899 0004 00AF     		add	r7, sp, #0
 900              		.cfi_def_cfa_register 7
 901 0006 0346     		mov	r3, r0
 902 0008 FB71     		strb	r3, [r7, #7]
 418:.\Generated_Source\PSoC5/cyfitter_cfg.c **** 	if (channel < 11)
 903              		.loc 1 418 0
 904 000a FB79     		ldrb	r3, [r7, #7]	@ zero_extendqisi2
 905 000c 0A2B     		cmp	r3, #10
 906 000e 28D8     		bhi	.L33
 419:.\Generated_Source\PSoC5/cyfitter_cfg.c **** 	{
 420:.\Generated_Source\PSoC5/cyfitter_cfg.c **** 		channel += channel;
 907              		.loc 1 420 0
 908 0010 FA79     		ldrb	r2, [r7, #7]
 909 0012 FB79     		ldrb	r3, [r7, #7]
 910 0014 1344     		add	r3, r3, r2
 911 0016 FB71     		strb	r3, [r7, #7]
 421:.\Generated_Source\PSoC5/cyfitter_cfg.c **** 		*Sink_Source_Setup__addrTable[channel] &= (uint8)~Sink_Source_Setup__maskTable[channel];
 912              		.loc 1 421 0
 913 0018 FB79     		ldrb	r3, [r7, #7]	@ zero_extendqisi2
 914 001a 144A     		ldr	r2, .L35
 915 001c 52F82330 		ldr	r3, [r2, r3, lsl #2]
 916 0020 FA79     		ldrb	r2, [r7, #7]	@ zero_extendqisi2
 917 0022 1249     		ldr	r1, .L35
 918 0024 51F82220 		ldr	r2, [r1, r2, lsl #2]
 919 0028 1178     		ldrb	r1, [r2]	@ zero_extendqisi2
 920 002a FA79     		ldrb	r2, [r7, #7]	@ zero_extendqisi2
 921 002c 1048     		ldr	r0, .L35+4
 922 002e 825C     		ldrb	r2, [r0, r2]	@ zero_extendqisi2
 923 0030 D243     		mvns	r2, r2
 924 0032 D2B2     		uxtb	r2, r2
 925 0034 0A40     		ands	r2, r2, r1
 926 0036 D2B2     		uxtb	r2, r2
 927 0038 1A70     		strb	r2, [r3]
 422:.\Generated_Source\PSoC5/cyfitter_cfg.c **** 		channel++;
 928              		.loc 1 422 0
 929 003a FB79     		ldrb	r3, [r7, #7]	@ zero_extendqisi2
 930 003c 0133     		adds	r3, r3, #1
 931 003e FB71     		strb	r3, [r7, #7]
 423:.\Generated_Source\PSoC5/cyfitter_cfg.c **** 		*Sink_Source_Setup__addrTable[channel] &= (uint8)~Sink_Source_Setup__maskTable[channel];
 932              		.loc 1 423 0
 933 0040 FB79     		ldrb	r3, [r7, #7]	@ zero_extendqisi2
 934 0042 0A4A     		ldr	r2, .L35
 935 0044 52F82330 		ldr	r3, [r2, r3, lsl #2]
 936 0048 FA79     		ldrb	r2, [r7, #7]	@ zero_extendqisi2
ARM GAS  C:\Users\glenn\AppData\Local\Temp\cc58Te5j.s 			page 25


 937 004a 0849     		ldr	r1, .L35
 938 004c 51F82220 		ldr	r2, [r1, r2, lsl #2]
 939 0050 1178     		ldrb	r1, [r2]	@ zero_extendqisi2
 940 0052 FA79     		ldrb	r2, [r7, #7]	@ zero_extendqisi2
 941 0054 0648     		ldr	r0, .L35+4
 942 0056 825C     		ldrb	r2, [r0, r2]	@ zero_extendqisi2
 943 0058 D243     		mvns	r2, r2
 944 005a D2B2     		uxtb	r2, r2
 945 005c 0A40     		ands	r2, r2, r1
 946 005e D2B2     		uxtb	r2, r2
 947 0060 1A70     		strb	r2, [r3]
 948              	.L33:
 424:.\Generated_Source\PSoC5/cyfitter_cfg.c **** 	}
 425:.\Generated_Source\PSoC5/cyfitter_cfg.c **** }
 949              		.loc 1 425 0
 950 0062 0C37     		adds	r7, r7, #12
 951              		.cfi_def_cfa_offset 4
 952 0064 BD46     		mov	sp, r7
 953              		.cfi_def_cfa_register 13
 954              		@ sp needed
 955 0066 5DF8047B 		ldr	r7, [sp], #4
 956              		.cfi_restore 7
 957              		.cfi_def_cfa_offset 0
 958 006a 7047     		bx	lr
 959              	.L36:
 960              		.align	2
 961              	.L35:
 962 006c 00000000 		.word	Sink_Source_Setup__addrTable
 963 0070 00000000 		.word	Sink_Source_Setup__maskTable
 964              		.cfi_endproc
 965              	.LFE9:
 966              		.size	Sink_Source_Setup_Unset, .-Sink_Source_Setup_Unset
 967              		.global	SIGMA_A_D_AMux__addrTable
 968              		.section	.rodata
 969 006e 0000     		.align	2
 970              		.type	SIGMA_A_D_AMux__addrTable, %object
 971              		.size	SIGMA_A_D_AMux__addrTable, 8
 972              	SIGMA_A_D_AMux__addrTable:
 973 0070 035B0040 		.word	1073765123
 974 0074 24430040 		.word	1073759012
 975              		.global	SIGMA_A_D_AMux__maskTable
 976              		.align	2
 977              		.type	SIGMA_A_D_AMux__maskTable, %object
 978              		.size	SIGMA_A_D_AMux__maskTable, 2
 979              	SIGMA_A_D_AMux__maskTable:
 980 0078 40       		.byte	64
 981 0079 00       		.byte	0
 982              		.section	.text.SIGMA_A_D_AMux_Set,"ax",%progbits
 983              		.align	2
 984              		.global	SIGMA_A_D_AMux_Set
 985              		.thumb
 986              		.thumb_func
 987              		.type	SIGMA_A_D_AMux_Set, %function
 988              	SIGMA_A_D_AMux_Set:
 989              	.LFB10:
 426:.\Generated_Source\PSoC5/cyfitter_cfg.c **** 
 427:.\Generated_Source\PSoC5/cyfitter_cfg.c **** /* This is an implementation detail of the AMux. Code that depends on it may be
ARM GAS  C:\Users\glenn\AppData\Local\Temp\cc58Te5j.s 			page 26


 428:.\Generated_Source\PSoC5/cyfitter_cfg.c ****    incompatible with other versions of PSoC Creator. */
 429:.\Generated_Source\PSoC5/cyfitter_cfg.c **** uint8 CYXDATA * const CYCODE SIGMA_A_D_AMux__addrTable[2] = {
 430:.\Generated_Source\PSoC5/cyfitter_cfg.c **** 	(uint8 CYXDATA *)CYREG_DSM0_SW3, 
 431:.\Generated_Source\PSoC5/cyfitter_cfg.c **** 	(uint8 CYXDATA *)CY_AMUX_UNUSED, 
 432:.\Generated_Source\PSoC5/cyfitter_cfg.c **** };
 433:.\Generated_Source\PSoC5/cyfitter_cfg.c **** 
 434:.\Generated_Source\PSoC5/cyfitter_cfg.c **** /* This is an implementation detail of the AMux. Code that depends on it may be
 435:.\Generated_Source\PSoC5/cyfitter_cfg.c ****    incompatible with other versions of PSoC Creator. */
 436:.\Generated_Source\PSoC5/cyfitter_cfg.c **** const uint8 CYCODE SIGMA_A_D_AMux__maskTable[2] = {
 437:.\Generated_Source\PSoC5/cyfitter_cfg.c **** 	0x40u, 
 438:.\Generated_Source\PSoC5/cyfitter_cfg.c **** 	0x00u, 
 439:.\Generated_Source\PSoC5/cyfitter_cfg.c **** };
 440:.\Generated_Source\PSoC5/cyfitter_cfg.c **** 
 441:.\Generated_Source\PSoC5/cyfitter_cfg.c **** /*******************************************************************************
 442:.\Generated_Source\PSoC5/cyfitter_cfg.c **** * Function Name: SIGMA_A_D_AMux_Set
 443:.\Generated_Source\PSoC5/cyfitter_cfg.c **** ********************************************************************************
 444:.\Generated_Source\PSoC5/cyfitter_cfg.c **** * Summary:
 445:.\Generated_Source\PSoC5/cyfitter_cfg.c **** *  This function is used to set a particular channel as active on the AMux.
 446:.\Generated_Source\PSoC5/cyfitter_cfg.c **** *
 447:.\Generated_Source\PSoC5/cyfitter_cfg.c **** * Parameters:  
 448:.\Generated_Source\PSoC5/cyfitter_cfg.c **** *   channel - The mux channel input to set as active
 449:.\Generated_Source\PSoC5/cyfitter_cfg.c **** *
 450:.\Generated_Source\PSoC5/cyfitter_cfg.c **** * Return:
 451:.\Generated_Source\PSoC5/cyfitter_cfg.c **** *   void
 452:.\Generated_Source\PSoC5/cyfitter_cfg.c **** *
 453:.\Generated_Source\PSoC5/cyfitter_cfg.c **** *******************************************************************************/
 454:.\Generated_Source\PSoC5/cyfitter_cfg.c **** void SIGMA_A_D_AMux_Set(uint8 channel)
 455:.\Generated_Source\PSoC5/cyfitter_cfg.c **** {
 990              		.loc 1 455 0
 991              		.cfi_startproc
 992              		@ args = 0, pretend = 0, frame = 8
 993              		@ frame_needed = 1, uses_anonymous_args = 0
 994              		@ link register save eliminated.
 995 0000 80B4     		push	{r7}
 996              		.cfi_def_cfa_offset 4
 997              		.cfi_offset 7, -4
 998 0002 83B0     		sub	sp, sp, #12
 999              		.cfi_def_cfa_offset 16
 1000 0004 00AF     		add	r7, sp, #0
 1001              		.cfi_def_cfa_register 7
 1002 0006 0346     		mov	r3, r0
 1003 0008 FB71     		strb	r3, [r7, #7]
 456:.\Generated_Source\PSoC5/cyfitter_cfg.c **** 	if (channel < 2)
 1004              		.loc 1 456 0
 1005 000a FB79     		ldrb	r3, [r7, #7]	@ zero_extendqisi2
 1006 000c 012B     		cmp	r3, #1
 1007 000e 0ED8     		bhi	.L37
 457:.\Generated_Source\PSoC5/cyfitter_cfg.c **** 	{
 458:.\Generated_Source\PSoC5/cyfitter_cfg.c **** 		*SIGMA_A_D_AMux__addrTable[channel] |= SIGMA_A_D_AMux__maskTable[channel];
 1008              		.loc 1 458 0
 1009 0010 FB79     		ldrb	r3, [r7, #7]	@ zero_extendqisi2
 1010 0012 094A     		ldr	r2, .L39
 1011 0014 52F82330 		ldr	r3, [r2, r3, lsl #2]
 1012 0018 FA79     		ldrb	r2, [r7, #7]	@ zero_extendqisi2
 1013 001a 0749     		ldr	r1, .L39
 1014 001c 51F82220 		ldr	r2, [r1, r2, lsl #2]
 1015 0020 1178     		ldrb	r1, [r2]	@ zero_extendqisi2
ARM GAS  C:\Users\glenn\AppData\Local\Temp\cc58Te5j.s 			page 27


 1016 0022 FA79     		ldrb	r2, [r7, #7]	@ zero_extendqisi2
 1017 0024 0548     		ldr	r0, .L39+4
 1018 0026 825C     		ldrb	r2, [r0, r2]	@ zero_extendqisi2
 1019 0028 0A43     		orrs	r2, r2, r1
 1020 002a D2B2     		uxtb	r2, r2
 1021 002c 1A70     		strb	r2, [r3]
 1022              	.L37:
 459:.\Generated_Source\PSoC5/cyfitter_cfg.c **** 	}
 460:.\Generated_Source\PSoC5/cyfitter_cfg.c **** }
 1023              		.loc 1 460 0
 1024 002e 0C37     		adds	r7, r7, #12
 1025              		.cfi_def_cfa_offset 4
 1026 0030 BD46     		mov	sp, r7
 1027              		.cfi_def_cfa_register 13
 1028              		@ sp needed
 1029 0032 5DF8047B 		ldr	r7, [sp], #4
 1030              		.cfi_restore 7
 1031              		.cfi_def_cfa_offset 0
 1032 0036 7047     		bx	lr
 1033              	.L40:
 1034              		.align	2
 1035              	.L39:
 1036 0038 00000000 		.word	SIGMA_A_D_AMux__addrTable
 1037 003c 00000000 		.word	SIGMA_A_D_AMux__maskTable
 1038              		.cfi_endproc
 1039              	.LFE10:
 1040              		.size	SIGMA_A_D_AMux_Set, .-SIGMA_A_D_AMux_Set
 1041              		.section	.text.SIGMA_A_D_AMux_Unset,"ax",%progbits
 1042              		.align	2
 1043              		.global	SIGMA_A_D_AMux_Unset
 1044              		.thumb
 1045              		.thumb_func
 1046              		.type	SIGMA_A_D_AMux_Unset, %function
 1047              	SIGMA_A_D_AMux_Unset:
 1048              	.LFB11:
 461:.\Generated_Source\PSoC5/cyfitter_cfg.c **** 
 462:.\Generated_Source\PSoC5/cyfitter_cfg.c **** /*******************************************************************************
 463:.\Generated_Source\PSoC5/cyfitter_cfg.c **** * Function Name: SIGMA_A_D_AMux_Unset
 464:.\Generated_Source\PSoC5/cyfitter_cfg.c **** ********************************************************************************
 465:.\Generated_Source\PSoC5/cyfitter_cfg.c **** * Summary:
 466:.\Generated_Source\PSoC5/cyfitter_cfg.c **** *  This function is used to clear a particular channel from being active on the
 467:.\Generated_Source\PSoC5/cyfitter_cfg.c **** *  AMux.
 468:.\Generated_Source\PSoC5/cyfitter_cfg.c **** *
 469:.\Generated_Source\PSoC5/cyfitter_cfg.c **** * Parameters:  
 470:.\Generated_Source\PSoC5/cyfitter_cfg.c **** *   channel - The mux channel input to mark inactive
 471:.\Generated_Source\PSoC5/cyfitter_cfg.c **** *
 472:.\Generated_Source\PSoC5/cyfitter_cfg.c **** * Return:
 473:.\Generated_Source\PSoC5/cyfitter_cfg.c **** *   void
 474:.\Generated_Source\PSoC5/cyfitter_cfg.c **** *
 475:.\Generated_Source\PSoC5/cyfitter_cfg.c **** *******************************************************************************/
 476:.\Generated_Source\PSoC5/cyfitter_cfg.c **** void SIGMA_A_D_AMux_Unset(uint8 channel)
 477:.\Generated_Source\PSoC5/cyfitter_cfg.c **** {
 1049              		.loc 1 477 0
 1050              		.cfi_startproc
 1051              		@ args = 0, pretend = 0, frame = 8
 1052              		@ frame_needed = 1, uses_anonymous_args = 0
 1053              		@ link register save eliminated.
ARM GAS  C:\Users\glenn\AppData\Local\Temp\cc58Te5j.s 			page 28


 1054 0000 80B4     		push	{r7}
 1055              		.cfi_def_cfa_offset 4
 1056              		.cfi_offset 7, -4
 1057 0002 83B0     		sub	sp, sp, #12
 1058              		.cfi_def_cfa_offset 16
 1059 0004 00AF     		add	r7, sp, #0
 1060              		.cfi_def_cfa_register 7
 1061 0006 0346     		mov	r3, r0
 1062 0008 FB71     		strb	r3, [r7, #7]
 478:.\Generated_Source\PSoC5/cyfitter_cfg.c **** 	if (channel < 2)
 1063              		.loc 1 478 0
 1064 000a FB79     		ldrb	r3, [r7, #7]	@ zero_extendqisi2
 1065 000c 012B     		cmp	r3, #1
 1066 000e 10D8     		bhi	.L41
 479:.\Generated_Source\PSoC5/cyfitter_cfg.c **** 	{
 480:.\Generated_Source\PSoC5/cyfitter_cfg.c **** 		*SIGMA_A_D_AMux__addrTable[channel] &= (uint8)~SIGMA_A_D_AMux__maskTable[channel];
 1067              		.loc 1 480 0
 1068 0010 FB79     		ldrb	r3, [r7, #7]	@ zero_extendqisi2
 1069 0012 0A4A     		ldr	r2, .L43
 1070 0014 52F82330 		ldr	r3, [r2, r3, lsl #2]
 1071 0018 FA79     		ldrb	r2, [r7, #7]	@ zero_extendqisi2
 1072 001a 0849     		ldr	r1, .L43
 1073 001c 51F82220 		ldr	r2, [r1, r2, lsl #2]
 1074 0020 1178     		ldrb	r1, [r2]	@ zero_extendqisi2
 1075 0022 FA79     		ldrb	r2, [r7, #7]	@ zero_extendqisi2
 1076 0024 0648     		ldr	r0, .L43+4
 1077 0026 825C     		ldrb	r2, [r0, r2]	@ zero_extendqisi2
 1078 0028 D243     		mvns	r2, r2
 1079 002a D2B2     		uxtb	r2, r2
 1080 002c 0A40     		ands	r2, r2, r1
 1081 002e D2B2     		uxtb	r2, r2
 1082 0030 1A70     		strb	r2, [r3]
 1083              	.L41:
 481:.\Generated_Source\PSoC5/cyfitter_cfg.c **** 	}
 482:.\Generated_Source\PSoC5/cyfitter_cfg.c **** }
 1084              		.loc 1 482 0
 1085 0032 0C37     		adds	r7, r7, #12
 1086              		.cfi_def_cfa_offset 4
 1087 0034 BD46     		mov	sp, r7
 1088              		.cfi_def_cfa_register 13
 1089              		@ sp needed
 1090 0036 5DF8047B 		ldr	r7, [sp], #4
 1091              		.cfi_restore 7
 1092              		.cfi_def_cfa_offset 0
 1093 003a 7047     		bx	lr
 1094              	.L44:
 1095              		.align	2
 1096              	.L43:
 1097 003c 00000000 		.word	SIGMA_A_D_AMux__addrTable
 1098 0040 00000000 		.word	SIGMA_A_D_AMux__maskTable
 1099              		.cfi_endproc
 1100              	.LFE11:
 1101              		.size	SIGMA_A_D_AMux_Unset, .-SIGMA_A_D_AMux_Unset
 1102              		.section	.text.cyfitter_cfg,"ax",%progbits
 1103              		.align	2
 1104              		.global	cyfitter_cfg
 1105              		.thumb
ARM GAS  C:\Users\glenn\AppData\Local\Temp\cc58Te5j.s 			page 29


 1106              		.thumb_func
 1107              		.type	cyfitter_cfg, %function
 1108              	cyfitter_cfg:
 1109              	.LFB12:
 483:.\Generated_Source\PSoC5/cyfitter_cfg.c **** 
 484:.\Generated_Source\PSoC5/cyfitter_cfg.c **** 
 485:.\Generated_Source\PSoC5/cyfitter_cfg.c **** 
 486:.\Generated_Source\PSoC5/cyfitter_cfg.c **** /*******************************************************************************
 487:.\Generated_Source\PSoC5/cyfitter_cfg.c **** * Function Name: cyfitter_cfg
 488:.\Generated_Source\PSoC5/cyfitter_cfg.c **** ********************************************************************************
 489:.\Generated_Source\PSoC5/cyfitter_cfg.c **** * Summary:
 490:.\Generated_Source\PSoC5/cyfitter_cfg.c **** *  This function is called by the start-up code for the selected device. It
 491:.\Generated_Source\PSoC5/cyfitter_cfg.c **** *  performs all of the necessary device configuration based on the design
 492:.\Generated_Source\PSoC5/cyfitter_cfg.c **** *  settings.  This includes settings from the Design Wide Resources (DWR) such
 493:.\Generated_Source\PSoC5/cyfitter_cfg.c **** *  as Clocks and Pins as well as any component configuration that is necessary.
 494:.\Generated_Source\PSoC5/cyfitter_cfg.c **** *
 495:.\Generated_Source\PSoC5/cyfitter_cfg.c **** * Parameters:  
 496:.\Generated_Source\PSoC5/cyfitter_cfg.c **** *   void
 497:.\Generated_Source\PSoC5/cyfitter_cfg.c **** *
 498:.\Generated_Source\PSoC5/cyfitter_cfg.c **** * Return:
 499:.\Generated_Source\PSoC5/cyfitter_cfg.c **** *   void
 500:.\Generated_Source\PSoC5/cyfitter_cfg.c **** *
 501:.\Generated_Source\PSoC5/cyfitter_cfg.c **** *******************************************************************************/
 502:.\Generated_Source\PSoC5/cyfitter_cfg.c **** 
 503:.\Generated_Source\PSoC5/cyfitter_cfg.c **** void cyfitter_cfg(void)
 504:.\Generated_Source\PSoC5/cyfitter_cfg.c **** {
 1110              		.loc 1 504 0
 1111              		.cfi_startproc
 1112              		@ args = 0, pretend = 0, frame = 8
 1113              		@ frame_needed = 1, uses_anonymous_args = 0
 1114 0000 80B5     		push	{r7, lr}
 1115              		.cfi_def_cfa_offset 8
 1116              		.cfi_offset 7, -8
 1117              		.cfi_offset 14, -4
 1118 0002 82B0     		sub	sp, sp, #8
 1119              		.cfi_def_cfa_offset 16
 1120 0004 00AF     		add	r7, sp, #0
 1121              		.cfi_def_cfa_register 7
 505:.\Generated_Source\PSoC5/cyfitter_cfg.c **** 	/* IOPINS0_0 Address: CYREG_PRT0_DM0 Size (bytes): 8 */
 506:.\Generated_Source\PSoC5/cyfitter_cfg.c **** 	static const uint8 CYCODE BS_IOPINS0_0_VAL[] = {
 507:.\Generated_Source\PSoC5/cyfitter_cfg.c **** 		0x00u, 0x01u, 0x01u, 0x00u, 0x01u, 0x81u, 0xE0u, 0x00u};
 508:.\Generated_Source\PSoC5/cyfitter_cfg.c **** 
 509:.\Generated_Source\PSoC5/cyfitter_cfg.c **** 	/* IOPINS0_8 Address: CYREG_PRT15_DM0 Size (bytes): 8 */
 510:.\Generated_Source\PSoC5/cyfitter_cfg.c **** 	static const uint8 CYCODE BS_IOPINS0_8_VAL[] = {
 511:.\Generated_Source\PSoC5/cyfitter_cfg.c **** 		0x00u, 0x20u, 0x20u, 0x00u, 0x20u, 0x20u, 0x03u, 0x00u};
 512:.\Generated_Source\PSoC5/cyfitter_cfg.c **** 
 513:.\Generated_Source\PSoC5/cyfitter_cfg.c **** 	/* IOPINS0_1 Address: CYREG_PRT1_DR Size (bytes): 10 */
 514:.\Generated_Source\PSoC5/cyfitter_cfg.c **** 	static const uint8 CYCODE BS_IOPINS0_1_VAL[] = {
 515:.\Generated_Source\PSoC5/cyfitter_cfg.c **** 		0x00u, 0x00u, 0x30u, 0xD4u, 0xC0u, 0x00u, 0xC0u, 0x00u, 0x00u, 0x00u};
 516:.\Generated_Source\PSoC5/cyfitter_cfg.c **** 
 517:.\Generated_Source\PSoC5/cyfitter_cfg.c **** 	/* IOPINS0_2 Address: CYREG_PRT2_DM0 Size (bytes): 8 */
 518:.\Generated_Source\PSoC5/cyfitter_cfg.c **** 	static const uint8 CYCODE BS_IOPINS0_2_VAL[] = {
 519:.\Generated_Source\PSoC5/cyfitter_cfg.c **** 		0x00u, 0x07u, 0x02u, 0x00u, 0x00u, 0x00u, 0x00u, 0x00u};
 520:.\Generated_Source\PSoC5/cyfitter_cfg.c **** 
 521:.\Generated_Source\PSoC5/cyfitter_cfg.c **** 	/* IOPINS0_3 Address: CYREG_PRT3_DM0 Size (bytes): 8 */
 522:.\Generated_Source\PSoC5/cyfitter_cfg.c **** 	static const uint8 CYCODE BS_IOPINS0_3_VAL[] = {
 523:.\Generated_Source\PSoC5/cyfitter_cfg.c **** 		0x00u, 0x00u, 0x00u, 0x00u, 0x00u, 0x00u, 0xFBu, 0x00u};
ARM GAS  C:\Users\glenn\AppData\Local\Temp\cc58Te5j.s 			page 30


 524:.\Generated_Source\PSoC5/cyfitter_cfg.c **** 
 525:.\Generated_Source\PSoC5/cyfitter_cfg.c **** 	/* PHUB_CFGMEM1 Address: CYREG_PHUB_CFGMEM1_CFG0 Size (bytes): 4 */
 526:.\Generated_Source\PSoC5/cyfitter_cfg.c **** 	static const uint8 CYCODE BS_PHUB_CFGMEM1_VAL[] = {
 527:.\Generated_Source\PSoC5/cyfitter_cfg.c **** 		0x00u, 0x01u, 0x00u, 0x00u};
 528:.\Generated_Source\PSoC5/cyfitter_cfg.c **** 
 529:.\Generated_Source\PSoC5/cyfitter_cfg.c **** #ifdef CYGlobalIntDisable
 530:.\Generated_Source\PSoC5/cyfitter_cfg.c **** 	/* Disable interrupts by default. Let user enable if/when they want. */
 531:.\Generated_Source\PSoC5/cyfitter_cfg.c **** 	CYGlobalIntDisable
 1122              		.loc 1 531 0
 1123              	@ 531 ".\Generated_Source\PSoC5\cyfitter_cfg.c" 1
 1124 0006 72B6     		CPSID   i
 1125              	@ 0 "" 2
 532:.\Generated_Source\PSoC5/cyfitter_cfg.c **** #endif
 533:.\Generated_Source\PSoC5/cyfitter_cfg.c **** 
 534:.\Generated_Source\PSoC5/cyfitter_cfg.c **** 	/* Enable/Disable Debug functionality based on settings from System DWR */
 535:.\Generated_Source\PSoC5/cyfitter_cfg.c **** 	CY_SET_XTND_REG8((void CYFAR *)CYREG_MLOGIC_DEBUG, (CY_GET_XTND_REG8((void CYFAR *)CYREG_MLOGIC_DE
 1126              		.loc 1 535 0
 1127              		.thumb
 1128 0008 434A     		ldr	r2, .L48
 1129 000a 434B     		ldr	r3, .L48
 1130 000c 1B78     		ldrb	r3, [r3]
 1131 000e DBB2     		uxtb	r3, r3
 1132 0010 43F00403 		orr	r3, r3, #4
 1133 0014 DBB2     		uxtb	r3, r3
 1134 0016 1370     		strb	r3, [r2]
 1135              	.LBB3:
 536:.\Generated_Source\PSoC5/cyfitter_cfg.c **** 
 537:.\Generated_Source\PSoC5/cyfitter_cfg.c **** 	{
 538:.\Generated_Source\PSoC5/cyfitter_cfg.c **** 		static const uint32 CYCODE cy_cfg_addr_table[] = {
 539:.\Generated_Source\PSoC5/cyfitter_cfg.c **** 			0x40005205u, /* Base address: 0x40005200 Count: 5 */
 540:.\Generated_Source\PSoC5/cyfitter_cfg.c **** 			0x40005B01u, /* Base address: 0x40005B00 Count: 1 */
 541:.\Generated_Source\PSoC5/cyfitter_cfg.c **** 			0x40006402u, /* Base address: 0x40006400 Count: 2 */
 542:.\Generated_Source\PSoC5/cyfitter_cfg.c **** 			0x40006501u, /* Base address: 0x40006500 Count: 1 */
 543:.\Generated_Source\PSoC5/cyfitter_cfg.c **** 			0x40010102u, /* Base address: 0x40010100 Count: 2 */
 544:.\Generated_Source\PSoC5/cyfitter_cfg.c **** 			0x40010204u, /* Base address: 0x40010200 Count: 4 */
 545:.\Generated_Source\PSoC5/cyfitter_cfg.c **** 			0x40010304u, /* Base address: 0x40010300 Count: 4 */
 546:.\Generated_Source\PSoC5/cyfitter_cfg.c **** 			0x40010504u, /* Base address: 0x40010500 Count: 4 */
 547:.\Generated_Source\PSoC5/cyfitter_cfg.c **** 			0x40010620u, /* Base address: 0x40010600 Count: 32 */
 548:.\Generated_Source\PSoC5/cyfitter_cfg.c **** 			0x4001073Au, /* Base address: 0x40010700 Count: 58 */
 549:.\Generated_Source\PSoC5/cyfitter_cfg.c **** 			0x40010817u, /* Base address: 0x40010800 Count: 23 */
 550:.\Generated_Source\PSoC5/cyfitter_cfg.c **** 			0x4001093Fu, /* Base address: 0x40010900 Count: 63 */
 551:.\Generated_Source\PSoC5/cyfitter_cfg.c **** 			0x40010A12u, /* Base address: 0x40010A00 Count: 18 */
 552:.\Generated_Source\PSoC5/cyfitter_cfg.c **** 			0x40010B35u, /* Base address: 0x40010B00 Count: 53 */
 553:.\Generated_Source\PSoC5/cyfitter_cfg.c **** 			0x40010C30u, /* Base address: 0x40010C00 Count: 48 */
 554:.\Generated_Source\PSoC5/cyfitter_cfg.c **** 			0x40010D41u, /* Base address: 0x40010D00 Count: 65 */
 555:.\Generated_Source\PSoC5/cyfitter_cfg.c **** 			0x40010E45u, /* Base address: 0x40010E00 Count: 69 */
 556:.\Generated_Source\PSoC5/cyfitter_cfg.c **** 			0x40010F2Cu, /* Base address: 0x40010F00 Count: 44 */
 557:.\Generated_Source\PSoC5/cyfitter_cfg.c **** 			0x40011505u, /* Base address: 0x40011500 Count: 5 */
 558:.\Generated_Source\PSoC5/cyfitter_cfg.c **** 			0x4001162Du, /* Base address: 0x40011600 Count: 45 */
 559:.\Generated_Source\PSoC5/cyfitter_cfg.c **** 			0x40011743u, /* Base address: 0x40011700 Count: 67 */
 560:.\Generated_Source\PSoC5/cyfitter_cfg.c **** 			0x40011837u, /* Base address: 0x40011800 Count: 55 */
 561:.\Generated_Source\PSoC5/cyfitter_cfg.c **** 			0x40011947u, /* Base address: 0x40011900 Count: 71 */
 562:.\Generated_Source\PSoC5/cyfitter_cfg.c **** 			0x40011A3Fu, /* Base address: 0x40011A00 Count: 63 */
 563:.\Generated_Source\PSoC5/cyfitter_cfg.c **** 			0x40011B4Cu, /* Base address: 0x40011B00 Count: 76 */
 564:.\Generated_Source\PSoC5/cyfitter_cfg.c **** 			0x4001400Cu, /* Base address: 0x40014000 Count: 12 */
 565:.\Generated_Source\PSoC5/cyfitter_cfg.c **** 			0x40014115u, /* Base address: 0x40014100 Count: 21 */
 566:.\Generated_Source\PSoC5/cyfitter_cfg.c **** 			0x4001420Au, /* Base address: 0x40014200 Count: 10 */
ARM GAS  C:\Users\glenn\AppData\Local\Temp\cc58Te5j.s 			page 31


 567:.\Generated_Source\PSoC5/cyfitter_cfg.c **** 			0x4001430Fu, /* Base address: 0x40014300 Count: 15 */
 568:.\Generated_Source\PSoC5/cyfitter_cfg.c **** 			0x40014403u, /* Base address: 0x40014400 Count: 3 */
 569:.\Generated_Source\PSoC5/cyfitter_cfg.c **** 			0x4001450Bu, /* Base address: 0x40014500 Count: 11 */
 570:.\Generated_Source\PSoC5/cyfitter_cfg.c **** 			0x4001460Fu, /* Base address: 0x40014600 Count: 15 */
 571:.\Generated_Source\PSoC5/cyfitter_cfg.c **** 			0x4001470Au, /* Base address: 0x40014700 Count: 10 */
 572:.\Generated_Source\PSoC5/cyfitter_cfg.c **** 			0x40014808u, /* Base address: 0x40014800 Count: 8 */
 573:.\Generated_Source\PSoC5/cyfitter_cfg.c **** 			0x4001490Du, /* Base address: 0x40014900 Count: 13 */
 574:.\Generated_Source\PSoC5/cyfitter_cfg.c **** 			0x40014C0Eu, /* Base address: 0x40014C00 Count: 14 */
 575:.\Generated_Source\PSoC5/cyfitter_cfg.c **** 			0x40014D03u, /* Base address: 0x40014D00 Count: 3 */
 576:.\Generated_Source\PSoC5/cyfitter_cfg.c **** 			0x4001500Bu, /* Base address: 0x40015000 Count: 11 */
 577:.\Generated_Source\PSoC5/cyfitter_cfg.c **** 			0x40015104u, /* Base address: 0x40015100 Count: 4 */
 578:.\Generated_Source\PSoC5/cyfitter_cfg.c **** 		};
 579:.\Generated_Source\PSoC5/cyfitter_cfg.c **** 
 580:.\Generated_Source\PSoC5/cyfitter_cfg.c **** 		static const cy_cfg_addrvalue_t CYCODE cy_cfg_data_table[] = {
 581:.\Generated_Source\PSoC5/cyfitter_cfg.c **** 			{0x01u, 0x81u},
 582:.\Generated_Source\PSoC5/cyfitter_cfg.c **** 			{0x02u, 0x01u},
 583:.\Generated_Source\PSoC5/cyfitter_cfg.c **** 			{0x08u, 0x40u},
 584:.\Generated_Source\PSoC5/cyfitter_cfg.c **** 			{0x09u, 0xC0u},
 585:.\Generated_Source\PSoC5/cyfitter_cfg.c **** 			{0x7Au, 0x20u},
 586:.\Generated_Source\PSoC5/cyfitter_cfg.c **** 			{0x27u, 0x84u},
 587:.\Generated_Source\PSoC5/cyfitter_cfg.c **** 			{0x88u, 0x38u},
 588:.\Generated_Source\PSoC5/cyfitter_cfg.c **** 			{0x8Au, 0x0Fu},
 589:.\Generated_Source\PSoC5/cyfitter_cfg.c **** 			{0x8Bu, 0x72u},
 590:.\Generated_Source\PSoC5/cyfitter_cfg.c **** 			{0x83u, 0x20u},
 591:.\Generated_Source\PSoC5/cyfitter_cfg.c **** 			{0xE4u, 0x04u},
 592:.\Generated_Source\PSoC5/cyfitter_cfg.c **** 			{0x38u, 0x20u},
 593:.\Generated_Source\PSoC5/cyfitter_cfg.c **** 			{0x3Eu, 0x10u},
 594:.\Generated_Source\PSoC5/cyfitter_cfg.c **** 			{0x58u, 0x04u},
 595:.\Generated_Source\PSoC5/cyfitter_cfg.c **** 			{0x5Fu, 0x01u},
 596:.\Generated_Source\PSoC5/cyfitter_cfg.c **** 			{0x1Fu, 0x20u},
 597:.\Generated_Source\PSoC5/cyfitter_cfg.c **** 			{0x80u, 0x02u},
 598:.\Generated_Source\PSoC5/cyfitter_cfg.c **** 			{0xA7u, 0x20u},
 599:.\Generated_Source\PSoC5/cyfitter_cfg.c **** 			{0xE0u, 0x20u},
 600:.\Generated_Source\PSoC5/cyfitter_cfg.c **** 			{0x8Bu, 0x40u},
 601:.\Generated_Source\PSoC5/cyfitter_cfg.c **** 			{0xA4u, 0x02u},
 602:.\Generated_Source\PSoC5/cyfitter_cfg.c **** 			{0xE2u, 0x40u},
 603:.\Generated_Source\PSoC5/cyfitter_cfg.c **** 			{0xE6u, 0x80u},
 604:.\Generated_Source\PSoC5/cyfitter_cfg.c **** 			{0x00u, 0x01u},
 605:.\Generated_Source\PSoC5/cyfitter_cfg.c **** 			{0x04u, 0x01u},
 606:.\Generated_Source\PSoC5/cyfitter_cfg.c **** 			{0x0Cu, 0x01u},
 607:.\Generated_Source\PSoC5/cyfitter_cfg.c **** 			{0x14u, 0x01u},
 608:.\Generated_Source\PSoC5/cyfitter_cfg.c **** 			{0x1Cu, 0x01u},
 609:.\Generated_Source\PSoC5/cyfitter_cfg.c **** 			{0x22u, 0x01u},
 610:.\Generated_Source\PSoC5/cyfitter_cfg.c **** 			{0x28u, 0x01u},
 611:.\Generated_Source\PSoC5/cyfitter_cfg.c **** 			{0x36u, 0x01u},
 612:.\Generated_Source\PSoC5/cyfitter_cfg.c **** 			{0x58u, 0x04u},
 613:.\Generated_Source\PSoC5/cyfitter_cfg.c **** 			{0x59u, 0x04u},
 614:.\Generated_Source\PSoC5/cyfitter_cfg.c **** 			{0x5Bu, 0x04u},
 615:.\Generated_Source\PSoC5/cyfitter_cfg.c **** 			{0x5Cu, 0x11u},
 616:.\Generated_Source\PSoC5/cyfitter_cfg.c **** 			{0x5Fu, 0x01u},
 617:.\Generated_Source\PSoC5/cyfitter_cfg.c **** 			{0x8Bu, 0x02u},
 618:.\Generated_Source\PSoC5/cyfitter_cfg.c **** 			{0x8Du, 0x01u},
 619:.\Generated_Source\PSoC5/cyfitter_cfg.c **** 			{0x8Eu, 0x01u},
 620:.\Generated_Source\PSoC5/cyfitter_cfg.c **** 			{0x95u, 0x01u},
 621:.\Generated_Source\PSoC5/cyfitter_cfg.c **** 			{0x9Eu, 0x02u},
 622:.\Generated_Source\PSoC5/cyfitter_cfg.c **** 			{0xB0u, 0x01u},
 623:.\Generated_Source\PSoC5/cyfitter_cfg.c **** 			{0xB1u, 0x01u},
ARM GAS  C:\Users\glenn\AppData\Local\Temp\cc58Te5j.s 			page 32


 624:.\Generated_Source\PSoC5/cyfitter_cfg.c **** 			{0xB3u, 0x02u},
 625:.\Generated_Source\PSoC5/cyfitter_cfg.c **** 			{0xB6u, 0x02u},
 626:.\Generated_Source\PSoC5/cyfitter_cfg.c **** 			{0xB9u, 0x02u},
 627:.\Generated_Source\PSoC5/cyfitter_cfg.c **** 			{0xBFu, 0x01u},
 628:.\Generated_Source\PSoC5/cyfitter_cfg.c **** 			{0xD6u, 0x02u},
 629:.\Generated_Source\PSoC5/cyfitter_cfg.c **** 			{0xD7u, 0x3Eu},
 630:.\Generated_Source\PSoC5/cyfitter_cfg.c **** 			{0xD8u, 0x04u},
 631:.\Generated_Source\PSoC5/cyfitter_cfg.c **** 			{0xD9u, 0x04u},
 632:.\Generated_Source\PSoC5/cyfitter_cfg.c **** 			{0xDBu, 0x0Cu},
 633:.\Generated_Source\PSoC5/cyfitter_cfg.c **** 			{0xDCu, 0x11u},
 634:.\Generated_Source\PSoC5/cyfitter_cfg.c **** 			{0xDDu, 0x10u},
 635:.\Generated_Source\PSoC5/cyfitter_cfg.c **** 			{0xDFu, 0x01u},
 636:.\Generated_Source\PSoC5/cyfitter_cfg.c **** 			{0x00u, 0x80u},
 637:.\Generated_Source\PSoC5/cyfitter_cfg.c **** 			{0x01u, 0x02u},
 638:.\Generated_Source\PSoC5/cyfitter_cfg.c **** 			{0x02u, 0x20u},
 639:.\Generated_Source\PSoC5/cyfitter_cfg.c **** 			{0x05u, 0x86u},
 640:.\Generated_Source\PSoC5/cyfitter_cfg.c **** 			{0x08u, 0x09u},
 641:.\Generated_Source\PSoC5/cyfitter_cfg.c **** 			{0x0Bu, 0x01u},
 642:.\Generated_Source\PSoC5/cyfitter_cfg.c **** 			{0x0Du, 0x80u},
 643:.\Generated_Source\PSoC5/cyfitter_cfg.c **** 			{0x0Fu, 0x10u},
 644:.\Generated_Source\PSoC5/cyfitter_cfg.c **** 			{0x11u, 0x81u},
 645:.\Generated_Source\PSoC5/cyfitter_cfg.c **** 			{0x12u, 0x08u},
 646:.\Generated_Source\PSoC5/cyfitter_cfg.c **** 			{0x14u, 0x08u},
 647:.\Generated_Source\PSoC5/cyfitter_cfg.c **** 			{0x15u, 0x01u},
 648:.\Generated_Source\PSoC5/cyfitter_cfg.c **** 			{0x19u, 0x82u},
 649:.\Generated_Source\PSoC5/cyfitter_cfg.c **** 			{0x1Bu, 0x80u},
 650:.\Generated_Source\PSoC5/cyfitter_cfg.c **** 			{0x1Fu, 0x40u},
 651:.\Generated_Source\PSoC5/cyfitter_cfg.c **** 			{0x20u, 0x40u},
 652:.\Generated_Source\PSoC5/cyfitter_cfg.c **** 			{0x21u, 0x04u},
 653:.\Generated_Source\PSoC5/cyfitter_cfg.c **** 			{0x22u, 0x08u},
 654:.\Generated_Source\PSoC5/cyfitter_cfg.c **** 			{0x23u, 0x10u},
 655:.\Generated_Source\PSoC5/cyfitter_cfg.c **** 			{0x28u, 0x09u},
 656:.\Generated_Source\PSoC5/cyfitter_cfg.c **** 			{0x29u, 0x86u},
 657:.\Generated_Source\PSoC5/cyfitter_cfg.c **** 			{0x2Fu, 0x80u},
 658:.\Generated_Source\PSoC5/cyfitter_cfg.c **** 			{0x31u, 0x80u},
 659:.\Generated_Source\PSoC5/cyfitter_cfg.c **** 			{0x33u, 0x04u},
 660:.\Generated_Source\PSoC5/cyfitter_cfg.c **** 			{0x34u, 0x08u},
 661:.\Generated_Source\PSoC5/cyfitter_cfg.c **** 			{0x35u, 0x02u},
 662:.\Generated_Source\PSoC5/cyfitter_cfg.c **** 			{0x36u, 0x20u},
 663:.\Generated_Source\PSoC5/cyfitter_cfg.c **** 			{0x39u, 0x09u},
 664:.\Generated_Source\PSoC5/cyfitter_cfg.c **** 			{0x3Au, 0x90u},
 665:.\Generated_Source\PSoC5/cyfitter_cfg.c **** 			{0x3Du, 0x81u},
 666:.\Generated_Source\PSoC5/cyfitter_cfg.c **** 			{0x3Fu, 0x10u},
 667:.\Generated_Source\PSoC5/cyfitter_cfg.c **** 			{0x5Bu, 0x04u},
 668:.\Generated_Source\PSoC5/cyfitter_cfg.c **** 			{0x60u, 0x40u},
 669:.\Generated_Source\PSoC5/cyfitter_cfg.c **** 			{0x68u, 0x40u},
 670:.\Generated_Source\PSoC5/cyfitter_cfg.c **** 			{0x69u, 0x10u},
 671:.\Generated_Source\PSoC5/cyfitter_cfg.c **** 			{0x6Au, 0x64u},
 672:.\Generated_Source\PSoC5/cyfitter_cfg.c **** 			{0x6Bu, 0x80u},
 673:.\Generated_Source\PSoC5/cyfitter_cfg.c **** 			{0x6Cu, 0x02u},
 674:.\Generated_Source\PSoC5/cyfitter_cfg.c **** 			{0x6Eu, 0x20u},
 675:.\Generated_Source\PSoC5/cyfitter_cfg.c **** 			{0x73u, 0x09u},
 676:.\Generated_Source\PSoC5/cyfitter_cfg.c **** 			{0x79u, 0x40u},
 677:.\Generated_Source\PSoC5/cyfitter_cfg.c **** 			{0x82u, 0x10u},
 678:.\Generated_Source\PSoC5/cyfitter_cfg.c **** 			{0x86u, 0x10u},
 679:.\Generated_Source\PSoC5/cyfitter_cfg.c **** 			{0x89u, 0x02u},
 680:.\Generated_Source\PSoC5/cyfitter_cfg.c **** 			{0x8Eu, 0x40u},
ARM GAS  C:\Users\glenn\AppData\Local\Temp\cc58Te5j.s 			page 33


 681:.\Generated_Source\PSoC5/cyfitter_cfg.c **** 			{0x97u, 0x80u},
 682:.\Generated_Source\PSoC5/cyfitter_cfg.c **** 			{0xA4u, 0x02u},
 683:.\Generated_Source\PSoC5/cyfitter_cfg.c **** 			{0xC0u, 0xBDu},
 684:.\Generated_Source\PSoC5/cyfitter_cfg.c **** 			{0xC2u, 0xADu},
 685:.\Generated_Source\PSoC5/cyfitter_cfg.c **** 			{0xC4u, 0x5Bu},
 686:.\Generated_Source\PSoC5/cyfitter_cfg.c **** 			{0xCAu, 0x8Fu},
 687:.\Generated_Source\PSoC5/cyfitter_cfg.c **** 			{0xCCu, 0xEAu},
 688:.\Generated_Source\PSoC5/cyfitter_cfg.c **** 			{0xCEu, 0xBFu},
 689:.\Generated_Source\PSoC5/cyfitter_cfg.c **** 			{0xD6u, 0x02u},
 690:.\Generated_Source\PSoC5/cyfitter_cfg.c **** 			{0xD8u, 0x01u},
 691:.\Generated_Source\PSoC5/cyfitter_cfg.c **** 			{0xDEu, 0x08u},
 692:.\Generated_Source\PSoC5/cyfitter_cfg.c **** 			{0xE4u, 0x04u},
 693:.\Generated_Source\PSoC5/cyfitter_cfg.c **** 			{0xEEu, 0x06u},
 694:.\Generated_Source\PSoC5/cyfitter_cfg.c **** 			{0x02u, 0x01u},
 695:.\Generated_Source\PSoC5/cyfitter_cfg.c **** 			{0x0Au, 0x01u},
 696:.\Generated_Source\PSoC5/cyfitter_cfg.c **** 			{0x0Fu, 0x01u},
 697:.\Generated_Source\PSoC5/cyfitter_cfg.c **** 			{0x1Au, 0x02u},
 698:.\Generated_Source\PSoC5/cyfitter_cfg.c **** 			{0x31u, 0x01u},
 699:.\Generated_Source\PSoC5/cyfitter_cfg.c **** 			{0x34u, 0x01u},
 700:.\Generated_Source\PSoC5/cyfitter_cfg.c **** 			{0x36u, 0x02u},
 701:.\Generated_Source\PSoC5/cyfitter_cfg.c **** 			{0x3Eu, 0x10u},
 702:.\Generated_Source\PSoC5/cyfitter_cfg.c **** 			{0x54u, 0x18u},
 703:.\Generated_Source\PSoC5/cyfitter_cfg.c **** 			{0x56u, 0x04u},
 704:.\Generated_Source\PSoC5/cyfitter_cfg.c **** 			{0x58u, 0x04u},
 705:.\Generated_Source\PSoC5/cyfitter_cfg.c **** 			{0x59u, 0x04u},
 706:.\Generated_Source\PSoC5/cyfitter_cfg.c **** 			{0x5Bu, 0x04u},
 707:.\Generated_Source\PSoC5/cyfitter_cfg.c **** 			{0x5Cu, 0x11u},
 708:.\Generated_Source\PSoC5/cyfitter_cfg.c **** 			{0x5Du, 0x20u},
 709:.\Generated_Source\PSoC5/cyfitter_cfg.c **** 			{0x5Fu, 0x01u},
 710:.\Generated_Source\PSoC5/cyfitter_cfg.c **** 			{0xD4u, 0x01u},
 711:.\Generated_Source\PSoC5/cyfitter_cfg.c **** 			{0xD8u, 0x04u},
 712:.\Generated_Source\PSoC5/cyfitter_cfg.c **** 			{0xD9u, 0x04u},
 713:.\Generated_Source\PSoC5/cyfitter_cfg.c **** 			{0xDBu, 0x0Eu},
 714:.\Generated_Source\PSoC5/cyfitter_cfg.c **** 			{0xDCu, 0x11u},
 715:.\Generated_Source\PSoC5/cyfitter_cfg.c **** 			{0xDDu, 0x10u},
 716:.\Generated_Source\PSoC5/cyfitter_cfg.c **** 			{0xDFu, 0x01u},
 717:.\Generated_Source\PSoC5/cyfitter_cfg.c **** 			{0x01u, 0x08u},
 718:.\Generated_Source\PSoC5/cyfitter_cfg.c **** 			{0x02u, 0x08u},
 719:.\Generated_Source\PSoC5/cyfitter_cfg.c **** 			{0x04u, 0xA6u},
 720:.\Generated_Source\PSoC5/cyfitter_cfg.c **** 			{0x09u, 0x01u},
 721:.\Generated_Source\PSoC5/cyfitter_cfg.c **** 			{0x0Au, 0x05u},
 722:.\Generated_Source\PSoC5/cyfitter_cfg.c **** 			{0x0Cu, 0x0Au},
 723:.\Generated_Source\PSoC5/cyfitter_cfg.c **** 			{0x0Eu, 0x09u},
 724:.\Generated_Source\PSoC5/cyfitter_cfg.c **** 			{0x10u, 0x0Au},
 725:.\Generated_Source\PSoC5/cyfitter_cfg.c **** 			{0x14u, 0x04u},
 726:.\Generated_Source\PSoC5/cyfitter_cfg.c **** 			{0x16u, 0x02u},
 727:.\Generated_Source\PSoC5/cyfitter_cfg.c **** 			{0x1Du, 0x10u},
 728:.\Generated_Source\PSoC5/cyfitter_cfg.c **** 			{0x1Eu, 0x01u},
 729:.\Generated_Source\PSoC5/cyfitter_cfg.c **** 			{0x1Fu, 0x80u},
 730:.\Generated_Source\PSoC5/cyfitter_cfg.c **** 			{0x24u, 0x80u},
 731:.\Generated_Source\PSoC5/cyfitter_cfg.c **** 			{0x25u, 0x03u},
 732:.\Generated_Source\PSoC5/cyfitter_cfg.c **** 			{0x26u, 0x02u},
 733:.\Generated_Source\PSoC5/cyfitter_cfg.c **** 			{0x28u, 0x04u},
 734:.\Generated_Source\PSoC5/cyfitter_cfg.c **** 			{0x2Au, 0x08u},
 735:.\Generated_Source\PSoC5/cyfitter_cfg.c **** 			{0x2Bu, 0x80u},
 736:.\Generated_Source\PSoC5/cyfitter_cfg.c **** 			{0x2Cu, 0x02u},
 737:.\Generated_Source\PSoC5/cyfitter_cfg.c **** 			{0x2Fu, 0x80u},
ARM GAS  C:\Users\glenn\AppData\Local\Temp\cc58Te5j.s 			page 34


 738:.\Generated_Source\PSoC5/cyfitter_cfg.c **** 			{0x30u, 0x0Au},
 739:.\Generated_Source\PSoC5/cyfitter_cfg.c **** 			{0x31u, 0x04u},
 740:.\Generated_Source\PSoC5/cyfitter_cfg.c **** 			{0x36u, 0x0Au},
 741:.\Generated_Source\PSoC5/cyfitter_cfg.c **** 			{0x38u, 0x04u},
 742:.\Generated_Source\PSoC5/cyfitter_cfg.c **** 			{0x3Au, 0x02u},
 743:.\Generated_Source\PSoC5/cyfitter_cfg.c **** 			{0x3Cu, 0x24u},
 744:.\Generated_Source\PSoC5/cyfitter_cfg.c **** 			{0x3Eu, 0x06u},
 745:.\Generated_Source\PSoC5/cyfitter_cfg.c **** 			{0x3Fu, 0x80u},
 746:.\Generated_Source\PSoC5/cyfitter_cfg.c **** 			{0x5Au, 0x80u},
 747:.\Generated_Source\PSoC5/cyfitter_cfg.c **** 			{0x5Eu, 0x02u},
 748:.\Generated_Source\PSoC5/cyfitter_cfg.c **** 			{0x65u, 0x12u},
 749:.\Generated_Source\PSoC5/cyfitter_cfg.c **** 			{0x66u, 0x40u},
 750:.\Generated_Source\PSoC5/cyfitter_cfg.c **** 			{0x78u, 0x08u},
 751:.\Generated_Source\PSoC5/cyfitter_cfg.c **** 			{0x82u, 0x04u},
 752:.\Generated_Source\PSoC5/cyfitter_cfg.c **** 			{0x88u, 0x20u},
 753:.\Generated_Source\PSoC5/cyfitter_cfg.c **** 			{0x89u, 0x08u},
 754:.\Generated_Source\PSoC5/cyfitter_cfg.c **** 			{0x8Au, 0x02u},
 755:.\Generated_Source\PSoC5/cyfitter_cfg.c **** 			{0x8Fu, 0x40u},
 756:.\Generated_Source\PSoC5/cyfitter_cfg.c **** 			{0x96u, 0x05u},
 757:.\Generated_Source\PSoC5/cyfitter_cfg.c **** 			{0x98u, 0x02u},
 758:.\Generated_Source\PSoC5/cyfitter_cfg.c **** 			{0x9Cu, 0x20u},
 759:.\Generated_Source\PSoC5/cyfitter_cfg.c **** 			{0x9Du, 0x02u},
 760:.\Generated_Source\PSoC5/cyfitter_cfg.c **** 			{0xA4u, 0x12u},
 761:.\Generated_Source\PSoC5/cyfitter_cfg.c **** 			{0xA5u, 0x02u},
 762:.\Generated_Source\PSoC5/cyfitter_cfg.c **** 			{0xA6u, 0x08u},
 763:.\Generated_Source\PSoC5/cyfitter_cfg.c **** 			{0xA7u, 0x80u},
 764:.\Generated_Source\PSoC5/cyfitter_cfg.c **** 			{0xACu, 0x21u},
 765:.\Generated_Source\PSoC5/cyfitter_cfg.c **** 			{0xAFu, 0x40u},
 766:.\Generated_Source\PSoC5/cyfitter_cfg.c **** 			{0xB5u, 0x08u},
 767:.\Generated_Source\PSoC5/cyfitter_cfg.c **** 			{0xB6u, 0x10u},
 768:.\Generated_Source\PSoC5/cyfitter_cfg.c **** 			{0xC0u, 0xF6u},
 769:.\Generated_Source\PSoC5/cyfitter_cfg.c **** 			{0xC2u, 0xFBu},
 770:.\Generated_Source\PSoC5/cyfitter_cfg.c **** 			{0xC4u, 0xC3u},
 771:.\Generated_Source\PSoC5/cyfitter_cfg.c **** 			{0xCAu, 0x97u},
 772:.\Generated_Source\PSoC5/cyfitter_cfg.c **** 			{0xCCu, 0xC3u},
 773:.\Generated_Source\PSoC5/cyfitter_cfg.c **** 			{0xCEu, 0xF3u},
 774:.\Generated_Source\PSoC5/cyfitter_cfg.c **** 			{0xD6u, 0x88u},
 775:.\Generated_Source\PSoC5/cyfitter_cfg.c **** 			{0xD8u, 0xB0u},
 776:.\Generated_Source\PSoC5/cyfitter_cfg.c **** 			{0xDEu, 0x02u},
 777:.\Generated_Source\PSoC5/cyfitter_cfg.c **** 			{0xE0u, 0x80u},
 778:.\Generated_Source\PSoC5/cyfitter_cfg.c **** 			{0xE4u, 0x40u},
 779:.\Generated_Source\PSoC5/cyfitter_cfg.c **** 			{0xEEu, 0x04u},
 780:.\Generated_Source\PSoC5/cyfitter_cfg.c **** 			{0x19u, 0x01u},
 781:.\Generated_Source\PSoC5/cyfitter_cfg.c **** 			{0x33u, 0x01u},
 782:.\Generated_Source\PSoC5/cyfitter_cfg.c **** 			{0x3Fu, 0x04u},
 783:.\Generated_Source\PSoC5/cyfitter_cfg.c **** 			{0x54u, 0x01u},
 784:.\Generated_Source\PSoC5/cyfitter_cfg.c **** 			{0x56u, 0x04u},
 785:.\Generated_Source\PSoC5/cyfitter_cfg.c **** 			{0x58u, 0x04u},
 786:.\Generated_Source\PSoC5/cyfitter_cfg.c **** 			{0x59u, 0x04u},
 787:.\Generated_Source\PSoC5/cyfitter_cfg.c **** 			{0x5Bu, 0x04u},
 788:.\Generated_Source\PSoC5/cyfitter_cfg.c **** 			{0x5Cu, 0x11u},
 789:.\Generated_Source\PSoC5/cyfitter_cfg.c **** 			{0x5Du, 0x20u},
 790:.\Generated_Source\PSoC5/cyfitter_cfg.c **** 			{0x5Fu, 0x01u},
 791:.\Generated_Source\PSoC5/cyfitter_cfg.c **** 			{0xD6u, 0x08u},
 792:.\Generated_Source\PSoC5/cyfitter_cfg.c **** 			{0xD8u, 0x04u},
 793:.\Generated_Source\PSoC5/cyfitter_cfg.c **** 			{0xD9u, 0x04u},
 794:.\Generated_Source\PSoC5/cyfitter_cfg.c **** 			{0xDBu, 0x04u},
ARM GAS  C:\Users\glenn\AppData\Local\Temp\cc58Te5j.s 			page 35


 795:.\Generated_Source\PSoC5/cyfitter_cfg.c **** 			{0xDCu, 0x11u},
 796:.\Generated_Source\PSoC5/cyfitter_cfg.c **** 			{0xDDu, 0x90u},
 797:.\Generated_Source\PSoC5/cyfitter_cfg.c **** 			{0xDFu, 0x01u},
 798:.\Generated_Source\PSoC5/cyfitter_cfg.c **** 			{0x02u, 0x08u},
 799:.\Generated_Source\PSoC5/cyfitter_cfg.c **** 			{0x04u, 0x10u},
 800:.\Generated_Source\PSoC5/cyfitter_cfg.c **** 			{0x05u, 0x04u},
 801:.\Generated_Source\PSoC5/cyfitter_cfg.c **** 			{0x09u, 0x02u},
 802:.\Generated_Source\PSoC5/cyfitter_cfg.c **** 			{0x0Au, 0x15u},
 803:.\Generated_Source\PSoC5/cyfitter_cfg.c **** 			{0x0Du, 0x02u},
 804:.\Generated_Source\PSoC5/cyfitter_cfg.c **** 			{0x0Eu, 0x05u},
 805:.\Generated_Source\PSoC5/cyfitter_cfg.c **** 			{0x10u, 0x12u},
 806:.\Generated_Source\PSoC5/cyfitter_cfg.c **** 			{0x14u, 0x30u},
 807:.\Generated_Source\PSoC5/cyfitter_cfg.c **** 			{0x15u, 0x40u},
 808:.\Generated_Source\PSoC5/cyfitter_cfg.c **** 			{0x22u, 0x04u},
 809:.\Generated_Source\PSoC5/cyfitter_cfg.c **** 			{0x29u, 0x14u},
 810:.\Generated_Source\PSoC5/cyfitter_cfg.c **** 			{0x2Bu, 0x80u},
 811:.\Generated_Source\PSoC5/cyfitter_cfg.c **** 			{0x2Cu, 0x02u},
 812:.\Generated_Source\PSoC5/cyfitter_cfg.c **** 			{0x2Du, 0x40u},
 813:.\Generated_Source\PSoC5/cyfitter_cfg.c **** 			{0x2Fu, 0x80u},
 814:.\Generated_Source\PSoC5/cyfitter_cfg.c **** 			{0x30u, 0x20u},
 815:.\Generated_Source\PSoC5/cyfitter_cfg.c **** 			{0x31u, 0x02u},
 816:.\Generated_Source\PSoC5/cyfitter_cfg.c **** 			{0x33u, 0x01u},
 817:.\Generated_Source\PSoC5/cyfitter_cfg.c **** 			{0x34u, 0x20u},
 818:.\Generated_Source\PSoC5/cyfitter_cfg.c **** 			{0x35u, 0x14u},
 819:.\Generated_Source\PSoC5/cyfitter_cfg.c **** 			{0x36u, 0x08u},
 820:.\Generated_Source\PSoC5/cyfitter_cfg.c **** 			{0x37u, 0x01u},
 821:.\Generated_Source\PSoC5/cyfitter_cfg.c **** 			{0x38u, 0x14u},
 822:.\Generated_Source\PSoC5/cyfitter_cfg.c **** 			{0x39u, 0x40u},
 823:.\Generated_Source\PSoC5/cyfitter_cfg.c **** 			{0x3Cu, 0x34u},
 824:.\Generated_Source\PSoC5/cyfitter_cfg.c **** 			{0x3Eu, 0x14u},
 825:.\Generated_Source\PSoC5/cyfitter_cfg.c **** 			{0x58u, 0x01u},
 826:.\Generated_Source\PSoC5/cyfitter_cfg.c **** 			{0x5Au, 0x68u},
 827:.\Generated_Source\PSoC5/cyfitter_cfg.c **** 			{0x5Eu, 0x80u},
 828:.\Generated_Source\PSoC5/cyfitter_cfg.c **** 			{0x63u, 0x40u},
 829:.\Generated_Source\PSoC5/cyfitter_cfg.c **** 			{0x64u, 0x02u},
 830:.\Generated_Source\PSoC5/cyfitter_cfg.c **** 			{0x69u, 0x90u},
 831:.\Generated_Source\PSoC5/cyfitter_cfg.c **** 			{0x89u, 0x10u},
 832:.\Generated_Source\PSoC5/cyfitter_cfg.c **** 			{0x8Du, 0x42u},
 833:.\Generated_Source\PSoC5/cyfitter_cfg.c **** 			{0x92u, 0x40u},
 834:.\Generated_Source\PSoC5/cyfitter_cfg.c **** 			{0x96u, 0x05u},
 835:.\Generated_Source\PSoC5/cyfitter_cfg.c **** 			{0x99u, 0x08u},
 836:.\Generated_Source\PSoC5/cyfitter_cfg.c **** 			{0x9Cu, 0x20u},
 837:.\Generated_Source\PSoC5/cyfitter_cfg.c **** 			{0xA0u, 0x20u},
 838:.\Generated_Source\PSoC5/cyfitter_cfg.c **** 			{0xA2u, 0x40u},
 839:.\Generated_Source\PSoC5/cyfitter_cfg.c **** 			{0xA4u, 0x12u},
 840:.\Generated_Source\PSoC5/cyfitter_cfg.c **** 			{0xA5u, 0x02u},
 841:.\Generated_Source\PSoC5/cyfitter_cfg.c **** 			{0xA6u, 0x08u},
 842:.\Generated_Source\PSoC5/cyfitter_cfg.c **** 			{0xC0u, 0x62u},
 843:.\Generated_Source\PSoC5/cyfitter_cfg.c **** 			{0xC2u, 0xDFu},
 844:.\Generated_Source\PSoC5/cyfitter_cfg.c **** 			{0xC4u, 0xA5u},
 845:.\Generated_Source\PSoC5/cyfitter_cfg.c **** 			{0xCAu, 0x97u},
 846:.\Generated_Source\PSoC5/cyfitter_cfg.c **** 			{0xCCu, 0xE5u},
 847:.\Generated_Source\PSoC5/cyfitter_cfg.c **** 			{0xCEu, 0x6Eu},
 848:.\Generated_Source\PSoC5/cyfitter_cfg.c **** 			{0xD6u, 0x1Fu},
 849:.\Generated_Source\PSoC5/cyfitter_cfg.c **** 			{0xD8u, 0x11u},
 850:.\Generated_Source\PSoC5/cyfitter_cfg.c **** 			{0xE2u, 0x40u},
 851:.\Generated_Source\PSoC5/cyfitter_cfg.c **** 			{0x08u, 0x03u},
ARM GAS  C:\Users\glenn\AppData\Local\Temp\cc58Te5j.s 			page 36


 852:.\Generated_Source\PSoC5/cyfitter_cfg.c **** 			{0x1Au, 0x01u},
 853:.\Generated_Source\PSoC5/cyfitter_cfg.c **** 			{0x20u, 0x03u},
 854:.\Generated_Source\PSoC5/cyfitter_cfg.c **** 			{0x24u, 0x02u},
 855:.\Generated_Source\PSoC5/cyfitter_cfg.c **** 			{0x34u, 0x03u},
 856:.\Generated_Source\PSoC5/cyfitter_cfg.c **** 			{0x38u, 0x20u},
 857:.\Generated_Source\PSoC5/cyfitter_cfg.c **** 			{0x3Eu, 0x10u},
 858:.\Generated_Source\PSoC5/cyfitter_cfg.c **** 			{0x40u, 0x02u},
 859:.\Generated_Source\PSoC5/cyfitter_cfg.c **** 			{0x47u, 0x40u},
 860:.\Generated_Source\PSoC5/cyfitter_cfg.c **** 			{0x49u, 0xFFu},
 861:.\Generated_Source\PSoC5/cyfitter_cfg.c **** 			{0x4Au, 0x07u},
 862:.\Generated_Source\PSoC5/cyfitter_cfg.c **** 			{0x4Bu, 0xFFu},
 863:.\Generated_Source\PSoC5/cyfitter_cfg.c **** 			{0x4Cu, 0x40u},
 864:.\Generated_Source\PSoC5/cyfitter_cfg.c **** 			{0x4Du, 0x20u},
 865:.\Generated_Source\PSoC5/cyfitter_cfg.c **** 			{0x4Eu, 0xF0u},
 866:.\Generated_Source\PSoC5/cyfitter_cfg.c **** 			{0x4Fu, 0x05u},
 867:.\Generated_Source\PSoC5/cyfitter_cfg.c **** 			{0x50u, 0x08u},
 868:.\Generated_Source\PSoC5/cyfitter_cfg.c **** 			{0x58u, 0x04u},
 869:.\Generated_Source\PSoC5/cyfitter_cfg.c **** 			{0x59u, 0x04u},
 870:.\Generated_Source\PSoC5/cyfitter_cfg.c **** 			{0x5Au, 0x04u},
 871:.\Generated_Source\PSoC5/cyfitter_cfg.c **** 			{0x5Cu, 0x11u},
 872:.\Generated_Source\PSoC5/cyfitter_cfg.c **** 			{0x5Du, 0x02u},
 873:.\Generated_Source\PSoC5/cyfitter_cfg.c **** 			{0x5Fu, 0x01u},
 874:.\Generated_Source\PSoC5/cyfitter_cfg.c **** 			{0x60u, 0x40u},
 875:.\Generated_Source\PSoC5/cyfitter_cfg.c **** 			{0x61u, 0xA8u},
 876:.\Generated_Source\PSoC5/cyfitter_cfg.c **** 			{0x62u, 0x40u},
 877:.\Generated_Source\PSoC5/cyfitter_cfg.c **** 			{0x63u, 0x20u},
 878:.\Generated_Source\PSoC5/cyfitter_cfg.c **** 			{0xC0u, 0x52u},
 879:.\Generated_Source\PSoC5/cyfitter_cfg.c **** 			{0xC1u, 0x03u},
 880:.\Generated_Source\PSoC5/cyfitter_cfg.c **** 			{0xC5u, 0x0Cu},
 881:.\Generated_Source\PSoC5/cyfitter_cfg.c **** 			{0xC6u, 0xE0u},
 882:.\Generated_Source\PSoC5/cyfitter_cfg.c **** 			{0xC7u, 0x0Bu},
 883:.\Generated_Source\PSoC5/cyfitter_cfg.c **** 			{0xC8u, 0x19u},
 884:.\Generated_Source\PSoC5/cyfitter_cfg.c **** 			{0xC9u, 0xFFu},
 885:.\Generated_Source\PSoC5/cyfitter_cfg.c **** 			{0xCAu, 0xFFu},
 886:.\Generated_Source\PSoC5/cyfitter_cfg.c **** 			{0xCBu, 0xFFu},
 887:.\Generated_Source\PSoC5/cyfitter_cfg.c **** 			{0xCEu, 0xF0u},
 888:.\Generated_Source\PSoC5/cyfitter_cfg.c **** 			{0xCFu, 0x44u},
 889:.\Generated_Source\PSoC5/cyfitter_cfg.c **** 			{0xD0u, 0x0Cu},
 890:.\Generated_Source\PSoC5/cyfitter_cfg.c **** 			{0xD8u, 0x04u},
 891:.\Generated_Source\PSoC5/cyfitter_cfg.c **** 			{0xD9u, 0x04u},
 892:.\Generated_Source\PSoC5/cyfitter_cfg.c **** 			{0xDAu, 0x04u},
 893:.\Generated_Source\PSoC5/cyfitter_cfg.c **** 			{0xDCu, 0x11u},
 894:.\Generated_Source\PSoC5/cyfitter_cfg.c **** 			{0xDDu, 0x02u},
 895:.\Generated_Source\PSoC5/cyfitter_cfg.c **** 			{0xDFu, 0x01u},
 896:.\Generated_Source\PSoC5/cyfitter_cfg.c **** 			{0xE6u, 0xC0u},
 897:.\Generated_Source\PSoC5/cyfitter_cfg.c **** 			{0xEAu, 0x40u},
 898:.\Generated_Source\PSoC5/cyfitter_cfg.c **** 			{0xEBu, 0x02u},
 899:.\Generated_Source\PSoC5/cyfitter_cfg.c **** 			{0x00u, 0x20u},
 900:.\Generated_Source\PSoC5/cyfitter_cfg.c **** 			{0x04u, 0x16u},
 901:.\Generated_Source\PSoC5/cyfitter_cfg.c **** 			{0x09u, 0x02u},
 902:.\Generated_Source\PSoC5/cyfitter_cfg.c **** 			{0x0Au, 0x05u},
 903:.\Generated_Source\PSoC5/cyfitter_cfg.c **** 			{0x0Du, 0x52u},
 904:.\Generated_Source\PSoC5/cyfitter_cfg.c **** 			{0x0Eu, 0x01u},
 905:.\Generated_Source\PSoC5/cyfitter_cfg.c **** 			{0x0Fu, 0x14u},
 906:.\Generated_Source\PSoC5/cyfitter_cfg.c **** 			{0x10u, 0x12u},
 907:.\Generated_Source\PSoC5/cyfitter_cfg.c **** 			{0x12u, 0x08u},
 908:.\Generated_Source\PSoC5/cyfitter_cfg.c **** 			{0x14u, 0x08u},
ARM GAS  C:\Users\glenn\AppData\Local\Temp\cc58Te5j.s 			page 37


 909:.\Generated_Source\PSoC5/cyfitter_cfg.c **** 			{0x15u, 0x42u},
 910:.\Generated_Source\PSoC5/cyfitter_cfg.c **** 			{0x17u, 0x08u},
 911:.\Generated_Source\PSoC5/cyfitter_cfg.c **** 			{0x1Du, 0x20u},
 912:.\Generated_Source\PSoC5/cyfitter_cfg.c **** 			{0x28u, 0x38u},
 913:.\Generated_Source\PSoC5/cyfitter_cfg.c **** 			{0x2Cu, 0x02u},
 914:.\Generated_Source\PSoC5/cyfitter_cfg.c **** 			{0x2Du, 0x40u},
 915:.\Generated_Source\PSoC5/cyfitter_cfg.c **** 			{0x2Fu, 0x01u},
 916:.\Generated_Source\PSoC5/cyfitter_cfg.c **** 			{0x31u, 0x02u},
 917:.\Generated_Source\PSoC5/cyfitter_cfg.c **** 			{0x33u, 0x01u},
 918:.\Generated_Source\PSoC5/cyfitter_cfg.c **** 			{0x34u, 0x28u},
 919:.\Generated_Source\PSoC5/cyfitter_cfg.c **** 			{0x36u, 0x08u},
 920:.\Generated_Source\PSoC5/cyfitter_cfg.c **** 			{0x37u, 0x01u},
 921:.\Generated_Source\PSoC5/cyfitter_cfg.c **** 			{0x38u, 0x04u},
 922:.\Generated_Source\PSoC5/cyfitter_cfg.c **** 			{0x39u, 0x90u},
 923:.\Generated_Source\PSoC5/cyfitter_cfg.c **** 			{0x3Bu, 0x02u},
 924:.\Generated_Source\PSoC5/cyfitter_cfg.c **** 			{0x3Cu, 0x24u},
 925:.\Generated_Source\PSoC5/cyfitter_cfg.c **** 			{0x3Du, 0x10u},
 926:.\Generated_Source\PSoC5/cyfitter_cfg.c **** 			{0x3Eu, 0x05u},
 927:.\Generated_Source\PSoC5/cyfitter_cfg.c **** 			{0x3Fu, 0x10u},
 928:.\Generated_Source\PSoC5/cyfitter_cfg.c **** 			{0x40u, 0x10u},
 929:.\Generated_Source\PSoC5/cyfitter_cfg.c **** 			{0x41u, 0x10u},
 930:.\Generated_Source\PSoC5/cyfitter_cfg.c **** 			{0x45u, 0x20u},
 931:.\Generated_Source\PSoC5/cyfitter_cfg.c **** 			{0x49u, 0x08u},
 932:.\Generated_Source\PSoC5/cyfitter_cfg.c **** 			{0x4Au, 0x02u},
 933:.\Generated_Source\PSoC5/cyfitter_cfg.c **** 			{0x4Fu, 0x04u},
 934:.\Generated_Source\PSoC5/cyfitter_cfg.c **** 			{0x50u, 0x24u},
 935:.\Generated_Source\PSoC5/cyfitter_cfg.c **** 			{0x57u, 0x02u},
 936:.\Generated_Source\PSoC5/cyfitter_cfg.c **** 			{0x8Au, 0x40u},
 937:.\Generated_Source\PSoC5/cyfitter_cfg.c **** 			{0x8Bu, 0x04u},
 938:.\Generated_Source\PSoC5/cyfitter_cfg.c **** 			{0x8Cu, 0x21u},
 939:.\Generated_Source\PSoC5/cyfitter_cfg.c **** 			{0x90u, 0x10u},
 940:.\Generated_Source\PSoC5/cyfitter_cfg.c **** 			{0x91u, 0x02u},
 941:.\Generated_Source\PSoC5/cyfitter_cfg.c **** 			{0x92u, 0x40u},
 942:.\Generated_Source\PSoC5/cyfitter_cfg.c **** 			{0x94u, 0x08u},
 943:.\Generated_Source\PSoC5/cyfitter_cfg.c **** 			{0x97u, 0x0Cu},
 944:.\Generated_Source\PSoC5/cyfitter_cfg.c **** 			{0x9Bu, 0x08u},
 945:.\Generated_Source\PSoC5/cyfitter_cfg.c **** 			{0x9Du, 0x08u},
 946:.\Generated_Source\PSoC5/cyfitter_cfg.c **** 			{0xA2u, 0x02u},
 947:.\Generated_Source\PSoC5/cyfitter_cfg.c **** 			{0xA7u, 0x02u},
 948:.\Generated_Source\PSoC5/cyfitter_cfg.c **** 			{0xAAu, 0x08u},
 949:.\Generated_Source\PSoC5/cyfitter_cfg.c **** 			{0xADu, 0x01u},
 950:.\Generated_Source\PSoC5/cyfitter_cfg.c **** 			{0xAFu, 0x40u},
 951:.\Generated_Source\PSoC5/cyfitter_cfg.c **** 			{0xB4u, 0x10u},
 952:.\Generated_Source\PSoC5/cyfitter_cfg.c **** 			{0xC0u, 0x72u},
 953:.\Generated_Source\PSoC5/cyfitter_cfg.c **** 			{0xC2u, 0xFBu},
 954:.\Generated_Source\PSoC5/cyfitter_cfg.c **** 			{0xC4u, 0xF7u},
 955:.\Generated_Source\PSoC5/cyfitter_cfg.c **** 			{0xCAu, 0x16u},
 956:.\Generated_Source\PSoC5/cyfitter_cfg.c **** 			{0xCCu, 0xE1u},
 957:.\Generated_Source\PSoC5/cyfitter_cfg.c **** 			{0xCEu, 0xEFu},
 958:.\Generated_Source\PSoC5/cyfitter_cfg.c **** 			{0xD0u, 0x26u},
 959:.\Generated_Source\PSoC5/cyfitter_cfg.c **** 			{0xD2u, 0x08u},
 960:.\Generated_Source\PSoC5/cyfitter_cfg.c **** 			{0xE0u, 0x20u},
 961:.\Generated_Source\PSoC5/cyfitter_cfg.c **** 			{0xE8u, 0x04u},
 962:.\Generated_Source\PSoC5/cyfitter_cfg.c **** 			{0xEAu, 0x08u},
 963:.\Generated_Source\PSoC5/cyfitter_cfg.c **** 			{0xEEu, 0x02u},
 964:.\Generated_Source\PSoC5/cyfitter_cfg.c **** 			{0x01u, 0x13u},
 965:.\Generated_Source\PSoC5/cyfitter_cfg.c **** 			{0x03u, 0x0Cu},
ARM GAS  C:\Users\glenn\AppData\Local\Temp\cc58Te5j.s 			page 38


 966:.\Generated_Source\PSoC5/cyfitter_cfg.c **** 			{0x06u, 0x08u},
 967:.\Generated_Source\PSoC5/cyfitter_cfg.c **** 			{0x07u, 0x05u},
 968:.\Generated_Source\PSoC5/cyfitter_cfg.c **** 			{0x09u, 0x13u},
 969:.\Generated_Source\PSoC5/cyfitter_cfg.c **** 			{0x0Bu, 0x04u},
 970:.\Generated_Source\PSoC5/cyfitter_cfg.c **** 			{0x0Fu, 0x08u},
 971:.\Generated_Source\PSoC5/cyfitter_cfg.c **** 			{0x10u, 0x08u},
 972:.\Generated_Source\PSoC5/cyfitter_cfg.c **** 			{0x14u, 0x08u},
 973:.\Generated_Source\PSoC5/cyfitter_cfg.c **** 			{0x19u, 0x1Au},
 974:.\Generated_Source\PSoC5/cyfitter_cfg.c **** 			{0x1Au, 0x01u},
 975:.\Generated_Source\PSoC5/cyfitter_cfg.c **** 			{0x1Bu, 0x04u},
 976:.\Generated_Source\PSoC5/cyfitter_cfg.c **** 			{0x22u, 0x02u},
 977:.\Generated_Source\PSoC5/cyfitter_cfg.c **** 			{0x25u, 0x03u},
 978:.\Generated_Source\PSoC5/cyfitter_cfg.c **** 			{0x26u, 0x08u},
 979:.\Generated_Source\PSoC5/cyfitter_cfg.c **** 			{0x27u, 0x04u},
 980:.\Generated_Source\PSoC5/cyfitter_cfg.c **** 			{0x2Au, 0x08u},
 981:.\Generated_Source\PSoC5/cyfitter_cfg.c **** 			{0x2Eu, 0x04u},
 982:.\Generated_Source\PSoC5/cyfitter_cfg.c **** 			{0x30u, 0x08u},
 983:.\Generated_Source\PSoC5/cyfitter_cfg.c **** 			{0x31u, 0x0Fu},
 984:.\Generated_Source\PSoC5/cyfitter_cfg.c **** 			{0x32u, 0x01u},
 985:.\Generated_Source\PSoC5/cyfitter_cfg.c **** 			{0x33u, 0x10u},
 986:.\Generated_Source\PSoC5/cyfitter_cfg.c **** 			{0x34u, 0x02u},
 987:.\Generated_Source\PSoC5/cyfitter_cfg.c **** 			{0x36u, 0x04u},
 988:.\Generated_Source\PSoC5/cyfitter_cfg.c **** 			{0x39u, 0x08u},
 989:.\Generated_Source\PSoC5/cyfitter_cfg.c **** 			{0x3Bu, 0x02u},
 990:.\Generated_Source\PSoC5/cyfitter_cfg.c **** 			{0x3Eu, 0x01u},
 991:.\Generated_Source\PSoC5/cyfitter_cfg.c **** 			{0x58u, 0x04u},
 992:.\Generated_Source\PSoC5/cyfitter_cfg.c **** 			{0x59u, 0x04u},
 993:.\Generated_Source\PSoC5/cyfitter_cfg.c **** 			{0x5Bu, 0x04u},
 994:.\Generated_Source\PSoC5/cyfitter_cfg.c **** 			{0x5Cu, 0x26u},
 995:.\Generated_Source\PSoC5/cyfitter_cfg.c **** 			{0x5Fu, 0x01u},
 996:.\Generated_Source\PSoC5/cyfitter_cfg.c **** 			{0x80u, 0x10u},
 997:.\Generated_Source\PSoC5/cyfitter_cfg.c **** 			{0x81u, 0x40u},
 998:.\Generated_Source\PSoC5/cyfitter_cfg.c **** 			{0x82u, 0x40u},
 999:.\Generated_Source\PSoC5/cyfitter_cfg.c **** 			{0x84u, 0x14u},
1000:.\Generated_Source\PSoC5/cyfitter_cfg.c **** 			{0x85u, 0x20u},
1001:.\Generated_Source\PSoC5/cyfitter_cfg.c **** 			{0x87u, 0x03u},
1002:.\Generated_Source\PSoC5/cyfitter_cfg.c **** 			{0x88u, 0x0Cu},
1003:.\Generated_Source\PSoC5/cyfitter_cfg.c **** 			{0x89u, 0x11u},
1004:.\Generated_Source\PSoC5/cyfitter_cfg.c **** 			{0x8Au, 0x71u},
1005:.\Generated_Source\PSoC5/cyfitter_cfg.c **** 			{0x8Bu, 0x0Eu},
1006:.\Generated_Source\PSoC5/cyfitter_cfg.c **** 			{0x8Cu, 0x09u},
1007:.\Generated_Source\PSoC5/cyfitter_cfg.c **** 			{0x8Eu, 0xD0u},
1008:.\Generated_Source\PSoC5/cyfitter_cfg.c **** 			{0x8Fu, 0x0Cu},
1009:.\Generated_Source\PSoC5/cyfitter_cfg.c **** 			{0x91u, 0x11u},
1010:.\Generated_Source\PSoC5/cyfitter_cfg.c **** 			{0x93u, 0x06u},
1011:.\Generated_Source\PSoC5/cyfitter_cfg.c **** 			{0x95u, 0x0Cu},
1012:.\Generated_Source\PSoC5/cyfitter_cfg.c **** 			{0x97u, 0x13u},
1013:.\Generated_Source\PSoC5/cyfitter_cfg.c **** 			{0x9Au, 0x20u},
1014:.\Generated_Source\PSoC5/cyfitter_cfg.c **** 			{0x9Eu, 0x03u},
1015:.\Generated_Source\PSoC5/cyfitter_cfg.c **** 			{0xA0u, 0x10u},
1016:.\Generated_Source\PSoC5/cyfitter_cfg.c **** 			{0xA2u, 0xACu},
1017:.\Generated_Source\PSoC5/cyfitter_cfg.c **** 			{0xA4u, 0xDCu},
1018:.\Generated_Source\PSoC5/cyfitter_cfg.c **** 			{0xA6u, 0x22u},
1019:.\Generated_Source\PSoC5/cyfitter_cfg.c **** 			{0xAFu, 0x08u},
1020:.\Generated_Source\PSoC5/cyfitter_cfg.c **** 			{0xB2u, 0xE0u},
1021:.\Generated_Source\PSoC5/cyfitter_cfg.c **** 			{0xB3u, 0x40u},
1022:.\Generated_Source\PSoC5/cyfitter_cfg.c **** 			{0xB5u, 0x0Fu},
ARM GAS  C:\Users\glenn\AppData\Local\Temp\cc58Te5j.s 			page 39


1023:.\Generated_Source\PSoC5/cyfitter_cfg.c **** 			{0xB6u, 0x1Fu},
1024:.\Generated_Source\PSoC5/cyfitter_cfg.c **** 			{0xB7u, 0x30u},
1025:.\Generated_Source\PSoC5/cyfitter_cfg.c **** 			{0xB9u, 0x80u},
1026:.\Generated_Source\PSoC5/cyfitter_cfg.c **** 			{0xBAu, 0x08u},
1027:.\Generated_Source\PSoC5/cyfitter_cfg.c **** 			{0xBBu, 0x20u},
1028:.\Generated_Source\PSoC5/cyfitter_cfg.c **** 			{0xBFu, 0x04u},
1029:.\Generated_Source\PSoC5/cyfitter_cfg.c **** 			{0xD8u, 0x04u},
1030:.\Generated_Source\PSoC5/cyfitter_cfg.c **** 			{0xD9u, 0x04u},
1031:.\Generated_Source\PSoC5/cyfitter_cfg.c **** 			{0xDCu, 0x22u},
1032:.\Generated_Source\PSoC5/cyfitter_cfg.c **** 			{0xDFu, 0x01u},
1033:.\Generated_Source\PSoC5/cyfitter_cfg.c **** 			{0x01u, 0x08u},
1034:.\Generated_Source\PSoC5/cyfitter_cfg.c **** 			{0x04u, 0x18u},
1035:.\Generated_Source\PSoC5/cyfitter_cfg.c **** 			{0x06u, 0x80u},
1036:.\Generated_Source\PSoC5/cyfitter_cfg.c **** 			{0x07u, 0x02u},
1037:.\Generated_Source\PSoC5/cyfitter_cfg.c **** 			{0x09u, 0x0Au},
1038:.\Generated_Source\PSoC5/cyfitter_cfg.c **** 			{0x0Bu, 0x08u},
1039:.\Generated_Source\PSoC5/cyfitter_cfg.c **** 			{0x0Eu, 0x01u},
1040:.\Generated_Source\PSoC5/cyfitter_cfg.c **** 			{0x0Fu, 0x04u},
1041:.\Generated_Source\PSoC5/cyfitter_cfg.c **** 			{0x11u, 0x21u},
1042:.\Generated_Source\PSoC5/cyfitter_cfg.c **** 			{0x13u, 0x44u},
1043:.\Generated_Source\PSoC5/cyfitter_cfg.c **** 			{0x15u, 0x02u},
1044:.\Generated_Source\PSoC5/cyfitter_cfg.c **** 			{0x17u, 0x08u},
1045:.\Generated_Source\PSoC5/cyfitter_cfg.c **** 			{0x19u, 0x94u},
1046:.\Generated_Source\PSoC5/cyfitter_cfg.c **** 			{0x1Au, 0x40u},
1047:.\Generated_Source\PSoC5/cyfitter_cfg.c **** 			{0x1Cu, 0x10u},
1048:.\Generated_Source\PSoC5/cyfitter_cfg.c **** 			{0x1Du, 0x08u},
1049:.\Generated_Source\PSoC5/cyfitter_cfg.c **** 			{0x1Eu, 0x01u},
1050:.\Generated_Source\PSoC5/cyfitter_cfg.c **** 			{0x21u, 0x03u},
1051:.\Generated_Source\PSoC5/cyfitter_cfg.c **** 			{0x22u, 0x0Au},
1052:.\Generated_Source\PSoC5/cyfitter_cfg.c **** 			{0x24u, 0x20u},
1053:.\Generated_Source\PSoC5/cyfitter_cfg.c **** 			{0x25u, 0x70u},
1054:.\Generated_Source\PSoC5/cyfitter_cfg.c **** 			{0x27u, 0x0Au},
1055:.\Generated_Source\PSoC5/cyfitter_cfg.c **** 			{0x29u, 0x08u},
1056:.\Generated_Source\PSoC5/cyfitter_cfg.c **** 			{0x2Eu, 0x80u},
1057:.\Generated_Source\PSoC5/cyfitter_cfg.c **** 			{0x2Fu, 0x02u},
1058:.\Generated_Source\PSoC5/cyfitter_cfg.c **** 			{0x31u, 0x20u},
1059:.\Generated_Source\PSoC5/cyfitter_cfg.c **** 			{0x36u, 0x02u},
1060:.\Generated_Source\PSoC5/cyfitter_cfg.c **** 			{0x37u, 0x08u},
1061:.\Generated_Source\PSoC5/cyfitter_cfg.c **** 			{0x38u, 0x50u},
1062:.\Generated_Source\PSoC5/cyfitter_cfg.c **** 			{0x39u, 0x02u},
1063:.\Generated_Source\PSoC5/cyfitter_cfg.c **** 			{0x3Bu, 0x04u},
1064:.\Generated_Source\PSoC5/cyfitter_cfg.c **** 			{0x3Cu, 0x50u},
1065:.\Generated_Source\PSoC5/cyfitter_cfg.c **** 			{0x3Du, 0x80u},
1066:.\Generated_Source\PSoC5/cyfitter_cfg.c **** 			{0x3Eu, 0x01u},
1067:.\Generated_Source\PSoC5/cyfitter_cfg.c **** 			{0x3Fu, 0x04u},
1068:.\Generated_Source\PSoC5/cyfitter_cfg.c **** 			{0x59u, 0x94u},
1069:.\Generated_Source\PSoC5/cyfitter_cfg.c **** 			{0xC0u, 0xF4u},
1070:.\Generated_Source\PSoC5/cyfitter_cfg.c **** 			{0xC2u, 0xCEu},
1071:.\Generated_Source\PSoC5/cyfitter_cfg.c **** 			{0xC4u, 0x3Fu},
1072:.\Generated_Source\PSoC5/cyfitter_cfg.c **** 			{0xCAu, 0x12u},
1073:.\Generated_Source\PSoC5/cyfitter_cfg.c **** 			{0xCCu, 0xC4u},
1074:.\Generated_Source\PSoC5/cyfitter_cfg.c **** 			{0xCEu, 0xFFu},
1075:.\Generated_Source\PSoC5/cyfitter_cfg.c **** 			{0xD6u, 0x0Eu},
1076:.\Generated_Source\PSoC5/cyfitter_cfg.c **** 			{0xE4u, 0x04u},
1077:.\Generated_Source\PSoC5/cyfitter_cfg.c **** 			{0xAAu, 0x40u},
1078:.\Generated_Source\PSoC5/cyfitter_cfg.c **** 			{0xADu, 0x40u},
1079:.\Generated_Source\PSoC5/cyfitter_cfg.c **** 			{0xB6u, 0x08u},
ARM GAS  C:\Users\glenn\AppData\Local\Temp\cc58Te5j.s 			page 40


1080:.\Generated_Source\PSoC5/cyfitter_cfg.c **** 			{0xE2u, 0x01u},
1081:.\Generated_Source\PSoC5/cyfitter_cfg.c **** 			{0xECu, 0x0Bu},
1082:.\Generated_Source\PSoC5/cyfitter_cfg.c **** 			{0x07u, 0x01u},
1083:.\Generated_Source\PSoC5/cyfitter_cfg.c **** 			{0x37u, 0x01u},
1084:.\Generated_Source\PSoC5/cyfitter_cfg.c **** 			{0x58u, 0x04u},
1085:.\Generated_Source\PSoC5/cyfitter_cfg.c **** 			{0x59u, 0x04u},
1086:.\Generated_Source\PSoC5/cyfitter_cfg.c **** 			{0x5Cu, 0x11u},
1087:.\Generated_Source\PSoC5/cyfitter_cfg.c **** 			{0x5Fu, 0x01u},
1088:.\Generated_Source\PSoC5/cyfitter_cfg.c **** 			{0x82u, 0x04u},
1089:.\Generated_Source\PSoC5/cyfitter_cfg.c **** 			{0x84u, 0x40u},
1090:.\Generated_Source\PSoC5/cyfitter_cfg.c **** 			{0x86u, 0x80u},
1091:.\Generated_Source\PSoC5/cyfitter_cfg.c **** 			{0x87u, 0x08u},
1092:.\Generated_Source\PSoC5/cyfitter_cfg.c **** 			{0x88u, 0x20u},
1093:.\Generated_Source\PSoC5/cyfitter_cfg.c **** 			{0x8Au, 0x10u},
1094:.\Generated_Source\PSoC5/cyfitter_cfg.c **** 			{0x8Bu, 0x01u},
1095:.\Generated_Source\PSoC5/cyfitter_cfg.c **** 			{0x8Eu, 0x02u},
1096:.\Generated_Source\PSoC5/cyfitter_cfg.c **** 			{0x8Fu, 0x04u},
1097:.\Generated_Source\PSoC5/cyfitter_cfg.c **** 			{0x90u, 0x80u},
1098:.\Generated_Source\PSoC5/cyfitter_cfg.c **** 			{0x92u, 0x40u},
1099:.\Generated_Source\PSoC5/cyfitter_cfg.c **** 			{0x93u, 0x02u},
1100:.\Generated_Source\PSoC5/cyfitter_cfg.c **** 			{0x94u, 0x10u},
1101:.\Generated_Source\PSoC5/cyfitter_cfg.c **** 			{0x95u, 0x01u},
1102:.\Generated_Source\PSoC5/cyfitter_cfg.c **** 			{0x96u, 0x20u},
1103:.\Generated_Source\PSoC5/cyfitter_cfg.c **** 			{0x98u, 0x08u},
1104:.\Generated_Source\PSoC5/cyfitter_cfg.c **** 			{0x9Du, 0x08u},
1105:.\Generated_Source\PSoC5/cyfitter_cfg.c **** 			{0x9Eu, 0x08u},
1106:.\Generated_Source\PSoC5/cyfitter_cfg.c **** 			{0xA0u, 0x02u},
1107:.\Generated_Source\PSoC5/cyfitter_cfg.c **** 			{0xA1u, 0x04u},
1108:.\Generated_Source\PSoC5/cyfitter_cfg.c **** 			{0xA4u, 0x01u},
1109:.\Generated_Source\PSoC5/cyfitter_cfg.c **** 			{0xA7u, 0x10u},
1110:.\Generated_Source\PSoC5/cyfitter_cfg.c **** 			{0xAAu, 0x01u},
1111:.\Generated_Source\PSoC5/cyfitter_cfg.c **** 			{0xACu, 0x04u},
1112:.\Generated_Source\PSoC5/cyfitter_cfg.c **** 			{0xADu, 0x02u},
1113:.\Generated_Source\PSoC5/cyfitter_cfg.c **** 			{0xB2u, 0xFFu},
1114:.\Generated_Source\PSoC5/cyfitter_cfg.c **** 			{0xB7u, 0x1Fu},
1115:.\Generated_Source\PSoC5/cyfitter_cfg.c **** 			{0xB9u, 0x80u},
1116:.\Generated_Source\PSoC5/cyfitter_cfg.c **** 			{0xBAu, 0x80u},
1117:.\Generated_Source\PSoC5/cyfitter_cfg.c **** 			{0xBEu, 0x04u},
1118:.\Generated_Source\PSoC5/cyfitter_cfg.c **** 			{0xBFu, 0x40u},
1119:.\Generated_Source\PSoC5/cyfitter_cfg.c **** 			{0xD2u, 0x03u},
1120:.\Generated_Source\PSoC5/cyfitter_cfg.c **** 			{0xD3u, 0x02u},
1121:.\Generated_Source\PSoC5/cyfitter_cfg.c **** 			{0xD8u, 0x04u},
1122:.\Generated_Source\PSoC5/cyfitter_cfg.c **** 			{0xD9u, 0x04u},
1123:.\Generated_Source\PSoC5/cyfitter_cfg.c **** 			{0xDBu, 0x04u},
1124:.\Generated_Source\PSoC5/cyfitter_cfg.c **** 			{0xDCu, 0x12u},
1125:.\Generated_Source\PSoC5/cyfitter_cfg.c **** 			{0xDDu, 0x10u},
1126:.\Generated_Source\PSoC5/cyfitter_cfg.c **** 			{0xDFu, 0x01u},
1127:.\Generated_Source\PSoC5/cyfitter_cfg.c **** 			{0x01u, 0x92u},
1128:.\Generated_Source\PSoC5/cyfitter_cfg.c **** 			{0x02u, 0x20u},
1129:.\Generated_Source\PSoC5/cyfitter_cfg.c **** 			{0x05u, 0x86u},
1130:.\Generated_Source\PSoC5/cyfitter_cfg.c **** 			{0x08u, 0x08u},
1131:.\Generated_Source\PSoC5/cyfitter_cfg.c **** 			{0x09u, 0x40u},
1132:.\Generated_Source\PSoC5/cyfitter_cfg.c **** 			{0x0Au, 0x44u},
1133:.\Generated_Source\PSoC5/cyfitter_cfg.c **** 			{0x0Bu, 0x04u},
1134:.\Generated_Source\PSoC5/cyfitter_cfg.c **** 			{0x0Du, 0x80u},
1135:.\Generated_Source\PSoC5/cyfitter_cfg.c **** 			{0x0Fu, 0x10u},
1136:.\Generated_Source\PSoC5/cyfitter_cfg.c **** 			{0x12u, 0x18u},
ARM GAS  C:\Users\glenn\AppData\Local\Temp\cc58Te5j.s 			page 41


1137:.\Generated_Source\PSoC5/cyfitter_cfg.c **** 			{0x13u, 0xD9u},
1138:.\Generated_Source\PSoC5/cyfitter_cfg.c **** 			{0x14u, 0x08u},
1139:.\Generated_Source\PSoC5/cyfitter_cfg.c **** 			{0x15u, 0x01u},
1140:.\Generated_Source\PSoC5/cyfitter_cfg.c **** 			{0x19u, 0x48u},
1141:.\Generated_Source\PSoC5/cyfitter_cfg.c **** 			{0x22u, 0x40u},
1142:.\Generated_Source\PSoC5/cyfitter_cfg.c **** 			{0x25u, 0xC0u},
1143:.\Generated_Source\PSoC5/cyfitter_cfg.c **** 			{0x28u, 0x08u},
1144:.\Generated_Source\PSoC5/cyfitter_cfg.c **** 			{0x29u, 0x8Au},
1145:.\Generated_Source\PSoC5/cyfitter_cfg.c **** 			{0x2Du, 0x81u},
1146:.\Generated_Source\PSoC5/cyfitter_cfg.c **** 			{0x30u, 0x01u},
1147:.\Generated_Source\PSoC5/cyfitter_cfg.c **** 			{0x31u, 0x80u},
1148:.\Generated_Source\PSoC5/cyfitter_cfg.c **** 			{0x32u, 0x28u},
1149:.\Generated_Source\PSoC5/cyfitter_cfg.c **** 			{0x34u, 0x08u},
1150:.\Generated_Source\PSoC5/cyfitter_cfg.c **** 			{0x35u, 0x02u},
1151:.\Generated_Source\PSoC5/cyfitter_cfg.c **** 			{0x36u, 0x20u},
1152:.\Generated_Source\PSoC5/cyfitter_cfg.c **** 			{0x39u, 0x01u},
1153:.\Generated_Source\PSoC5/cyfitter_cfg.c **** 			{0x3Au, 0x10u},
1154:.\Generated_Source\PSoC5/cyfitter_cfg.c **** 			{0x3Bu, 0x44u},
1155:.\Generated_Source\PSoC5/cyfitter_cfg.c **** 			{0x3Du, 0x80u},
1156:.\Generated_Source\PSoC5/cyfitter_cfg.c **** 			{0x3Eu, 0x04u},
1157:.\Generated_Source\PSoC5/cyfitter_cfg.c **** 			{0x3Fu, 0x10u},
1158:.\Generated_Source\PSoC5/cyfitter_cfg.c **** 			{0x64u, 0x01u},
1159:.\Generated_Source\PSoC5/cyfitter_cfg.c **** 			{0x67u, 0x01u},
1160:.\Generated_Source\PSoC5/cyfitter_cfg.c **** 			{0x68u, 0x01u},
1161:.\Generated_Source\PSoC5/cyfitter_cfg.c **** 			{0x69u, 0x40u},
1162:.\Generated_Source\PSoC5/cyfitter_cfg.c **** 			{0x6Bu, 0x04u},
1163:.\Generated_Source\PSoC5/cyfitter_cfg.c **** 			{0x7Du, 0x01u},
1164:.\Generated_Source\PSoC5/cyfitter_cfg.c **** 			{0x7Eu, 0x40u},
1165:.\Generated_Source\PSoC5/cyfitter_cfg.c **** 			{0x81u, 0x04u},
1166:.\Generated_Source\PSoC5/cyfitter_cfg.c **** 			{0x82u, 0x20u},
1167:.\Generated_Source\PSoC5/cyfitter_cfg.c **** 			{0x85u, 0x40u},
1168:.\Generated_Source\PSoC5/cyfitter_cfg.c **** 			{0x88u, 0x01u},
1169:.\Generated_Source\PSoC5/cyfitter_cfg.c **** 			{0x91u, 0x10u},
1170:.\Generated_Source\PSoC5/cyfitter_cfg.c **** 			{0x92u, 0x44u},
1171:.\Generated_Source\PSoC5/cyfitter_cfg.c **** 			{0x93u, 0x01u},
1172:.\Generated_Source\PSoC5/cyfitter_cfg.c **** 			{0x95u, 0x41u},
1173:.\Generated_Source\PSoC5/cyfitter_cfg.c **** 			{0x98u, 0x08u},
1174:.\Generated_Source\PSoC5/cyfitter_cfg.c **** 			{0x99u, 0x82u},
1175:.\Generated_Source\PSoC5/cyfitter_cfg.c **** 			{0x9Bu, 0x88u},
1176:.\Generated_Source\PSoC5/cyfitter_cfg.c **** 			{0x9Du, 0x04u},
1177:.\Generated_Source\PSoC5/cyfitter_cfg.c **** 			{0x9Eu, 0x10u},
1178:.\Generated_Source\PSoC5/cyfitter_cfg.c **** 			{0x9Fu, 0x04u},
1179:.\Generated_Source\PSoC5/cyfitter_cfg.c **** 			{0xA2u, 0x08u},
1180:.\Generated_Source\PSoC5/cyfitter_cfg.c **** 			{0xA5u, 0xC0u},
1181:.\Generated_Source\PSoC5/cyfitter_cfg.c **** 			{0xA6u, 0x20u},
1182:.\Generated_Source\PSoC5/cyfitter_cfg.c **** 			{0xA8u, 0x08u},
1183:.\Generated_Source\PSoC5/cyfitter_cfg.c **** 			{0xB1u, 0x80u},
1184:.\Generated_Source\PSoC5/cyfitter_cfg.c **** 			{0xB2u, 0x80u},
1185:.\Generated_Source\PSoC5/cyfitter_cfg.c **** 			{0xC0u, 0xBFu},
1186:.\Generated_Source\PSoC5/cyfitter_cfg.c **** 			{0xC2u, 0xAFu},
1187:.\Generated_Source\PSoC5/cyfitter_cfg.c **** 			{0xC4u, 0x5Fu},
1188:.\Generated_Source\PSoC5/cyfitter_cfg.c **** 			{0xCAu, 0x9Fu},
1189:.\Generated_Source\PSoC5/cyfitter_cfg.c **** 			{0xCCu, 0xEFu},
1190:.\Generated_Source\PSoC5/cyfitter_cfg.c **** 			{0xCEu, 0x7Fu},
1191:.\Generated_Source\PSoC5/cyfitter_cfg.c **** 			{0xE0u, 0x12u},
1192:.\Generated_Source\PSoC5/cyfitter_cfg.c **** 			{0xE6u, 0x01u},
1193:.\Generated_Source\PSoC5/cyfitter_cfg.c **** 			{0xEEu, 0x04u},
ARM GAS  C:\Users\glenn\AppData\Local\Temp\cc58Te5j.s 			page 42


1194:.\Generated_Source\PSoC5/cyfitter_cfg.c **** 			{0x03u, 0x40u},
1195:.\Generated_Source\PSoC5/cyfitter_cfg.c **** 			{0x05u, 0x27u},
1196:.\Generated_Source\PSoC5/cyfitter_cfg.c **** 			{0x07u, 0x18u},
1197:.\Generated_Source\PSoC5/cyfitter_cfg.c **** 			{0x09u, 0x18u},
1198:.\Generated_Source\PSoC5/cyfitter_cfg.c **** 			{0x0Fu, 0x40u},
1199:.\Generated_Source\PSoC5/cyfitter_cfg.c **** 			{0x13u, 0x04u},
1200:.\Generated_Source\PSoC5/cyfitter_cfg.c **** 			{0x15u, 0x1Cu},
1201:.\Generated_Source\PSoC5/cyfitter_cfg.c **** 			{0x17u, 0x22u},
1202:.\Generated_Source\PSoC5/cyfitter_cfg.c **** 			{0x1Bu, 0x03u},
1203:.\Generated_Source\PSoC5/cyfitter_cfg.c **** 			{0x1Du, 0x3Fu},
1204:.\Generated_Source\PSoC5/cyfitter_cfg.c **** 			{0x21u, 0x10u},
1205:.\Generated_Source\PSoC5/cyfitter_cfg.c **** 			{0x25u, 0x04u},
1206:.\Generated_Source\PSoC5/cyfitter_cfg.c **** 			{0x27u, 0x80u},
1207:.\Generated_Source\PSoC5/cyfitter_cfg.c **** 			{0x29u, 0x08u},
1208:.\Generated_Source\PSoC5/cyfitter_cfg.c **** 			{0x2Du, 0x1Cu},
1209:.\Generated_Source\PSoC5/cyfitter_cfg.c **** 			{0x2Fu, 0x21u},
1210:.\Generated_Source\PSoC5/cyfitter_cfg.c **** 			{0x31u, 0x80u},
1211:.\Generated_Source\PSoC5/cyfitter_cfg.c **** 			{0x33u, 0x40u},
1212:.\Generated_Source\PSoC5/cyfitter_cfg.c **** 			{0x35u, 0x1Fu},
1213:.\Generated_Source\PSoC5/cyfitter_cfg.c **** 			{0x37u, 0x20u},
1214:.\Generated_Source\PSoC5/cyfitter_cfg.c **** 			{0x39u, 0x80u},
1215:.\Generated_Source\PSoC5/cyfitter_cfg.c **** 			{0x3Bu, 0x20u},
1216:.\Generated_Source\PSoC5/cyfitter_cfg.c **** 			{0x3Fu, 0x04u},
1217:.\Generated_Source\PSoC5/cyfitter_cfg.c **** 			{0x40u, 0x32u},
1218:.\Generated_Source\PSoC5/cyfitter_cfg.c **** 			{0x41u, 0x06u},
1219:.\Generated_Source\PSoC5/cyfitter_cfg.c **** 			{0x42u, 0x04u},
1220:.\Generated_Source\PSoC5/cyfitter_cfg.c **** 			{0x44u, 0x05u},
1221:.\Generated_Source\PSoC5/cyfitter_cfg.c **** 			{0x45u, 0xCEu},
1222:.\Generated_Source\PSoC5/cyfitter_cfg.c **** 			{0x48u, 0x03u},
1223:.\Generated_Source\PSoC5/cyfitter_cfg.c **** 			{0x49u, 0xFFu},
1224:.\Generated_Source\PSoC5/cyfitter_cfg.c **** 			{0x4Au, 0xFFu},
1225:.\Generated_Source\PSoC5/cyfitter_cfg.c **** 			{0x4Bu, 0xFFu},
1226:.\Generated_Source\PSoC5/cyfitter_cfg.c **** 			{0x4Cu, 0x62u},
1227:.\Generated_Source\PSoC5/cyfitter_cfg.c **** 			{0x4Du, 0xA0u},
1228:.\Generated_Source\PSoC5/cyfitter_cfg.c **** 			{0x4Eu, 0xF0u},
1229:.\Generated_Source\PSoC5/cyfitter_cfg.c **** 			{0x4Fu, 0x41u},
1230:.\Generated_Source\PSoC5/cyfitter_cfg.c **** 			{0x50u, 0x0Cu},
1231:.\Generated_Source\PSoC5/cyfitter_cfg.c **** 			{0x58u, 0x04u},
1232:.\Generated_Source\PSoC5/cyfitter_cfg.c **** 			{0x59u, 0x04u},
1233:.\Generated_Source\PSoC5/cyfitter_cfg.c **** 			{0x5Au, 0x04u},
1234:.\Generated_Source\PSoC5/cyfitter_cfg.c **** 			{0x5Cu, 0x21u},
1235:.\Generated_Source\PSoC5/cyfitter_cfg.c **** 			{0x5Du, 0x02u},
1236:.\Generated_Source\PSoC5/cyfitter_cfg.c **** 			{0x5Fu, 0x01u},
1237:.\Generated_Source\PSoC5/cyfitter_cfg.c **** 			{0x66u, 0x40u},
1238:.\Generated_Source\PSoC5/cyfitter_cfg.c **** 			{0x67u, 0x02u},
1239:.\Generated_Source\PSoC5/cyfitter_cfg.c **** 			{0x69u, 0x10u},
1240:.\Generated_Source\PSoC5/cyfitter_cfg.c **** 			{0x6Au, 0x30u},
1241:.\Generated_Source\PSoC5/cyfitter_cfg.c **** 			{0x6Bu, 0x10u},
1242:.\Generated_Source\PSoC5/cyfitter_cfg.c **** 			{0x6Du, 0x10u},
1243:.\Generated_Source\PSoC5/cyfitter_cfg.c **** 			{0x6Eu, 0x10u},
1244:.\Generated_Source\PSoC5/cyfitter_cfg.c **** 			{0x6Fu, 0x12u},
1245:.\Generated_Source\PSoC5/cyfitter_cfg.c **** 			{0xD8u, 0x04u},
1246:.\Generated_Source\PSoC5/cyfitter_cfg.c **** 			{0xD9u, 0x04u},
1247:.\Generated_Source\PSoC5/cyfitter_cfg.c **** 			{0xDCu, 0x11u},
1248:.\Generated_Source\PSoC5/cyfitter_cfg.c **** 			{0xDFu, 0x01u},
1249:.\Generated_Source\PSoC5/cyfitter_cfg.c **** 			{0x00u, 0xA0u},
1250:.\Generated_Source\PSoC5/cyfitter_cfg.c **** 			{0x03u, 0x08u},
ARM GAS  C:\Users\glenn\AppData\Local\Temp\cc58Te5j.s 			page 43


1251:.\Generated_Source\PSoC5/cyfitter_cfg.c **** 			{0x05u, 0x04u},
1252:.\Generated_Source\PSoC5/cyfitter_cfg.c **** 			{0x06u, 0x09u},
1253:.\Generated_Source\PSoC5/cyfitter_cfg.c **** 			{0x09u, 0x20u},
1254:.\Generated_Source\PSoC5/cyfitter_cfg.c **** 			{0x0Au, 0x01u},
1255:.\Generated_Source\PSoC5/cyfitter_cfg.c **** 			{0x0Cu, 0x40u},
1256:.\Generated_Source\PSoC5/cyfitter_cfg.c **** 			{0x0Du, 0x22u},
1257:.\Generated_Source\PSoC5/cyfitter_cfg.c **** 			{0x0Eu, 0x01u},
1258:.\Generated_Source\PSoC5/cyfitter_cfg.c **** 			{0x10u, 0x12u},
1259:.\Generated_Source\PSoC5/cyfitter_cfg.c **** 			{0x11u, 0x02u},
1260:.\Generated_Source\PSoC5/cyfitter_cfg.c **** 			{0x12u, 0x80u},
1261:.\Generated_Source\PSoC5/cyfitter_cfg.c **** 			{0x14u, 0x20u},
1262:.\Generated_Source\PSoC5/cyfitter_cfg.c **** 			{0x24u, 0x02u},
1263:.\Generated_Source\PSoC5/cyfitter_cfg.c **** 			{0x26u, 0x0Au},
1264:.\Generated_Source\PSoC5/cyfitter_cfg.c **** 			{0x27u, 0x04u},
1265:.\Generated_Source\PSoC5/cyfitter_cfg.c **** 			{0x28u, 0x70u},
1266:.\Generated_Source\PSoC5/cyfitter_cfg.c **** 			{0x2Bu, 0x08u},
1267:.\Generated_Source\PSoC5/cyfitter_cfg.c **** 			{0x2Cu, 0xA0u},
1268:.\Generated_Source\PSoC5/cyfitter_cfg.c **** 			{0x2Du, 0x20u},
1269:.\Generated_Source\PSoC5/cyfitter_cfg.c **** 			{0x2Fu, 0x01u},
1270:.\Generated_Source\PSoC5/cyfitter_cfg.c **** 			{0x31u, 0x20u},
1271:.\Generated_Source\PSoC5/cyfitter_cfg.c **** 			{0x32u, 0x80u},
1272:.\Generated_Source\PSoC5/cyfitter_cfg.c **** 			{0x34u, 0x80u},
1273:.\Generated_Source\PSoC5/cyfitter_cfg.c **** 			{0x36u, 0x02u},
1274:.\Generated_Source\PSoC5/cyfitter_cfg.c **** 			{0x37u, 0x14u},
1275:.\Generated_Source\PSoC5/cyfitter_cfg.c **** 			{0x39u, 0x20u},
1276:.\Generated_Source\PSoC5/cyfitter_cfg.c **** 			{0x3Au, 0x01u},
1277:.\Generated_Source\PSoC5/cyfitter_cfg.c **** 			{0x3Du, 0x08u},
1278:.\Generated_Source\PSoC5/cyfitter_cfg.c **** 			{0x3Eu, 0xE0u},
1279:.\Generated_Source\PSoC5/cyfitter_cfg.c **** 			{0x3Fu, 0x02u},
1280:.\Generated_Source\PSoC5/cyfitter_cfg.c **** 			{0x45u, 0x0Cu},
1281:.\Generated_Source\PSoC5/cyfitter_cfg.c **** 			{0x46u, 0x80u},
1282:.\Generated_Source\PSoC5/cyfitter_cfg.c **** 			{0x47u, 0x10u},
1283:.\Generated_Source\PSoC5/cyfitter_cfg.c **** 			{0x4Cu, 0x10u},
1284:.\Generated_Source\PSoC5/cyfitter_cfg.c **** 			{0x4Eu, 0x05u},
1285:.\Generated_Source\PSoC5/cyfitter_cfg.c **** 			{0x4Fu, 0x02u},
1286:.\Generated_Source\PSoC5/cyfitter_cfg.c **** 			{0x64u, 0x80u},
1287:.\Generated_Source\PSoC5/cyfitter_cfg.c **** 			{0x65u, 0x02u},
1288:.\Generated_Source\PSoC5/cyfitter_cfg.c **** 			{0x81u, 0x01u},
1289:.\Generated_Source\PSoC5/cyfitter_cfg.c **** 			{0x82u, 0x08u},
1290:.\Generated_Source\PSoC5/cyfitter_cfg.c **** 			{0x84u, 0x40u},
1291:.\Generated_Source\PSoC5/cyfitter_cfg.c **** 			{0x85u, 0x12u},
1292:.\Generated_Source\PSoC5/cyfitter_cfg.c **** 			{0x86u, 0x04u},
1293:.\Generated_Source\PSoC5/cyfitter_cfg.c **** 			{0x88u, 0x08u},
1294:.\Generated_Source\PSoC5/cyfitter_cfg.c **** 			{0x8Au, 0x48u},
1295:.\Generated_Source\PSoC5/cyfitter_cfg.c **** 			{0x92u, 0x01u},
1296:.\Generated_Source\PSoC5/cyfitter_cfg.c **** 			{0x94u, 0x22u},
1297:.\Generated_Source\PSoC5/cyfitter_cfg.c **** 			{0x96u, 0x84u},
1298:.\Generated_Source\PSoC5/cyfitter_cfg.c **** 			{0x98u, 0x22u},
1299:.\Generated_Source\PSoC5/cyfitter_cfg.c **** 			{0x9Cu, 0x08u},
1300:.\Generated_Source\PSoC5/cyfitter_cfg.c **** 			{0x9Du, 0x04u},
1301:.\Generated_Source\PSoC5/cyfitter_cfg.c **** 			{0x9Eu, 0x48u},
1302:.\Generated_Source\PSoC5/cyfitter_cfg.c **** 			{0xA1u, 0x21u},
1303:.\Generated_Source\PSoC5/cyfitter_cfg.c **** 			{0xA4u, 0x12u},
1304:.\Generated_Source\PSoC5/cyfitter_cfg.c **** 			{0xA6u, 0x01u},
1305:.\Generated_Source\PSoC5/cyfitter_cfg.c **** 			{0xABu, 0x80u},
1306:.\Generated_Source\PSoC5/cyfitter_cfg.c **** 			{0xB0u, 0x04u},
1307:.\Generated_Source\PSoC5/cyfitter_cfg.c **** 			{0xB1u, 0x20u},
ARM GAS  C:\Users\glenn\AppData\Local\Temp\cc58Te5j.s 			page 44


1308:.\Generated_Source\PSoC5/cyfitter_cfg.c **** 			{0xB2u, 0x08u},
1309:.\Generated_Source\PSoC5/cyfitter_cfg.c **** 			{0xC0u, 0xE3u},
1310:.\Generated_Source\PSoC5/cyfitter_cfg.c **** 			{0xC2u, 0xD3u},
1311:.\Generated_Source\PSoC5/cyfitter_cfg.c **** 			{0xC4u, 0x2Du},
1312:.\Generated_Source\PSoC5/cyfitter_cfg.c **** 			{0xCAu, 0xF7u},
1313:.\Generated_Source\PSoC5/cyfitter_cfg.c **** 			{0xCCu, 0xFCu},
1314:.\Generated_Source\PSoC5/cyfitter_cfg.c **** 			{0xCEu, 0xF5u},
1315:.\Generated_Source\PSoC5/cyfitter_cfg.c **** 			{0xD0u, 0xE0u},
1316:.\Generated_Source\PSoC5/cyfitter_cfg.c **** 			{0xD2u, 0x30u},
1317:.\Generated_Source\PSoC5/cyfitter_cfg.c **** 			{0xE0u, 0x90u},
1318:.\Generated_Source\PSoC5/cyfitter_cfg.c **** 			{0xECu, 0x80u},
1319:.\Generated_Source\PSoC5/cyfitter_cfg.c **** 			{0xEEu, 0x20u},
1320:.\Generated_Source\PSoC5/cyfitter_cfg.c **** 			{0x0Au, 0x01u},
1321:.\Generated_Source\PSoC5/cyfitter_cfg.c **** 			{0x11u, 0x01u},
1322:.\Generated_Source\PSoC5/cyfitter_cfg.c **** 			{0x12u, 0x02u},
1323:.\Generated_Source\PSoC5/cyfitter_cfg.c **** 			{0x18u, 0x01u},
1324:.\Generated_Source\PSoC5/cyfitter_cfg.c **** 			{0x1Eu, 0x08u},
1325:.\Generated_Source\PSoC5/cyfitter_cfg.c **** 			{0x22u, 0x04u},
1326:.\Generated_Source\PSoC5/cyfitter_cfg.c **** 			{0x26u, 0x08u},
1327:.\Generated_Source\PSoC5/cyfitter_cfg.c **** 			{0x27u, 0x03u},
1328:.\Generated_Source\PSoC5/cyfitter_cfg.c **** 			{0x31u, 0x02u},
1329:.\Generated_Source\PSoC5/cyfitter_cfg.c **** 			{0x32u, 0x03u},
1330:.\Generated_Source\PSoC5/cyfitter_cfg.c **** 			{0x35u, 0x01u},
1331:.\Generated_Source\PSoC5/cyfitter_cfg.c **** 			{0x36u, 0x0Cu},
1332:.\Generated_Source\PSoC5/cyfitter_cfg.c **** 			{0x37u, 0x01u},
1333:.\Generated_Source\PSoC5/cyfitter_cfg.c **** 			{0x3Eu, 0x40u},
1334:.\Generated_Source\PSoC5/cyfitter_cfg.c **** 			{0x58u, 0x04u},
1335:.\Generated_Source\PSoC5/cyfitter_cfg.c **** 			{0x59u, 0x0Eu},
1336:.\Generated_Source\PSoC5/cyfitter_cfg.c **** 			{0x5Cu, 0x19u},
1337:.\Generated_Source\PSoC5/cyfitter_cfg.c **** 			{0x5Fu, 0x01u},
1338:.\Generated_Source\PSoC5/cyfitter_cfg.c **** 			{0x80u, 0xFFu},
1339:.\Generated_Source\PSoC5/cyfitter_cfg.c **** 			{0x81u, 0x08u},
1340:.\Generated_Source\PSoC5/cyfitter_cfg.c **** 			{0x83u, 0x30u},
1341:.\Generated_Source\PSoC5/cyfitter_cfg.c **** 			{0x84u, 0x0Cu},
1342:.\Generated_Source\PSoC5/cyfitter_cfg.c **** 			{0x85u, 0x3Fu},
1343:.\Generated_Source\PSoC5/cyfitter_cfg.c **** 			{0x88u, 0x04u},
1344:.\Generated_Source\PSoC5/cyfitter_cfg.c **** 			{0x89u, 0x3Fu},
1345:.\Generated_Source\PSoC5/cyfitter_cfg.c **** 			{0x8Cu, 0xC3u},
1346:.\Generated_Source\PSoC5/cyfitter_cfg.c **** 			{0x8Du, 0x24u},
1347:.\Generated_Source\PSoC5/cyfitter_cfg.c **** 			{0x8Fu, 0x0Au},
1348:.\Generated_Source\PSoC5/cyfitter_cfg.c **** 			{0x90u, 0x0Fu},
1349:.\Generated_Source\PSoC5/cyfitter_cfg.c **** 			{0x91u, 0x40u},
1350:.\Generated_Source\PSoC5/cyfitter_cfg.c **** 			{0x92u, 0xF0u},
1351:.\Generated_Source\PSoC5/cyfitter_cfg.c **** 			{0x94u, 0xF3u},
1352:.\Generated_Source\PSoC5/cyfitter_cfg.c **** 			{0x95u, 0x40u},
1353:.\Generated_Source\PSoC5/cyfitter_cfg.c **** 			{0x96u, 0x0Cu},
1354:.\Generated_Source\PSoC5/cyfitter_cfg.c **** 			{0x98u, 0x1Cu},
1355:.\Generated_Source\PSoC5/cyfitter_cfg.c **** 			{0x99u, 0x40u},
1356:.\Generated_Source\PSoC5/cyfitter_cfg.c **** 			{0x9Au, 0xE3u},
1357:.\Generated_Source\PSoC5/cyfitter_cfg.c **** 			{0x9Cu, 0x08u},
1358:.\Generated_Source\PSoC5/cyfitter_cfg.c **** 			{0xA0u, 0x82u},
1359:.\Generated_Source\PSoC5/cyfitter_cfg.c **** 			{0xA4u, 0x41u},
1360:.\Generated_Source\PSoC5/cyfitter_cfg.c **** 			{0xA5u, 0x12u},
1361:.\Generated_Source\PSoC5/cyfitter_cfg.c **** 			{0xA7u, 0x0Cu},
1362:.\Generated_Source\PSoC5/cyfitter_cfg.c **** 			{0xA9u, 0x40u},
1363:.\Generated_Source\PSoC5/cyfitter_cfg.c **** 			{0xAAu, 0xF3u},
1364:.\Generated_Source\PSoC5/cyfitter_cfg.c **** 			{0xADu, 0x01u},
ARM GAS  C:\Users\glenn\AppData\Local\Temp\cc58Te5j.s 			page 45


1365:.\Generated_Source\PSoC5/cyfitter_cfg.c **** 			{0xB0u, 0x1Cu},
1366:.\Generated_Source\PSoC5/cyfitter_cfg.c **** 			{0xB1u, 0x38u},
1367:.\Generated_Source\PSoC5/cyfitter_cfg.c **** 			{0xB2u, 0x0Fu},
1368:.\Generated_Source\PSoC5/cyfitter_cfg.c **** 			{0xB3u, 0x01u},
1369:.\Generated_Source\PSoC5/cyfitter_cfg.c **** 			{0xB4u, 0x2Cu},
1370:.\Generated_Source\PSoC5/cyfitter_cfg.c **** 			{0xB5u, 0x40u},
1371:.\Generated_Source\PSoC5/cyfitter_cfg.c **** 			{0xB6u, 0xC0u},
1372:.\Generated_Source\PSoC5/cyfitter_cfg.c **** 			{0xB7u, 0x06u},
1373:.\Generated_Source\PSoC5/cyfitter_cfg.c **** 			{0xBAu, 0x28u},
1374:.\Generated_Source\PSoC5/cyfitter_cfg.c **** 			{0xBFu, 0x10u},
1375:.\Generated_Source\PSoC5/cyfitter_cfg.c **** 			{0xD6u, 0x02u},
1376:.\Generated_Source\PSoC5/cyfitter_cfg.c **** 			{0xD7u, 0x11u},
1377:.\Generated_Source\PSoC5/cyfitter_cfg.c **** 			{0xD8u, 0x04u},
1378:.\Generated_Source\PSoC5/cyfitter_cfg.c **** 			{0xD9u, 0x04u},
1379:.\Generated_Source\PSoC5/cyfitter_cfg.c **** 			{0xDBu, 0x04u},
1380:.\Generated_Source\PSoC5/cyfitter_cfg.c **** 			{0xDCu, 0x22u},
1381:.\Generated_Source\PSoC5/cyfitter_cfg.c **** 			{0xDDu, 0x20u},
1382:.\Generated_Source\PSoC5/cyfitter_cfg.c **** 			{0xDFu, 0x01u},
1383:.\Generated_Source\PSoC5/cyfitter_cfg.c **** 			{0x00u, 0x10u},
1384:.\Generated_Source\PSoC5/cyfitter_cfg.c **** 			{0x04u, 0x40u},
1385:.\Generated_Source\PSoC5/cyfitter_cfg.c **** 			{0x05u, 0x22u},
1386:.\Generated_Source\PSoC5/cyfitter_cfg.c **** 			{0x06u, 0x20u},
1387:.\Generated_Source\PSoC5/cyfitter_cfg.c **** 			{0x08u, 0x02u},
1388:.\Generated_Source\PSoC5/cyfitter_cfg.c **** 			{0x09u, 0x60u},
1389:.\Generated_Source\PSoC5/cyfitter_cfg.c **** 			{0x0Cu, 0x80u},
1390:.\Generated_Source\PSoC5/cyfitter_cfg.c **** 			{0x0Du, 0x09u},
1391:.\Generated_Source\PSoC5/cyfitter_cfg.c **** 			{0x0Eu, 0x08u},
1392:.\Generated_Source\PSoC5/cyfitter_cfg.c **** 			{0x11u, 0x02u},
1393:.\Generated_Source\PSoC5/cyfitter_cfg.c **** 			{0x13u, 0x04u},
1394:.\Generated_Source\PSoC5/cyfitter_cfg.c **** 			{0x16u, 0x10u},
1395:.\Generated_Source\PSoC5/cyfitter_cfg.c **** 			{0x17u, 0x12u},
1396:.\Generated_Source\PSoC5/cyfitter_cfg.c **** 			{0x18u, 0x10u},
1397:.\Generated_Source\PSoC5/cyfitter_cfg.c **** 			{0x19u, 0x08u},
1398:.\Generated_Source\PSoC5/cyfitter_cfg.c **** 			{0x1Au, 0x02u},
1399:.\Generated_Source\PSoC5/cyfitter_cfg.c **** 			{0x1Du, 0x18u},
1400:.\Generated_Source\PSoC5/cyfitter_cfg.c **** 			{0x1Eu, 0x42u},
1401:.\Generated_Source\PSoC5/cyfitter_cfg.c **** 			{0x1Fu, 0x08u},
1402:.\Generated_Source\PSoC5/cyfitter_cfg.c **** 			{0x21u, 0x62u},
1403:.\Generated_Source\PSoC5/cyfitter_cfg.c **** 			{0x22u, 0x40u},
1404:.\Generated_Source\PSoC5/cyfitter_cfg.c **** 			{0x24u, 0x40u},
1405:.\Generated_Source\PSoC5/cyfitter_cfg.c **** 			{0x25u, 0x41u},
1406:.\Generated_Source\PSoC5/cyfitter_cfg.c **** 			{0x26u, 0x10u},
1407:.\Generated_Source\PSoC5/cyfitter_cfg.c **** 			{0x27u, 0x12u},
1408:.\Generated_Source\PSoC5/cyfitter_cfg.c **** 			{0x29u, 0x08u},
1409:.\Generated_Source\PSoC5/cyfitter_cfg.c **** 			{0x2Cu, 0x20u},
1410:.\Generated_Source\PSoC5/cyfitter_cfg.c **** 			{0x2Fu, 0x0Au},
1411:.\Generated_Source\PSoC5/cyfitter_cfg.c **** 			{0x31u, 0x02u},
1412:.\Generated_Source\PSoC5/cyfitter_cfg.c **** 			{0x35u, 0x12u},
1413:.\Generated_Source\PSoC5/cyfitter_cfg.c **** 			{0x36u, 0x04u},
1414:.\Generated_Source\PSoC5/cyfitter_cfg.c **** 			{0x37u, 0x04u},
1415:.\Generated_Source\PSoC5/cyfitter_cfg.c **** 			{0x39u, 0x02u},
1416:.\Generated_Source\PSoC5/cyfitter_cfg.c **** 			{0x3Bu, 0x02u},
1417:.\Generated_Source\PSoC5/cyfitter_cfg.c **** 			{0x3Du, 0x86u},
1418:.\Generated_Source\PSoC5/cyfitter_cfg.c **** 			{0x3Eu, 0x10u},
1419:.\Generated_Source\PSoC5/cyfitter_cfg.c **** 			{0x5Eu, 0x20u},
1420:.\Generated_Source\PSoC5/cyfitter_cfg.c **** 			{0x6Du, 0x04u},
1421:.\Generated_Source\PSoC5/cyfitter_cfg.c **** 			{0x6Eu, 0x10u},
ARM GAS  C:\Users\glenn\AppData\Local\Temp\cc58Te5j.s 			page 46


1422:.\Generated_Source\PSoC5/cyfitter_cfg.c **** 			{0x6Fu, 0x02u},
1423:.\Generated_Source\PSoC5/cyfitter_cfg.c **** 			{0x74u, 0x80u},
1424:.\Generated_Source\PSoC5/cyfitter_cfg.c **** 			{0x75u, 0x20u},
1425:.\Generated_Source\PSoC5/cyfitter_cfg.c **** 			{0x76u, 0x20u},
1426:.\Generated_Source\PSoC5/cyfitter_cfg.c **** 			{0x78u, 0x08u},
1427:.\Generated_Source\PSoC5/cyfitter_cfg.c **** 			{0x81u, 0x50u},
1428:.\Generated_Source\PSoC5/cyfitter_cfg.c **** 			{0x83u, 0x01u},
1429:.\Generated_Source\PSoC5/cyfitter_cfg.c **** 			{0x84u, 0x20u},
1430:.\Generated_Source\PSoC5/cyfitter_cfg.c **** 			{0x86u, 0x10u},
1431:.\Generated_Source\PSoC5/cyfitter_cfg.c **** 			{0x87u, 0x04u},
1432:.\Generated_Source\PSoC5/cyfitter_cfg.c **** 			{0x96u, 0xC2u},
1433:.\Generated_Source\PSoC5/cyfitter_cfg.c **** 			{0x97u, 0x02u},
1434:.\Generated_Source\PSoC5/cyfitter_cfg.c **** 			{0x98u, 0x0Au},
1435:.\Generated_Source\PSoC5/cyfitter_cfg.c **** 			{0x99u, 0x02u},
1436:.\Generated_Source\PSoC5/cyfitter_cfg.c **** 			{0x9Bu, 0x04u},
1437:.\Generated_Source\PSoC5/cyfitter_cfg.c **** 			{0x9Du, 0x20u},
1438:.\Generated_Source\PSoC5/cyfitter_cfg.c **** 			{0x9Eu, 0x20u},
1439:.\Generated_Source\PSoC5/cyfitter_cfg.c **** 			{0x9Fu, 0x10u},
1440:.\Generated_Source\PSoC5/cyfitter_cfg.c **** 			{0xA4u, 0xA0u},
1441:.\Generated_Source\PSoC5/cyfitter_cfg.c **** 			{0xA5u, 0x08u},
1442:.\Generated_Source\PSoC5/cyfitter_cfg.c **** 			{0xA6u, 0x01u},
1443:.\Generated_Source\PSoC5/cyfitter_cfg.c **** 			{0xA9u, 0x04u},
1444:.\Generated_Source\PSoC5/cyfitter_cfg.c **** 			{0xABu, 0x08u},
1445:.\Generated_Source\PSoC5/cyfitter_cfg.c **** 			{0xADu, 0x02u},
1446:.\Generated_Source\PSoC5/cyfitter_cfg.c **** 			{0xAEu, 0x04u},
1447:.\Generated_Source\PSoC5/cyfitter_cfg.c **** 			{0xB4u, 0x02u},
1448:.\Generated_Source\PSoC5/cyfitter_cfg.c **** 			{0xB6u, 0x01u},
1449:.\Generated_Source\PSoC5/cyfitter_cfg.c **** 			{0xC0u, 0xF2u},
1450:.\Generated_Source\PSoC5/cyfitter_cfg.c **** 			{0xC2u, 0xFBu},
1451:.\Generated_Source\PSoC5/cyfitter_cfg.c **** 			{0xC4u, 0x7Cu},
1452:.\Generated_Source\PSoC5/cyfitter_cfg.c **** 			{0xCAu, 0x72u},
1453:.\Generated_Source\PSoC5/cyfitter_cfg.c **** 			{0xCCu, 0xE1u},
1454:.\Generated_Source\PSoC5/cyfitter_cfg.c **** 			{0xCEu, 0xF0u},
1455:.\Generated_Source\PSoC5/cyfitter_cfg.c **** 			{0xD6u, 0x20u},
1456:.\Generated_Source\PSoC5/cyfitter_cfg.c **** 			{0xDEu, 0x02u},
1457:.\Generated_Source\PSoC5/cyfitter_cfg.c **** 			{0xE2u, 0x02u},
1458:.\Generated_Source\PSoC5/cyfitter_cfg.c **** 			{0xECu, 0x42u},
1459:.\Generated_Source\PSoC5/cyfitter_cfg.c **** 			{0x13u, 0x02u},
1460:.\Generated_Source\PSoC5/cyfitter_cfg.c **** 			{0x16u, 0x80u},
1461:.\Generated_Source\PSoC5/cyfitter_cfg.c **** 			{0x33u, 0x24u},
1462:.\Generated_Source\PSoC5/cyfitter_cfg.c **** 			{0x34u, 0x14u},
1463:.\Generated_Source\PSoC5/cyfitter_cfg.c **** 			{0x38u, 0x40u},
1464:.\Generated_Source\PSoC5/cyfitter_cfg.c **** 			{0x3Bu, 0x02u},
1465:.\Generated_Source\PSoC5/cyfitter_cfg.c **** 			{0x3Eu, 0x80u},
1466:.\Generated_Source\PSoC5/cyfitter_cfg.c **** 			{0x8Cu, 0x40u},
1467:.\Generated_Source\PSoC5/cyfitter_cfg.c **** 			{0x8Fu, 0x20u},
1468:.\Generated_Source\PSoC5/cyfitter_cfg.c **** 			{0xC4u, 0x30u},
1469:.\Generated_Source\PSoC5/cyfitter_cfg.c **** 			{0xCCu, 0xF0u},
1470:.\Generated_Source\PSoC5/cyfitter_cfg.c **** 			{0xCEu, 0x70u},
1471:.\Generated_Source\PSoC5/cyfitter_cfg.c **** 			{0x30u, 0x10u},
1472:.\Generated_Source\PSoC5/cyfitter_cfg.c **** 			{0x32u, 0x08u},
1473:.\Generated_Source\PSoC5/cyfitter_cfg.c **** 			{0x35u, 0x40u},
1474:.\Generated_Source\PSoC5/cyfitter_cfg.c **** 			{0x36u, 0x04u},
1475:.\Generated_Source\PSoC5/cyfitter_cfg.c **** 			{0x39u, 0x80u},
1476:.\Generated_Source\PSoC5/cyfitter_cfg.c **** 			{0x5Bu, 0x10u},
1477:.\Generated_Source\PSoC5/cyfitter_cfg.c **** 			{0x63u, 0x10u},
1478:.\Generated_Source\PSoC5/cyfitter_cfg.c **** 			{0x6Fu, 0x20u},
ARM GAS  C:\Users\glenn\AppData\Local\Temp\cc58Te5j.s 			page 47


1479:.\Generated_Source\PSoC5/cyfitter_cfg.c **** 			{0x83u, 0x10u},
1480:.\Generated_Source\PSoC5/cyfitter_cfg.c **** 			{0x8Bu, 0x02u},
1481:.\Generated_Source\PSoC5/cyfitter_cfg.c **** 			{0x94u, 0x40u},
1482:.\Generated_Source\PSoC5/cyfitter_cfg.c **** 			{0x97u, 0x02u},
1483:.\Generated_Source\PSoC5/cyfitter_cfg.c **** 			{0x9Bu, 0x02u},
1484:.\Generated_Source\PSoC5/cyfitter_cfg.c **** 			{0x9Cu, 0x14u},
1485:.\Generated_Source\PSoC5/cyfitter_cfg.c **** 			{0x9Fu, 0x04u},
1486:.\Generated_Source\PSoC5/cyfitter_cfg.c **** 			{0xCCu, 0xF0u},
1487:.\Generated_Source\PSoC5/cyfitter_cfg.c **** 			{0xCEu, 0x10u},
1488:.\Generated_Source\PSoC5/cyfitter_cfg.c **** 			{0xD4u, 0x80u},
1489:.\Generated_Source\PSoC5/cyfitter_cfg.c **** 			{0xD8u, 0x40u},
1490:.\Generated_Source\PSoC5/cyfitter_cfg.c **** 			{0xDAu, 0x80u},
1491:.\Generated_Source\PSoC5/cyfitter_cfg.c **** 			{0xE2u, 0x20u},
1492:.\Generated_Source\PSoC5/cyfitter_cfg.c **** 			{0x8Bu, 0x10u},
1493:.\Generated_Source\PSoC5/cyfitter_cfg.c **** 			{0x8Cu, 0x40u},
1494:.\Generated_Source\PSoC5/cyfitter_cfg.c **** 			{0x94u, 0x40u},
1495:.\Generated_Source\PSoC5/cyfitter_cfg.c **** 			{0x95u, 0x80u},
1496:.\Generated_Source\PSoC5/cyfitter_cfg.c **** 			{0x97u, 0x12u},
1497:.\Generated_Source\PSoC5/cyfitter_cfg.c **** 			{0x9Cu, 0x14u},
1498:.\Generated_Source\PSoC5/cyfitter_cfg.c **** 			{0x9Du, 0x40u},
1499:.\Generated_Source\PSoC5/cyfitter_cfg.c **** 			{0x9Fu, 0x04u},
1500:.\Generated_Source\PSoC5/cyfitter_cfg.c **** 			{0xA6u, 0x0Cu},
1501:.\Generated_Source\PSoC5/cyfitter_cfg.c **** 			{0xA7u, 0x20u},
1502:.\Generated_Source\PSoC5/cyfitter_cfg.c **** 			{0x26u, 0x08u},
1503:.\Generated_Source\PSoC5/cyfitter_cfg.c **** 			{0x2Cu, 0x04u},
1504:.\Generated_Source\PSoC5/cyfitter_cfg.c **** 			{0x87u, 0x20u},
1505:.\Generated_Source\PSoC5/cyfitter_cfg.c **** 			{0x95u, 0x80u},
1506:.\Generated_Source\PSoC5/cyfitter_cfg.c **** 			{0x9Cu, 0x04u},
1507:.\Generated_Source\PSoC5/cyfitter_cfg.c **** 			{0x9Du, 0x40u},
1508:.\Generated_Source\PSoC5/cyfitter_cfg.c **** 			{0x9Fu, 0x04u},
1509:.\Generated_Source\PSoC5/cyfitter_cfg.c **** 			{0xA6u, 0x0Cu},
1510:.\Generated_Source\PSoC5/cyfitter_cfg.c **** 			{0xA7u, 0x20u},
1511:.\Generated_Source\PSoC5/cyfitter_cfg.c **** 			{0xABu, 0x01u},
1512:.\Generated_Source\PSoC5/cyfitter_cfg.c **** 			{0xACu, 0x10u},
1513:.\Generated_Source\PSoC5/cyfitter_cfg.c **** 			{0xC8u, 0x80u},
1514:.\Generated_Source\PSoC5/cyfitter_cfg.c **** 			{0xCAu, 0x20u},
1515:.\Generated_Source\PSoC5/cyfitter_cfg.c **** 			{0xE6u, 0x10u},
1516:.\Generated_Source\PSoC5/cyfitter_cfg.c **** 			{0xEEu, 0x60u},
1517:.\Generated_Source\PSoC5/cyfitter_cfg.c **** 			{0x7Fu, 0x20u},
1518:.\Generated_Source\PSoC5/cyfitter_cfg.c **** 			{0x83u, 0x20u},
1519:.\Generated_Source\PSoC5/cyfitter_cfg.c **** 			{0xDEu, 0x01u},
1520:.\Generated_Source\PSoC5/cyfitter_cfg.c **** 			{0x00u, 0x28u},
1521:.\Generated_Source\PSoC5/cyfitter_cfg.c **** 			{0x88u, 0x08u},
1522:.\Generated_Source\PSoC5/cyfitter_cfg.c **** 			{0x90u, 0x04u},
1523:.\Generated_Source\PSoC5/cyfitter_cfg.c **** 			{0x9Au, 0x01u},
1524:.\Generated_Source\PSoC5/cyfitter_cfg.c **** 			{0xA4u, 0x14u},
1525:.\Generated_Source\PSoC5/cyfitter_cfg.c **** 			{0xAAu, 0x01u},
1526:.\Generated_Source\PSoC5/cyfitter_cfg.c **** 			{0xACu, 0x14u},
1527:.\Generated_Source\PSoC5/cyfitter_cfg.c **** 			{0xB4u, 0x04u},
1528:.\Generated_Source\PSoC5/cyfitter_cfg.c **** 			{0xC0u, 0x0Au},
1529:.\Generated_Source\PSoC5/cyfitter_cfg.c **** 			{0xE2u, 0x01u},
1530:.\Generated_Source\PSoC5/cyfitter_cfg.c **** 			{0xECu, 0x02u},
1531:.\Generated_Source\PSoC5/cyfitter_cfg.c **** 			{0x1Bu, 0x04u},
1532:.\Generated_Source\PSoC5/cyfitter_cfg.c **** 			{0x25u, 0x02u},
1533:.\Generated_Source\PSoC5/cyfitter_cfg.c **** 			{0x44u, 0x80u},
1534:.\Generated_Source\PSoC5/cyfitter_cfg.c **** 			{0x50u, 0x08u},
1535:.\Generated_Source\PSoC5/cyfitter_cfg.c **** 			{0x88u, 0x01u},
ARM GAS  C:\Users\glenn\AppData\Local\Temp\cc58Te5j.s 			page 48


1536:.\Generated_Source\PSoC5/cyfitter_cfg.c **** 			{0x8Cu, 0x08u},
1537:.\Generated_Source\PSoC5/cyfitter_cfg.c **** 			{0x90u, 0x04u},
1538:.\Generated_Source\PSoC5/cyfitter_cfg.c **** 			{0x9Au, 0x01u},
1539:.\Generated_Source\PSoC5/cyfitter_cfg.c **** 			{0x9Cu, 0x08u},
1540:.\Generated_Source\PSoC5/cyfitter_cfg.c **** 			{0xC6u, 0x08u},
1541:.\Generated_Source\PSoC5/cyfitter_cfg.c **** 			{0xC8u, 0x01u},
1542:.\Generated_Source\PSoC5/cyfitter_cfg.c **** 			{0xD0u, 0x01u},
1543:.\Generated_Source\PSoC5/cyfitter_cfg.c **** 			{0xD4u, 0x04u},
1544:.\Generated_Source\PSoC5/cyfitter_cfg.c **** 			{0xE0u, 0x01u},
1545:.\Generated_Source\PSoC5/cyfitter_cfg.c **** 			{0xE4u, 0x08u},
1546:.\Generated_Source\PSoC5/cyfitter_cfg.c **** 			{0x46u, 0x08u},
1547:.\Generated_Source\PSoC5/cyfitter_cfg.c **** 			{0x54u, 0x01u},
1548:.\Generated_Source\PSoC5/cyfitter_cfg.c **** 			{0x90u, 0x04u},
1549:.\Generated_Source\PSoC5/cyfitter_cfg.c **** 			{0x9Au, 0x01u},
1550:.\Generated_Source\PSoC5/cyfitter_cfg.c **** 			{0x9Cu, 0x88u},
1551:.\Generated_Source\PSoC5/cyfitter_cfg.c **** 			{0xA0u, 0x01u},
1552:.\Generated_Source\PSoC5/cyfitter_cfg.c **** 			{0xA1u, 0x02u},
1553:.\Generated_Source\PSoC5/cyfitter_cfg.c **** 			{0xABu, 0x04u},
1554:.\Generated_Source\PSoC5/cyfitter_cfg.c **** 			{0xD0u, 0x04u},
1555:.\Generated_Source\PSoC5/cyfitter_cfg.c **** 			{0xD6u, 0x04u},
1556:.\Generated_Source\PSoC5/cyfitter_cfg.c **** 			{0x22u, 0x01u},
1557:.\Generated_Source\PSoC5/cyfitter_cfg.c **** 			{0x26u, 0x20u},
1558:.\Generated_Source\PSoC5/cyfitter_cfg.c **** 			{0x8Eu, 0x20u},
1559:.\Generated_Source\PSoC5/cyfitter_cfg.c **** 			{0x95u, 0x80u},
1560:.\Generated_Source\PSoC5/cyfitter_cfg.c **** 			{0x9Du, 0x40u},
1561:.\Generated_Source\PSoC5/cyfitter_cfg.c **** 			{0x9Fu, 0x04u},
1562:.\Generated_Source\PSoC5/cyfitter_cfg.c **** 			{0xA6u, 0x04u},
1563:.\Generated_Source\PSoC5/cyfitter_cfg.c **** 			{0xC8u, 0x60u},
1564:.\Generated_Source\PSoC5/cyfitter_cfg.c **** 			{0x19u, 0x40u},
1565:.\Generated_Source\PSoC5/cyfitter_cfg.c **** 			{0x1Eu, 0x08u},
1566:.\Generated_Source\PSoC5/cyfitter_cfg.c **** 			{0x21u, 0x40u},
1567:.\Generated_Source\PSoC5/cyfitter_cfg.c **** 			{0x83u, 0x04u},
1568:.\Generated_Source\PSoC5/cyfitter_cfg.c **** 			{0x95u, 0x80u},
1569:.\Generated_Source\PSoC5/cyfitter_cfg.c **** 			{0x9Du, 0x40u},
1570:.\Generated_Source\PSoC5/cyfitter_cfg.c **** 			{0x9Fu, 0x04u},
1571:.\Generated_Source\PSoC5/cyfitter_cfg.c **** 			{0xA6u, 0x04u},
1572:.\Generated_Source\PSoC5/cyfitter_cfg.c **** 			{0xAEu, 0x01u},
1573:.\Generated_Source\PSoC5/cyfitter_cfg.c **** 			{0xC6u, 0xC0u},
1574:.\Generated_Source\PSoC5/cyfitter_cfg.c **** 			{0xC8u, 0x10u},
1575:.\Generated_Source\PSoC5/cyfitter_cfg.c **** 			{0xE2u, 0x80u},
1576:.\Generated_Source\PSoC5/cyfitter_cfg.c **** 			{0xECu, 0x40u},
1577:.\Generated_Source\PSoC5/cyfitter_cfg.c **** 			{0x08u, 0x08u},
1578:.\Generated_Source\PSoC5/cyfitter_cfg.c **** 			{0x0Du, 0x02u},
1579:.\Generated_Source\PSoC5/cyfitter_cfg.c **** 			{0x60u, 0x04u},
1580:.\Generated_Source\PSoC5/cyfitter_cfg.c **** 			{0x66u, 0x01u},
1581:.\Generated_Source\PSoC5/cyfitter_cfg.c **** 			{0x8Cu, 0x80u},
1582:.\Generated_Source\PSoC5/cyfitter_cfg.c **** 			{0x90u, 0x04u},
1583:.\Generated_Source\PSoC5/cyfitter_cfg.c **** 			{0x9Au, 0x01u},
1584:.\Generated_Source\PSoC5/cyfitter_cfg.c **** 			{0x9Cu, 0x88u},
1585:.\Generated_Source\PSoC5/cyfitter_cfg.c **** 			{0x9Eu, 0x08u},
1586:.\Generated_Source\PSoC5/cyfitter_cfg.c **** 			{0xB1u, 0x02u},
1587:.\Generated_Source\PSoC5/cyfitter_cfg.c **** 			{0xC2u, 0x0Cu},
1588:.\Generated_Source\PSoC5/cyfitter_cfg.c **** 			{0xD8u, 0x03u},
1589:.\Generated_Source\PSoC5/cyfitter_cfg.c **** 			{0xE0u, 0x08u},
1590:.\Generated_Source\PSoC5/cyfitter_cfg.c **** 			{0xEEu, 0x04u},
1591:.\Generated_Source\PSoC5/cyfitter_cfg.c **** 			{0x85u, 0x02u},
1592:.\Generated_Source\PSoC5/cyfitter_cfg.c **** 			{0xA1u, 0x02u},
ARM GAS  C:\Users\glenn\AppData\Local\Temp\cc58Te5j.s 			page 49


1593:.\Generated_Source\PSoC5/cyfitter_cfg.c **** 			{0xAEu, 0x08u},
1594:.\Generated_Source\PSoC5/cyfitter_cfg.c **** 			{0x00u, 0x46u},
1595:.\Generated_Source\PSoC5/cyfitter_cfg.c **** 			{0x01u, 0x01u},
1596:.\Generated_Source\PSoC5/cyfitter_cfg.c **** 			{0x0Au, 0x02u},
1597:.\Generated_Source\PSoC5/cyfitter_cfg.c **** 			{0x0Cu, 0x06u},
1598:.\Generated_Source\PSoC5/cyfitter_cfg.c **** 			{0x0Du, 0x01u},
1599:.\Generated_Source\PSoC5/cyfitter_cfg.c **** 			{0x0Eu, 0x46u},
1600:.\Generated_Source\PSoC5/cyfitter_cfg.c **** 			{0x10u, 0x06u},
1601:.\Generated_Source\PSoC5/cyfitter_cfg.c **** 			{0x11u, 0x01u},
1602:.\Generated_Source\PSoC5/cyfitter_cfg.c **** 			{0x1Au, 0x06u},
1603:.\Generated_Source\PSoC5/cyfitter_cfg.c **** 			{0x1Cu, 0x06u},
1604:.\Generated_Source\PSoC5/cyfitter_cfg.c **** 			{0x1Du, 0x01u},
1605:.\Generated_Source\PSoC5/cyfitter_cfg.c **** 			{0x00u, 0xBFu},
1606:.\Generated_Source\PSoC5/cyfitter_cfg.c **** 			{0x01u, 0xBFu},
1607:.\Generated_Source\PSoC5/cyfitter_cfg.c **** 			{0x02u, 0x0Fu},
1608:.\Generated_Source\PSoC5/cyfitter_cfg.c **** 			{0x10u, 0x0Au},
1609:.\Generated_Source\PSoC5/cyfitter_cfg.c **** 		};
1610:.\Generated_Source\PSoC5/cyfitter_cfg.c **** 
1611:.\Generated_Source\PSoC5/cyfitter_cfg.c **** 
1612:.\Generated_Source\PSoC5/cyfitter_cfg.c **** 
1613:.\Generated_Source\PSoC5/cyfitter_cfg.c **** 		CYPACKED typedef struct {
1614:.\Generated_Source\PSoC5/cyfitter_cfg.c **** 			void CYFAR *address;
1615:.\Generated_Source\PSoC5/cyfitter_cfg.c **** 			uint16 size;
1616:.\Generated_Source\PSoC5/cyfitter_cfg.c **** 		} CYPACKED_ATTR cfg_memset_t;
1617:.\Generated_Source\PSoC5/cyfitter_cfg.c **** 
1618:.\Generated_Source\PSoC5/cyfitter_cfg.c **** 		static const cfg_memset_t CYCODE cfg_memset_list [] = {
1619:.\Generated_Source\PSoC5/cyfitter_cfg.c **** 			/* address, size */
1620:.\Generated_Source\PSoC5/cyfitter_cfg.c **** 			{(void CYFAR *)(CYREG_PRT4_DR), 48u},
1621:.\Generated_Source\PSoC5/cyfitter_cfg.c **** 			{(void CYFAR *)(CYREG_PRT12_DR), 16u},
1622:.\Generated_Source\PSoC5/cyfitter_cfg.c **** 			{(void CYFAR *)(CYDEV_UCFG_B0_P0_U0_BASE), 4096u},
1623:.\Generated_Source\PSoC5/cyfitter_cfg.c **** 			{(void CYFAR *)(CYDEV_UCFG_B1_P2_U0_BASE), 2048u},
1624:.\Generated_Source\PSoC5/cyfitter_cfg.c **** 			{(void CYFAR *)(CYDEV_UCFG_DSI0_BASE), 2560u},
1625:.\Generated_Source\PSoC5/cyfitter_cfg.c **** 			{(void CYFAR *)(CYDEV_UCFG_DSI12_BASE), 512u},
1626:.\Generated_Source\PSoC5/cyfitter_cfg.c **** 			{(void CYFAR *)(CYREG_BCTL0_MDCLK_EN), 32u},
1627:.\Generated_Source\PSoC5/cyfitter_cfg.c **** 		};
1628:.\Generated_Source\PSoC5/cyfitter_cfg.c **** 
1629:.\Generated_Source\PSoC5/cyfitter_cfg.c **** 		uint8 CYDATA i;
1630:.\Generated_Source\PSoC5/cyfitter_cfg.c **** 
1631:.\Generated_Source\PSoC5/cyfitter_cfg.c **** 		/* Zero out critical memory blocks before beginning configuration */
1632:.\Generated_Source\PSoC5/cyfitter_cfg.c **** 		for (i = 0u; i < (sizeof(cfg_memset_list)/sizeof(cfg_memset_list[0])); i++)
 1136              		.loc 1 1632 0
 1137 0018 0023     		movs	r3, #0
 1138 001a FB71     		strb	r3, [r7, #7]
 1139 001c 13E0     		b	.L46
 1140              	.L47:
 1141              	.LBB4:
1633:.\Generated_Source\PSoC5/cyfitter_cfg.c **** 		{
1634:.\Generated_Source\PSoC5/cyfitter_cfg.c **** 			const cfg_memset_t CYCODE * CYDATA ms = &cfg_memset_list[i];
 1142              		.loc 1 1634 0 discriminator 3
 1143 001e FA79     		ldrb	r2, [r7, #7]	@ zero_extendqisi2
 1144 0020 1346     		mov	r3, r2
 1145 0022 5B00     		lsls	r3, r3, #1
 1146 0024 1344     		add	r3, r3, r2
 1147 0026 5B00     		lsls	r3, r3, #1
 1148 0028 3C4A     		ldr	r2, .L48+4
 1149 002a 1344     		add	r3, r3, r2
 1150 002c 3B60     		str	r3, [r7]
ARM GAS  C:\Users\glenn\AppData\Local\Temp\cc58Te5j.s 			page 50


1635:.\Generated_Source\PSoC5/cyfitter_cfg.c **** 			CYMEMZERO(ms->address, (size_t)(uint32)(ms->size));
 1151              		.loc 1 1635 0 discriminator 3
 1152 002e 3B68     		ldr	r3, [r7]
 1153 0030 1A68     		ldr	r2, [r3]	@ unaligned
 1154 0032 3B68     		ldr	r3, [r7]
 1155 0034 9B88     		ldrh	r3, [r3, #4]	@ unaligned
 1156 0036 9BB2     		uxth	r3, r3
 1157 0038 1046     		mov	r0, r2
 1158 003a 1946     		mov	r1, r3
 1159 003c FFF7FEFF 		bl	CYMEMZERO
 1160              	.LBE4:
1632:.\Generated_Source\PSoC5/cyfitter_cfg.c **** 		{
 1161              		.loc 1 1632 0 discriminator 3
 1162 0040 FB79     		ldrb	r3, [r7, #7]	@ zero_extendqisi2
 1163 0042 0133     		adds	r3, r3, #1
 1164 0044 FB71     		strb	r3, [r7, #7]
 1165              	.L46:
1632:.\Generated_Source\PSoC5/cyfitter_cfg.c **** 		{
 1166              		.loc 1 1632 0 is_stmt 0 discriminator 1
 1167 0046 FB79     		ldrb	r3, [r7, #7]	@ zero_extendqisi2
 1168 0048 062B     		cmp	r3, #6
 1169 004a E8D9     		bls	.L47
1636:.\Generated_Source\PSoC5/cyfitter_cfg.c **** 		}
1637:.\Generated_Source\PSoC5/cyfitter_cfg.c **** 
1638:.\Generated_Source\PSoC5/cyfitter_cfg.c **** 		cfg_write_bytes32(cy_cfg_addr_table, cy_cfg_data_table);
 1170              		.loc 1 1638 0 is_stmt 1
 1171 004c 3448     		ldr	r0, .L48+8
 1172 004e 3549     		ldr	r1, .L48+12
 1173 0050 FFF7FEFF 		bl	cfg_write_bytes32
1639:.\Generated_Source\PSoC5/cyfitter_cfg.c **** 
1640:.\Generated_Source\PSoC5/cyfitter_cfg.c **** 		/* Perform normal device configuration. Order is not critical for these items. */
1641:.\Generated_Source\PSoC5/cyfitter_cfg.c **** 		CY_SET_XTND_REG8((void CYFAR *)(CYREG_DSM0_CR3), 0x0Au);
 1174              		.loc 1 1641 0
 1175 0054 344B     		ldr	r3, .L48+16
 1176 0056 0A22     		movs	r2, #10
 1177 0058 1A70     		strb	r2, [r3]
1642:.\Generated_Source\PSoC5/cyfitter_cfg.c **** 		CYMEMZERO((void CYFAR *)(CYREG_PHUB_CFGMEM0_CFG0), 4u);
 1178              		.loc 1 1642 0
 1179 005a 3448     		ldr	r0, .L48+20
 1180 005c 0421     		movs	r1, #4
 1181 005e FFF7FEFF 		bl	CYMEMZERO
1643:.\Generated_Source\PSoC5/cyfitter_cfg.c **** 		CYCONFIGCPYCODE((void CYFAR *)(CYREG_PHUB_CFGMEM1_CFG0), (const void CYCODE *)(BS_PHUB_CFGMEM1_VA
 1182              		.loc 1 1643 0
 1183 0062 3348     		ldr	r0, .L48+24
 1184 0064 3349     		ldr	r1, .L48+28
 1185 0066 0422     		movs	r2, #4
 1186 0068 FFF7FEFF 		bl	CYCONFIGCPYCODE
1644:.\Generated_Source\PSoC5/cyfitter_cfg.c **** 
1645:.\Generated_Source\PSoC5/cyfitter_cfg.c **** 		/* Enable digital routing */
1646:.\Generated_Source\PSoC5/cyfitter_cfg.c **** 		CY_SET_XTND_REG8((void CYFAR *)CYREG_BCTL0_BANK_CTL, CY_GET_XTND_REG8((void CYFAR *)CYREG_BCTL0_B
 1187              		.loc 1 1646 0
 1188 006c 324A     		ldr	r2, .L48+32
 1189 006e 324B     		ldr	r3, .L48+32
 1190 0070 1B78     		ldrb	r3, [r3]
 1191 0072 DBB2     		uxtb	r3, r3
 1192 0074 43F00203 		orr	r3, r3, #2
 1193 0078 DBB2     		uxtb	r3, r3
ARM GAS  C:\Users\glenn\AppData\Local\Temp\cc58Te5j.s 			page 51


 1194 007a 1370     		strb	r3, [r2]
1647:.\Generated_Source\PSoC5/cyfitter_cfg.c **** 		CY_SET_XTND_REG8((void CYFAR *)CYREG_BCTL1_BANK_CTL, CY_GET_XTND_REG8((void CYFAR *)CYREG_BCTL1_B
 1195              		.loc 1 1647 0
 1196 007c 2F4A     		ldr	r2, .L48+36
 1197 007e 2F4B     		ldr	r3, .L48+36
 1198 0080 1B78     		ldrb	r3, [r3]
 1199 0082 DBB2     		uxtb	r3, r3
 1200 0084 43F00203 		orr	r3, r3, #2
 1201 0088 DBB2     		uxtb	r3, r3
 1202 008a 1370     		strb	r3, [r2]
1648:.\Generated_Source\PSoC5/cyfitter_cfg.c **** 
1649:.\Generated_Source\PSoC5/cyfitter_cfg.c **** 		/* Enable UDB array */
1650:.\Generated_Source\PSoC5/cyfitter_cfg.c **** 		CY_SET_XTND_REG8((void CYFAR *)CYREG_PM_ACT_CFG0, CY_GET_XTND_REG8((void CYFAR *)CYREG_PM_ACT_CFG
 1203              		.loc 1 1650 0
 1204 008c 2C4A     		ldr	r2, .L48+40
 1205 008e 2C4B     		ldr	r3, .L48+40
 1206 0090 1B78     		ldrb	r3, [r3]
 1207 0092 DBB2     		uxtb	r3, r3
 1208 0094 43F04003 		orr	r3, r3, #64
 1209 0098 DBB2     		uxtb	r3, r3
 1210 009a 1370     		strb	r3, [r2]
1651:.\Generated_Source\PSoC5/cyfitter_cfg.c **** 		CY_SET_XTND_REG8((void CYFAR *)CYREG_PM_AVAIL_CR2, CY_GET_XTND_REG8((void CYFAR *)CYREG_PM_AVAIL_
 1211              		.loc 1 1651 0
 1212 009c 294A     		ldr	r2, .L48+44
 1213 009e 294B     		ldr	r3, .L48+44
 1214 00a0 1B78     		ldrb	r3, [r3]
 1215 00a2 DBB2     		uxtb	r3, r3
 1216 00a4 43F01003 		orr	r3, r3, #16
 1217 00a8 DBB2     		uxtb	r3, r3
 1218 00aa 1370     		strb	r3, [r2]
 1219              	.LBE3:
1652:.\Generated_Source\PSoC5/cyfitter_cfg.c **** 	}
1653:.\Generated_Source\PSoC5/cyfitter_cfg.c **** 
1654:.\Generated_Source\PSoC5/cyfitter_cfg.c **** 
1655:.\Generated_Source\PSoC5/cyfitter_cfg.c **** 	/* Perform second pass device configuration. These items must be configured in specific order afte
1656:.\Generated_Source\PSoC5/cyfitter_cfg.c **** 	CYCONFIGCPYCODE((void CYFAR *)(CYREG_PRT0_DM0), (const void CYCODE *)(BS_IOPINS0_0_VAL), 8u);
 1220              		.loc 1 1656 0
 1221 00ac 2648     		ldr	r0, .L48+48
 1222 00ae 2749     		ldr	r1, .L48+52
 1223 00b0 0822     		movs	r2, #8
 1224 00b2 FFF7FEFF 		bl	CYCONFIGCPYCODE
1657:.\Generated_Source\PSoC5/cyfitter_cfg.c **** 	CYCONFIGCPYCODE((void CYFAR *)(CYREG_PRT15_DM0), (const void CYCODE *)(BS_IOPINS0_8_VAL), 8u);
 1225              		.loc 1 1657 0
 1226 00b6 2648     		ldr	r0, .L48+56
 1227 00b8 2649     		ldr	r1, .L48+60
 1228 00ba 0822     		movs	r2, #8
 1229 00bc FFF7FEFF 		bl	CYCONFIGCPYCODE
1658:.\Generated_Source\PSoC5/cyfitter_cfg.c **** 	CYCONFIGCPYCODE((void CYFAR *)(CYREG_PRT1_DR), (const void CYCODE *)(BS_IOPINS0_1_VAL), 10u);
 1230              		.loc 1 1658 0
 1231 00c0 2548     		ldr	r0, .L48+64
 1232 00c2 2649     		ldr	r1, .L48+68
 1233 00c4 0A22     		movs	r2, #10
 1234 00c6 FFF7FEFF 		bl	CYCONFIGCPYCODE
1659:.\Generated_Source\PSoC5/cyfitter_cfg.c **** 	CYCONFIGCPYCODE((void CYFAR *)(CYREG_PRT2_DM0), (const void CYCODE *)(BS_IOPINS0_2_VAL), 8u);
 1235              		.loc 1 1659 0
 1236 00ca 2548     		ldr	r0, .L48+72
 1237 00cc 2549     		ldr	r1, .L48+76
ARM GAS  C:\Users\glenn\AppData\Local\Temp\cc58Te5j.s 			page 52


 1238 00ce 0822     		movs	r2, #8
 1239 00d0 FFF7FEFF 		bl	CYCONFIGCPYCODE
1660:.\Generated_Source\PSoC5/cyfitter_cfg.c **** 	CYCONFIGCPYCODE((void CYFAR *)(CYREG_PRT3_DM0), (const void CYCODE *)(BS_IOPINS0_3_VAL), 8u);
 1240              		.loc 1 1660 0
 1241 00d4 2448     		ldr	r0, .L48+80
 1242 00d6 2549     		ldr	r1, .L48+84
 1243 00d8 0822     		movs	r2, #8
 1244 00da FFF7FEFF 		bl	CYCONFIGCPYCODE
1661:.\Generated_Source\PSoC5/cyfitter_cfg.c **** 	/* Switch Boost to the precision bandgap reference from its internal reference */
1662:.\Generated_Source\PSoC5/cyfitter_cfg.c **** 	CY_SET_REG8((void CYXDATA *)CYREG_BOOST_CR2, (CY_GET_REG8((void CYXDATA *)CYREG_BOOST_CR2) | 0x08u
 1245              		.loc 1 1662 0
 1246 00de 244A     		ldr	r2, .L48+88
 1247 00e0 234B     		ldr	r3, .L48+88
 1248 00e2 1B78     		ldrb	r3, [r3]
 1249 00e4 DBB2     		uxtb	r3, r3
 1250 00e6 43F00803 		orr	r3, r3, #8
 1251 00ea DBB2     		uxtb	r3, r3
 1252 00ec 1370     		strb	r3, [r2]
1663:.\Generated_Source\PSoC5/cyfitter_cfg.c **** 
1664:.\Generated_Source\PSoC5/cyfitter_cfg.c **** 	/* Set Flash Cycles based on max possible frequency in case a glitch occurs during ClockSetup(). *
1665:.\Generated_Source\PSoC5/cyfitter_cfg.c **** 	CY_SET_XTND_REG8((void CYFAR *)(CYREG_CACHE_CC_CTL), (((CYDEV_INSTRUCT_CACHE_ENABLED) != 0) ? 0x61
 1253              		.loc 1 1665 0
 1254 00ee 214B     		ldr	r3, .L48+92
 1255 00f0 6022     		movs	r2, #96
 1256 00f2 1A70     		strb	r2, [r3]
1666:.\Generated_Source\PSoC5/cyfitter_cfg.c **** 	/* Setup clocks based on selections from Clock DWR */
1667:.\Generated_Source\PSoC5/cyfitter_cfg.c **** 	ClockSetup();
 1257              		.loc 1 1667 0
 1258 00f4 FFF7FEFF 		bl	ClockSetup
1668:.\Generated_Source\PSoC5/cyfitter_cfg.c **** 	/* Set Flash Cycles based on newly configured 64.00MHz Bus Clock. */
1669:.\Generated_Source\PSoC5/cyfitter_cfg.c **** 	CY_SET_XTND_REG8((void CYFAR *)(CYREG_CACHE_CC_CTL), (((CYDEV_INSTRUCT_CACHE_ENABLED) != 0) ? 0x01
 1259              		.loc 1 1669 0
 1260 00f8 1E4B     		ldr	r3, .L48+92
 1261 00fa 0022     		movs	r2, #0
 1262 00fc 1A70     		strb	r2, [r3]
1670:.\Generated_Source\PSoC5/cyfitter_cfg.c **** 
1671:.\Generated_Source\PSoC5/cyfitter_cfg.c **** 	CyEEPROM_Start(); /* Start EEPROM since it is used in DWR */
 1263              		.loc 1 1671 0
 1264 00fe FFF7FEFF 		bl	CyEEPROM_Start
1672:.\Generated_Source\PSoC5/cyfitter_cfg.c **** 
1673:.\Generated_Source\PSoC5/cyfitter_cfg.c **** 	/* Perform basic analog initialization to defaults */
1674:.\Generated_Source\PSoC5/cyfitter_cfg.c **** 	AnalogSetDefault();
 1265              		.loc 1 1674 0
 1266 0102 FFF7FEFF 		bl	AnalogSetDefault
1675:.\Generated_Source\PSoC5/cyfitter_cfg.c **** 
1676:.\Generated_Source\PSoC5/cyfitter_cfg.c **** 	/* Configure alternate active mode */
1677:.\Generated_Source\PSoC5/cyfitter_cfg.c **** 	CYCONFIGCPY((void CYFAR *)CYDEV_PM_STBY_BASE, (const void CYFAR *)CYDEV_PM_ACT_BASE, 14u);
 1267              		.loc 1 1677 0
 1268 0106 1C48     		ldr	r0, .L48+96
 1269 0108 0D49     		ldr	r1, .L48+40
 1270 010a 0E22     		movs	r2, #14
 1271 010c FFF7FEFF 		bl	CYCONFIGCPY
1678:.\Generated_Source\PSoC5/cyfitter_cfg.c **** }
 1272              		.loc 1 1678 0
 1273 0110 0837     		adds	r7, r7, #8
 1274              		.cfi_def_cfa_offset 8
 1275 0112 BD46     		mov	sp, r7
ARM GAS  C:\Users\glenn\AppData\Local\Temp\cc58Te5j.s 			page 53


 1276              		.cfi_def_cfa_register 13
 1277              		@ sp needed
 1278 0114 80BD     		pop	{r7, pc}
 1279              	.L49:
 1280 0116 00BF     		.align	2
 1281              	.L48:
 1282 0118 E8460040 		.word	1073759976
 1283 011c 80000000 		.word	cfg_memset_list.4927
 1284 0120 AC000000 		.word	cy_cfg_addr_table.4921
 1285 0124 48010000 		.word	cy_cfg_data_table.4922
 1286 0128 83580040 		.word	1073764483
 1287 012c 00760040 		.word	1073772032
 1288 0130 08760040 		.word	1073772040
 1289 0134 50090000 		.word	BS_PHUB_CFGMEM1_VAL.4920
 1290 0138 03500140 		.word	1073827843
 1291 013c 13500140 		.word	1073827859
 1292 0140 A0430040 		.word	1073759136
 1293 0144 C2430040 		.word	1073759170
 1294 0148 02510040 		.word	1073762562
 1295 014c 54090000 		.word	BS_IOPINS0_0_VAL.4915
 1296 0150 F2510040 		.word	1073762802
 1297 0154 5C090000 		.word	BS_IOPINS0_8_VAL.4916
 1298 0158 10510040 		.word	1073762576
 1299 015c 64090000 		.word	BS_IOPINS0_1_VAL.4917
 1300 0160 22510040 		.word	1073762594
 1301 0164 70090000 		.word	BS_IOPINS0_2_VAL.4918
 1302 0168 32510040 		.word	1073762610
 1303 016c 78090000 		.word	BS_IOPINS0_3_VAL.4919
 1304 0170 22430040 		.word	1073759010
 1305 0174 00480040 		.word	1073760256
 1306 0178 B0430040 		.word	1073759152
 1307              		.cfi_endproc
 1308              	.LFE12:
 1309              		.size	cyfitter_cfg, .-cyfitter_cfg
 1310              		.section	.rodata
 1311 007a 0000     		.align	2
 1312              		.type	BS_CYDEV_CLKDIST_ACFG0_CFG0_VAL.4874, %object
 1313              		.size	BS_CYDEV_CLKDIST_ACFG0_CFG0_VAL.4874, 4
 1314              	BS_CYDEV_CLKDIST_ACFG0_CFG0_VAL.4874:
 1315 007c 14       		.byte	20
 1316 007d 00       		.byte	0
 1317 007e 18       		.byte	24
 1318 007f 01       		.byte	1
 1319              		.align	2
 1320              		.type	cfg_memset_list.4927, %object
 1321              		.size	cfg_memset_list.4927, 42
 1322              	cfg_memset_list.4927:
 1323 0080 40510040 		.word	1073762624
 1324 0084 3000     		.short	48
 1325 0086 C0510040 		.4byte	1073762752
 1326 008a 1000     		.short	16
 1327 008c 00000140 		.word	1073807360
 1328 0090 0010     		.short	4096
 1329 0092 00140140 		.4byte	1073812480
 1330 0096 0008     		.short	2048
 1331 0098 00400140 		.word	1073823744
 1332 009c 000A     		.short	2560
ARM GAS  C:\Users\glenn\AppData\Local\Temp\cc58Te5j.s 			page 54


 1333 009e 004C0140 		.4byte	1073826816
 1334 00a2 0002     		.short	512
 1335 00a4 00500140 		.word	1073827840
 1336 00a8 2000     		.short	32
 1337 00aa 0000     		.align	2
 1338              		.type	cy_cfg_addr_table.4921, %object
 1339              		.size	cy_cfg_addr_table.4921, 156
 1340              	cy_cfg_addr_table.4921:
 1341 00ac 05520040 		.word	1073762821
 1342 00b0 015B0040 		.word	1073765121
 1343 00b4 02640040 		.word	1073767426
 1344 00b8 01650040 		.word	1073767681
 1345 00bc 02010140 		.word	1073807618
 1346 00c0 04020140 		.word	1073807876
 1347 00c4 04030140 		.word	1073808132
 1348 00c8 04050140 		.word	1073808644
 1349 00cc 20060140 		.word	1073808928
 1350 00d0 3A070140 		.word	1073809210
 1351 00d4 17080140 		.word	1073809431
 1352 00d8 3F090140 		.word	1073809727
 1353 00dc 120A0140 		.word	1073809938
 1354 00e0 350B0140 		.word	1073810229
 1355 00e4 300C0140 		.word	1073810480
 1356 00e8 410D0140 		.word	1073810753
 1357 00ec 450E0140 		.word	1073811013
 1358 00f0 2C0F0140 		.word	1073811244
 1359 00f4 05150140 		.word	1073812741
 1360 00f8 2D160140 		.word	1073813037
 1361 00fc 43170140 		.word	1073813315
 1362 0100 37180140 		.word	1073813559
 1363 0104 47190140 		.word	1073813831
 1364 0108 3F1A0140 		.word	1073814079
 1365 010c 4C1B0140 		.word	1073814348
 1366 0110 0C400140 		.word	1073823756
 1367 0114 15410140 		.word	1073824021
 1368 0118 0A420140 		.word	1073824266
 1369 011c 0F430140 		.word	1073824527
 1370 0120 03440140 		.word	1073824771
 1371 0124 0B450140 		.word	1073825035
 1372 0128 0F460140 		.word	1073825295
 1373 012c 0A470140 		.word	1073825546
 1374 0130 08480140 		.word	1073825800
 1375 0134 0D490140 		.word	1073826061
 1376 0138 0E4C0140 		.word	1073826830
 1377 013c 034D0140 		.word	1073827075
 1378 0140 0B500140 		.word	1073827851
 1379 0144 04510140 		.word	1073828100
 1380              		.align	2
 1381              		.type	cy_cfg_data_table.4922, %object
 1382              		.size	cy_cfg_data_table.4922, 2056
 1383              	cy_cfg_data_table.4922:
 1384 0148 01       		.byte	1
 1385 0149 81       		.byte	-127
 1386 014a 02       		.byte	2
 1387 014b 01       		.byte	1
 1388 014c 08       		.byte	8
 1389 014d 40       		.byte	64
ARM GAS  C:\Users\glenn\AppData\Local\Temp\cc58Te5j.s 			page 55


 1390 014e 09       		.byte	9
 1391 014f C0       		.byte	-64
 1392 0150 7A       		.byte	122
 1393 0151 20       		.byte	32
 1394 0152 27       		.byte	39
 1395 0153 84       		.byte	-124
 1396 0154 88       		.byte	-120
 1397 0155 38       		.byte	56
 1398 0156 8A       		.byte	-118
 1399 0157 0F       		.byte	15
 1400 0158 8B       		.byte	-117
 1401 0159 72       		.byte	114
 1402 015a 83       		.byte	-125
 1403 015b 20       		.byte	32
 1404 015c E4       		.byte	-28
 1405 015d 04       		.byte	4
 1406 015e 38       		.byte	56
 1407 015f 20       		.byte	32
 1408 0160 3E       		.byte	62
 1409 0161 10       		.byte	16
 1410 0162 58       		.byte	88
 1411 0163 04       		.byte	4
 1412 0164 5F       		.byte	95
 1413 0165 01       		.byte	1
 1414 0166 1F       		.byte	31
 1415 0167 20       		.byte	32
 1416 0168 80       		.byte	-128
 1417 0169 02       		.byte	2
 1418 016a A7       		.byte	-89
 1419 016b 20       		.byte	32
 1420 016c E0       		.byte	-32
 1421 016d 20       		.byte	32
 1422 016e 8B       		.byte	-117
 1423 016f 40       		.byte	64
 1424 0170 A4       		.byte	-92
 1425 0171 02       		.byte	2
 1426 0172 E2       		.byte	-30
 1427 0173 40       		.byte	64
 1428 0174 E6       		.byte	-26
 1429 0175 80       		.byte	-128
 1430 0176 00       		.byte	0
 1431 0177 01       		.byte	1
 1432 0178 04       		.byte	4
 1433 0179 01       		.byte	1
 1434 017a 0C       		.byte	12
 1435 017b 01       		.byte	1
 1436 017c 14       		.byte	20
 1437 017d 01       		.byte	1
 1438 017e 1C       		.byte	28
 1439 017f 01       		.byte	1
 1440 0180 22       		.byte	34
 1441 0181 01       		.byte	1
 1442 0182 28       		.byte	40
 1443 0183 01       		.byte	1
 1444 0184 36       		.byte	54
 1445 0185 01       		.byte	1
 1446 0186 58       		.byte	88
ARM GAS  C:\Users\glenn\AppData\Local\Temp\cc58Te5j.s 			page 56


 1447 0187 04       		.byte	4
 1448 0188 59       		.byte	89
 1449 0189 04       		.byte	4
 1450 018a 5B       		.byte	91
 1451 018b 04       		.byte	4
 1452 018c 5C       		.byte	92
 1453 018d 11       		.byte	17
 1454 018e 5F       		.byte	95
 1455 018f 01       		.byte	1
 1456 0190 8B       		.byte	-117
 1457 0191 02       		.byte	2
 1458 0192 8D       		.byte	-115
 1459 0193 01       		.byte	1
 1460 0194 8E       		.byte	-114
 1461 0195 01       		.byte	1
 1462 0196 95       		.byte	-107
 1463 0197 01       		.byte	1
 1464 0198 9E       		.byte	-98
 1465 0199 02       		.byte	2
 1466 019a B0       		.byte	-80
 1467 019b 01       		.byte	1
 1468 019c B1       		.byte	-79
 1469 019d 01       		.byte	1
 1470 019e B3       		.byte	-77
 1471 019f 02       		.byte	2
 1472 01a0 B6       		.byte	-74
 1473 01a1 02       		.byte	2
 1474 01a2 B9       		.byte	-71
 1475 01a3 02       		.byte	2
 1476 01a4 BF       		.byte	-65
 1477 01a5 01       		.byte	1
 1478 01a6 D6       		.byte	-42
 1479 01a7 02       		.byte	2
 1480 01a8 D7       		.byte	-41
 1481 01a9 3E       		.byte	62
 1482 01aa D8       		.byte	-40
 1483 01ab 04       		.byte	4
 1484 01ac D9       		.byte	-39
 1485 01ad 04       		.byte	4
 1486 01ae DB       		.byte	-37
 1487 01af 0C       		.byte	12
 1488 01b0 DC       		.byte	-36
 1489 01b1 11       		.byte	17
 1490 01b2 DD       		.byte	-35
 1491 01b3 10       		.byte	16
 1492 01b4 DF       		.byte	-33
 1493 01b5 01       		.byte	1
 1494 01b6 00       		.byte	0
 1495 01b7 80       		.byte	-128
 1496 01b8 01       		.byte	1
 1497 01b9 02       		.byte	2
 1498 01ba 02       		.byte	2
 1499 01bb 20       		.byte	32
 1500 01bc 05       		.byte	5
 1501 01bd 86       		.byte	-122
 1502 01be 08       		.byte	8
 1503 01bf 09       		.byte	9
ARM GAS  C:\Users\glenn\AppData\Local\Temp\cc58Te5j.s 			page 57


 1504 01c0 0B       		.byte	11
 1505 01c1 01       		.byte	1
 1506 01c2 0D       		.byte	13
 1507 01c3 80       		.byte	-128
 1508 01c4 0F       		.byte	15
 1509 01c5 10       		.byte	16
 1510 01c6 11       		.byte	17
 1511 01c7 81       		.byte	-127
 1512 01c8 12       		.byte	18
 1513 01c9 08       		.byte	8
 1514 01ca 14       		.byte	20
 1515 01cb 08       		.byte	8
 1516 01cc 15       		.byte	21
 1517 01cd 01       		.byte	1
 1518 01ce 19       		.byte	25
 1519 01cf 82       		.byte	-126
 1520 01d0 1B       		.byte	27
 1521 01d1 80       		.byte	-128
 1522 01d2 1F       		.byte	31
 1523 01d3 40       		.byte	64
 1524 01d4 20       		.byte	32
 1525 01d5 40       		.byte	64
 1526 01d6 21       		.byte	33
 1527 01d7 04       		.byte	4
 1528 01d8 22       		.byte	34
 1529 01d9 08       		.byte	8
 1530 01da 23       		.byte	35
 1531 01db 10       		.byte	16
 1532 01dc 28       		.byte	40
 1533 01dd 09       		.byte	9
 1534 01de 29       		.byte	41
 1535 01df 86       		.byte	-122
 1536 01e0 2F       		.byte	47
 1537 01e1 80       		.byte	-128
 1538 01e2 31       		.byte	49
 1539 01e3 80       		.byte	-128
 1540 01e4 33       		.byte	51
 1541 01e5 04       		.byte	4
 1542 01e6 34       		.byte	52
 1543 01e7 08       		.byte	8
 1544 01e8 35       		.byte	53
 1545 01e9 02       		.byte	2
 1546 01ea 36       		.byte	54
 1547 01eb 20       		.byte	32
 1548 01ec 39       		.byte	57
 1549 01ed 09       		.byte	9
 1550 01ee 3A       		.byte	58
 1551 01ef 90       		.byte	-112
 1552 01f0 3D       		.byte	61
 1553 01f1 81       		.byte	-127
 1554 01f2 3F       		.byte	63
 1555 01f3 10       		.byte	16
 1556 01f4 5B       		.byte	91
 1557 01f5 04       		.byte	4
 1558 01f6 60       		.byte	96
 1559 01f7 40       		.byte	64
 1560 01f8 68       		.byte	104
ARM GAS  C:\Users\glenn\AppData\Local\Temp\cc58Te5j.s 			page 58


 1561 01f9 40       		.byte	64
 1562 01fa 69       		.byte	105
 1563 01fb 10       		.byte	16
 1564 01fc 6A       		.byte	106
 1565 01fd 64       		.byte	100
 1566 01fe 6B       		.byte	107
 1567 01ff 80       		.byte	-128
 1568 0200 6C       		.byte	108
 1569 0201 02       		.byte	2
 1570 0202 6E       		.byte	110
 1571 0203 20       		.byte	32
 1572 0204 73       		.byte	115
 1573 0205 09       		.byte	9
 1574 0206 79       		.byte	121
 1575 0207 40       		.byte	64
 1576 0208 82       		.byte	-126
 1577 0209 10       		.byte	16
 1578 020a 86       		.byte	-122
 1579 020b 10       		.byte	16
 1580 020c 89       		.byte	-119
 1581 020d 02       		.byte	2
 1582 020e 8E       		.byte	-114
 1583 020f 40       		.byte	64
 1584 0210 97       		.byte	-105
 1585 0211 80       		.byte	-128
 1586 0212 A4       		.byte	-92
 1587 0213 02       		.byte	2
 1588 0214 C0       		.byte	-64
 1589 0215 BD       		.byte	-67
 1590 0216 C2       		.byte	-62
 1591 0217 AD       		.byte	-83
 1592 0218 C4       		.byte	-60
 1593 0219 5B       		.byte	91
 1594 021a CA       		.byte	-54
 1595 021b 8F       		.byte	-113
 1596 021c CC       		.byte	-52
 1597 021d EA       		.byte	-22
 1598 021e CE       		.byte	-50
 1599 021f BF       		.byte	-65
 1600 0220 D6       		.byte	-42
 1601 0221 02       		.byte	2
 1602 0222 D8       		.byte	-40
 1603 0223 01       		.byte	1
 1604 0224 DE       		.byte	-34
 1605 0225 08       		.byte	8
 1606 0226 E4       		.byte	-28
 1607 0227 04       		.byte	4
 1608 0228 EE       		.byte	-18
 1609 0229 06       		.byte	6
 1610 022a 02       		.byte	2
 1611 022b 01       		.byte	1
 1612 022c 0A       		.byte	10
 1613 022d 01       		.byte	1
 1614 022e 0F       		.byte	15
 1615 022f 01       		.byte	1
 1616 0230 1A       		.byte	26
 1617 0231 02       		.byte	2
ARM GAS  C:\Users\glenn\AppData\Local\Temp\cc58Te5j.s 			page 59


 1618 0232 31       		.byte	49
 1619 0233 01       		.byte	1
 1620 0234 34       		.byte	52
 1621 0235 01       		.byte	1
 1622 0236 36       		.byte	54
 1623 0237 02       		.byte	2
 1624 0238 3E       		.byte	62
 1625 0239 10       		.byte	16
 1626 023a 54       		.byte	84
 1627 023b 18       		.byte	24
 1628 023c 56       		.byte	86
 1629 023d 04       		.byte	4
 1630 023e 58       		.byte	88
 1631 023f 04       		.byte	4
 1632 0240 59       		.byte	89
 1633 0241 04       		.byte	4
 1634 0242 5B       		.byte	91
 1635 0243 04       		.byte	4
 1636 0244 5C       		.byte	92
 1637 0245 11       		.byte	17
 1638 0246 5D       		.byte	93
 1639 0247 20       		.byte	32
 1640 0248 5F       		.byte	95
 1641 0249 01       		.byte	1
 1642 024a D4       		.byte	-44
 1643 024b 01       		.byte	1
 1644 024c D8       		.byte	-40
 1645 024d 04       		.byte	4
 1646 024e D9       		.byte	-39
 1647 024f 04       		.byte	4
 1648 0250 DB       		.byte	-37
 1649 0251 0E       		.byte	14
 1650 0252 DC       		.byte	-36
 1651 0253 11       		.byte	17
 1652 0254 DD       		.byte	-35
 1653 0255 10       		.byte	16
 1654 0256 DF       		.byte	-33
 1655 0257 01       		.byte	1
 1656 0258 01       		.byte	1
 1657 0259 08       		.byte	8
 1658 025a 02       		.byte	2
 1659 025b 08       		.byte	8
 1660 025c 04       		.byte	4
 1661 025d A6       		.byte	-90
 1662 025e 09       		.byte	9
 1663 025f 01       		.byte	1
 1664 0260 0A       		.byte	10
 1665 0261 05       		.byte	5
 1666 0262 0C       		.byte	12
 1667 0263 0A       		.byte	10
 1668 0264 0E       		.byte	14
 1669 0265 09       		.byte	9
 1670 0266 10       		.byte	16
 1671 0267 0A       		.byte	10
 1672 0268 14       		.byte	20
 1673 0269 04       		.byte	4
 1674 026a 16       		.byte	22
ARM GAS  C:\Users\glenn\AppData\Local\Temp\cc58Te5j.s 			page 60


 1675 026b 02       		.byte	2
 1676 026c 1D       		.byte	29
 1677 026d 10       		.byte	16
 1678 026e 1E       		.byte	30
 1679 026f 01       		.byte	1
 1680 0270 1F       		.byte	31
 1681 0271 80       		.byte	-128
 1682 0272 24       		.byte	36
 1683 0273 80       		.byte	-128
 1684 0274 25       		.byte	37
 1685 0275 03       		.byte	3
 1686 0276 26       		.byte	38
 1687 0277 02       		.byte	2
 1688 0278 28       		.byte	40
 1689 0279 04       		.byte	4
 1690 027a 2A       		.byte	42
 1691 027b 08       		.byte	8
 1692 027c 2B       		.byte	43
 1693 027d 80       		.byte	-128
 1694 027e 2C       		.byte	44
 1695 027f 02       		.byte	2
 1696 0280 2F       		.byte	47
 1697 0281 80       		.byte	-128
 1698 0282 30       		.byte	48
 1699 0283 0A       		.byte	10
 1700 0284 31       		.byte	49
 1701 0285 04       		.byte	4
 1702 0286 36       		.byte	54
 1703 0287 0A       		.byte	10
 1704 0288 38       		.byte	56
 1705 0289 04       		.byte	4
 1706 028a 3A       		.byte	58
 1707 028b 02       		.byte	2
 1708 028c 3C       		.byte	60
 1709 028d 24       		.byte	36
 1710 028e 3E       		.byte	62
 1711 028f 06       		.byte	6
 1712 0290 3F       		.byte	63
 1713 0291 80       		.byte	-128
 1714 0292 5A       		.byte	90
 1715 0293 80       		.byte	-128
 1716 0294 5E       		.byte	94
 1717 0295 02       		.byte	2
 1718 0296 65       		.byte	101
 1719 0297 12       		.byte	18
 1720 0298 66       		.byte	102
 1721 0299 40       		.byte	64
 1722 029a 78       		.byte	120
 1723 029b 08       		.byte	8
 1724 029c 82       		.byte	-126
 1725 029d 04       		.byte	4
 1726 029e 88       		.byte	-120
 1727 029f 20       		.byte	32
 1728 02a0 89       		.byte	-119
 1729 02a1 08       		.byte	8
 1730 02a2 8A       		.byte	-118
 1731 02a3 02       		.byte	2
ARM GAS  C:\Users\glenn\AppData\Local\Temp\cc58Te5j.s 			page 61


 1732 02a4 8F       		.byte	-113
 1733 02a5 40       		.byte	64
 1734 02a6 96       		.byte	-106
 1735 02a7 05       		.byte	5
 1736 02a8 98       		.byte	-104
 1737 02a9 02       		.byte	2
 1738 02aa 9C       		.byte	-100
 1739 02ab 20       		.byte	32
 1740 02ac 9D       		.byte	-99
 1741 02ad 02       		.byte	2
 1742 02ae A4       		.byte	-92
 1743 02af 12       		.byte	18
 1744 02b0 A5       		.byte	-91
 1745 02b1 02       		.byte	2
 1746 02b2 A6       		.byte	-90
 1747 02b3 08       		.byte	8
 1748 02b4 A7       		.byte	-89
 1749 02b5 80       		.byte	-128
 1750 02b6 AC       		.byte	-84
 1751 02b7 21       		.byte	33
 1752 02b8 AF       		.byte	-81
 1753 02b9 40       		.byte	64
 1754 02ba B5       		.byte	-75
 1755 02bb 08       		.byte	8
 1756 02bc B6       		.byte	-74
 1757 02bd 10       		.byte	16
 1758 02be C0       		.byte	-64
 1759 02bf F6       		.byte	-10
 1760 02c0 C2       		.byte	-62
 1761 02c1 FB       		.byte	-5
 1762 02c2 C4       		.byte	-60
 1763 02c3 C3       		.byte	-61
 1764 02c4 CA       		.byte	-54
 1765 02c5 97       		.byte	-105
 1766 02c6 CC       		.byte	-52
 1767 02c7 C3       		.byte	-61
 1768 02c8 CE       		.byte	-50
 1769 02c9 F3       		.byte	-13
 1770 02ca D6       		.byte	-42
 1771 02cb 88       		.byte	-120
 1772 02cc D8       		.byte	-40
 1773 02cd B0       		.byte	-80
 1774 02ce DE       		.byte	-34
 1775 02cf 02       		.byte	2
 1776 02d0 E0       		.byte	-32
 1777 02d1 80       		.byte	-128
 1778 02d2 E4       		.byte	-28
 1779 02d3 40       		.byte	64
 1780 02d4 EE       		.byte	-18
 1781 02d5 04       		.byte	4
 1782 02d6 19       		.byte	25
 1783 02d7 01       		.byte	1
 1784 02d8 33       		.byte	51
 1785 02d9 01       		.byte	1
 1786 02da 3F       		.byte	63
 1787 02db 04       		.byte	4
 1788 02dc 54       		.byte	84
ARM GAS  C:\Users\glenn\AppData\Local\Temp\cc58Te5j.s 			page 62


 1789 02dd 01       		.byte	1
 1790 02de 56       		.byte	86
 1791 02df 04       		.byte	4
 1792 02e0 58       		.byte	88
 1793 02e1 04       		.byte	4
 1794 02e2 59       		.byte	89
 1795 02e3 04       		.byte	4
 1796 02e4 5B       		.byte	91
 1797 02e5 04       		.byte	4
 1798 02e6 5C       		.byte	92
 1799 02e7 11       		.byte	17
 1800 02e8 5D       		.byte	93
 1801 02e9 20       		.byte	32
 1802 02ea 5F       		.byte	95
 1803 02eb 01       		.byte	1
 1804 02ec D6       		.byte	-42
 1805 02ed 08       		.byte	8
 1806 02ee D8       		.byte	-40
 1807 02ef 04       		.byte	4
 1808 02f0 D9       		.byte	-39
 1809 02f1 04       		.byte	4
 1810 02f2 DB       		.byte	-37
 1811 02f3 04       		.byte	4
 1812 02f4 DC       		.byte	-36
 1813 02f5 11       		.byte	17
 1814 02f6 DD       		.byte	-35
 1815 02f7 90       		.byte	-112
 1816 02f8 DF       		.byte	-33
 1817 02f9 01       		.byte	1
 1818 02fa 02       		.byte	2
 1819 02fb 08       		.byte	8
 1820 02fc 04       		.byte	4
 1821 02fd 10       		.byte	16
 1822 02fe 05       		.byte	5
 1823 02ff 04       		.byte	4
 1824 0300 09       		.byte	9
 1825 0301 02       		.byte	2
 1826 0302 0A       		.byte	10
 1827 0303 15       		.byte	21
 1828 0304 0D       		.byte	13
 1829 0305 02       		.byte	2
 1830 0306 0E       		.byte	14
 1831 0307 05       		.byte	5
 1832 0308 10       		.byte	16
 1833 0309 12       		.byte	18
 1834 030a 14       		.byte	20
 1835 030b 30       		.byte	48
 1836 030c 15       		.byte	21
 1837 030d 40       		.byte	64
 1838 030e 22       		.byte	34
 1839 030f 04       		.byte	4
 1840 0310 29       		.byte	41
 1841 0311 14       		.byte	20
 1842 0312 2B       		.byte	43
 1843 0313 80       		.byte	-128
 1844 0314 2C       		.byte	44
 1845 0315 02       		.byte	2
ARM GAS  C:\Users\glenn\AppData\Local\Temp\cc58Te5j.s 			page 63


 1846 0316 2D       		.byte	45
 1847 0317 40       		.byte	64
 1848 0318 2F       		.byte	47
 1849 0319 80       		.byte	-128
 1850 031a 30       		.byte	48
 1851 031b 20       		.byte	32
 1852 031c 31       		.byte	49
 1853 031d 02       		.byte	2
 1854 031e 33       		.byte	51
 1855 031f 01       		.byte	1
 1856 0320 34       		.byte	52
 1857 0321 20       		.byte	32
 1858 0322 35       		.byte	53
 1859 0323 14       		.byte	20
 1860 0324 36       		.byte	54
 1861 0325 08       		.byte	8
 1862 0326 37       		.byte	55
 1863 0327 01       		.byte	1
 1864 0328 38       		.byte	56
 1865 0329 14       		.byte	20
 1866 032a 39       		.byte	57
 1867 032b 40       		.byte	64
 1868 032c 3C       		.byte	60
 1869 032d 34       		.byte	52
 1870 032e 3E       		.byte	62
 1871 032f 14       		.byte	20
 1872 0330 58       		.byte	88
 1873 0331 01       		.byte	1
 1874 0332 5A       		.byte	90
 1875 0333 68       		.byte	104
 1876 0334 5E       		.byte	94
 1877 0335 80       		.byte	-128
 1878 0336 63       		.byte	99
 1879 0337 40       		.byte	64
 1880 0338 64       		.byte	100
 1881 0339 02       		.byte	2
 1882 033a 69       		.byte	105
 1883 033b 90       		.byte	-112
 1884 033c 89       		.byte	-119
 1885 033d 10       		.byte	16
 1886 033e 8D       		.byte	-115
 1887 033f 42       		.byte	66
 1888 0340 92       		.byte	-110
 1889 0341 40       		.byte	64
 1890 0342 96       		.byte	-106
 1891 0343 05       		.byte	5
 1892 0344 99       		.byte	-103
 1893 0345 08       		.byte	8
 1894 0346 9C       		.byte	-100
 1895 0347 20       		.byte	32
 1896 0348 A0       		.byte	-96
 1897 0349 20       		.byte	32
 1898 034a A2       		.byte	-94
 1899 034b 40       		.byte	64
 1900 034c A4       		.byte	-92
 1901 034d 12       		.byte	18
 1902 034e A5       		.byte	-91
ARM GAS  C:\Users\glenn\AppData\Local\Temp\cc58Te5j.s 			page 64


 1903 034f 02       		.byte	2
 1904 0350 A6       		.byte	-90
 1905 0351 08       		.byte	8
 1906 0352 C0       		.byte	-64
 1907 0353 62       		.byte	98
 1908 0354 C2       		.byte	-62
 1909 0355 DF       		.byte	-33
 1910 0356 C4       		.byte	-60
 1911 0357 A5       		.byte	-91
 1912 0358 CA       		.byte	-54
 1913 0359 97       		.byte	-105
 1914 035a CC       		.byte	-52
 1915 035b E5       		.byte	-27
 1916 035c CE       		.byte	-50
 1917 035d 6E       		.byte	110
 1918 035e D6       		.byte	-42
 1919 035f 1F       		.byte	31
 1920 0360 D8       		.byte	-40
 1921 0361 11       		.byte	17
 1922 0362 E2       		.byte	-30
 1923 0363 40       		.byte	64
 1924 0364 08       		.byte	8
 1925 0365 03       		.byte	3
 1926 0366 1A       		.byte	26
 1927 0367 01       		.byte	1
 1928 0368 20       		.byte	32
 1929 0369 03       		.byte	3
 1930 036a 24       		.byte	36
 1931 036b 02       		.byte	2
 1932 036c 34       		.byte	52
 1933 036d 03       		.byte	3
 1934 036e 38       		.byte	56
 1935 036f 20       		.byte	32
 1936 0370 3E       		.byte	62
 1937 0371 10       		.byte	16
 1938 0372 40       		.byte	64
 1939 0373 02       		.byte	2
 1940 0374 47       		.byte	71
 1941 0375 40       		.byte	64
 1942 0376 49       		.byte	73
 1943 0377 FF       		.byte	-1
 1944 0378 4A       		.byte	74
 1945 0379 07       		.byte	7
 1946 037a 4B       		.byte	75
 1947 037b FF       		.byte	-1
 1948 037c 4C       		.byte	76
 1949 037d 40       		.byte	64
 1950 037e 4D       		.byte	77
 1951 037f 20       		.byte	32
 1952 0380 4E       		.byte	78
 1953 0381 F0       		.byte	-16
 1954 0382 4F       		.byte	79
 1955 0383 05       		.byte	5
 1956 0384 50       		.byte	80
 1957 0385 08       		.byte	8
 1958 0386 58       		.byte	88
 1959 0387 04       		.byte	4
ARM GAS  C:\Users\glenn\AppData\Local\Temp\cc58Te5j.s 			page 65


 1960 0388 59       		.byte	89
 1961 0389 04       		.byte	4
 1962 038a 5A       		.byte	90
 1963 038b 04       		.byte	4
 1964 038c 5C       		.byte	92
 1965 038d 11       		.byte	17
 1966 038e 5D       		.byte	93
 1967 038f 02       		.byte	2
 1968 0390 5F       		.byte	95
 1969 0391 01       		.byte	1
 1970 0392 60       		.byte	96
 1971 0393 40       		.byte	64
 1972 0394 61       		.byte	97
 1973 0395 A8       		.byte	-88
 1974 0396 62       		.byte	98
 1975 0397 40       		.byte	64
 1976 0398 63       		.byte	99
 1977 0399 20       		.byte	32
 1978 039a C0       		.byte	-64
 1979 039b 52       		.byte	82
 1980 039c C1       		.byte	-63
 1981 039d 03       		.byte	3
 1982 039e C5       		.byte	-59
 1983 039f 0C       		.byte	12
 1984 03a0 C6       		.byte	-58
 1985 03a1 E0       		.byte	-32
 1986 03a2 C7       		.byte	-57
 1987 03a3 0B       		.byte	11
 1988 03a4 C8       		.byte	-56
 1989 03a5 19       		.byte	25
 1990 03a6 C9       		.byte	-55
 1991 03a7 FF       		.byte	-1
 1992 03a8 CA       		.byte	-54
 1993 03a9 FF       		.byte	-1
 1994 03aa CB       		.byte	-53
 1995 03ab FF       		.byte	-1
 1996 03ac CE       		.byte	-50
 1997 03ad F0       		.byte	-16
 1998 03ae CF       		.byte	-49
 1999 03af 44       		.byte	68
 2000 03b0 D0       		.byte	-48
 2001 03b1 0C       		.byte	12
 2002 03b2 D8       		.byte	-40
 2003 03b3 04       		.byte	4
 2004 03b4 D9       		.byte	-39
 2005 03b5 04       		.byte	4
 2006 03b6 DA       		.byte	-38
 2007 03b7 04       		.byte	4
 2008 03b8 DC       		.byte	-36
 2009 03b9 11       		.byte	17
 2010 03ba DD       		.byte	-35
 2011 03bb 02       		.byte	2
 2012 03bc DF       		.byte	-33
 2013 03bd 01       		.byte	1
 2014 03be E6       		.byte	-26
 2015 03bf C0       		.byte	-64
 2016 03c0 EA       		.byte	-22
ARM GAS  C:\Users\glenn\AppData\Local\Temp\cc58Te5j.s 			page 66


 2017 03c1 40       		.byte	64
 2018 03c2 EB       		.byte	-21
 2019 03c3 02       		.byte	2
 2020 03c4 00       		.byte	0
 2021 03c5 20       		.byte	32
 2022 03c6 04       		.byte	4
 2023 03c7 16       		.byte	22
 2024 03c8 09       		.byte	9
 2025 03c9 02       		.byte	2
 2026 03ca 0A       		.byte	10
 2027 03cb 05       		.byte	5
 2028 03cc 0D       		.byte	13
 2029 03cd 52       		.byte	82
 2030 03ce 0E       		.byte	14
 2031 03cf 01       		.byte	1
 2032 03d0 0F       		.byte	15
 2033 03d1 14       		.byte	20
 2034 03d2 10       		.byte	16
 2035 03d3 12       		.byte	18
 2036 03d4 12       		.byte	18
 2037 03d5 08       		.byte	8
 2038 03d6 14       		.byte	20
 2039 03d7 08       		.byte	8
 2040 03d8 15       		.byte	21
 2041 03d9 42       		.byte	66
 2042 03da 17       		.byte	23
 2043 03db 08       		.byte	8
 2044 03dc 1D       		.byte	29
 2045 03dd 20       		.byte	32
 2046 03de 28       		.byte	40
 2047 03df 38       		.byte	56
 2048 03e0 2C       		.byte	44
 2049 03e1 02       		.byte	2
 2050 03e2 2D       		.byte	45
 2051 03e3 40       		.byte	64
 2052 03e4 2F       		.byte	47
 2053 03e5 01       		.byte	1
 2054 03e6 31       		.byte	49
 2055 03e7 02       		.byte	2
 2056 03e8 33       		.byte	51
 2057 03e9 01       		.byte	1
 2058 03ea 34       		.byte	52
 2059 03eb 28       		.byte	40
 2060 03ec 36       		.byte	54
 2061 03ed 08       		.byte	8
 2062 03ee 37       		.byte	55
 2063 03ef 01       		.byte	1
 2064 03f0 38       		.byte	56
 2065 03f1 04       		.byte	4
 2066 03f2 39       		.byte	57
 2067 03f3 90       		.byte	-112
 2068 03f4 3B       		.byte	59
 2069 03f5 02       		.byte	2
 2070 03f6 3C       		.byte	60
 2071 03f7 24       		.byte	36
 2072 03f8 3D       		.byte	61
 2073 03f9 10       		.byte	16
ARM GAS  C:\Users\glenn\AppData\Local\Temp\cc58Te5j.s 			page 67


 2074 03fa 3E       		.byte	62
 2075 03fb 05       		.byte	5
 2076 03fc 3F       		.byte	63
 2077 03fd 10       		.byte	16
 2078 03fe 40       		.byte	64
 2079 03ff 10       		.byte	16
 2080 0400 41       		.byte	65
 2081 0401 10       		.byte	16
 2082 0402 45       		.byte	69
 2083 0403 20       		.byte	32
 2084 0404 49       		.byte	73
 2085 0405 08       		.byte	8
 2086 0406 4A       		.byte	74
 2087 0407 02       		.byte	2
 2088 0408 4F       		.byte	79
 2089 0409 04       		.byte	4
 2090 040a 50       		.byte	80
 2091 040b 24       		.byte	36
 2092 040c 57       		.byte	87
 2093 040d 02       		.byte	2
 2094 040e 8A       		.byte	-118
 2095 040f 40       		.byte	64
 2096 0410 8B       		.byte	-117
 2097 0411 04       		.byte	4
 2098 0412 8C       		.byte	-116
 2099 0413 21       		.byte	33
 2100 0414 90       		.byte	-112
 2101 0415 10       		.byte	16
 2102 0416 91       		.byte	-111
 2103 0417 02       		.byte	2
 2104 0418 92       		.byte	-110
 2105 0419 40       		.byte	64
 2106 041a 94       		.byte	-108
 2107 041b 08       		.byte	8
 2108 041c 97       		.byte	-105
 2109 041d 0C       		.byte	12
 2110 041e 9B       		.byte	-101
 2111 041f 08       		.byte	8
 2112 0420 9D       		.byte	-99
 2113 0421 08       		.byte	8
 2114 0422 A2       		.byte	-94
 2115 0423 02       		.byte	2
 2116 0424 A7       		.byte	-89
 2117 0425 02       		.byte	2
 2118 0426 AA       		.byte	-86
 2119 0427 08       		.byte	8
 2120 0428 AD       		.byte	-83
 2121 0429 01       		.byte	1
 2122 042a AF       		.byte	-81
 2123 042b 40       		.byte	64
 2124 042c B4       		.byte	-76
 2125 042d 10       		.byte	16
 2126 042e C0       		.byte	-64
 2127 042f 72       		.byte	114
 2128 0430 C2       		.byte	-62
 2129 0431 FB       		.byte	-5
 2130 0432 C4       		.byte	-60
ARM GAS  C:\Users\glenn\AppData\Local\Temp\cc58Te5j.s 			page 68


 2131 0433 F7       		.byte	-9
 2132 0434 CA       		.byte	-54
 2133 0435 16       		.byte	22
 2134 0436 CC       		.byte	-52
 2135 0437 E1       		.byte	-31
 2136 0438 CE       		.byte	-50
 2137 0439 EF       		.byte	-17
 2138 043a D0       		.byte	-48
 2139 043b 26       		.byte	38
 2140 043c D2       		.byte	-46
 2141 043d 08       		.byte	8
 2142 043e E0       		.byte	-32
 2143 043f 20       		.byte	32
 2144 0440 E8       		.byte	-24
 2145 0441 04       		.byte	4
 2146 0442 EA       		.byte	-22
 2147 0443 08       		.byte	8
 2148 0444 EE       		.byte	-18
 2149 0445 02       		.byte	2
 2150 0446 01       		.byte	1
 2151 0447 13       		.byte	19
 2152 0448 03       		.byte	3
 2153 0449 0C       		.byte	12
 2154 044a 06       		.byte	6
 2155 044b 08       		.byte	8
 2156 044c 07       		.byte	7
 2157 044d 05       		.byte	5
 2158 044e 09       		.byte	9
 2159 044f 13       		.byte	19
 2160 0450 0B       		.byte	11
 2161 0451 04       		.byte	4
 2162 0452 0F       		.byte	15
 2163 0453 08       		.byte	8
 2164 0454 10       		.byte	16
 2165 0455 08       		.byte	8
 2166 0456 14       		.byte	20
 2167 0457 08       		.byte	8
 2168 0458 19       		.byte	25
 2169 0459 1A       		.byte	26
 2170 045a 1A       		.byte	26
 2171 045b 01       		.byte	1
 2172 045c 1B       		.byte	27
 2173 045d 04       		.byte	4
 2174 045e 22       		.byte	34
 2175 045f 02       		.byte	2
 2176 0460 25       		.byte	37
 2177 0461 03       		.byte	3
 2178 0462 26       		.byte	38
 2179 0463 08       		.byte	8
 2180 0464 27       		.byte	39
 2181 0465 04       		.byte	4
 2182 0466 2A       		.byte	42
 2183 0467 08       		.byte	8
 2184 0468 2E       		.byte	46
 2185 0469 04       		.byte	4
 2186 046a 30       		.byte	48
 2187 046b 08       		.byte	8
ARM GAS  C:\Users\glenn\AppData\Local\Temp\cc58Te5j.s 			page 69


 2188 046c 31       		.byte	49
 2189 046d 0F       		.byte	15
 2190 046e 32       		.byte	50
 2191 046f 01       		.byte	1
 2192 0470 33       		.byte	51
 2193 0471 10       		.byte	16
 2194 0472 34       		.byte	52
 2195 0473 02       		.byte	2
 2196 0474 36       		.byte	54
 2197 0475 04       		.byte	4
 2198 0476 39       		.byte	57
 2199 0477 08       		.byte	8
 2200 0478 3B       		.byte	59
 2201 0479 02       		.byte	2
 2202 047a 3E       		.byte	62
 2203 047b 01       		.byte	1
 2204 047c 58       		.byte	88
 2205 047d 04       		.byte	4
 2206 047e 59       		.byte	89
 2207 047f 04       		.byte	4
 2208 0480 5B       		.byte	91
 2209 0481 04       		.byte	4
 2210 0482 5C       		.byte	92
 2211 0483 26       		.byte	38
 2212 0484 5F       		.byte	95
 2213 0485 01       		.byte	1
 2214 0486 80       		.byte	-128
 2215 0487 10       		.byte	16
 2216 0488 81       		.byte	-127
 2217 0489 40       		.byte	64
 2218 048a 82       		.byte	-126
 2219 048b 40       		.byte	64
 2220 048c 84       		.byte	-124
 2221 048d 14       		.byte	20
 2222 048e 85       		.byte	-123
 2223 048f 20       		.byte	32
 2224 0490 87       		.byte	-121
 2225 0491 03       		.byte	3
 2226 0492 88       		.byte	-120
 2227 0493 0C       		.byte	12
 2228 0494 89       		.byte	-119
 2229 0495 11       		.byte	17
 2230 0496 8A       		.byte	-118
 2231 0497 71       		.byte	113
 2232 0498 8B       		.byte	-117
 2233 0499 0E       		.byte	14
 2234 049a 8C       		.byte	-116
 2235 049b 09       		.byte	9
 2236 049c 8E       		.byte	-114
 2237 049d D0       		.byte	-48
 2238 049e 8F       		.byte	-113
 2239 049f 0C       		.byte	12
 2240 04a0 91       		.byte	-111
 2241 04a1 11       		.byte	17
 2242 04a2 93       		.byte	-109
 2243 04a3 06       		.byte	6
 2244 04a4 95       		.byte	-107
ARM GAS  C:\Users\glenn\AppData\Local\Temp\cc58Te5j.s 			page 70


 2245 04a5 0C       		.byte	12
 2246 04a6 97       		.byte	-105
 2247 04a7 13       		.byte	19
 2248 04a8 9A       		.byte	-102
 2249 04a9 20       		.byte	32
 2250 04aa 9E       		.byte	-98
 2251 04ab 03       		.byte	3
 2252 04ac A0       		.byte	-96
 2253 04ad 10       		.byte	16
 2254 04ae A2       		.byte	-94
 2255 04af AC       		.byte	-84
 2256 04b0 A4       		.byte	-92
 2257 04b1 DC       		.byte	-36
 2258 04b2 A6       		.byte	-90
 2259 04b3 22       		.byte	34
 2260 04b4 AF       		.byte	-81
 2261 04b5 08       		.byte	8
 2262 04b6 B2       		.byte	-78
 2263 04b7 E0       		.byte	-32
 2264 04b8 B3       		.byte	-77
 2265 04b9 40       		.byte	64
 2266 04ba B5       		.byte	-75
 2267 04bb 0F       		.byte	15
 2268 04bc B6       		.byte	-74
 2269 04bd 1F       		.byte	31
 2270 04be B7       		.byte	-73
 2271 04bf 30       		.byte	48
 2272 04c0 B9       		.byte	-71
 2273 04c1 80       		.byte	-128
 2274 04c2 BA       		.byte	-70
 2275 04c3 08       		.byte	8
 2276 04c4 BB       		.byte	-69
 2277 04c5 20       		.byte	32
 2278 04c6 BF       		.byte	-65
 2279 04c7 04       		.byte	4
 2280 04c8 D8       		.byte	-40
 2281 04c9 04       		.byte	4
 2282 04ca D9       		.byte	-39
 2283 04cb 04       		.byte	4
 2284 04cc DC       		.byte	-36
 2285 04cd 22       		.byte	34
 2286 04ce DF       		.byte	-33
 2287 04cf 01       		.byte	1
 2288 04d0 01       		.byte	1
 2289 04d1 08       		.byte	8
 2290 04d2 04       		.byte	4
 2291 04d3 18       		.byte	24
 2292 04d4 06       		.byte	6
 2293 04d5 80       		.byte	-128
 2294 04d6 07       		.byte	7
 2295 04d7 02       		.byte	2
 2296 04d8 09       		.byte	9
 2297 04d9 0A       		.byte	10
 2298 04da 0B       		.byte	11
 2299 04db 08       		.byte	8
 2300 04dc 0E       		.byte	14
 2301 04dd 01       		.byte	1
ARM GAS  C:\Users\glenn\AppData\Local\Temp\cc58Te5j.s 			page 71


 2302 04de 0F       		.byte	15
 2303 04df 04       		.byte	4
 2304 04e0 11       		.byte	17
 2305 04e1 21       		.byte	33
 2306 04e2 13       		.byte	19
 2307 04e3 44       		.byte	68
 2308 04e4 15       		.byte	21
 2309 04e5 02       		.byte	2
 2310 04e6 17       		.byte	23
 2311 04e7 08       		.byte	8
 2312 04e8 19       		.byte	25
 2313 04e9 94       		.byte	-108
 2314 04ea 1A       		.byte	26
 2315 04eb 40       		.byte	64
 2316 04ec 1C       		.byte	28
 2317 04ed 10       		.byte	16
 2318 04ee 1D       		.byte	29
 2319 04ef 08       		.byte	8
 2320 04f0 1E       		.byte	30
 2321 04f1 01       		.byte	1
 2322 04f2 21       		.byte	33
 2323 04f3 03       		.byte	3
 2324 04f4 22       		.byte	34
 2325 04f5 0A       		.byte	10
 2326 04f6 24       		.byte	36
 2327 04f7 20       		.byte	32
 2328 04f8 25       		.byte	37
 2329 04f9 70       		.byte	112
 2330 04fa 27       		.byte	39
 2331 04fb 0A       		.byte	10
 2332 04fc 29       		.byte	41
 2333 04fd 08       		.byte	8
 2334 04fe 2E       		.byte	46
 2335 04ff 80       		.byte	-128
 2336 0500 2F       		.byte	47
 2337 0501 02       		.byte	2
 2338 0502 31       		.byte	49
 2339 0503 20       		.byte	32
 2340 0504 36       		.byte	54
 2341 0505 02       		.byte	2
 2342 0506 37       		.byte	55
 2343 0507 08       		.byte	8
 2344 0508 38       		.byte	56
 2345 0509 50       		.byte	80
 2346 050a 39       		.byte	57
 2347 050b 02       		.byte	2
 2348 050c 3B       		.byte	59
 2349 050d 04       		.byte	4
 2350 050e 3C       		.byte	60
 2351 050f 50       		.byte	80
 2352 0510 3D       		.byte	61
 2353 0511 80       		.byte	-128
 2354 0512 3E       		.byte	62
 2355 0513 01       		.byte	1
 2356 0514 3F       		.byte	63
 2357 0515 04       		.byte	4
 2358 0516 59       		.byte	89
ARM GAS  C:\Users\glenn\AppData\Local\Temp\cc58Te5j.s 			page 72


 2359 0517 94       		.byte	-108
 2360 0518 C0       		.byte	-64
 2361 0519 F4       		.byte	-12
 2362 051a C2       		.byte	-62
 2363 051b CE       		.byte	-50
 2364 051c C4       		.byte	-60
 2365 051d 3F       		.byte	63
 2366 051e CA       		.byte	-54
 2367 051f 12       		.byte	18
 2368 0520 CC       		.byte	-52
 2369 0521 C4       		.byte	-60
 2370 0522 CE       		.byte	-50
 2371 0523 FF       		.byte	-1
 2372 0524 D6       		.byte	-42
 2373 0525 0E       		.byte	14
 2374 0526 E4       		.byte	-28
 2375 0527 04       		.byte	4
 2376 0528 AA       		.byte	-86
 2377 0529 40       		.byte	64
 2378 052a AD       		.byte	-83
 2379 052b 40       		.byte	64
 2380 052c B6       		.byte	-74
 2381 052d 08       		.byte	8
 2382 052e E2       		.byte	-30
 2383 052f 01       		.byte	1
 2384 0530 EC       		.byte	-20
 2385 0531 0B       		.byte	11
 2386 0532 07       		.byte	7
 2387 0533 01       		.byte	1
 2388 0534 37       		.byte	55
 2389 0535 01       		.byte	1
 2390 0536 58       		.byte	88
 2391 0537 04       		.byte	4
 2392 0538 59       		.byte	89
 2393 0539 04       		.byte	4
 2394 053a 5C       		.byte	92
 2395 053b 11       		.byte	17
 2396 053c 5F       		.byte	95
 2397 053d 01       		.byte	1
 2398 053e 82       		.byte	-126
 2399 053f 04       		.byte	4
 2400 0540 84       		.byte	-124
 2401 0541 40       		.byte	64
 2402 0542 86       		.byte	-122
 2403 0543 80       		.byte	-128
 2404 0544 87       		.byte	-121
 2405 0545 08       		.byte	8
 2406 0546 88       		.byte	-120
 2407 0547 20       		.byte	32
 2408 0548 8A       		.byte	-118
 2409 0549 10       		.byte	16
 2410 054a 8B       		.byte	-117
 2411 054b 01       		.byte	1
 2412 054c 8E       		.byte	-114
 2413 054d 02       		.byte	2
 2414 054e 8F       		.byte	-113
 2415 054f 04       		.byte	4
ARM GAS  C:\Users\glenn\AppData\Local\Temp\cc58Te5j.s 			page 73


 2416 0550 90       		.byte	-112
 2417 0551 80       		.byte	-128
 2418 0552 92       		.byte	-110
 2419 0553 40       		.byte	64
 2420 0554 93       		.byte	-109
 2421 0555 02       		.byte	2
 2422 0556 94       		.byte	-108
 2423 0557 10       		.byte	16
 2424 0558 95       		.byte	-107
 2425 0559 01       		.byte	1
 2426 055a 96       		.byte	-106
 2427 055b 20       		.byte	32
 2428 055c 98       		.byte	-104
 2429 055d 08       		.byte	8
 2430 055e 9D       		.byte	-99
 2431 055f 08       		.byte	8
 2432 0560 9E       		.byte	-98
 2433 0561 08       		.byte	8
 2434 0562 A0       		.byte	-96
 2435 0563 02       		.byte	2
 2436 0564 A1       		.byte	-95
 2437 0565 04       		.byte	4
 2438 0566 A4       		.byte	-92
 2439 0567 01       		.byte	1
 2440 0568 A7       		.byte	-89
 2441 0569 10       		.byte	16
 2442 056a AA       		.byte	-86
 2443 056b 01       		.byte	1
 2444 056c AC       		.byte	-84
 2445 056d 04       		.byte	4
 2446 056e AD       		.byte	-83
 2447 056f 02       		.byte	2
 2448 0570 B2       		.byte	-78
 2449 0571 FF       		.byte	-1
 2450 0572 B7       		.byte	-73
 2451 0573 1F       		.byte	31
 2452 0574 B9       		.byte	-71
 2453 0575 80       		.byte	-128
 2454 0576 BA       		.byte	-70
 2455 0577 80       		.byte	-128
 2456 0578 BE       		.byte	-66
 2457 0579 04       		.byte	4
 2458 057a BF       		.byte	-65
 2459 057b 40       		.byte	64
 2460 057c D2       		.byte	-46
 2461 057d 03       		.byte	3
 2462 057e D3       		.byte	-45
 2463 057f 02       		.byte	2
 2464 0580 D8       		.byte	-40
 2465 0581 04       		.byte	4
 2466 0582 D9       		.byte	-39
 2467 0583 04       		.byte	4
 2468 0584 DB       		.byte	-37
 2469 0585 04       		.byte	4
 2470 0586 DC       		.byte	-36
 2471 0587 12       		.byte	18
 2472 0588 DD       		.byte	-35
ARM GAS  C:\Users\glenn\AppData\Local\Temp\cc58Te5j.s 			page 74


 2473 0589 10       		.byte	16
 2474 058a DF       		.byte	-33
 2475 058b 01       		.byte	1
 2476 058c 01       		.byte	1
 2477 058d 92       		.byte	-110
 2478 058e 02       		.byte	2
 2479 058f 20       		.byte	32
 2480 0590 05       		.byte	5
 2481 0591 86       		.byte	-122
 2482 0592 08       		.byte	8
 2483 0593 08       		.byte	8
 2484 0594 09       		.byte	9
 2485 0595 40       		.byte	64
 2486 0596 0A       		.byte	10
 2487 0597 44       		.byte	68
 2488 0598 0B       		.byte	11
 2489 0599 04       		.byte	4
 2490 059a 0D       		.byte	13
 2491 059b 80       		.byte	-128
 2492 059c 0F       		.byte	15
 2493 059d 10       		.byte	16
 2494 059e 12       		.byte	18
 2495 059f 18       		.byte	24
 2496 05a0 13       		.byte	19
 2497 05a1 D9       		.byte	-39
 2498 05a2 14       		.byte	20
 2499 05a3 08       		.byte	8
 2500 05a4 15       		.byte	21
 2501 05a5 01       		.byte	1
 2502 05a6 19       		.byte	25
 2503 05a7 48       		.byte	72
 2504 05a8 22       		.byte	34
 2505 05a9 40       		.byte	64
 2506 05aa 25       		.byte	37
 2507 05ab C0       		.byte	-64
 2508 05ac 28       		.byte	40
 2509 05ad 08       		.byte	8
 2510 05ae 29       		.byte	41
 2511 05af 8A       		.byte	-118
 2512 05b0 2D       		.byte	45
 2513 05b1 81       		.byte	-127
 2514 05b2 30       		.byte	48
 2515 05b3 01       		.byte	1
 2516 05b4 31       		.byte	49
 2517 05b5 80       		.byte	-128
 2518 05b6 32       		.byte	50
 2519 05b7 28       		.byte	40
 2520 05b8 34       		.byte	52
 2521 05b9 08       		.byte	8
 2522 05ba 35       		.byte	53
 2523 05bb 02       		.byte	2
 2524 05bc 36       		.byte	54
 2525 05bd 20       		.byte	32
 2526 05be 39       		.byte	57
 2527 05bf 01       		.byte	1
 2528 05c0 3A       		.byte	58
 2529 05c1 10       		.byte	16
ARM GAS  C:\Users\glenn\AppData\Local\Temp\cc58Te5j.s 			page 75


 2530 05c2 3B       		.byte	59
 2531 05c3 44       		.byte	68
 2532 05c4 3D       		.byte	61
 2533 05c5 80       		.byte	-128
 2534 05c6 3E       		.byte	62
 2535 05c7 04       		.byte	4
 2536 05c8 3F       		.byte	63
 2537 05c9 10       		.byte	16
 2538 05ca 64       		.byte	100
 2539 05cb 01       		.byte	1
 2540 05cc 67       		.byte	103
 2541 05cd 01       		.byte	1
 2542 05ce 68       		.byte	104
 2543 05cf 01       		.byte	1
 2544 05d0 69       		.byte	105
 2545 05d1 40       		.byte	64
 2546 05d2 6B       		.byte	107
 2547 05d3 04       		.byte	4
 2548 05d4 7D       		.byte	125
 2549 05d5 01       		.byte	1
 2550 05d6 7E       		.byte	126
 2551 05d7 40       		.byte	64
 2552 05d8 81       		.byte	-127
 2553 05d9 04       		.byte	4
 2554 05da 82       		.byte	-126
 2555 05db 20       		.byte	32
 2556 05dc 85       		.byte	-123
 2557 05dd 40       		.byte	64
 2558 05de 88       		.byte	-120
 2559 05df 01       		.byte	1
 2560 05e0 91       		.byte	-111
 2561 05e1 10       		.byte	16
 2562 05e2 92       		.byte	-110
 2563 05e3 44       		.byte	68
 2564 05e4 93       		.byte	-109
 2565 05e5 01       		.byte	1
 2566 05e6 95       		.byte	-107
 2567 05e7 41       		.byte	65
 2568 05e8 98       		.byte	-104
 2569 05e9 08       		.byte	8
 2570 05ea 99       		.byte	-103
 2571 05eb 82       		.byte	-126
 2572 05ec 9B       		.byte	-101
 2573 05ed 88       		.byte	-120
 2574 05ee 9D       		.byte	-99
 2575 05ef 04       		.byte	4
 2576 05f0 9E       		.byte	-98
 2577 05f1 10       		.byte	16
 2578 05f2 9F       		.byte	-97
 2579 05f3 04       		.byte	4
 2580 05f4 A2       		.byte	-94
 2581 05f5 08       		.byte	8
 2582 05f6 A5       		.byte	-91
 2583 05f7 C0       		.byte	-64
 2584 05f8 A6       		.byte	-90
 2585 05f9 20       		.byte	32
 2586 05fa A8       		.byte	-88
ARM GAS  C:\Users\glenn\AppData\Local\Temp\cc58Te5j.s 			page 76


 2587 05fb 08       		.byte	8
 2588 05fc B1       		.byte	-79
 2589 05fd 80       		.byte	-128
 2590 05fe B2       		.byte	-78
 2591 05ff 80       		.byte	-128
 2592 0600 C0       		.byte	-64
 2593 0601 BF       		.byte	-65
 2594 0602 C2       		.byte	-62
 2595 0603 AF       		.byte	-81
 2596 0604 C4       		.byte	-60
 2597 0605 5F       		.byte	95
 2598 0606 CA       		.byte	-54
 2599 0607 9F       		.byte	-97
 2600 0608 CC       		.byte	-52
 2601 0609 EF       		.byte	-17
 2602 060a CE       		.byte	-50
 2603 060b 7F       		.byte	127
 2604 060c E0       		.byte	-32
 2605 060d 12       		.byte	18
 2606 060e E6       		.byte	-26
 2607 060f 01       		.byte	1
 2608 0610 EE       		.byte	-18
 2609 0611 04       		.byte	4
 2610 0612 03       		.byte	3
 2611 0613 40       		.byte	64
 2612 0614 05       		.byte	5
 2613 0615 27       		.byte	39
 2614 0616 07       		.byte	7
 2615 0617 18       		.byte	24
 2616 0618 09       		.byte	9
 2617 0619 18       		.byte	24
 2618 061a 0F       		.byte	15
 2619 061b 40       		.byte	64
 2620 061c 13       		.byte	19
 2621 061d 04       		.byte	4
 2622 061e 15       		.byte	21
 2623 061f 1C       		.byte	28
 2624 0620 17       		.byte	23
 2625 0621 22       		.byte	34
 2626 0622 1B       		.byte	27
 2627 0623 03       		.byte	3
 2628 0624 1D       		.byte	29
 2629 0625 3F       		.byte	63
 2630 0626 21       		.byte	33
 2631 0627 10       		.byte	16
 2632 0628 25       		.byte	37
 2633 0629 04       		.byte	4
 2634 062a 27       		.byte	39
 2635 062b 80       		.byte	-128
 2636 062c 29       		.byte	41
 2637 062d 08       		.byte	8
 2638 062e 2D       		.byte	45
 2639 062f 1C       		.byte	28
 2640 0630 2F       		.byte	47
 2641 0631 21       		.byte	33
 2642 0632 31       		.byte	49
 2643 0633 80       		.byte	-128
ARM GAS  C:\Users\glenn\AppData\Local\Temp\cc58Te5j.s 			page 77


 2644 0634 33       		.byte	51
 2645 0635 40       		.byte	64
 2646 0636 35       		.byte	53
 2647 0637 1F       		.byte	31
 2648 0638 37       		.byte	55
 2649 0639 20       		.byte	32
 2650 063a 39       		.byte	57
 2651 063b 80       		.byte	-128
 2652 063c 3B       		.byte	59
 2653 063d 20       		.byte	32
 2654 063e 3F       		.byte	63
 2655 063f 04       		.byte	4
 2656 0640 40       		.byte	64
 2657 0641 32       		.byte	50
 2658 0642 41       		.byte	65
 2659 0643 06       		.byte	6
 2660 0644 42       		.byte	66
 2661 0645 04       		.byte	4
 2662 0646 44       		.byte	68
 2663 0647 05       		.byte	5
 2664 0648 45       		.byte	69
 2665 0649 CE       		.byte	-50
 2666 064a 48       		.byte	72
 2667 064b 03       		.byte	3
 2668 064c 49       		.byte	73
 2669 064d FF       		.byte	-1
 2670 064e 4A       		.byte	74
 2671 064f FF       		.byte	-1
 2672 0650 4B       		.byte	75
 2673 0651 FF       		.byte	-1
 2674 0652 4C       		.byte	76
 2675 0653 62       		.byte	98
 2676 0654 4D       		.byte	77
 2677 0655 A0       		.byte	-96
 2678 0656 4E       		.byte	78
 2679 0657 F0       		.byte	-16
 2680 0658 4F       		.byte	79
 2681 0659 41       		.byte	65
 2682 065a 50       		.byte	80
 2683 065b 0C       		.byte	12
 2684 065c 58       		.byte	88
 2685 065d 04       		.byte	4
 2686 065e 59       		.byte	89
 2687 065f 04       		.byte	4
 2688 0660 5A       		.byte	90
 2689 0661 04       		.byte	4
 2690 0662 5C       		.byte	92
 2691 0663 21       		.byte	33
 2692 0664 5D       		.byte	93
 2693 0665 02       		.byte	2
 2694 0666 5F       		.byte	95
 2695 0667 01       		.byte	1
 2696 0668 66       		.byte	102
 2697 0669 40       		.byte	64
 2698 066a 67       		.byte	103
 2699 066b 02       		.byte	2
 2700 066c 69       		.byte	105
ARM GAS  C:\Users\glenn\AppData\Local\Temp\cc58Te5j.s 			page 78


 2701 066d 10       		.byte	16
 2702 066e 6A       		.byte	106
 2703 066f 30       		.byte	48
 2704 0670 6B       		.byte	107
 2705 0671 10       		.byte	16
 2706 0672 6D       		.byte	109
 2707 0673 10       		.byte	16
 2708 0674 6E       		.byte	110
 2709 0675 10       		.byte	16
 2710 0676 6F       		.byte	111
 2711 0677 12       		.byte	18
 2712 0678 D8       		.byte	-40
 2713 0679 04       		.byte	4
 2714 067a D9       		.byte	-39
 2715 067b 04       		.byte	4
 2716 067c DC       		.byte	-36
 2717 067d 11       		.byte	17
 2718 067e DF       		.byte	-33
 2719 067f 01       		.byte	1
 2720 0680 00       		.byte	0
 2721 0681 A0       		.byte	-96
 2722 0682 03       		.byte	3
 2723 0683 08       		.byte	8
 2724 0684 05       		.byte	5
 2725 0685 04       		.byte	4
 2726 0686 06       		.byte	6
 2727 0687 09       		.byte	9
 2728 0688 09       		.byte	9
 2729 0689 20       		.byte	32
 2730 068a 0A       		.byte	10
 2731 068b 01       		.byte	1
 2732 068c 0C       		.byte	12
 2733 068d 40       		.byte	64
 2734 068e 0D       		.byte	13
 2735 068f 22       		.byte	34
 2736 0690 0E       		.byte	14
 2737 0691 01       		.byte	1
 2738 0692 10       		.byte	16
 2739 0693 12       		.byte	18
 2740 0694 11       		.byte	17
 2741 0695 02       		.byte	2
 2742 0696 12       		.byte	18
 2743 0697 80       		.byte	-128
 2744 0698 14       		.byte	20
 2745 0699 20       		.byte	32
 2746 069a 24       		.byte	36
 2747 069b 02       		.byte	2
 2748 069c 26       		.byte	38
 2749 069d 0A       		.byte	10
 2750 069e 27       		.byte	39
 2751 069f 04       		.byte	4
 2752 06a0 28       		.byte	40
 2753 06a1 70       		.byte	112
 2754 06a2 2B       		.byte	43
 2755 06a3 08       		.byte	8
 2756 06a4 2C       		.byte	44
 2757 06a5 A0       		.byte	-96
ARM GAS  C:\Users\glenn\AppData\Local\Temp\cc58Te5j.s 			page 79


 2758 06a6 2D       		.byte	45
 2759 06a7 20       		.byte	32
 2760 06a8 2F       		.byte	47
 2761 06a9 01       		.byte	1
 2762 06aa 31       		.byte	49
 2763 06ab 20       		.byte	32
 2764 06ac 32       		.byte	50
 2765 06ad 80       		.byte	-128
 2766 06ae 34       		.byte	52
 2767 06af 80       		.byte	-128
 2768 06b0 36       		.byte	54
 2769 06b1 02       		.byte	2
 2770 06b2 37       		.byte	55
 2771 06b3 14       		.byte	20
 2772 06b4 39       		.byte	57
 2773 06b5 20       		.byte	32
 2774 06b6 3A       		.byte	58
 2775 06b7 01       		.byte	1
 2776 06b8 3D       		.byte	61
 2777 06b9 08       		.byte	8
 2778 06ba 3E       		.byte	62
 2779 06bb E0       		.byte	-32
 2780 06bc 3F       		.byte	63
 2781 06bd 02       		.byte	2
 2782 06be 45       		.byte	69
 2783 06bf 0C       		.byte	12
 2784 06c0 46       		.byte	70
 2785 06c1 80       		.byte	-128
 2786 06c2 47       		.byte	71
 2787 06c3 10       		.byte	16
 2788 06c4 4C       		.byte	76
 2789 06c5 10       		.byte	16
 2790 06c6 4E       		.byte	78
 2791 06c7 05       		.byte	5
 2792 06c8 4F       		.byte	79
 2793 06c9 02       		.byte	2
 2794 06ca 64       		.byte	100
 2795 06cb 80       		.byte	-128
 2796 06cc 65       		.byte	101
 2797 06cd 02       		.byte	2
 2798 06ce 81       		.byte	-127
 2799 06cf 01       		.byte	1
 2800 06d0 82       		.byte	-126
 2801 06d1 08       		.byte	8
 2802 06d2 84       		.byte	-124
 2803 06d3 40       		.byte	64
 2804 06d4 85       		.byte	-123
 2805 06d5 12       		.byte	18
 2806 06d6 86       		.byte	-122
 2807 06d7 04       		.byte	4
 2808 06d8 88       		.byte	-120
 2809 06d9 08       		.byte	8
 2810 06da 8A       		.byte	-118
 2811 06db 48       		.byte	72
 2812 06dc 92       		.byte	-110
 2813 06dd 01       		.byte	1
 2814 06de 94       		.byte	-108
ARM GAS  C:\Users\glenn\AppData\Local\Temp\cc58Te5j.s 			page 80


 2815 06df 22       		.byte	34
 2816 06e0 96       		.byte	-106
 2817 06e1 84       		.byte	-124
 2818 06e2 98       		.byte	-104
 2819 06e3 22       		.byte	34
 2820 06e4 9C       		.byte	-100
 2821 06e5 08       		.byte	8
 2822 06e6 9D       		.byte	-99
 2823 06e7 04       		.byte	4
 2824 06e8 9E       		.byte	-98
 2825 06e9 48       		.byte	72
 2826 06ea A1       		.byte	-95
 2827 06eb 21       		.byte	33
 2828 06ec A4       		.byte	-92
 2829 06ed 12       		.byte	18
 2830 06ee A6       		.byte	-90
 2831 06ef 01       		.byte	1
 2832 06f0 AB       		.byte	-85
 2833 06f1 80       		.byte	-128
 2834 06f2 B0       		.byte	-80
 2835 06f3 04       		.byte	4
 2836 06f4 B1       		.byte	-79
 2837 06f5 20       		.byte	32
 2838 06f6 B2       		.byte	-78
 2839 06f7 08       		.byte	8
 2840 06f8 C0       		.byte	-64
 2841 06f9 E3       		.byte	-29
 2842 06fa C2       		.byte	-62
 2843 06fb D3       		.byte	-45
 2844 06fc C4       		.byte	-60
 2845 06fd 2D       		.byte	45
 2846 06fe CA       		.byte	-54
 2847 06ff F7       		.byte	-9
 2848 0700 CC       		.byte	-52
 2849 0701 FC       		.byte	-4
 2850 0702 CE       		.byte	-50
 2851 0703 F5       		.byte	-11
 2852 0704 D0       		.byte	-48
 2853 0705 E0       		.byte	-32
 2854 0706 D2       		.byte	-46
 2855 0707 30       		.byte	48
 2856 0708 E0       		.byte	-32
 2857 0709 90       		.byte	-112
 2858 070a EC       		.byte	-20
 2859 070b 80       		.byte	-128
 2860 070c EE       		.byte	-18
 2861 070d 20       		.byte	32
 2862 070e 0A       		.byte	10
 2863 070f 01       		.byte	1
 2864 0710 11       		.byte	17
 2865 0711 01       		.byte	1
 2866 0712 12       		.byte	18
 2867 0713 02       		.byte	2
 2868 0714 18       		.byte	24
 2869 0715 01       		.byte	1
 2870 0716 1E       		.byte	30
 2871 0717 08       		.byte	8
ARM GAS  C:\Users\glenn\AppData\Local\Temp\cc58Te5j.s 			page 81


 2872 0718 22       		.byte	34
 2873 0719 04       		.byte	4
 2874 071a 26       		.byte	38
 2875 071b 08       		.byte	8
 2876 071c 27       		.byte	39
 2877 071d 03       		.byte	3
 2878 071e 31       		.byte	49
 2879 071f 02       		.byte	2
 2880 0720 32       		.byte	50
 2881 0721 03       		.byte	3
 2882 0722 35       		.byte	53
 2883 0723 01       		.byte	1
 2884 0724 36       		.byte	54
 2885 0725 0C       		.byte	12
 2886 0726 37       		.byte	55
 2887 0727 01       		.byte	1
 2888 0728 3E       		.byte	62
 2889 0729 40       		.byte	64
 2890 072a 58       		.byte	88
 2891 072b 04       		.byte	4
 2892 072c 59       		.byte	89
 2893 072d 0E       		.byte	14
 2894 072e 5C       		.byte	92
 2895 072f 19       		.byte	25
 2896 0730 5F       		.byte	95
 2897 0731 01       		.byte	1
 2898 0732 80       		.byte	-128
 2899 0733 FF       		.byte	-1
 2900 0734 81       		.byte	-127
 2901 0735 08       		.byte	8
 2902 0736 83       		.byte	-125
 2903 0737 30       		.byte	48
 2904 0738 84       		.byte	-124
 2905 0739 0C       		.byte	12
 2906 073a 85       		.byte	-123
 2907 073b 3F       		.byte	63
 2908 073c 88       		.byte	-120
 2909 073d 04       		.byte	4
 2910 073e 89       		.byte	-119
 2911 073f 3F       		.byte	63
 2912 0740 8C       		.byte	-116
 2913 0741 C3       		.byte	-61
 2914 0742 8D       		.byte	-115
 2915 0743 24       		.byte	36
 2916 0744 8F       		.byte	-113
 2917 0745 0A       		.byte	10
 2918 0746 90       		.byte	-112
 2919 0747 0F       		.byte	15
 2920 0748 91       		.byte	-111
 2921 0749 40       		.byte	64
 2922 074a 92       		.byte	-110
 2923 074b F0       		.byte	-16
 2924 074c 94       		.byte	-108
 2925 074d F3       		.byte	-13
 2926 074e 95       		.byte	-107
 2927 074f 40       		.byte	64
 2928 0750 96       		.byte	-106
ARM GAS  C:\Users\glenn\AppData\Local\Temp\cc58Te5j.s 			page 82


 2929 0751 0C       		.byte	12
 2930 0752 98       		.byte	-104
 2931 0753 1C       		.byte	28
 2932 0754 99       		.byte	-103
 2933 0755 40       		.byte	64
 2934 0756 9A       		.byte	-102
 2935 0757 E3       		.byte	-29
 2936 0758 9C       		.byte	-100
 2937 0759 08       		.byte	8
 2938 075a A0       		.byte	-96
 2939 075b 82       		.byte	-126
 2940 075c A4       		.byte	-92
 2941 075d 41       		.byte	65
 2942 075e A5       		.byte	-91
 2943 075f 12       		.byte	18
 2944 0760 A7       		.byte	-89
 2945 0761 0C       		.byte	12
 2946 0762 A9       		.byte	-87
 2947 0763 40       		.byte	64
 2948 0764 AA       		.byte	-86
 2949 0765 F3       		.byte	-13
 2950 0766 AD       		.byte	-83
 2951 0767 01       		.byte	1
 2952 0768 B0       		.byte	-80
 2953 0769 1C       		.byte	28
 2954 076a B1       		.byte	-79
 2955 076b 38       		.byte	56
 2956 076c B2       		.byte	-78
 2957 076d 0F       		.byte	15
 2958 076e B3       		.byte	-77
 2959 076f 01       		.byte	1
 2960 0770 B4       		.byte	-76
 2961 0771 2C       		.byte	44
 2962 0772 B5       		.byte	-75
 2963 0773 40       		.byte	64
 2964 0774 B6       		.byte	-74
 2965 0775 C0       		.byte	-64
 2966 0776 B7       		.byte	-73
 2967 0777 06       		.byte	6
 2968 0778 BA       		.byte	-70
 2969 0779 28       		.byte	40
 2970 077a BF       		.byte	-65
 2971 077b 10       		.byte	16
 2972 077c D6       		.byte	-42
 2973 077d 02       		.byte	2
 2974 077e D7       		.byte	-41
 2975 077f 11       		.byte	17
 2976 0780 D8       		.byte	-40
 2977 0781 04       		.byte	4
 2978 0782 D9       		.byte	-39
 2979 0783 04       		.byte	4
 2980 0784 DB       		.byte	-37
 2981 0785 04       		.byte	4
 2982 0786 DC       		.byte	-36
 2983 0787 22       		.byte	34
 2984 0788 DD       		.byte	-35
 2985 0789 20       		.byte	32
ARM GAS  C:\Users\glenn\AppData\Local\Temp\cc58Te5j.s 			page 83


 2986 078a DF       		.byte	-33
 2987 078b 01       		.byte	1
 2988 078c 00       		.byte	0
 2989 078d 10       		.byte	16
 2990 078e 04       		.byte	4
 2991 078f 40       		.byte	64
 2992 0790 05       		.byte	5
 2993 0791 22       		.byte	34
 2994 0792 06       		.byte	6
 2995 0793 20       		.byte	32
 2996 0794 08       		.byte	8
 2997 0795 02       		.byte	2
 2998 0796 09       		.byte	9
 2999 0797 60       		.byte	96
 3000 0798 0C       		.byte	12
 3001 0799 80       		.byte	-128
 3002 079a 0D       		.byte	13
 3003 079b 09       		.byte	9
 3004 079c 0E       		.byte	14
 3005 079d 08       		.byte	8
 3006 079e 11       		.byte	17
 3007 079f 02       		.byte	2
 3008 07a0 13       		.byte	19
 3009 07a1 04       		.byte	4
 3010 07a2 16       		.byte	22
 3011 07a3 10       		.byte	16
 3012 07a4 17       		.byte	23
 3013 07a5 12       		.byte	18
 3014 07a6 18       		.byte	24
 3015 07a7 10       		.byte	16
 3016 07a8 19       		.byte	25
 3017 07a9 08       		.byte	8
 3018 07aa 1A       		.byte	26
 3019 07ab 02       		.byte	2
 3020 07ac 1D       		.byte	29
 3021 07ad 18       		.byte	24
 3022 07ae 1E       		.byte	30
 3023 07af 42       		.byte	66
 3024 07b0 1F       		.byte	31
 3025 07b1 08       		.byte	8
 3026 07b2 21       		.byte	33
 3027 07b3 62       		.byte	98
 3028 07b4 22       		.byte	34
 3029 07b5 40       		.byte	64
 3030 07b6 24       		.byte	36
 3031 07b7 40       		.byte	64
 3032 07b8 25       		.byte	37
 3033 07b9 41       		.byte	65
 3034 07ba 26       		.byte	38
 3035 07bb 10       		.byte	16
 3036 07bc 27       		.byte	39
 3037 07bd 12       		.byte	18
 3038 07be 29       		.byte	41
 3039 07bf 08       		.byte	8
 3040 07c0 2C       		.byte	44
 3041 07c1 20       		.byte	32
 3042 07c2 2F       		.byte	47
ARM GAS  C:\Users\glenn\AppData\Local\Temp\cc58Te5j.s 			page 84


 3043 07c3 0A       		.byte	10
 3044 07c4 31       		.byte	49
 3045 07c5 02       		.byte	2
 3046 07c6 35       		.byte	53
 3047 07c7 12       		.byte	18
 3048 07c8 36       		.byte	54
 3049 07c9 04       		.byte	4
 3050 07ca 37       		.byte	55
 3051 07cb 04       		.byte	4
 3052 07cc 39       		.byte	57
 3053 07cd 02       		.byte	2
 3054 07ce 3B       		.byte	59
 3055 07cf 02       		.byte	2
 3056 07d0 3D       		.byte	61
 3057 07d1 86       		.byte	-122
 3058 07d2 3E       		.byte	62
 3059 07d3 10       		.byte	16
 3060 07d4 5E       		.byte	94
 3061 07d5 20       		.byte	32
 3062 07d6 6D       		.byte	109
 3063 07d7 04       		.byte	4
 3064 07d8 6E       		.byte	110
 3065 07d9 10       		.byte	16
 3066 07da 6F       		.byte	111
 3067 07db 02       		.byte	2
 3068 07dc 74       		.byte	116
 3069 07dd 80       		.byte	-128
 3070 07de 75       		.byte	117
 3071 07df 20       		.byte	32
 3072 07e0 76       		.byte	118
 3073 07e1 20       		.byte	32
 3074 07e2 78       		.byte	120
 3075 07e3 08       		.byte	8
 3076 07e4 81       		.byte	-127
 3077 07e5 50       		.byte	80
 3078 07e6 83       		.byte	-125
 3079 07e7 01       		.byte	1
 3080 07e8 84       		.byte	-124
 3081 07e9 20       		.byte	32
 3082 07ea 86       		.byte	-122
 3083 07eb 10       		.byte	16
 3084 07ec 87       		.byte	-121
 3085 07ed 04       		.byte	4
 3086 07ee 96       		.byte	-106
 3087 07ef C2       		.byte	-62
 3088 07f0 97       		.byte	-105
 3089 07f1 02       		.byte	2
 3090 07f2 98       		.byte	-104
 3091 07f3 0A       		.byte	10
 3092 07f4 99       		.byte	-103
 3093 07f5 02       		.byte	2
 3094 07f6 9B       		.byte	-101
 3095 07f7 04       		.byte	4
 3096 07f8 9D       		.byte	-99
 3097 07f9 20       		.byte	32
 3098 07fa 9E       		.byte	-98
 3099 07fb 20       		.byte	32
ARM GAS  C:\Users\glenn\AppData\Local\Temp\cc58Te5j.s 			page 85


 3100 07fc 9F       		.byte	-97
 3101 07fd 10       		.byte	16
 3102 07fe A4       		.byte	-92
 3103 07ff A0       		.byte	-96
 3104 0800 A5       		.byte	-91
 3105 0801 08       		.byte	8
 3106 0802 A6       		.byte	-90
 3107 0803 01       		.byte	1
 3108 0804 A9       		.byte	-87
 3109 0805 04       		.byte	4
 3110 0806 AB       		.byte	-85
 3111 0807 08       		.byte	8
 3112 0808 AD       		.byte	-83
 3113 0809 02       		.byte	2
 3114 080a AE       		.byte	-82
 3115 080b 04       		.byte	4
 3116 080c B4       		.byte	-76
 3117 080d 02       		.byte	2
 3118 080e B6       		.byte	-74
 3119 080f 01       		.byte	1
 3120 0810 C0       		.byte	-64
 3121 0811 F2       		.byte	-14
 3122 0812 C2       		.byte	-62
 3123 0813 FB       		.byte	-5
 3124 0814 C4       		.byte	-60
 3125 0815 7C       		.byte	124
 3126 0816 CA       		.byte	-54
 3127 0817 72       		.byte	114
 3128 0818 CC       		.byte	-52
 3129 0819 E1       		.byte	-31
 3130 081a CE       		.byte	-50
 3131 081b F0       		.byte	-16
 3132 081c D6       		.byte	-42
 3133 081d 20       		.byte	32
 3134 081e DE       		.byte	-34
 3135 081f 02       		.byte	2
 3136 0820 E2       		.byte	-30
 3137 0821 02       		.byte	2
 3138 0822 EC       		.byte	-20
 3139 0823 42       		.byte	66
 3140 0824 13       		.byte	19
 3141 0825 02       		.byte	2
 3142 0826 16       		.byte	22
 3143 0827 80       		.byte	-128
 3144 0828 33       		.byte	51
 3145 0829 24       		.byte	36
 3146 082a 34       		.byte	52
 3147 082b 14       		.byte	20
 3148 082c 38       		.byte	56
 3149 082d 40       		.byte	64
 3150 082e 3B       		.byte	59
 3151 082f 02       		.byte	2
 3152 0830 3E       		.byte	62
 3153 0831 80       		.byte	-128
 3154 0832 8C       		.byte	-116
 3155 0833 40       		.byte	64
 3156 0834 8F       		.byte	-113
ARM GAS  C:\Users\glenn\AppData\Local\Temp\cc58Te5j.s 			page 86


 3157 0835 20       		.byte	32
 3158 0836 C4       		.byte	-60
 3159 0837 30       		.byte	48
 3160 0838 CC       		.byte	-52
 3161 0839 F0       		.byte	-16
 3162 083a CE       		.byte	-50
 3163 083b 70       		.byte	112
 3164 083c 30       		.byte	48
 3165 083d 10       		.byte	16
 3166 083e 32       		.byte	50
 3167 083f 08       		.byte	8
 3168 0840 35       		.byte	53
 3169 0841 40       		.byte	64
 3170 0842 36       		.byte	54
 3171 0843 04       		.byte	4
 3172 0844 39       		.byte	57
 3173 0845 80       		.byte	-128
 3174 0846 5B       		.byte	91
 3175 0847 10       		.byte	16
 3176 0848 63       		.byte	99
 3177 0849 10       		.byte	16
 3178 084a 6F       		.byte	111
 3179 084b 20       		.byte	32
 3180 084c 83       		.byte	-125
 3181 084d 10       		.byte	16
 3182 084e 8B       		.byte	-117
 3183 084f 02       		.byte	2
 3184 0850 94       		.byte	-108
 3185 0851 40       		.byte	64
 3186 0852 97       		.byte	-105
 3187 0853 02       		.byte	2
 3188 0854 9B       		.byte	-101
 3189 0855 02       		.byte	2
 3190 0856 9C       		.byte	-100
 3191 0857 14       		.byte	20
 3192 0858 9F       		.byte	-97
 3193 0859 04       		.byte	4
 3194 085a CC       		.byte	-52
 3195 085b F0       		.byte	-16
 3196 085c CE       		.byte	-50
 3197 085d 10       		.byte	16
 3198 085e D4       		.byte	-44
 3199 085f 80       		.byte	-128
 3200 0860 D8       		.byte	-40
 3201 0861 40       		.byte	64
 3202 0862 DA       		.byte	-38
 3203 0863 80       		.byte	-128
 3204 0864 E2       		.byte	-30
 3205 0865 20       		.byte	32
 3206 0866 8B       		.byte	-117
 3207 0867 10       		.byte	16
 3208 0868 8C       		.byte	-116
 3209 0869 40       		.byte	64
 3210 086a 94       		.byte	-108
 3211 086b 40       		.byte	64
 3212 086c 95       		.byte	-107
 3213 086d 80       		.byte	-128
ARM GAS  C:\Users\glenn\AppData\Local\Temp\cc58Te5j.s 			page 87


 3214 086e 97       		.byte	-105
 3215 086f 12       		.byte	18
 3216 0870 9C       		.byte	-100
 3217 0871 14       		.byte	20
 3218 0872 9D       		.byte	-99
 3219 0873 40       		.byte	64
 3220 0874 9F       		.byte	-97
 3221 0875 04       		.byte	4
 3222 0876 A6       		.byte	-90
 3223 0877 0C       		.byte	12
 3224 0878 A7       		.byte	-89
 3225 0879 20       		.byte	32
 3226 087a 26       		.byte	38
 3227 087b 08       		.byte	8
 3228 087c 2C       		.byte	44
 3229 087d 04       		.byte	4
 3230 087e 87       		.byte	-121
 3231 087f 20       		.byte	32
 3232 0880 95       		.byte	-107
 3233 0881 80       		.byte	-128
 3234 0882 9C       		.byte	-100
 3235 0883 04       		.byte	4
 3236 0884 9D       		.byte	-99
 3237 0885 40       		.byte	64
 3238 0886 9F       		.byte	-97
 3239 0887 04       		.byte	4
 3240 0888 A6       		.byte	-90
 3241 0889 0C       		.byte	12
 3242 088a A7       		.byte	-89
 3243 088b 20       		.byte	32
 3244 088c AB       		.byte	-85
 3245 088d 01       		.byte	1
 3246 088e AC       		.byte	-84
 3247 088f 10       		.byte	16
 3248 0890 C8       		.byte	-56
 3249 0891 80       		.byte	-128
 3250 0892 CA       		.byte	-54
 3251 0893 20       		.byte	32
 3252 0894 E6       		.byte	-26
 3253 0895 10       		.byte	16
 3254 0896 EE       		.byte	-18
 3255 0897 60       		.byte	96
 3256 0898 7F       		.byte	127
 3257 0899 20       		.byte	32
 3258 089a 83       		.byte	-125
 3259 089b 20       		.byte	32
 3260 089c DE       		.byte	-34
 3261 089d 01       		.byte	1
 3262 089e 00       		.byte	0
 3263 089f 28       		.byte	40
 3264 08a0 88       		.byte	-120
 3265 08a1 08       		.byte	8
 3266 08a2 90       		.byte	-112
 3267 08a3 04       		.byte	4
 3268 08a4 9A       		.byte	-102
 3269 08a5 01       		.byte	1
 3270 08a6 A4       		.byte	-92
ARM GAS  C:\Users\glenn\AppData\Local\Temp\cc58Te5j.s 			page 88


 3271 08a7 14       		.byte	20
 3272 08a8 AA       		.byte	-86
 3273 08a9 01       		.byte	1
 3274 08aa AC       		.byte	-84
 3275 08ab 14       		.byte	20
 3276 08ac B4       		.byte	-76
 3277 08ad 04       		.byte	4
 3278 08ae C0       		.byte	-64
 3279 08af 0A       		.byte	10
 3280 08b0 E2       		.byte	-30
 3281 08b1 01       		.byte	1
 3282 08b2 EC       		.byte	-20
 3283 08b3 02       		.byte	2
 3284 08b4 1B       		.byte	27
 3285 08b5 04       		.byte	4
 3286 08b6 25       		.byte	37
 3287 08b7 02       		.byte	2
 3288 08b8 44       		.byte	68
 3289 08b9 80       		.byte	-128
 3290 08ba 50       		.byte	80
 3291 08bb 08       		.byte	8
 3292 08bc 88       		.byte	-120
 3293 08bd 01       		.byte	1
 3294 08be 8C       		.byte	-116
 3295 08bf 08       		.byte	8
 3296 08c0 90       		.byte	-112
 3297 08c1 04       		.byte	4
 3298 08c2 9A       		.byte	-102
 3299 08c3 01       		.byte	1
 3300 08c4 9C       		.byte	-100
 3301 08c5 08       		.byte	8
 3302 08c6 C6       		.byte	-58
 3303 08c7 08       		.byte	8
 3304 08c8 C8       		.byte	-56
 3305 08c9 01       		.byte	1
 3306 08ca D0       		.byte	-48
 3307 08cb 01       		.byte	1
 3308 08cc D4       		.byte	-44
 3309 08cd 04       		.byte	4
 3310 08ce E0       		.byte	-32
 3311 08cf 01       		.byte	1
 3312 08d0 E4       		.byte	-28
 3313 08d1 08       		.byte	8
 3314 08d2 46       		.byte	70
 3315 08d3 08       		.byte	8
 3316 08d4 54       		.byte	84
 3317 08d5 01       		.byte	1
 3318 08d6 90       		.byte	-112
 3319 08d7 04       		.byte	4
 3320 08d8 9A       		.byte	-102
 3321 08d9 01       		.byte	1
 3322 08da 9C       		.byte	-100
 3323 08db 88       		.byte	-120
 3324 08dc A0       		.byte	-96
 3325 08dd 01       		.byte	1
 3326 08de A1       		.byte	-95
 3327 08df 02       		.byte	2
ARM GAS  C:\Users\glenn\AppData\Local\Temp\cc58Te5j.s 			page 89


 3328 08e0 AB       		.byte	-85
 3329 08e1 04       		.byte	4
 3330 08e2 D0       		.byte	-48
 3331 08e3 04       		.byte	4
 3332 08e4 D6       		.byte	-42
 3333 08e5 04       		.byte	4
 3334 08e6 22       		.byte	34
 3335 08e7 01       		.byte	1
 3336 08e8 26       		.byte	38
 3337 08e9 20       		.byte	32
 3338 08ea 8E       		.byte	-114
 3339 08eb 20       		.byte	32
 3340 08ec 95       		.byte	-107
 3341 08ed 80       		.byte	-128
 3342 08ee 9D       		.byte	-99
 3343 08ef 40       		.byte	64
 3344 08f0 9F       		.byte	-97
 3345 08f1 04       		.byte	4
 3346 08f2 A6       		.byte	-90
 3347 08f3 04       		.byte	4
 3348 08f4 C8       		.byte	-56
 3349 08f5 60       		.byte	96
 3350 08f6 19       		.byte	25
 3351 08f7 40       		.byte	64
 3352 08f8 1E       		.byte	30
 3353 08f9 08       		.byte	8
 3354 08fa 21       		.byte	33
 3355 08fb 40       		.byte	64
 3356 08fc 83       		.byte	-125
 3357 08fd 04       		.byte	4
 3358 08fe 95       		.byte	-107
 3359 08ff 80       		.byte	-128
 3360 0900 9D       		.byte	-99
 3361 0901 40       		.byte	64
 3362 0902 9F       		.byte	-97
 3363 0903 04       		.byte	4
 3364 0904 A6       		.byte	-90
 3365 0905 04       		.byte	4
 3366 0906 AE       		.byte	-82
 3367 0907 01       		.byte	1
 3368 0908 C6       		.byte	-58
 3369 0909 C0       		.byte	-64
 3370 090a C8       		.byte	-56
 3371 090b 10       		.byte	16
 3372 090c E2       		.byte	-30
 3373 090d 80       		.byte	-128
 3374 090e EC       		.byte	-20
 3375 090f 40       		.byte	64
 3376 0910 08       		.byte	8
 3377 0911 08       		.byte	8
 3378 0912 0D       		.byte	13
 3379 0913 02       		.byte	2
 3380 0914 60       		.byte	96
 3381 0915 04       		.byte	4
 3382 0916 66       		.byte	102
 3383 0917 01       		.byte	1
 3384 0918 8C       		.byte	-116
ARM GAS  C:\Users\glenn\AppData\Local\Temp\cc58Te5j.s 			page 90


 3385 0919 80       		.byte	-128
 3386 091a 90       		.byte	-112
 3387 091b 04       		.byte	4
 3388 091c 9A       		.byte	-102
 3389 091d 01       		.byte	1
 3390 091e 9C       		.byte	-100
 3391 091f 88       		.byte	-120
 3392 0920 9E       		.byte	-98
 3393 0921 08       		.byte	8
 3394 0922 B1       		.byte	-79
 3395 0923 02       		.byte	2
 3396 0924 C2       		.byte	-62
 3397 0925 0C       		.byte	12
 3398 0926 D8       		.byte	-40
 3399 0927 03       		.byte	3
 3400 0928 E0       		.byte	-32
 3401 0929 08       		.byte	8
 3402 092a EE       		.byte	-18
 3403 092b 04       		.byte	4
 3404 092c 85       		.byte	-123
 3405 092d 02       		.byte	2
 3406 092e A1       		.byte	-95
 3407 092f 02       		.byte	2
 3408 0930 AE       		.byte	-82
 3409 0931 08       		.byte	8
 3410 0932 00       		.byte	0
 3411 0933 46       		.byte	70
 3412 0934 01       		.byte	1
 3413 0935 01       		.byte	1
 3414 0936 0A       		.byte	10
 3415 0937 02       		.byte	2
 3416 0938 0C       		.byte	12
 3417 0939 06       		.byte	6
 3418 093a 0D       		.byte	13
 3419 093b 01       		.byte	1
 3420 093c 0E       		.byte	14
 3421 093d 46       		.byte	70
 3422 093e 10       		.byte	16
 3423 093f 06       		.byte	6
 3424 0940 11       		.byte	17
 3425 0941 01       		.byte	1
 3426 0942 1A       		.byte	26
 3427 0943 06       		.byte	6
 3428 0944 1C       		.byte	28
 3429 0945 06       		.byte	6
 3430 0946 1D       		.byte	29
 3431 0947 01       		.byte	1
 3432 0948 00       		.byte	0
 3433 0949 BF       		.byte	-65
 3434 094a 01       		.byte	1
 3435 094b BF       		.byte	-65
 3436 094c 02       		.byte	2
 3437 094d 0F       		.byte	15
 3438 094e 10       		.byte	16
 3439 094f 0A       		.byte	10
 3440              		.align	2
 3441              		.type	BS_PHUB_CFGMEM1_VAL.4920, %object
ARM GAS  C:\Users\glenn\AppData\Local\Temp\cc58Te5j.s 			page 91


 3442              		.size	BS_PHUB_CFGMEM1_VAL.4920, 4
 3443              	BS_PHUB_CFGMEM1_VAL.4920:
 3444 0950 00       		.byte	0
 3445 0951 01       		.byte	1
 3446 0952 00       		.byte	0
 3447 0953 00       		.byte	0
 3448              		.align	2
 3449              		.type	BS_IOPINS0_0_VAL.4915, %object
 3450              		.size	BS_IOPINS0_0_VAL.4915, 8
 3451              	BS_IOPINS0_0_VAL.4915:
 3452 0954 00       		.byte	0
 3453 0955 01       		.byte	1
 3454 0956 01       		.byte	1
 3455 0957 00       		.byte	0
 3456 0958 01       		.byte	1
 3457 0959 81       		.byte	-127
 3458 095a E0       		.byte	-32
 3459 095b 00       		.byte	0
 3460              		.align	2
 3461              		.type	BS_IOPINS0_8_VAL.4916, %object
 3462              		.size	BS_IOPINS0_8_VAL.4916, 8
 3463              	BS_IOPINS0_8_VAL.4916:
 3464 095c 00       		.byte	0
 3465 095d 20       		.byte	32
 3466 095e 20       		.byte	32
 3467 095f 00       		.byte	0
 3468 0960 20       		.byte	32
 3469 0961 20       		.byte	32
 3470 0962 03       		.byte	3
 3471 0963 00       		.byte	0
 3472              		.align	2
 3473              		.type	BS_IOPINS0_1_VAL.4917, %object
 3474              		.size	BS_IOPINS0_1_VAL.4917, 10
 3475              	BS_IOPINS0_1_VAL.4917:
 3476 0964 00       		.byte	0
 3477 0965 00       		.byte	0
 3478 0966 30       		.byte	48
 3479 0967 D4       		.byte	-44
 3480 0968 C0       		.byte	-64
 3481 0969 00       		.byte	0
 3482 096a C0       		.byte	-64
 3483 096b 00       		.byte	0
 3484 096c 00       		.byte	0
 3485 096d 00       		.byte	0
 3486 096e 0000     		.align	2
 3487              		.type	BS_IOPINS0_2_VAL.4918, %object
 3488              		.size	BS_IOPINS0_2_VAL.4918, 8
 3489              	BS_IOPINS0_2_VAL.4918:
 3490 0970 00       		.byte	0
 3491 0971 07       		.byte	7
 3492 0972 02       		.byte	2
 3493 0973 00       		.byte	0
 3494 0974 00       		.byte	0
 3495 0975 00       		.byte	0
 3496 0976 00       		.byte	0
 3497 0977 00       		.byte	0
 3498              		.align	2
ARM GAS  C:\Users\glenn\AppData\Local\Temp\cc58Te5j.s 			page 92


 3499              		.type	BS_IOPINS0_3_VAL.4919, %object
 3500              		.size	BS_IOPINS0_3_VAL.4919, 8
 3501              	BS_IOPINS0_3_VAL.4919:
 3502 0978 00       		.byte	0
 3503 0979 00       		.byte	0
 3504 097a 00       		.byte	0
 3505 097b 00       		.byte	0
 3506 097c 00       		.byte	0
 3507 097d 00       		.byte	0
 3508 097e FB       		.byte	-5
 3509 097f 00       		.byte	0
 3510              		.text
 3511              	.Letext0:
 3512              		.file 2 "c:\\program files (x86)\\cypress\\psoc creator\\3.3\\psoc creator\\import\\gnu\\arm\\4.9.
 3513              		.file 3 ".\\Generated_Source\\PSoC5\\cytypes.h"
 3514              		.section	.debug_info,"",%progbits
 3515              	.Ldebug_info0:
 3516 0000 18060000 		.4byte	0x618
 3517 0004 0400     		.2byte	0x4
 3518 0006 00000000 		.4byte	.Ldebug_abbrev0
 3519 000a 04       		.byte	0x4
 3520 000b 01       		.uleb128 0x1
 3521 000c 5E020000 		.4byte	.LASF65
 3522 0010 01       		.byte	0x1
 3523 0011 67010000 		.4byte	.LASF66
 3524 0015 E8010000 		.4byte	.LASF67
 3525 0019 00000000 		.4byte	.Ldebug_ranges0+0
 3526 001d 00000000 		.4byte	0
 3527 0021 00000000 		.4byte	.Ldebug_line0
 3528 0025 02       		.uleb128 0x2
 3529 0026 04       		.byte	0x4
 3530 0027 05       		.byte	0x5
 3531 0028 696E7400 		.ascii	"int\000"
 3532 002c 03       		.uleb128 0x3
 3533 002d 28000000 		.4byte	.LASF11
 3534 0031 02       		.byte	0x2
 3535 0032 D4       		.byte	0xd4
 3536 0033 37000000 		.4byte	0x37
 3537 0037 04       		.uleb128 0x4
 3538 0038 04       		.byte	0x4
 3539 0039 07       		.byte	0x7
 3540 003a 5A010000 		.4byte	.LASF0
 3541 003e 04       		.uleb128 0x4
 3542 003f 01       		.byte	0x1
 3543 0040 06       		.byte	0x6
 3544 0041 DB000000 		.4byte	.LASF1
 3545 0045 04       		.uleb128 0x4
 3546 0046 01       		.byte	0x1
 3547 0047 08       		.byte	0x8
 3548 0048 1D030000 		.4byte	.LASF2
 3549 004c 04       		.uleb128 0x4
 3550 004d 02       		.byte	0x2
 3551 004e 05       		.byte	0x5
 3552 004f 2B030000 		.4byte	.LASF3
 3553 0053 04       		.uleb128 0x4
 3554 0054 02       		.byte	0x2
 3555 0055 07       		.byte	0x7
ARM GAS  C:\Users\glenn\AppData\Local\Temp\cc58Te5j.s 			page 93


 3556 0056 C0010000 		.4byte	.LASF4
 3557 005a 04       		.uleb128 0x4
 3558 005b 04       		.byte	0x4
 3559 005c 05       		.byte	0x5
 3560 005d 18010000 		.4byte	.LASF5
 3561 0061 04       		.uleb128 0x4
 3562 0062 04       		.byte	0x4
 3563 0063 07       		.byte	0x7
 3564 0064 8F010000 		.4byte	.LASF6
 3565 0068 04       		.uleb128 0x4
 3566 0069 08       		.byte	0x8
 3567 006a 05       		.byte	0x5
 3568 006b CD000000 		.4byte	.LASF7
 3569 006f 04       		.uleb128 0x4
 3570 0070 08       		.byte	0x8
 3571 0071 07       		.byte	0x7
 3572 0072 68000000 		.4byte	.LASF8
 3573 0076 04       		.uleb128 0x4
 3574 0077 04       		.byte	0x4
 3575 0078 07       		.byte	0x7
 3576 0079 36020000 		.4byte	.LASF9
 3577 007d 05       		.uleb128 0x5
 3578 007e 04       		.byte	0x4
 3579 007f 04       		.uleb128 0x4
 3580 0080 01       		.byte	0x1
 3581 0081 08       		.byte	0x8
 3582 0082 8E030000 		.4byte	.LASF10
 3583 0086 06       		.uleb128 0x6
 3584 0087 27010000 		.4byte	.LASF12
 3585 008b 03       		.byte	0x3
 3586 008c 9201     		.2byte	0x192
 3587 008e 45000000 		.4byte	0x45
 3588 0092 06       		.uleb128 0x6
 3589 0093 00000000 		.4byte	.LASF13
 3590 0097 03       		.byte	0x3
 3591 0098 9301     		.2byte	0x193
 3592 009a 53000000 		.4byte	0x53
 3593 009e 06       		.uleb128 0x6
 3594 009f 34010000 		.4byte	.LASF14
 3595 00a3 03       		.byte	0x3
 3596 00a4 9401     		.2byte	0x194
 3597 00a6 61000000 		.4byte	0x61
 3598 00aa 04       		.uleb128 0x4
 3599 00ab 04       		.byte	0x4
 3600 00ac 04       		.byte	0x4
 3601 00ad 12030000 		.4byte	.LASF15
 3602 00b1 04       		.uleb128 0x4
 3603 00b2 08       		.byte	0x8
 3604 00b3 04       		.byte	0x4
 3605 00b4 2D010000 		.4byte	.LASF16
 3606 00b8 06       		.uleb128 0x6
 3607 00b9 18030000 		.4byte	.LASF17
 3608 00bd 03       		.byte	0x3
 3609 00be 3C02     		.2byte	0x23c
 3610 00c0 C4000000 		.4byte	0xc4
 3611 00c4 07       		.uleb128 0x7
 3612 00c5 86000000 		.4byte	0x86
ARM GAS  C:\Users\glenn\AppData\Local\Temp\cc58Te5j.s 			page 94


 3613 00c9 06       		.uleb128 0x6
 3614 00ca 21010000 		.4byte	.LASF18
 3615 00ce 03       		.byte	0x3
 3616 00cf 3D02     		.2byte	0x23d
 3617 00d1 D5000000 		.4byte	0xd5
 3618 00d5 07       		.uleb128 0x7
 3619 00d6 92000000 		.4byte	0x92
 3620 00da 08       		.uleb128 0x8
 3621 00db 02       		.byte	0x2
 3622 00dc 01       		.byte	0x1
 3623 00dd 80       		.byte	0x80
 3624 00de FB000000 		.4byte	0xfb
 3625 00e2 09       		.uleb128 0x9
 3626 00e3 E7030000 		.4byte	.LASF19
 3627 00e7 01       		.byte	0x1
 3628 00e8 82       		.byte	0x82
 3629 00e9 86000000 		.4byte	0x86
 3630 00ed 00       		.byte	0
 3631 00ee 09       		.uleb128 0x9
 3632 00ef 54010000 		.4byte	.LASF20
 3633 00f3 01       		.byte	0x1
 3634 00f4 83       		.byte	0x83
 3635 00f5 86000000 		.4byte	0x86
 3636 00f9 01       		.byte	0x1
 3637 00fa 00       		.byte	0
 3638 00fb 03       		.uleb128 0x3
 3639 00fc 67030000 		.4byte	.LASF21
 3640 0100 01       		.byte	0x1
 3641 0101 84       		.byte	0x84
 3642 0102 DA000000 		.4byte	0xda
 3643 0106 0A       		.uleb128 0xa
 3644 0107 F9000000 		.4byte	.LASF22
 3645 010b 01       		.byte	0x1
 3646 010c 3E       		.byte	0x3e
 3647 010d 00000000 		.4byte	.LFB0
 3648 0111 1A000000 		.4byte	.LFE0-.LFB0
 3649 0115 01       		.uleb128 0x1
 3650 0116 9C       		.byte	0x9c
 3651 0117 34010000 		.4byte	0x134
 3652 011b 0B       		.uleb128 0xb
 3653 011c 7300     		.ascii	"s\000"
 3654 011e 01       		.byte	0x1
 3655 011f 3E       		.byte	0x3e
 3656 0120 7D000000 		.4byte	0x7d
 3657 0124 02       		.uleb128 0x2
 3658 0125 91       		.byte	0x91
 3659 0126 74       		.sleb128 -12
 3660 0127 0B       		.uleb128 0xb
 3661 0128 6E00     		.ascii	"n\000"
 3662 012a 01       		.byte	0x1
 3663 012b 3E       		.byte	0x3e
 3664 012c 2C000000 		.4byte	0x2c
 3665 0130 02       		.uleb128 0x2
 3666 0131 91       		.byte	0x91
 3667 0132 70       		.sleb128 -16
 3668 0133 00       		.byte	0
 3669 0134 0A       		.uleb128 0xa
ARM GAS  C:\Users\glenn\AppData\Local\Temp\cc58Te5j.s 			page 95


 3670 0135 46040000 		.4byte	.LASF23
 3671 0139 01       		.byte	0x1
 3672 013a 45       		.byte	0x45
 3673 013b 00000000 		.4byte	.LFB1
 3674 013f 1C000000 		.4byte	.LFE1-.LFB1
 3675 0143 01       		.uleb128 0x1
 3676 0144 9C       		.byte	0x9c
 3677 0145 72010000 		.4byte	0x172
 3678 0149 0C       		.uleb128 0xc
 3679 014a 0D030000 		.4byte	.LASF24
 3680 014e 01       		.byte	0x1
 3681 014f 45       		.byte	0x45
 3682 0150 7D000000 		.4byte	0x7d
 3683 0154 02       		.uleb128 0x2
 3684 0155 91       		.byte	0x91
 3685 0156 74       		.sleb128 -12
 3686 0157 0B       		.uleb128 0xb
 3687 0158 73726300 		.ascii	"src\000"
 3688 015c 01       		.byte	0x1
 3689 015d 45       		.byte	0x45
 3690 015e 72010000 		.4byte	0x172
 3691 0162 02       		.uleb128 0x2
 3692 0163 91       		.byte	0x91
 3693 0164 70       		.sleb128 -16
 3694 0165 0B       		.uleb128 0xb
 3695 0166 6E00     		.ascii	"n\000"
 3696 0168 01       		.byte	0x1
 3697 0169 45       		.byte	0x45
 3698 016a 2C000000 		.4byte	0x2c
 3699 016e 02       		.uleb128 0x2
 3700 016f 91       		.byte	0x91
 3701 0170 6C       		.sleb128 -20
 3702 0171 00       		.byte	0
 3703 0172 0D       		.uleb128 0xd
 3704 0173 04       		.byte	0x4
 3705 0174 78010000 		.4byte	0x178
 3706 0178 0E       		.uleb128 0xe
 3707 0179 0A       		.uleb128 0xa
 3708 017a 26020000 		.4byte	.LASF25
 3709 017e 01       		.byte	0x1
 3710 017f 4C       		.byte	0x4c
 3711 0180 00000000 		.4byte	.LFB2
 3712 0184 1C000000 		.4byte	.LFE2-.LFB2
 3713 0188 01       		.uleb128 0x1
 3714 0189 9C       		.byte	0x9c
 3715 018a B7010000 		.4byte	0x1b7
 3716 018e 0C       		.uleb128 0xc
 3717 018f 0D030000 		.4byte	.LASF24
 3718 0193 01       		.byte	0x1
 3719 0194 4C       		.byte	0x4c
 3720 0195 7D000000 		.4byte	0x7d
 3721 0199 02       		.uleb128 0x2
 3722 019a 91       		.byte	0x91
 3723 019b 74       		.sleb128 -12
 3724 019c 0B       		.uleb128 0xb
 3725 019d 73726300 		.ascii	"src\000"
 3726 01a1 01       		.byte	0x1
ARM GAS  C:\Users\glenn\AppData\Local\Temp\cc58Te5j.s 			page 96


 3727 01a2 4C       		.byte	0x4c
 3728 01a3 72010000 		.4byte	0x172
 3729 01a7 02       		.uleb128 0x2
 3730 01a8 91       		.byte	0x91
 3731 01a9 70       		.sleb128 -16
 3732 01aa 0B       		.uleb128 0xb
 3733 01ab 6E00     		.ascii	"n\000"
 3734 01ad 01       		.byte	0x1
 3735 01ae 4C       		.byte	0x4c
 3736 01af 2C000000 		.4byte	0x2c
 3737 01b3 02       		.uleb128 0x2
 3738 01b4 91       		.byte	0x91
 3739 01b5 6C       		.sleb128 -20
 3740 01b6 00       		.byte	0
 3741 01b7 0F       		.uleb128 0xf
 3742 01b8 2F000000 		.4byte	.LASF26
 3743 01bc 01       		.byte	0x1
 3744 01bd 6C       		.byte	0x6c
 3745 01be 00000000 		.4byte	.LFB3
 3746 01c2 0C000000 		.4byte	.LFE3-.LFB3
 3747 01c6 01       		.uleb128 0x1
 3748 01c7 9C       		.byte	0x9c
 3749 01c8 DB010000 		.4byte	0x1db
 3750 01cc 0C       		.uleb128 0xc
 3751 01cd 0E010000 		.4byte	.LASF27
 3752 01d1 01       		.byte	0x1
 3753 01d2 6C       		.byte	0x6c
 3754 01d3 86000000 		.4byte	0x86
 3755 01d7 02       		.uleb128 0x2
 3756 01d8 91       		.byte	0x91
 3757 01d9 77       		.sleb128 -9
 3758 01da 00       		.byte	0
 3759 01db 0F       		.uleb128 0xf
 3760 01dc A9010000 		.4byte	.LASF28
 3761 01e0 01       		.byte	0x1
 3762 01e1 97       		.byte	0x97
 3763 01e2 00000000 		.4byte	.LFB4
 3764 01e6 74000000 		.4byte	.LFE4-.LFB4
 3765 01ea 01       		.uleb128 0x1
 3766 01eb 9C       		.byte	0x9c
 3767 01ec 4B020000 		.4byte	0x24b
 3768 01f0 0C       		.uleb128 0xc
 3769 01f1 7F000000 		.4byte	.LASF29
 3770 01f5 01       		.byte	0x1
 3771 01f6 97       		.byte	0x97
 3772 01f7 4B020000 		.4byte	0x24b
 3773 01fb 02       		.uleb128 0x2
 3774 01fc 91       		.byte	0x91
 3775 01fd 64       		.sleb128 -28
 3776 01fe 0C       		.uleb128 0xc
 3777 01ff 5D000000 		.4byte	.LASF30
 3778 0203 01       		.byte	0x1
 3779 0204 97       		.byte	0x97
 3780 0205 56020000 		.4byte	0x256
 3781 0209 02       		.uleb128 0x2
 3782 020a 91       		.byte	0x91
 3783 020b 60       		.sleb128 -32
ARM GAS  C:\Users\glenn\AppData\Local\Temp\cc58Te5j.s 			page 97


 3784 020c 10       		.uleb128 0x10
 3785 020d 6900     		.ascii	"i\000"
 3786 020f 01       		.byte	0x1
 3787 0210 9A       		.byte	0x9a
 3788 0211 9E000000 		.4byte	0x9e
 3789 0215 02       		.uleb128 0x2
 3790 0216 91       		.byte	0x91
 3791 0217 74       		.sleb128 -12
 3792 0218 10       		.uleb128 0x10
 3793 0219 6A00     		.ascii	"j\000"
 3794 021b 01       		.byte	0x1
 3795 021c 9A       		.byte	0x9a
 3796 021d 9E000000 		.4byte	0x9e
 3797 0221 02       		.uleb128 0x2
 3798 0222 91       		.byte	0x91
 3799 0223 70       		.sleb128 -16
 3800 0224 11       		.uleb128 0x11
 3801 0225 14000000 		.4byte	.LBB2
 3802 0229 4A000000 		.4byte	.LBE2-.LBB2
 3803 022d 12       		.uleb128 0x12
 3804 022e 1F000000 		.4byte	.LASF31
 3805 0232 01       		.byte	0x1
 3806 0233 9D       		.byte	0x9d
 3807 0234 9E000000 		.4byte	0x9e
 3808 0238 02       		.uleb128 0x2
 3809 0239 91       		.byte	0x91
 3810 023a 68       		.sleb128 -24
 3811 023b 12       		.uleb128 0x12
 3812 023c 3B010000 		.4byte	.LASF32
 3813 0240 01       		.byte	0x1
 3814 0241 9E       		.byte	0x9e
 3815 0242 86000000 		.4byte	0x86
 3816 0246 02       		.uleb128 0x2
 3817 0247 91       		.byte	0x91
 3818 0248 6F       		.sleb128 -17
 3819 0249 00       		.byte	0
 3820 024a 00       		.byte	0
 3821 024b 0D       		.uleb128 0xd
 3822 024c 04       		.byte	0x4
 3823 024d 51020000 		.4byte	0x251
 3824 0251 13       		.uleb128 0x13
 3825 0252 9E000000 		.4byte	0x9e
 3826 0256 0D       		.uleb128 0xd
 3827 0257 04       		.byte	0x4
 3828 0258 5C020000 		.4byte	0x25c
 3829 025c 13       		.uleb128 0x13
 3830 025d FB000000 		.4byte	0xfb
 3831 0261 0A       		.uleb128 0xa
 3832 0262 03010000 		.4byte	.LASF33
 3833 0266 01       		.byte	0x1
 3834 0267 BA       		.byte	0xba
 3835 0268 00000000 		.4byte	.LFB5
 3836 026c 28020000 		.4byte	.LFE5-.LFB5
 3837 0270 01       		.uleb128 0x1
 3838 0271 9C       		.byte	0x9c
 3839 0272 B2020000 		.4byte	0x2b2
 3840 0276 12       		.uleb128 0x12
ARM GAS  C:\Users\glenn\AppData\Local\Temp\cc58Te5j.s 			page 98


 3841 0277 9C000000 		.4byte	.LASF34
 3842 027b 01       		.byte	0x1
 3843 027c BD       		.byte	0xbd
 3844 027d C2020000 		.4byte	0x2c2
 3845 0281 05       		.uleb128 0x5
 3846 0282 03       		.byte	0x3
 3847 0283 7C000000 		.4byte	BS_CYDEV_CLKDIST_ACFG0_CFG0_VAL.4874
 3848 0287 12       		.uleb128 0x12
 3849 0288 4A010000 		.4byte	.LASF35
 3850 028c 01       		.byte	0x1
 3851 028d C0       		.byte	0xc0
 3852 028e 86000000 		.4byte	0x86
 3853 0292 02       		.uleb128 0x2
 3854 0293 91       		.byte	0x91
 3855 0294 72       		.sleb128 -14
 3856 0295 12       		.uleb128 0x12
 3857 0296 A1010000 		.4byte	.LASF36
 3858 029a 01       		.byte	0x1
 3859 029b C1       		.byte	0xc1
 3860 029c 9E000000 		.4byte	0x9e
 3861 02a0 02       		.uleb128 0x2
 3862 02a1 91       		.byte	0x91
 3863 02a2 74       		.sleb128 -12
 3864 02a3 12       		.uleb128 0x12
 3865 02a4 46030000 		.4byte	.LASF37
 3866 02a8 01       		.byte	0x1
 3867 02a9 C2       		.byte	0xc2
 3868 02aa 86000000 		.4byte	0x86
 3869 02ae 02       		.uleb128 0x2
 3870 02af 91       		.byte	0x91
 3871 02b0 73       		.sleb128 -13
 3872 02b1 00       		.byte	0
 3873 02b2 14       		.uleb128 0x14
 3874 02b3 86000000 		.4byte	0x86
 3875 02b7 C2020000 		.4byte	0x2c2
 3876 02bb 15       		.uleb128 0x15
 3877 02bc 76000000 		.4byte	0x76
 3878 02c0 03       		.byte	0x3
 3879 02c1 00       		.byte	0
 3880 02c2 13       		.uleb128 0x13
 3881 02c3 B2020000 		.4byte	0x2b2
 3882 02c7 16       		.uleb128 0x16
 3883 02c8 BC000000 		.4byte	.LASF38
 3884 02cc 01       		.byte	0x1
 3885 02cd 2201     		.2byte	0x122
 3886 02cf 00000000 		.4byte	.LFB6
 3887 02d3 C4000000 		.4byte	.LFE6-.LFB6
 3888 02d7 01       		.uleb128 0x1
 3889 02d8 9C       		.byte	0x9c
 3890 02d9 0B030000 		.4byte	0x30b
 3891 02dd 17       		.uleb128 0x17
 3892 02de 3F020000 		.4byte	.LASF39
 3893 02e2 01       		.byte	0x1
 3894 02e3 2401     		.2byte	0x124
 3895 02e5 86000000 		.4byte	0x86
 3896 02e9 02       		.uleb128 0x2
 3897 02ea 91       		.byte	0x91
ARM GAS  C:\Users\glenn\AppData\Local\Temp\cc58Te5j.s 			page 99


 3898 02eb 77       		.sleb128 -9
 3899 02ec 18       		.uleb128 0x18
 3900 02ed 63723400 		.ascii	"cr4\000"
 3901 02f1 01       		.byte	0x1
 3902 02f2 2501     		.2byte	0x125
 3903 02f4 86000000 		.4byte	0x86
 3904 02f8 02       		.uleb128 0x2
 3905 02f9 91       		.byte	0x91
 3906 02fa 76       		.sleb128 -10
 3907 02fb 18       		.uleb128 0x18
 3908 02fc 63723500 		.ascii	"cr5\000"
 3909 0300 01       		.byte	0x1
 3910 0301 2601     		.2byte	0x126
 3911 0303 86000000 		.4byte	0x86
 3912 0307 02       		.uleb128 0x2
 3913 0308 91       		.byte	0x91
 3914 0309 75       		.sleb128 -11
 3915 030a 00       		.byte	0
 3916 030b 19       		.uleb128 0x19
 3917 030c B7030000 		.4byte	.LASF42
 3918 0310 01       		.byte	0x1
 3919 0311 4B01     		.2byte	0x14b
 3920 0313 00000000 		.4byte	.LFB7
 3921 0317 3C000000 		.4byte	.LFE7-.LFB7
 3922 031b 01       		.uleb128 0x1
 3923 031c 9C       		.byte	0x9c
 3924 031d 40030000 		.4byte	0x340
 3925 0321 1A       		.uleb128 0x1a
 3926 0322 0B040000 		.4byte	.LASF40
 3927 0326 01       		.byte	0x1
 3928 0327 4B01     		.2byte	0x14b
 3929 0329 86000000 		.4byte	0x86
 3930 032d 02       		.uleb128 0x2
 3931 032e 91       		.byte	0x91
 3932 032f 6F       		.sleb128 -17
 3933 0330 17       		.uleb128 0x17
 3934 0331 41010000 		.4byte	.LASF41
 3935 0335 01       		.byte	0x1
 3936 0336 4D01     		.2byte	0x14d
 3937 0338 86000000 		.4byte	0x86
 3938 033c 02       		.uleb128 0x2
 3939 033d 91       		.byte	0x91
 3940 033e 77       		.sleb128 -9
 3941 033f 00       		.byte	0
 3942 0340 19       		.uleb128 0x19
 3943 0341 13040000 		.4byte	.LASF43
 3944 0345 01       		.byte	0x1
 3945 0346 8701     		.2byte	0x187
 3946 0348 00000000 		.4byte	.LFB8
 3947 034c 6C000000 		.4byte	.LFE8-.LFB8
 3948 0350 01       		.uleb128 0x1
 3949 0351 9C       		.byte	0x9c
 3950 0352 66030000 		.4byte	0x366
 3951 0356 1A       		.uleb128 0x1a
 3952 0357 5F030000 		.4byte	.LASF44
 3953 035b 01       		.byte	0x1
 3954 035c 8701     		.2byte	0x187
ARM GAS  C:\Users\glenn\AppData\Local\Temp\cc58Te5j.s 			page 100


 3955 035e 86000000 		.4byte	0x86
 3956 0362 02       		.uleb128 0x2
 3957 0363 91       		.byte	0x91
 3958 0364 77       		.sleb128 -9
 3959 0365 00       		.byte	0
 3960 0366 19       		.uleb128 0x19
 3961 0367 07000000 		.4byte	.LASF45
 3962 036b 01       		.byte	0x1
 3963 036c A001     		.2byte	0x1a0
 3964 036e 00000000 		.4byte	.LFB9
 3965 0372 74000000 		.4byte	.LFE9-.LFB9
 3966 0376 01       		.uleb128 0x1
 3967 0377 9C       		.byte	0x9c
 3968 0378 8C030000 		.4byte	0x38c
 3969 037c 1A       		.uleb128 0x1a
 3970 037d 5F030000 		.4byte	.LASF44
 3971 0381 01       		.byte	0x1
 3972 0382 A001     		.2byte	0x1a0
 3973 0384 86000000 		.4byte	0x86
 3974 0388 02       		.uleb128 0x2
 3975 0389 91       		.byte	0x91
 3976 038a 77       		.sleb128 -9
 3977 038b 00       		.byte	0
 3978 038c 19       		.uleb128 0x19
 3979 038d A4030000 		.4byte	.LASF46
 3980 0391 01       		.byte	0x1
 3981 0392 C601     		.2byte	0x1c6
 3982 0394 00000000 		.4byte	.LFB10
 3983 0398 40000000 		.4byte	.LFE10-.LFB10
 3984 039c 01       		.uleb128 0x1
 3985 039d 9C       		.byte	0x9c
 3986 039e B2030000 		.4byte	0x3b2
 3987 03a2 1A       		.uleb128 0x1a
 3988 03a3 5F030000 		.4byte	.LASF44
 3989 03a7 01       		.byte	0x1
 3990 03a8 C601     		.2byte	0x1c6
 3991 03aa 86000000 		.4byte	0x86
 3992 03ae 02       		.uleb128 0x2
 3993 03af 91       		.byte	0x91
 3994 03b0 77       		.sleb128 -9
 3995 03b1 00       		.byte	0
 3996 03b2 19       		.uleb128 0x19
 3997 03b3 D3010000 		.4byte	.LASF47
 3998 03b7 01       		.byte	0x1
 3999 03b8 DC01     		.2byte	0x1dc
 4000 03ba 00000000 		.4byte	.LFB11
 4001 03be 44000000 		.4byte	.LFE11-.LFB11
 4002 03c2 01       		.uleb128 0x1
 4003 03c3 9C       		.byte	0x9c
 4004 03c4 D8030000 		.4byte	0x3d8
 4005 03c8 1A       		.uleb128 0x1a
 4006 03c9 5F030000 		.4byte	.LASF44
 4007 03cd 01       		.byte	0x1
 4008 03ce DC01     		.2byte	0x1dc
 4009 03d0 86000000 		.4byte	0x86
 4010 03d4 02       		.uleb128 0x2
 4011 03d5 91       		.byte	0x91
ARM GAS  C:\Users\glenn\AppData\Local\Temp\cc58Te5j.s 			page 101


 4012 03d6 77       		.sleb128 -9
 4013 03d7 00       		.byte	0
 4014 03d8 1B       		.uleb128 0x1b
 4015 03d9 6B040000 		.4byte	.LASF48
 4016 03dd 01       		.byte	0x1
 4017 03de F701     		.2byte	0x1f7
 4018 03e0 00000000 		.4byte	.LFB12
 4019 03e4 7C010000 		.4byte	.LFE12-.LFB12
 4020 03e8 01       		.uleb128 0x1
 4021 03e9 9C       		.byte	0x9c
 4022 03ea 10050000 		.4byte	0x510
 4023 03ee 17       		.uleb128 0x17
 4024 03ef 35030000 		.4byte	.LASF49
 4025 03f3 01       		.byte	0x1
 4026 03f4 FA01     		.2byte	0x1fa
 4027 03f6 20050000 		.4byte	0x520
 4028 03fa 05       		.uleb128 0x5
 4029 03fb 03       		.byte	0x3
 4030 03fc 54090000 		.4byte	BS_IOPINS0_0_VAL.4915
 4031 0400 17       		.uleb128 0x17
 4032 0401 4E030000 		.4byte	.LASF50
 4033 0405 01       		.byte	0x1
 4034 0406 FE01     		.2byte	0x1fe
 4035 0408 25050000 		.4byte	0x525
 4036 040c 05       		.uleb128 0x5
 4037 040d 03       		.byte	0x3
 4038 040e 5C090000 		.4byte	BS_IOPINS0_8_VAL.4916
 4039 0412 17       		.uleb128 0x17
 4040 0413 93030000 		.4byte	.LASF51
 4041 0417 01       		.byte	0x1
 4042 0418 0202     		.2byte	0x202
 4043 041a 3A050000 		.4byte	0x53a
 4044 041e 05       		.uleb128 0x5
 4045 041f 03       		.byte	0x3
 4046 0420 64090000 		.4byte	BS_IOPINS0_1_VAL.4917
 4047 0424 17       		.uleb128 0x17
 4048 0425 5A040000 		.4byte	.LASF52
 4049 0429 01       		.byte	0x1
 4050 042a 0602     		.2byte	0x206
 4051 042c 3F050000 		.4byte	0x53f
 4052 0430 05       		.uleb128 0x5
 4053 0431 03       		.byte	0x3
 4054 0432 70090000 		.4byte	BS_IOPINS0_2_VAL.4918
 4055 0436 17       		.uleb128 0x17
 4056 0437 FC020000 		.4byte	.LASF53
 4057 043b 01       		.byte	0x1
 4058 043c 0A02     		.2byte	0x20a
 4059 043e 44050000 		.4byte	0x544
 4060 0442 05       		.uleb128 0x5
 4061 0443 03       		.byte	0x3
 4062 0444 78090000 		.4byte	BS_IOPINS0_3_VAL.4919
 4063 0448 17       		.uleb128 0x17
 4064 0449 7A030000 		.4byte	.LASF54
 4065 044d 01       		.byte	0x1
 4066 044e 0E02     		.2byte	0x20e
 4067 0450 49050000 		.4byte	0x549
 4068 0454 05       		.uleb128 0x5
ARM GAS  C:\Users\glenn\AppData\Local\Temp\cc58Te5j.s 			page 102


 4069 0455 03       		.byte	0x3
 4070 0456 50090000 		.4byte	BS_PHUB_CFGMEM1_VAL.4920
 4071 045a 11       		.uleb128 0x11
 4072 045b 18000000 		.4byte	.LBB3
 4073 045f 94000000 		.4byte	.LBE3-.LBB3
 4074 0463 17       		.uleb128 0x17
 4075 0464 E7000000 		.4byte	.LASF55
 4076 0468 01       		.byte	0x1
 4077 0469 1A02     		.2byte	0x21a
 4078 046b 5E050000 		.4byte	0x55e
 4079 046f 05       		.uleb128 0x5
 4080 0470 03       		.byte	0x3
 4081 0471 AC000000 		.4byte	cy_cfg_addr_table.4921
 4082 0475 17       		.uleb128 0x17
 4083 0476 8A000000 		.4byte	.LASF56
 4084 047a 01       		.byte	0x1
 4085 047b 4402     		.2byte	0x244
 4086 047d 74050000 		.4byte	0x574
 4087 0481 05       		.uleb128 0x5
 4088 0482 03       		.byte	0x3
 4089 0483 48010000 		.4byte	cy_cfg_data_table.4922
 4090 0487 1C       		.uleb128 0x1c
 4091 0488 06       		.byte	0x6
 4092 0489 01       		.byte	0x1
 4093 048a 4D06     		.2byte	0x64d
 4094 048c AB040000 		.4byte	0x4ab
 4095 0490 1D       		.uleb128 0x1d
 4096 0491 52040000 		.4byte	.LASF57
 4097 0495 01       		.byte	0x1
 4098 0496 4E06     		.2byte	0x64e
 4099 0498 7D000000 		.4byte	0x7d
 4100 049c 00       		.byte	0
 4101 049d 1D       		.uleb128 0x1d
 4102 049e BB010000 		.4byte	.LASF58
 4103 04a2 01       		.byte	0x1
 4104 04a3 4F06     		.2byte	0x64f
 4105 04a5 92000000 		.4byte	0x92
 4106 04a9 04       		.byte	0x4
 4107 04aa 00       		.byte	0
 4108 04ab 06       		.uleb128 0x6
 4109 04ac 51020000 		.4byte	.LASF59
 4110 04b0 01       		.byte	0x1
 4111 04b1 5006     		.2byte	0x650
 4112 04b3 87040000 		.4byte	0x487
 4113 04b7 14       		.uleb128 0x14
 4114 04b8 AB040000 		.4byte	0x4ab
 4115 04bc C7040000 		.4byte	0x4c7
 4116 04c0 15       		.uleb128 0x15
 4117 04c1 76000000 		.4byte	0x76
 4118 04c5 06       		.byte	0x6
 4119 04c6 00       		.byte	0
 4120 04c7 17       		.uleb128 0x17
 4121 04c8 EC020000 		.4byte	.LASF60
 4122 04cc 01       		.byte	0x1
 4123 04cd 5206     		.2byte	0x652
 4124 04cf D9040000 		.4byte	0x4d9
 4125 04d3 05       		.uleb128 0x5
ARM GAS  C:\Users\glenn\AppData\Local\Temp\cc58Te5j.s 			page 103


 4126 04d4 03       		.byte	0x3
 4127 04d5 80000000 		.4byte	cfg_memset_list.4927
 4128 04d9 13       		.uleb128 0x13
 4129 04da B7040000 		.4byte	0x4b7
 4130 04de 18       		.uleb128 0x18
 4131 04df 6900     		.ascii	"i\000"
 4132 04e1 01       		.byte	0x1
 4133 04e2 5D06     		.2byte	0x65d
 4134 04e4 86000000 		.4byte	0x86
 4135 04e8 02       		.uleb128 0x2
 4136 04e9 91       		.byte	0x91
 4137 04ea 77       		.sleb128 -9
 4138 04eb 11       		.uleb128 0x11
 4139 04ec 1E000000 		.4byte	.LBB4
 4140 04f0 22000000 		.4byte	.LBE4-.LBB4
 4141 04f4 18       		.uleb128 0x18
 4142 04f5 6D7300   		.ascii	"ms\000"
 4143 04f8 01       		.byte	0x1
 4144 04f9 6206     		.2byte	0x662
 4145 04fb 02050000 		.4byte	0x502
 4146 04ff 02       		.uleb128 0x2
 4147 0500 91       		.byte	0x91
 4148 0501 70       		.sleb128 -16
 4149 0502 0D       		.uleb128 0xd
 4150 0503 04       		.byte	0x4
 4151 0504 08050000 		.4byte	0x508
 4152 0508 13       		.uleb128 0x13
 4153 0509 AB040000 		.4byte	0x4ab
 4154 050d 00       		.byte	0
 4155 050e 00       		.byte	0
 4156 050f 00       		.byte	0
 4157 0510 14       		.uleb128 0x14
 4158 0511 86000000 		.4byte	0x86
 4159 0515 20050000 		.4byte	0x520
 4160 0519 15       		.uleb128 0x15
 4161 051a 76000000 		.4byte	0x76
 4162 051e 07       		.byte	0x7
 4163 051f 00       		.byte	0
 4164 0520 13       		.uleb128 0x13
 4165 0521 10050000 		.4byte	0x510
 4166 0525 13       		.uleb128 0x13
 4167 0526 10050000 		.4byte	0x510
 4168 052a 14       		.uleb128 0x14
 4169 052b 86000000 		.4byte	0x86
 4170 052f 3A050000 		.4byte	0x53a
 4171 0533 15       		.uleb128 0x15
 4172 0534 76000000 		.4byte	0x76
 4173 0538 09       		.byte	0x9
 4174 0539 00       		.byte	0
 4175 053a 13       		.uleb128 0x13
 4176 053b 2A050000 		.4byte	0x52a
 4177 053f 13       		.uleb128 0x13
 4178 0540 10050000 		.4byte	0x510
 4179 0544 13       		.uleb128 0x13
 4180 0545 10050000 		.4byte	0x510
 4181 0549 13       		.uleb128 0x13
 4182 054a B2020000 		.4byte	0x2b2
ARM GAS  C:\Users\glenn\AppData\Local\Temp\cc58Te5j.s 			page 104


 4183 054e 14       		.uleb128 0x14
 4184 054f 9E000000 		.4byte	0x9e
 4185 0553 5E050000 		.4byte	0x55e
 4186 0557 15       		.uleb128 0x15
 4187 0558 76000000 		.4byte	0x76
 4188 055c 26       		.byte	0x26
 4189 055d 00       		.byte	0
 4190 055e 13       		.uleb128 0x13
 4191 055f 4E050000 		.4byte	0x54e
 4192 0563 14       		.uleb128 0x14
 4193 0564 FB000000 		.4byte	0xfb
 4194 0568 74050000 		.4byte	0x574
 4195 056c 1E       		.uleb128 0x1e
 4196 056d 76000000 		.4byte	0x76
 4197 0571 0304     		.2byte	0x403
 4198 0573 00       		.byte	0
 4199 0574 13       		.uleb128 0x13
 4200 0575 63050000 		.4byte	0x563
 4201 0579 14       		.uleb128 0x14
 4202 057a 89050000 		.4byte	0x589
 4203 057e 89050000 		.4byte	0x589
 4204 0582 15       		.uleb128 0x15
 4205 0583 76000000 		.4byte	0x76
 4206 0587 15       		.byte	0x15
 4207 0588 00       		.byte	0
 4208 0589 0D       		.uleb128 0xd
 4209 058a 04       		.byte	0x4
 4210 058b 86000000 		.4byte	0x86
 4211 058f 1F       		.uleb128 0x1f
 4212 0590 29040000 		.4byte	.LASF61
 4213 0594 01       		.byte	0x1
 4214 0595 5C01     		.2byte	0x15c
 4215 0597 A1050000 		.4byte	0x5a1
 4216 059b 05       		.uleb128 0x5
 4217 059c 03       		.byte	0x3
 4218 059d 00000000 		.4byte	Sink_Source_Setup__addrTable
 4219 05a1 13       		.uleb128 0x13
 4220 05a2 79050000 		.4byte	0x579
 4221 05a6 14       		.uleb128 0x14
 4222 05a7 86000000 		.4byte	0x86
 4223 05ab B6050000 		.4byte	0x5b6
 4224 05af 15       		.uleb128 0x15
 4225 05b0 76000000 		.4byte	0x76
 4226 05b4 15       		.byte	0x15
 4227 05b5 00       		.byte	0
 4228 05b6 1F       		.uleb128 0x1f
 4229 05b7 EE030000 		.4byte	.LASF62
 4230 05bb 01       		.byte	0x1
 4231 05bc 6C01     		.2byte	0x16c
 4232 05be C8050000 		.4byte	0x5c8
 4233 05c2 05       		.uleb128 0x5
 4234 05c3 03       		.byte	0x3
 4235 05c4 00000000 		.4byte	Sink_Source_Setup__maskTable
 4236 05c8 13       		.uleb128 0x13
 4237 05c9 A6050000 		.4byte	0x5a6
 4238 05cd 14       		.uleb128 0x14
 4239 05ce 89050000 		.4byte	0x589
ARM GAS  C:\Users\glenn\AppData\Local\Temp\cc58Te5j.s 			page 105


 4240 05d2 DD050000 		.4byte	0x5dd
 4241 05d6 15       		.uleb128 0x15
 4242 05d7 76000000 		.4byte	0x76
 4243 05db 01       		.byte	0x1
 4244 05dc 00       		.byte	0
 4245 05dd 1F       		.uleb128 0x1f
 4246 05de CD030000 		.4byte	.LASF63
 4247 05e2 01       		.byte	0x1
 4248 05e3 AD01     		.2byte	0x1ad
 4249 05e5 EF050000 		.4byte	0x5ef
 4250 05e9 05       		.uleb128 0x5
 4251 05ea 03       		.byte	0x3
 4252 05eb 00000000 		.4byte	SIGMA_A_D_AMux__addrTable
 4253 05ef 13       		.uleb128 0x13
 4254 05f0 CD050000 		.4byte	0x5cd
 4255 05f4 14       		.uleb128 0x14
 4256 05f5 86000000 		.4byte	0x86
 4257 05f9 04060000 		.4byte	0x604
 4258 05fd 15       		.uleb128 0x15
 4259 05fe 76000000 		.4byte	0x76
 4260 0602 01       		.byte	0x1
 4261 0603 00       		.byte	0
 4262 0604 1F       		.uleb128 0x1f
 4263 0605 43000000 		.4byte	.LASF64
 4264 0609 01       		.byte	0x1
 4265 060a B401     		.2byte	0x1b4
 4266 060c 16060000 		.4byte	0x616
 4267 0610 05       		.uleb128 0x5
 4268 0611 03       		.byte	0x3
 4269 0612 00000000 		.4byte	SIGMA_A_D_AMux__maskTable
 4270 0616 13       		.uleb128 0x13
 4271 0617 F4050000 		.4byte	0x5f4
 4272 061b 00       		.byte	0
 4273              		.section	.debug_abbrev,"",%progbits
 4274              	.Ldebug_abbrev0:
 4275 0000 01       		.uleb128 0x1
 4276 0001 11       		.uleb128 0x11
 4277 0002 01       		.byte	0x1
 4278 0003 25       		.uleb128 0x25
 4279 0004 0E       		.uleb128 0xe
 4280 0005 13       		.uleb128 0x13
 4281 0006 0B       		.uleb128 0xb
 4282 0007 03       		.uleb128 0x3
 4283 0008 0E       		.uleb128 0xe
 4284 0009 1B       		.uleb128 0x1b
 4285 000a 0E       		.uleb128 0xe
 4286 000b 55       		.uleb128 0x55
 4287 000c 17       		.uleb128 0x17
 4288 000d 11       		.uleb128 0x11
 4289 000e 01       		.uleb128 0x1
 4290 000f 10       		.uleb128 0x10
 4291 0010 17       		.uleb128 0x17
 4292 0011 00       		.byte	0
 4293 0012 00       		.byte	0
 4294 0013 02       		.uleb128 0x2
 4295 0014 24       		.uleb128 0x24
 4296 0015 00       		.byte	0
ARM GAS  C:\Users\glenn\AppData\Local\Temp\cc58Te5j.s 			page 106


 4297 0016 0B       		.uleb128 0xb
 4298 0017 0B       		.uleb128 0xb
 4299 0018 3E       		.uleb128 0x3e
 4300 0019 0B       		.uleb128 0xb
 4301 001a 03       		.uleb128 0x3
 4302 001b 08       		.uleb128 0x8
 4303 001c 00       		.byte	0
 4304 001d 00       		.byte	0
 4305 001e 03       		.uleb128 0x3
 4306 001f 16       		.uleb128 0x16
 4307 0020 00       		.byte	0
 4308 0021 03       		.uleb128 0x3
 4309 0022 0E       		.uleb128 0xe
 4310 0023 3A       		.uleb128 0x3a
 4311 0024 0B       		.uleb128 0xb
 4312 0025 3B       		.uleb128 0x3b
 4313 0026 0B       		.uleb128 0xb
 4314 0027 49       		.uleb128 0x49
 4315 0028 13       		.uleb128 0x13
 4316 0029 00       		.byte	0
 4317 002a 00       		.byte	0
 4318 002b 04       		.uleb128 0x4
 4319 002c 24       		.uleb128 0x24
 4320 002d 00       		.byte	0
 4321 002e 0B       		.uleb128 0xb
 4322 002f 0B       		.uleb128 0xb
 4323 0030 3E       		.uleb128 0x3e
 4324 0031 0B       		.uleb128 0xb
 4325 0032 03       		.uleb128 0x3
 4326 0033 0E       		.uleb128 0xe
 4327 0034 00       		.byte	0
 4328 0035 00       		.byte	0
 4329 0036 05       		.uleb128 0x5
 4330 0037 0F       		.uleb128 0xf
 4331 0038 00       		.byte	0
 4332 0039 0B       		.uleb128 0xb
 4333 003a 0B       		.uleb128 0xb
 4334 003b 00       		.byte	0
 4335 003c 00       		.byte	0
 4336 003d 06       		.uleb128 0x6
 4337 003e 16       		.uleb128 0x16
 4338 003f 00       		.byte	0
 4339 0040 03       		.uleb128 0x3
 4340 0041 0E       		.uleb128 0xe
 4341 0042 3A       		.uleb128 0x3a
 4342 0043 0B       		.uleb128 0xb
 4343 0044 3B       		.uleb128 0x3b
 4344 0045 05       		.uleb128 0x5
 4345 0046 49       		.uleb128 0x49
 4346 0047 13       		.uleb128 0x13
 4347 0048 00       		.byte	0
 4348 0049 00       		.byte	0
 4349 004a 07       		.uleb128 0x7
 4350 004b 35       		.uleb128 0x35
 4351 004c 00       		.byte	0
 4352 004d 49       		.uleb128 0x49
 4353 004e 13       		.uleb128 0x13
ARM GAS  C:\Users\glenn\AppData\Local\Temp\cc58Te5j.s 			page 107


 4354 004f 00       		.byte	0
 4355 0050 00       		.byte	0
 4356 0051 08       		.uleb128 0x8
 4357 0052 13       		.uleb128 0x13
 4358 0053 01       		.byte	0x1
 4359 0054 0B       		.uleb128 0xb
 4360 0055 0B       		.uleb128 0xb
 4361 0056 3A       		.uleb128 0x3a
 4362 0057 0B       		.uleb128 0xb
 4363 0058 3B       		.uleb128 0x3b
 4364 0059 0B       		.uleb128 0xb
 4365 005a 01       		.uleb128 0x1
 4366 005b 13       		.uleb128 0x13
 4367 005c 00       		.byte	0
 4368 005d 00       		.byte	0
 4369 005e 09       		.uleb128 0x9
 4370 005f 0D       		.uleb128 0xd
 4371 0060 00       		.byte	0
 4372 0061 03       		.uleb128 0x3
 4373 0062 0E       		.uleb128 0xe
 4374 0063 3A       		.uleb128 0x3a
 4375 0064 0B       		.uleb128 0xb
 4376 0065 3B       		.uleb128 0x3b
 4377 0066 0B       		.uleb128 0xb
 4378 0067 49       		.uleb128 0x49
 4379 0068 13       		.uleb128 0x13
 4380 0069 38       		.uleb128 0x38
 4381 006a 0B       		.uleb128 0xb
 4382 006b 00       		.byte	0
 4383 006c 00       		.byte	0
 4384 006d 0A       		.uleb128 0xa
 4385 006e 2E       		.uleb128 0x2e
 4386 006f 01       		.byte	0x1
 4387 0070 03       		.uleb128 0x3
 4388 0071 0E       		.uleb128 0xe
 4389 0072 3A       		.uleb128 0x3a
 4390 0073 0B       		.uleb128 0xb
 4391 0074 3B       		.uleb128 0x3b
 4392 0075 0B       		.uleb128 0xb
 4393 0076 27       		.uleb128 0x27
 4394 0077 19       		.uleb128 0x19
 4395 0078 11       		.uleb128 0x11
 4396 0079 01       		.uleb128 0x1
 4397 007a 12       		.uleb128 0x12
 4398 007b 06       		.uleb128 0x6
 4399 007c 40       		.uleb128 0x40
 4400 007d 18       		.uleb128 0x18
 4401 007e 9642     		.uleb128 0x2116
 4402 0080 19       		.uleb128 0x19
 4403 0081 01       		.uleb128 0x1
 4404 0082 13       		.uleb128 0x13
 4405 0083 00       		.byte	0
 4406 0084 00       		.byte	0
 4407 0085 0B       		.uleb128 0xb
 4408 0086 05       		.uleb128 0x5
 4409 0087 00       		.byte	0
 4410 0088 03       		.uleb128 0x3
ARM GAS  C:\Users\glenn\AppData\Local\Temp\cc58Te5j.s 			page 108


 4411 0089 08       		.uleb128 0x8
 4412 008a 3A       		.uleb128 0x3a
 4413 008b 0B       		.uleb128 0xb
 4414 008c 3B       		.uleb128 0x3b
 4415 008d 0B       		.uleb128 0xb
 4416 008e 49       		.uleb128 0x49
 4417 008f 13       		.uleb128 0x13
 4418 0090 02       		.uleb128 0x2
 4419 0091 18       		.uleb128 0x18
 4420 0092 00       		.byte	0
 4421 0093 00       		.byte	0
 4422 0094 0C       		.uleb128 0xc
 4423 0095 05       		.uleb128 0x5
 4424 0096 00       		.byte	0
 4425 0097 03       		.uleb128 0x3
 4426 0098 0E       		.uleb128 0xe
 4427 0099 3A       		.uleb128 0x3a
 4428 009a 0B       		.uleb128 0xb
 4429 009b 3B       		.uleb128 0x3b
 4430 009c 0B       		.uleb128 0xb
 4431 009d 49       		.uleb128 0x49
 4432 009e 13       		.uleb128 0x13
 4433 009f 02       		.uleb128 0x2
 4434 00a0 18       		.uleb128 0x18
 4435 00a1 00       		.byte	0
 4436 00a2 00       		.byte	0
 4437 00a3 0D       		.uleb128 0xd
 4438 00a4 0F       		.uleb128 0xf
 4439 00a5 00       		.byte	0
 4440 00a6 0B       		.uleb128 0xb
 4441 00a7 0B       		.uleb128 0xb
 4442 00a8 49       		.uleb128 0x49
 4443 00a9 13       		.uleb128 0x13
 4444 00aa 00       		.byte	0
 4445 00ab 00       		.byte	0
 4446 00ac 0E       		.uleb128 0xe
 4447 00ad 26       		.uleb128 0x26
 4448 00ae 00       		.byte	0
 4449 00af 00       		.byte	0
 4450 00b0 00       		.byte	0
 4451 00b1 0F       		.uleb128 0xf
 4452 00b2 2E       		.uleb128 0x2e
 4453 00b3 01       		.byte	0x1
 4454 00b4 03       		.uleb128 0x3
 4455 00b5 0E       		.uleb128 0xe
 4456 00b6 3A       		.uleb128 0x3a
 4457 00b7 0B       		.uleb128 0xb
 4458 00b8 3B       		.uleb128 0x3b
 4459 00b9 0B       		.uleb128 0xb
 4460 00ba 27       		.uleb128 0x27
 4461 00bb 19       		.uleb128 0x19
 4462 00bc 11       		.uleb128 0x11
 4463 00bd 01       		.uleb128 0x1
 4464 00be 12       		.uleb128 0x12
 4465 00bf 06       		.uleb128 0x6
 4466 00c0 40       		.uleb128 0x40
 4467 00c1 18       		.uleb128 0x18
ARM GAS  C:\Users\glenn\AppData\Local\Temp\cc58Te5j.s 			page 109


 4468 00c2 9742     		.uleb128 0x2117
 4469 00c4 19       		.uleb128 0x19
 4470 00c5 01       		.uleb128 0x1
 4471 00c6 13       		.uleb128 0x13
 4472 00c7 00       		.byte	0
 4473 00c8 00       		.byte	0
 4474 00c9 10       		.uleb128 0x10
 4475 00ca 34       		.uleb128 0x34
 4476 00cb 00       		.byte	0
 4477 00cc 03       		.uleb128 0x3
 4478 00cd 08       		.uleb128 0x8
 4479 00ce 3A       		.uleb128 0x3a
 4480 00cf 0B       		.uleb128 0xb
 4481 00d0 3B       		.uleb128 0x3b
 4482 00d1 0B       		.uleb128 0xb
 4483 00d2 49       		.uleb128 0x49
 4484 00d3 13       		.uleb128 0x13
 4485 00d4 02       		.uleb128 0x2
 4486 00d5 18       		.uleb128 0x18
 4487 00d6 00       		.byte	0
 4488 00d7 00       		.byte	0
 4489 00d8 11       		.uleb128 0x11
 4490 00d9 0B       		.uleb128 0xb
 4491 00da 01       		.byte	0x1
 4492 00db 11       		.uleb128 0x11
 4493 00dc 01       		.uleb128 0x1
 4494 00dd 12       		.uleb128 0x12
 4495 00de 06       		.uleb128 0x6
 4496 00df 00       		.byte	0
 4497 00e0 00       		.byte	0
 4498 00e1 12       		.uleb128 0x12
 4499 00e2 34       		.uleb128 0x34
 4500 00e3 00       		.byte	0
 4501 00e4 03       		.uleb128 0x3
 4502 00e5 0E       		.uleb128 0xe
 4503 00e6 3A       		.uleb128 0x3a
 4504 00e7 0B       		.uleb128 0xb
 4505 00e8 3B       		.uleb128 0x3b
 4506 00e9 0B       		.uleb128 0xb
 4507 00ea 49       		.uleb128 0x49
 4508 00eb 13       		.uleb128 0x13
 4509 00ec 02       		.uleb128 0x2
 4510 00ed 18       		.uleb128 0x18
 4511 00ee 00       		.byte	0
 4512 00ef 00       		.byte	0
 4513 00f0 13       		.uleb128 0x13
 4514 00f1 26       		.uleb128 0x26
 4515 00f2 00       		.byte	0
 4516 00f3 49       		.uleb128 0x49
 4517 00f4 13       		.uleb128 0x13
 4518 00f5 00       		.byte	0
 4519 00f6 00       		.byte	0
 4520 00f7 14       		.uleb128 0x14
 4521 00f8 01       		.uleb128 0x1
 4522 00f9 01       		.byte	0x1
 4523 00fa 49       		.uleb128 0x49
 4524 00fb 13       		.uleb128 0x13
ARM GAS  C:\Users\glenn\AppData\Local\Temp\cc58Te5j.s 			page 110


 4525 00fc 01       		.uleb128 0x1
 4526 00fd 13       		.uleb128 0x13
 4527 00fe 00       		.byte	0
 4528 00ff 00       		.byte	0
 4529 0100 15       		.uleb128 0x15
 4530 0101 21       		.uleb128 0x21
 4531 0102 00       		.byte	0
 4532 0103 49       		.uleb128 0x49
 4533 0104 13       		.uleb128 0x13
 4534 0105 2F       		.uleb128 0x2f
 4535 0106 0B       		.uleb128 0xb
 4536 0107 00       		.byte	0
 4537 0108 00       		.byte	0
 4538 0109 16       		.uleb128 0x16
 4539 010a 2E       		.uleb128 0x2e
 4540 010b 01       		.byte	0x1
 4541 010c 03       		.uleb128 0x3
 4542 010d 0E       		.uleb128 0xe
 4543 010e 3A       		.uleb128 0x3a
 4544 010f 0B       		.uleb128 0xb
 4545 0110 3B       		.uleb128 0x3b
 4546 0111 05       		.uleb128 0x5
 4547 0112 27       		.uleb128 0x27
 4548 0113 19       		.uleb128 0x19
 4549 0114 11       		.uleb128 0x11
 4550 0115 01       		.uleb128 0x1
 4551 0116 12       		.uleb128 0x12
 4552 0117 06       		.uleb128 0x6
 4553 0118 40       		.uleb128 0x40
 4554 0119 18       		.uleb128 0x18
 4555 011a 9642     		.uleb128 0x2116
 4556 011c 19       		.uleb128 0x19
 4557 011d 01       		.uleb128 0x1
 4558 011e 13       		.uleb128 0x13
 4559 011f 00       		.byte	0
 4560 0120 00       		.byte	0
 4561 0121 17       		.uleb128 0x17
 4562 0122 34       		.uleb128 0x34
 4563 0123 00       		.byte	0
 4564 0124 03       		.uleb128 0x3
 4565 0125 0E       		.uleb128 0xe
 4566 0126 3A       		.uleb128 0x3a
 4567 0127 0B       		.uleb128 0xb
 4568 0128 3B       		.uleb128 0x3b
 4569 0129 05       		.uleb128 0x5
 4570 012a 49       		.uleb128 0x49
 4571 012b 13       		.uleb128 0x13
 4572 012c 02       		.uleb128 0x2
 4573 012d 18       		.uleb128 0x18
 4574 012e 00       		.byte	0
 4575 012f 00       		.byte	0
 4576 0130 18       		.uleb128 0x18
 4577 0131 34       		.uleb128 0x34
 4578 0132 00       		.byte	0
 4579 0133 03       		.uleb128 0x3
 4580 0134 08       		.uleb128 0x8
 4581 0135 3A       		.uleb128 0x3a
ARM GAS  C:\Users\glenn\AppData\Local\Temp\cc58Te5j.s 			page 111


 4582 0136 0B       		.uleb128 0xb
 4583 0137 3B       		.uleb128 0x3b
 4584 0138 05       		.uleb128 0x5
 4585 0139 49       		.uleb128 0x49
 4586 013a 13       		.uleb128 0x13
 4587 013b 02       		.uleb128 0x2
 4588 013c 18       		.uleb128 0x18
 4589 013d 00       		.byte	0
 4590 013e 00       		.byte	0
 4591 013f 19       		.uleb128 0x19
 4592 0140 2E       		.uleb128 0x2e
 4593 0141 01       		.byte	0x1
 4594 0142 3F       		.uleb128 0x3f
 4595 0143 19       		.uleb128 0x19
 4596 0144 03       		.uleb128 0x3
 4597 0145 0E       		.uleb128 0xe
 4598 0146 3A       		.uleb128 0x3a
 4599 0147 0B       		.uleb128 0xb
 4600 0148 3B       		.uleb128 0x3b
 4601 0149 05       		.uleb128 0x5
 4602 014a 27       		.uleb128 0x27
 4603 014b 19       		.uleb128 0x19
 4604 014c 11       		.uleb128 0x11
 4605 014d 01       		.uleb128 0x1
 4606 014e 12       		.uleb128 0x12
 4607 014f 06       		.uleb128 0x6
 4608 0150 40       		.uleb128 0x40
 4609 0151 18       		.uleb128 0x18
 4610 0152 9742     		.uleb128 0x2117
 4611 0154 19       		.uleb128 0x19
 4612 0155 01       		.uleb128 0x1
 4613 0156 13       		.uleb128 0x13
 4614 0157 00       		.byte	0
 4615 0158 00       		.byte	0
 4616 0159 1A       		.uleb128 0x1a
 4617 015a 05       		.uleb128 0x5
 4618 015b 00       		.byte	0
 4619 015c 03       		.uleb128 0x3
 4620 015d 0E       		.uleb128 0xe
 4621 015e 3A       		.uleb128 0x3a
 4622 015f 0B       		.uleb128 0xb
 4623 0160 3B       		.uleb128 0x3b
 4624 0161 05       		.uleb128 0x5
 4625 0162 49       		.uleb128 0x49
 4626 0163 13       		.uleb128 0x13
 4627 0164 02       		.uleb128 0x2
 4628 0165 18       		.uleb128 0x18
 4629 0166 00       		.byte	0
 4630 0167 00       		.byte	0
 4631 0168 1B       		.uleb128 0x1b
 4632 0169 2E       		.uleb128 0x2e
 4633 016a 01       		.byte	0x1
 4634 016b 3F       		.uleb128 0x3f
 4635 016c 19       		.uleb128 0x19
 4636 016d 03       		.uleb128 0x3
 4637 016e 0E       		.uleb128 0xe
 4638 016f 3A       		.uleb128 0x3a
ARM GAS  C:\Users\glenn\AppData\Local\Temp\cc58Te5j.s 			page 112


 4639 0170 0B       		.uleb128 0xb
 4640 0171 3B       		.uleb128 0x3b
 4641 0172 05       		.uleb128 0x5
 4642 0173 27       		.uleb128 0x27
 4643 0174 19       		.uleb128 0x19
 4644 0175 11       		.uleb128 0x11
 4645 0176 01       		.uleb128 0x1
 4646 0177 12       		.uleb128 0x12
 4647 0178 06       		.uleb128 0x6
 4648 0179 40       		.uleb128 0x40
 4649 017a 18       		.uleb128 0x18
 4650 017b 9642     		.uleb128 0x2116
 4651 017d 19       		.uleb128 0x19
 4652 017e 01       		.uleb128 0x1
 4653 017f 13       		.uleb128 0x13
 4654 0180 00       		.byte	0
 4655 0181 00       		.byte	0
 4656 0182 1C       		.uleb128 0x1c
 4657 0183 13       		.uleb128 0x13
 4658 0184 01       		.byte	0x1
 4659 0185 0B       		.uleb128 0xb
 4660 0186 0B       		.uleb128 0xb
 4661 0187 3A       		.uleb128 0x3a
 4662 0188 0B       		.uleb128 0xb
 4663 0189 3B       		.uleb128 0x3b
 4664 018a 05       		.uleb128 0x5
 4665 018b 01       		.uleb128 0x1
 4666 018c 13       		.uleb128 0x13
 4667 018d 00       		.byte	0
 4668 018e 00       		.byte	0
 4669 018f 1D       		.uleb128 0x1d
 4670 0190 0D       		.uleb128 0xd
 4671 0191 00       		.byte	0
 4672 0192 03       		.uleb128 0x3
 4673 0193 0E       		.uleb128 0xe
 4674 0194 3A       		.uleb128 0x3a
 4675 0195 0B       		.uleb128 0xb
 4676 0196 3B       		.uleb128 0x3b
 4677 0197 05       		.uleb128 0x5
 4678 0198 49       		.uleb128 0x49
 4679 0199 13       		.uleb128 0x13
 4680 019a 38       		.uleb128 0x38
 4681 019b 0B       		.uleb128 0xb
 4682 019c 00       		.byte	0
 4683 019d 00       		.byte	0
 4684 019e 1E       		.uleb128 0x1e
 4685 019f 21       		.uleb128 0x21
 4686 01a0 00       		.byte	0
 4687 01a1 49       		.uleb128 0x49
 4688 01a2 13       		.uleb128 0x13
 4689 01a3 2F       		.uleb128 0x2f
 4690 01a4 05       		.uleb128 0x5
 4691 01a5 00       		.byte	0
 4692 01a6 00       		.byte	0
 4693 01a7 1F       		.uleb128 0x1f
 4694 01a8 34       		.uleb128 0x34
 4695 01a9 00       		.byte	0
ARM GAS  C:\Users\glenn\AppData\Local\Temp\cc58Te5j.s 			page 113


 4696 01aa 03       		.uleb128 0x3
 4697 01ab 0E       		.uleb128 0xe
 4698 01ac 3A       		.uleb128 0x3a
 4699 01ad 0B       		.uleb128 0xb
 4700 01ae 3B       		.uleb128 0x3b
 4701 01af 05       		.uleb128 0x5
 4702 01b0 49       		.uleb128 0x49
 4703 01b1 13       		.uleb128 0x13
 4704 01b2 3F       		.uleb128 0x3f
 4705 01b3 19       		.uleb128 0x19
 4706 01b4 02       		.uleb128 0x2
 4707 01b5 18       		.uleb128 0x18
 4708 01b6 00       		.byte	0
 4709 01b7 00       		.byte	0
 4710 01b8 00       		.byte	0
 4711              		.section	.debug_aranges,"",%progbits
 4712 0000 7C000000 		.4byte	0x7c
 4713 0004 0200     		.2byte	0x2
 4714 0006 00000000 		.4byte	.Ldebug_info0
 4715 000a 04       		.byte	0x4
 4716 000b 00       		.byte	0
 4717 000c 0000     		.2byte	0
 4718 000e 0000     		.2byte	0
 4719 0010 00000000 		.4byte	.LFB0
 4720 0014 1A000000 		.4byte	.LFE0-.LFB0
 4721 0018 00000000 		.4byte	.LFB1
 4722 001c 1C000000 		.4byte	.LFE1-.LFB1
 4723 0020 00000000 		.4byte	.LFB2
 4724 0024 1C000000 		.4byte	.LFE2-.LFB2
 4725 0028 00000000 		.4byte	.LFB3
 4726 002c 0C000000 		.4byte	.LFE3-.LFB3
 4727 0030 00000000 		.4byte	.LFB4
 4728 0034 74000000 		.4byte	.LFE4-.LFB4
 4729 0038 00000000 		.4byte	.LFB5
 4730 003c 28020000 		.4byte	.LFE5-.LFB5
 4731 0040 00000000 		.4byte	.LFB6
 4732 0044 C4000000 		.4byte	.LFE6-.LFB6
 4733 0048 00000000 		.4byte	.LFB7
 4734 004c 3C000000 		.4byte	.LFE7-.LFB7
 4735 0050 00000000 		.4byte	.LFB8
 4736 0054 6C000000 		.4byte	.LFE8-.LFB8
 4737 0058 00000000 		.4byte	.LFB9
 4738 005c 74000000 		.4byte	.LFE9-.LFB9
 4739 0060 00000000 		.4byte	.LFB10
 4740 0064 40000000 		.4byte	.LFE10-.LFB10
 4741 0068 00000000 		.4byte	.LFB11
 4742 006c 44000000 		.4byte	.LFE11-.LFB11
 4743 0070 00000000 		.4byte	.LFB12
 4744 0074 7C010000 		.4byte	.LFE12-.LFB12
 4745 0078 00000000 		.4byte	0
 4746 007c 00000000 		.4byte	0
 4747              		.section	.debug_ranges,"",%progbits
 4748              	.Ldebug_ranges0:
 4749 0000 00000000 		.4byte	.LFB0
 4750 0004 1A000000 		.4byte	.LFE0
 4751 0008 00000000 		.4byte	.LFB1
 4752 000c 1C000000 		.4byte	.LFE1
ARM GAS  C:\Users\glenn\AppData\Local\Temp\cc58Te5j.s 			page 114


 4753 0010 00000000 		.4byte	.LFB2
 4754 0014 1C000000 		.4byte	.LFE2
 4755 0018 00000000 		.4byte	.LFB3
 4756 001c 0C000000 		.4byte	.LFE3
 4757 0020 00000000 		.4byte	.LFB4
 4758 0024 74000000 		.4byte	.LFE4
 4759 0028 00000000 		.4byte	.LFB5
 4760 002c 28020000 		.4byte	.LFE5
 4761 0030 00000000 		.4byte	.LFB6
 4762 0034 C4000000 		.4byte	.LFE6
 4763 0038 00000000 		.4byte	.LFB7
 4764 003c 3C000000 		.4byte	.LFE7
 4765 0040 00000000 		.4byte	.LFB8
 4766 0044 6C000000 		.4byte	.LFE8
 4767 0048 00000000 		.4byte	.LFB9
 4768 004c 74000000 		.4byte	.LFE9
 4769 0050 00000000 		.4byte	.LFB10
 4770 0054 40000000 		.4byte	.LFE10
 4771 0058 00000000 		.4byte	.LFB11
 4772 005c 44000000 		.4byte	.LFE11
 4773 0060 00000000 		.4byte	.LFB12
 4774 0064 7C010000 		.4byte	.LFE12
 4775 0068 00000000 		.4byte	0
 4776 006c 00000000 		.4byte	0
 4777              		.section	.debug_line,"",%progbits
 4778              	.Ldebug_line0:
 4779 0000 87020000 		.section	.debug_str,"MS",%progbits,1
 4779      0200CD00 
 4779      00000201 
 4779      FB0E0D00 
 4779      01010101 
 4780              	.LASF13:
 4781 0000 75696E74 		.ascii	"uint16\000"
 4781      313600
 4782              	.LASF45:
 4783 0007 53696E6B 		.ascii	"Sink_Source_Setup_Unset\000"
 4783      5F536F75 
 4783      7263655F 
 4783      53657475 
 4783      705F556E 
 4784              	.LASF31:
 4785 001f 62617365 		.ascii	"baseAddr\000"
 4785      41646472 
 4785      00
 4786              	.LASF11:
 4787 0028 73697A65 		.ascii	"size_t\000"
 4787      5F7400
 4788              	.LASF26:
 4789 002f 4379436C 		.ascii	"CyClockStartupError\000"
 4789      6F636B53 
 4789      74617274 
 4789      75704572 
 4789      726F7200 
 4790              	.LASF64:
 4791 0043 5349474D 		.ascii	"SIGMA_A_D_AMux__maskTable\000"
 4791      415F415F 
 4791      445F414D 
ARM GAS  C:\Users\glenn\AppData\Local\Temp\cc58Te5j.s 			page 115


 4791      75785F5F 
 4791      6D61736B 
 4792              	.LASF30:
 4793 005d 64617461 		.ascii	"data_table\000"
 4793      5F746162 
 4793      6C6500
 4794              	.LASF8:
 4795 0068 6C6F6E67 		.ascii	"long long unsigned int\000"
 4795      206C6F6E 
 4795      6720756E 
 4795      7369676E 
 4795      65642069 
 4796              	.LASF29:
 4797 007f 61646472 		.ascii	"addr_table\000"
 4797      5F746162 
 4797      6C6500
 4798              	.LASF56:
 4799 008a 63795F63 		.ascii	"cy_cfg_data_table\000"
 4799      66675F64 
 4799      6174615F 
 4799      7461626C 
 4799      6500
 4800              	.LASF34:
 4801 009c 42535F43 		.ascii	"BS_CYDEV_CLKDIST_ACFG0_CFG0_VAL\000"
 4801      59444556 
 4801      5F434C4B 
 4801      44495354 
 4801      5F414346 
 4802              	.LASF38:
 4803 00bc 416E616C 		.ascii	"AnalogSetDefault\000"
 4803      6F675365 
 4803      74446566 
 4803      61756C74 
 4803      00
 4804              	.LASF7:
 4805 00cd 6C6F6E67 		.ascii	"long long int\000"
 4805      206C6F6E 
 4805      6720696E 
 4805      7400
 4806              	.LASF1:
 4807 00db 7369676E 		.ascii	"signed char\000"
 4807      65642063 
 4807      68617200 
 4808              	.LASF55:
 4809 00e7 63795F63 		.ascii	"cy_cfg_addr_table\000"
 4809      66675F61 
 4809      6464725F 
 4809      7461626C 
 4809      6500
 4810              	.LASF22:
 4811 00f9 43594D45 		.ascii	"CYMEMZERO\000"
 4811      4D5A4552 
 4811      4F00
 4812              	.LASF33:
 4813 0103 436C6F63 		.ascii	"ClockSetup\000"
 4813      6B536574 
 4813      757000
ARM GAS  C:\Users\glenn\AppData\Local\Temp\cc58Te5j.s 			page 116


 4814              	.LASF27:
 4815 010e 6572726F 		.ascii	"errorCode\000"
 4815      72436F64 
 4815      6500
 4816              	.LASF5:
 4817 0118 6C6F6E67 		.ascii	"long int\000"
 4817      20696E74 
 4817      00
 4818              	.LASF18:
 4819 0121 72656731 		.ascii	"reg16\000"
 4819      3600
 4820              	.LASF12:
 4821 0127 75696E74 		.ascii	"uint8\000"
 4821      3800
 4822              	.LASF16:
 4823 012d 646F7562 		.ascii	"double\000"
 4823      6C6500
 4824              	.LASF14:
 4825 0134 75696E74 		.ascii	"uint32\000"
 4825      333200
 4826              	.LASF32:
 4827 013b 636F756E 		.ascii	"count\000"
 4827      7400
 4828              	.LASF41:
 4829 0141 72656756 		.ascii	"regValue\000"
 4829      616C7565 
 4829      00
 4830              	.LASF35:
 4831 014a 78333254 		.ascii	"x32TrHold\000"
 4831      72486F6C 
 4831      6400
 4832              	.LASF20:
 4833 0154 76616C75 		.ascii	"value\000"
 4833      6500
 4834              	.LASF0:
 4835 015a 756E7369 		.ascii	"unsigned int\000"
 4835      676E6564 
 4835      20696E74 
 4835      00
 4836              	.LASF66:
 4837 0167 2E5C4765 		.ascii	".\\Generated_Source\\PSoC5\\cyfitter_cfg.c\000"
 4837      6E657261 
 4837      7465645F 
 4837      536F7572 
 4837      63655C50 
 4838              	.LASF6:
 4839 018f 6C6F6E67 		.ascii	"long unsigned int\000"
 4839      20756E73 
 4839      69676E65 
 4839      6420696E 
 4839      7400
 4840              	.LASF36:
 4841 01a1 74696D65 		.ascii	"timeout\000"
 4841      6F757400 
 4842              	.LASF28:
 4843 01a9 6366675F 		.ascii	"cfg_write_bytes32\000"
 4843      77726974 
ARM GAS  C:\Users\glenn\AppData\Local\Temp\cc58Te5j.s 			page 117


 4843      655F6279 
 4843      74657333 
 4843      3200
 4844              	.LASF58:
 4845 01bb 73697A65 		.ascii	"size\000"
 4845      00
 4846              	.LASF4:
 4847 01c0 73686F72 		.ascii	"short unsigned int\000"
 4847      7420756E 
 4847      7369676E 
 4847      65642069 
 4847      6E7400
 4848              	.LASF47:
 4849 01d3 5349474D 		.ascii	"SIGMA_A_D_AMux_Unset\000"
 4849      415F415F 
 4849      445F414D 
 4849      75785F55 
 4849      6E736574 
 4850              	.LASF67:
 4851 01e8 433A5C55 		.ascii	"C:\\Users\\glenn\\OneDrive\\PSOC\\moisture_sensor\\"
 4851      73657273 
 4851      5C676C65 
 4851      6E6E5C4F 
 4851      6E654472 
 4852 0215 5553425F 		.ascii	"USB_UART01.cydsn\000"
 4852      55415254 
 4852      30312E63 
 4852      7964736E 
 4852      00
 4853              	.LASF25:
 4854 0226 4359434F 		.ascii	"CYCONFIGCPYCODE\000"
 4854      4E464947 
 4854      43505943 
 4854      4F444500 
 4855              	.LASF9:
 4856 0236 73697A65 		.ascii	"sizetype\000"
 4856      74797065 
 4856      00
 4857              	.LASF39:
 4858 023f 62675F78 		.ascii	"bg_xover_inl_trim\000"
 4858      6F766572 
 4858      5F696E6C 
 4858      5F747269 
 4858      6D00
 4859              	.LASF59:
 4860 0251 6366675F 		.ascii	"cfg_memset_t\000"
 4860      6D656D73 
 4860      65745F74 
 4860      00
 4861              	.LASF65:
 4862 025e 474E5520 		.ascii	"GNU C 4.9.3 20150303 (release) [ARM/embedded-4_9-br"
 4862      4320342E 
 4862      392E3320 
 4862      32303135 
 4862      30333033 
 4863 0291 616E6368 		.ascii	"anch revision 221220] -mcpu=cortex-m3 -mthumb -g -O"
 4863      20726576 
ARM GAS  C:\Users\glenn\AppData\Local\Temp\cc58Te5j.s 			page 118


 4863      6973696F 
 4863      6E203232 
 4863      31323230 
 4864 02c4 30202D66 		.ascii	"0 -ffunction-sections -ffat-lto-objects\000"
 4864      66756E63 
 4864      74696F6E 
 4864      2D736563 
 4864      74696F6E 
 4865              	.LASF60:
 4866 02ec 6366675F 		.ascii	"cfg_memset_list\000"
 4866      6D656D73 
 4866      65745F6C 
 4866      69737400 
 4867              	.LASF53:
 4868 02fc 42535F49 		.ascii	"BS_IOPINS0_3_VAL\000"
 4868      4F50494E 
 4868      53305F33 
 4868      5F56414C 
 4868      00
 4869              	.LASF24:
 4870 030d 64657374 		.ascii	"dest\000"
 4870      00
 4871              	.LASF15:
 4872 0312 666C6F61 		.ascii	"float\000"
 4872      7400
 4873              	.LASF17:
 4874 0318 72656738 		.ascii	"reg8\000"
 4874      00
 4875              	.LASF2:
 4876 031d 756E7369 		.ascii	"unsigned char\000"
 4876      676E6564 
 4876      20636861 
 4876      7200
 4877              	.LASF3:
 4878 032b 73686F72 		.ascii	"short int\000"
 4878      7420696E 
 4878      7400
 4879              	.LASF49:
 4880 0335 42535F49 		.ascii	"BS_IOPINS0_0_VAL\000"
 4880      4F50494E 
 4880      53305F30 
 4880      5F56414C 
 4880      00
 4881              	.LASF37:
 4882 0346 706C6C4C 		.ascii	"pllLock\000"
 4882      6F636B00 
 4883              	.LASF50:
 4884 034e 42535F49 		.ascii	"BS_IOPINS0_8_VAL\000"
 4884      4F50494E 
 4884      53305F38 
 4884      5F56414C 
 4884      00
 4885              	.LASF44:
 4886 035f 6368616E 		.ascii	"channel\000"
 4886      6E656C00 
 4887              	.LASF21:
 4888 0367 63795F63 		.ascii	"cy_cfg_addrvalue_t\000"
ARM GAS  C:\Users\glenn\AppData\Local\Temp\cc58Te5j.s 			page 119


 4888      66675F61 
 4888      64647276 
 4888      616C7565 
 4888      5F7400
 4889              	.LASF54:
 4890 037a 42535F50 		.ascii	"BS_PHUB_CFGMEM1_VAL\000"
 4890      4855425F 
 4890      4346474D 
 4890      454D315F 
 4890      56414C00 
 4891              	.LASF10:
 4892 038e 63686172 		.ascii	"char\000"
 4892      00
 4893              	.LASF51:
 4894 0393 42535F49 		.ascii	"BS_IOPINS0_1_VAL\000"
 4894      4F50494E 
 4894      53305F31 
 4894      5F56414C 
 4894      00
 4895              	.LASF46:
 4896 03a4 5349474D 		.ascii	"SIGMA_A_D_AMux_Set\000"
 4896      415F415F 
 4896      445F414D 
 4896      75785F53 
 4896      657400
 4897              	.LASF42:
 4898 03b7 53657441 		.ascii	"SetAnalogRoutingPumps\000"
 4898      6E616C6F 
 4898      67526F75 
 4898      74696E67 
 4898      50756D70 
 4899              	.LASF63:
 4900 03cd 5349474D 		.ascii	"SIGMA_A_D_AMux__addrTable\000"
 4900      415F415F 
 4900      445F414D 
 4900      75785F5F 
 4900      61646472 
 4901              	.LASF19:
 4902 03e7 6F666673 		.ascii	"offset\000"
 4902      657400
 4903              	.LASF62:
 4904 03ee 53696E6B 		.ascii	"Sink_Source_Setup__maskTable\000"
 4904      5F536F75 
 4904      7263655F 
 4904      53657475 
 4904      705F5F6D 
 4905              	.LASF40:
 4906 040b 656E6162 		.ascii	"enabled\000"
 4906      6C656400 
 4907              	.LASF43:
 4908 0413 53696E6B 		.ascii	"Sink_Source_Setup_Set\000"
 4908      5F536F75 
 4908      7263655F 
 4908      53657475 
 4908      705F5365 
 4909              	.LASF61:
 4910 0429 53696E6B 		.ascii	"Sink_Source_Setup__addrTable\000"
ARM GAS  C:\Users\glenn\AppData\Local\Temp\cc58Te5j.s 			page 120


 4910      5F536F75 
 4910      7263655F 
 4910      53657475 
 4910      705F5F61 
 4911              	.LASF23:
 4912 0446 4359434F 		.ascii	"CYCONFIGCPY\000"
 4912      4E464947 
 4912      43505900 
 4913              	.LASF57:
 4914 0452 61646472 		.ascii	"address\000"
 4914      65737300 
 4915              	.LASF52:
 4916 045a 42535F49 		.ascii	"BS_IOPINS0_2_VAL\000"
 4916      4F50494E 
 4916      53305F32 
 4916      5F56414C 
 4916      00
 4917              	.LASF48:
 4918 046b 63796669 		.ascii	"cyfitter_cfg\000"
 4918      74746572 
 4918      5F636667 
 4918      00
 4919              		.ident	"GCC: (GNU Tools for ARM Embedded Processors) 4.9.3 20150303 (release) [ARM/embedded-4_9-br
