ARM GAS  C:\Users\glenn\AppData\Local\Temp\cc934L16.s 			page 1


   1              		.syntax unified
   2              		.cpu cortex-m3
   3              		.fpu softvfp
   4              		.eabi_attribute 20, 1
   5              		.eabi_attribute 21, 1
   6              		.eabi_attribute 23, 3
   7              		.eabi_attribute 24, 1
   8              		.eabi_attribute 25, 1
   9              		.eabi_attribute 26, 1
  10              		.eabi_attribute 30, 6
  11              		.eabi_attribute 34, 1
  12              		.eabi_attribute 18, 4
  13              		.thumb
  14              		.file	"cyfitter_cfg.c"
  15              		.text
  16              	.Ltext0:
  17              		.cfi_sections	.debug_frame
  18              		.section	.text.CYMEMZERO,"ax",%progbits
  19              		.align	2
  20              		.thumb
  21              		.thumb_func
  22              		.type	CYMEMZERO, %function
  23              	CYMEMZERO:
  24              	.LFB0:
  25              		.file 1 ".\\Generated_Source\\PSoC5\\cyfitter_cfg.c"
   1:.\Generated_Source\PSoC5/cyfitter_cfg.c **** /*******************************************************************************
   2:.\Generated_Source\PSoC5/cyfitter_cfg.c **** * File Name: cyfitter_cfg.c
   3:.\Generated_Source\PSoC5/cyfitter_cfg.c **** * 
   4:.\Generated_Source\PSoC5/cyfitter_cfg.c **** * PSoC Creator  3.3 CP3
   5:.\Generated_Source\PSoC5/cyfitter_cfg.c **** *
   6:.\Generated_Source\PSoC5/cyfitter_cfg.c **** * Description:
   7:.\Generated_Source\PSoC5/cyfitter_cfg.c **** * This file contains device initialization code.
   8:.\Generated_Source\PSoC5/cyfitter_cfg.c **** * Except for the user defined sections in CyClockStartupError(), this file should not be modified.
   9:.\Generated_Source\PSoC5/cyfitter_cfg.c **** * This file is automatically generated by PSoC Creator.
  10:.\Generated_Source\PSoC5/cyfitter_cfg.c **** *
  11:.\Generated_Source\PSoC5/cyfitter_cfg.c **** ********************************************************************************
  12:.\Generated_Source\PSoC5/cyfitter_cfg.c **** * Copyright (c) 2007-2016 Cypress Semiconductor.  All rights reserved.
  13:.\Generated_Source\PSoC5/cyfitter_cfg.c **** * You may use this file only in accordance with the license, terms, conditions, 
  14:.\Generated_Source\PSoC5/cyfitter_cfg.c **** * disclaimers, and limitations in the end user license agreement accompanying 
  15:.\Generated_Source\PSoC5/cyfitter_cfg.c **** * the software package with which this file was provided.
  16:.\Generated_Source\PSoC5/cyfitter_cfg.c **** ********************************************************************************/
  17:.\Generated_Source\PSoC5/cyfitter_cfg.c **** 
  18:.\Generated_Source\PSoC5/cyfitter_cfg.c **** #include <string.h>
  19:.\Generated_Source\PSoC5/cyfitter_cfg.c **** #include "cytypes.h"
  20:.\Generated_Source\PSoC5/cyfitter_cfg.c **** #include "cydevice_trm.h"
  21:.\Generated_Source\PSoC5/cyfitter_cfg.c **** #include "cyfitter.h"
  22:.\Generated_Source\PSoC5/cyfitter_cfg.c **** #include "CyLib.h"
  23:.\Generated_Source\PSoC5/cyfitter_cfg.c **** #include "cyfitter_cfg.h"
  24:.\Generated_Source\PSoC5/cyfitter_cfg.c **** 
  25:.\Generated_Source\PSoC5/cyfitter_cfg.c **** #define CY_NEED_CYCLOCKSTARTUPERROR 1
  26:.\Generated_Source\PSoC5/cyfitter_cfg.c **** 
  27:.\Generated_Source\PSoC5/cyfitter_cfg.c **** 
  28:.\Generated_Source\PSoC5/cyfitter_cfg.c **** #if defined(__GNUC__) || defined(__ARMCC_VERSION)
  29:.\Generated_Source\PSoC5/cyfitter_cfg.c ****     #define CYPACKED 
  30:.\Generated_Source\PSoC5/cyfitter_cfg.c ****     #define CYPACKED_ATTR __attribute__ ((packed))
  31:.\Generated_Source\PSoC5/cyfitter_cfg.c ****     #define CYALIGNED __attribute__ ((aligned))
  32:.\Generated_Source\PSoC5/cyfitter_cfg.c ****     #define CY_CFG_UNUSED __attribute__ ((unused))
ARM GAS  C:\Users\glenn\AppData\Local\Temp\cc934L16.s 			page 2


  33:.\Generated_Source\PSoC5/cyfitter_cfg.c ****     #ifndef CY_CFG_SECTION
  34:.\Generated_Source\PSoC5/cyfitter_cfg.c ****         #define CY_CFG_SECTION __attribute__ ((section(".psocinit")))
  35:.\Generated_Source\PSoC5/cyfitter_cfg.c ****     #endif
  36:.\Generated_Source\PSoC5/cyfitter_cfg.c ****     
  37:.\Generated_Source\PSoC5/cyfitter_cfg.c ****     #if defined(__ARMCC_VERSION)
  38:.\Generated_Source\PSoC5/cyfitter_cfg.c ****         #define CY_CFG_MEMORY_BARRIER() __memory_changed()
  39:.\Generated_Source\PSoC5/cyfitter_cfg.c ****     #else
  40:.\Generated_Source\PSoC5/cyfitter_cfg.c ****         #define CY_CFG_MEMORY_BARRIER() __sync_synchronize()
  41:.\Generated_Source\PSoC5/cyfitter_cfg.c ****     #endif
  42:.\Generated_Source\PSoC5/cyfitter_cfg.c ****     
  43:.\Generated_Source\PSoC5/cyfitter_cfg.c **** #elif defined(__ICCARM__)
  44:.\Generated_Source\PSoC5/cyfitter_cfg.c ****     #include <intrinsics.h>
  45:.\Generated_Source\PSoC5/cyfitter_cfg.c **** 
  46:.\Generated_Source\PSoC5/cyfitter_cfg.c ****     #define CYPACKED __packed
  47:.\Generated_Source\PSoC5/cyfitter_cfg.c ****     #define CYPACKED_ATTR 
  48:.\Generated_Source\PSoC5/cyfitter_cfg.c ****     #define CYALIGNED _Pragma("data_alignment=4")
  49:.\Generated_Source\PSoC5/cyfitter_cfg.c ****     #define CY_CFG_UNUSED _Pragma("diag_suppress=Pe177")
  50:.\Generated_Source\PSoC5/cyfitter_cfg.c ****     #define CY_CFG_SECTION _Pragma("location=\".psocinit\"")
  51:.\Generated_Source\PSoC5/cyfitter_cfg.c ****     
  52:.\Generated_Source\PSoC5/cyfitter_cfg.c ****     #define CY_CFG_MEMORY_BARRIER() __DMB()
  53:.\Generated_Source\PSoC5/cyfitter_cfg.c ****     
  54:.\Generated_Source\PSoC5/cyfitter_cfg.c **** #else
  55:.\Generated_Source\PSoC5/cyfitter_cfg.c ****     #error Unsupported toolchain
  56:.\Generated_Source\PSoC5/cyfitter_cfg.c **** #endif
  57:.\Generated_Source\PSoC5/cyfitter_cfg.c **** 
  58:.\Generated_Source\PSoC5/cyfitter_cfg.c **** 
  59:.\Generated_Source\PSoC5/cyfitter_cfg.c **** CY_CFG_UNUSED
  60:.\Generated_Source\PSoC5/cyfitter_cfg.c **** static void CYMEMZERO(void *s, size_t n);
  61:.\Generated_Source\PSoC5/cyfitter_cfg.c **** CY_CFG_UNUSED
  62:.\Generated_Source\PSoC5/cyfitter_cfg.c **** static void CYMEMZERO(void *s, size_t n)
  63:.\Generated_Source\PSoC5/cyfitter_cfg.c **** {
  26              		.loc 1 63 0
  27              		.cfi_startproc
  28              		@ args = 0, pretend = 0, frame = 8
  29              		@ frame_needed = 1, uses_anonymous_args = 0
  30 0000 80B5     		push	{r7, lr}
  31              		.cfi_def_cfa_offset 8
  32              		.cfi_offset 7, -8
  33              		.cfi_offset 14, -4
  34 0002 82B0     		sub	sp, sp, #8
  35              		.cfi_def_cfa_offset 16
  36 0004 00AF     		add	r7, sp, #0
  37              		.cfi_def_cfa_register 7
  38 0006 7860     		str	r0, [r7, #4]
  39 0008 3960     		str	r1, [r7]
  64:.\Generated_Source\PSoC5/cyfitter_cfg.c **** 	(void)memset(s, 0, n);
  40              		.loc 1 64 0
  41 000a 7868     		ldr	r0, [r7, #4]
  42 000c 0021     		movs	r1, #0
  43 000e 3A68     		ldr	r2, [r7]
  44 0010 FFF7FEFF 		bl	memset
  65:.\Generated_Source\PSoC5/cyfitter_cfg.c **** }
  45              		.loc 1 65 0
  46 0014 0837     		adds	r7, r7, #8
  47              		.cfi_def_cfa_offset 8
  48 0016 BD46     		mov	sp, r7
  49              		.cfi_def_cfa_register 13
ARM GAS  C:\Users\glenn\AppData\Local\Temp\cc934L16.s 			page 3


  50              		@ sp needed
  51 0018 80BD     		pop	{r7, pc}
  52              		.cfi_endproc
  53              	.LFE0:
  54              		.size	CYMEMZERO, .-CYMEMZERO
  55 001a 00BF     		.section	.text.CYCONFIGCPY,"ax",%progbits
  56              		.align	2
  57              		.thumb
  58              		.thumb_func
  59              		.type	CYCONFIGCPY, %function
  60              	CYCONFIGCPY:
  61              	.LFB1:
  66:.\Generated_Source\PSoC5/cyfitter_cfg.c **** CY_CFG_UNUSED
  67:.\Generated_Source\PSoC5/cyfitter_cfg.c **** static void CYCONFIGCPY(void *dest, const void *src, size_t n);
  68:.\Generated_Source\PSoC5/cyfitter_cfg.c **** CY_CFG_UNUSED
  69:.\Generated_Source\PSoC5/cyfitter_cfg.c **** static void CYCONFIGCPY(void *dest, const void *src, size_t n)
  70:.\Generated_Source\PSoC5/cyfitter_cfg.c **** {
  62              		.loc 1 70 0
  63              		.cfi_startproc
  64              		@ args = 0, pretend = 0, frame = 16
  65              		@ frame_needed = 1, uses_anonymous_args = 0
  66 0000 80B5     		push	{r7, lr}
  67              		.cfi_def_cfa_offset 8
  68              		.cfi_offset 7, -8
  69              		.cfi_offset 14, -4
  70 0002 84B0     		sub	sp, sp, #16
  71              		.cfi_def_cfa_offset 24
  72 0004 00AF     		add	r7, sp, #0
  73              		.cfi_def_cfa_register 7
  74 0006 F860     		str	r0, [r7, #12]
  75 0008 B960     		str	r1, [r7, #8]
  76 000a 7A60     		str	r2, [r7, #4]
  71:.\Generated_Source\PSoC5/cyfitter_cfg.c **** 	(void)memcpy(dest, src, n);
  77              		.loc 1 71 0
  78 000c F868     		ldr	r0, [r7, #12]
  79 000e B968     		ldr	r1, [r7, #8]
  80 0010 7A68     		ldr	r2, [r7, #4]
  81 0012 FFF7FEFF 		bl	memcpy
  72:.\Generated_Source\PSoC5/cyfitter_cfg.c **** }
  82              		.loc 1 72 0
  83 0016 1037     		adds	r7, r7, #16
  84              		.cfi_def_cfa_offset 8
  85 0018 BD46     		mov	sp, r7
  86              		.cfi_def_cfa_register 13
  87              		@ sp needed
  88 001a 80BD     		pop	{r7, pc}
  89              		.cfi_endproc
  90              	.LFE1:
  91              		.size	CYCONFIGCPY, .-CYCONFIGCPY
  92              		.section	.text.CYCONFIGCPYCODE,"ax",%progbits
  93              		.align	2
  94              		.thumb
  95              		.thumb_func
  96              		.type	CYCONFIGCPYCODE, %function
  97              	CYCONFIGCPYCODE:
  98              	.LFB2:
  73:.\Generated_Source\PSoC5/cyfitter_cfg.c **** CY_CFG_UNUSED
ARM GAS  C:\Users\glenn\AppData\Local\Temp\cc934L16.s 			page 4


  74:.\Generated_Source\PSoC5/cyfitter_cfg.c **** static void CYCONFIGCPYCODE(void *dest, const void *src, size_t n);
  75:.\Generated_Source\PSoC5/cyfitter_cfg.c **** CY_CFG_UNUSED
  76:.\Generated_Source\PSoC5/cyfitter_cfg.c **** static void CYCONFIGCPYCODE(void *dest, const void *src, size_t n)
  77:.\Generated_Source\PSoC5/cyfitter_cfg.c **** {
  99              		.loc 1 77 0
 100              		.cfi_startproc
 101              		@ args = 0, pretend = 0, frame = 16
 102              		@ frame_needed = 1, uses_anonymous_args = 0
 103 0000 80B5     		push	{r7, lr}
 104              		.cfi_def_cfa_offset 8
 105              		.cfi_offset 7, -8
 106              		.cfi_offset 14, -4
 107 0002 84B0     		sub	sp, sp, #16
 108              		.cfi_def_cfa_offset 24
 109 0004 00AF     		add	r7, sp, #0
 110              		.cfi_def_cfa_register 7
 111 0006 F860     		str	r0, [r7, #12]
 112 0008 B960     		str	r1, [r7, #8]
 113 000a 7A60     		str	r2, [r7, #4]
  78:.\Generated_Source\PSoC5/cyfitter_cfg.c **** 	(void)memcpy(dest, src, n);
 114              		.loc 1 78 0
 115 000c F868     		ldr	r0, [r7, #12]
 116 000e B968     		ldr	r1, [r7, #8]
 117 0010 7A68     		ldr	r2, [r7, #4]
 118 0012 FFF7FEFF 		bl	memcpy
  79:.\Generated_Source\PSoC5/cyfitter_cfg.c **** }
 119              		.loc 1 79 0
 120 0016 1037     		adds	r7, r7, #16
 121              		.cfi_def_cfa_offset 8
 122 0018 BD46     		mov	sp, r7
 123              		.cfi_def_cfa_register 13
 124              		@ sp needed
 125 001a 80BD     		pop	{r7, pc}
 126              		.cfi_endproc
 127              	.LFE2:
 128              		.size	CYCONFIGCPYCODE, .-CYCONFIGCPYCODE
 129              		.section	.text.CyClockStartupError,"ax",%progbits
 130              		.align	2
 131              		.thumb
 132              		.thumb_func
 133              		.type	CyClockStartupError, %function
 134              	CyClockStartupError:
 135              	.LFB3:
  80:.\Generated_Source\PSoC5/cyfitter_cfg.c **** 
  81:.\Generated_Source\PSoC5/cyfitter_cfg.c **** 
  82:.\Generated_Source\PSoC5/cyfitter_cfg.c **** 
  83:.\Generated_Source\PSoC5/cyfitter_cfg.c **** /* Clock startup error codes                                                   */
  84:.\Generated_Source\PSoC5/cyfitter_cfg.c **** #define CYCLOCKSTART_NO_ERROR    0u
  85:.\Generated_Source\PSoC5/cyfitter_cfg.c **** #define CYCLOCKSTART_XTAL_ERROR  1u
  86:.\Generated_Source\PSoC5/cyfitter_cfg.c **** #define CYCLOCKSTART_32KHZ_ERROR 2u
  87:.\Generated_Source\PSoC5/cyfitter_cfg.c **** #define CYCLOCKSTART_PLL_ERROR   3u
  88:.\Generated_Source\PSoC5/cyfitter_cfg.c **** 
  89:.\Generated_Source\PSoC5/cyfitter_cfg.c **** #ifdef CY_NEED_CYCLOCKSTARTUPERROR
  90:.\Generated_Source\PSoC5/cyfitter_cfg.c **** /*******************************************************************************
  91:.\Generated_Source\PSoC5/cyfitter_cfg.c **** * Function Name: CyClockStartupError
  92:.\Generated_Source\PSoC5/cyfitter_cfg.c **** ********************************************************************************
  93:.\Generated_Source\PSoC5/cyfitter_cfg.c **** * Summary:
ARM GAS  C:\Users\glenn\AppData\Local\Temp\cc934L16.s 			page 5


  94:.\Generated_Source\PSoC5/cyfitter_cfg.c **** *  If an error is encountered during clock configuration (crystal startup error,
  95:.\Generated_Source\PSoC5/cyfitter_cfg.c **** *  PLL lock error, etc.), the system will end up here.  Unless reimplemented by
  96:.\Generated_Source\PSoC5/cyfitter_cfg.c **** *  the customer, this function will stop in an infinite loop.
  97:.\Generated_Source\PSoC5/cyfitter_cfg.c **** *
  98:.\Generated_Source\PSoC5/cyfitter_cfg.c **** * Parameters:
  99:.\Generated_Source\PSoC5/cyfitter_cfg.c **** *   void
 100:.\Generated_Source\PSoC5/cyfitter_cfg.c **** *
 101:.\Generated_Source\PSoC5/cyfitter_cfg.c **** * Return:
 102:.\Generated_Source\PSoC5/cyfitter_cfg.c **** *   void
 103:.\Generated_Source\PSoC5/cyfitter_cfg.c **** *
 104:.\Generated_Source\PSoC5/cyfitter_cfg.c **** *******************************************************************************/
 105:.\Generated_Source\PSoC5/cyfitter_cfg.c **** CY_CFG_UNUSED
 106:.\Generated_Source\PSoC5/cyfitter_cfg.c **** static void CyClockStartupError(uint8 errorCode);
 107:.\Generated_Source\PSoC5/cyfitter_cfg.c **** CY_CFG_UNUSED
 108:.\Generated_Source\PSoC5/cyfitter_cfg.c **** static void CyClockStartupError(uint8 errorCode)
 109:.\Generated_Source\PSoC5/cyfitter_cfg.c **** {
 136              		.loc 1 109 0
 137              		.cfi_startproc
 138              		@ args = 0, pretend = 0, frame = 8
 139              		@ frame_needed = 1, uses_anonymous_args = 0
 140              		@ link register save eliminated.
 141 0000 80B4     		push	{r7}
 142              		.cfi_def_cfa_offset 4
 143              		.cfi_offset 7, -4
 144 0002 83B0     		sub	sp, sp, #12
 145              		.cfi_def_cfa_offset 16
 146 0004 00AF     		add	r7, sp, #0
 147              		.cfi_def_cfa_register 7
 148 0006 0346     		mov	r3, r0
 149 0008 FB71     		strb	r3, [r7, #7]
 150              	.L5:
 110:.\Generated_Source\PSoC5/cyfitter_cfg.c ****     /* To remove the compiler warning if errorCode not used.                */
 111:.\Generated_Source\PSoC5/cyfitter_cfg.c ****     errorCode = errorCode;
 112:.\Generated_Source\PSoC5/cyfitter_cfg.c **** 
 113:.\Generated_Source\PSoC5/cyfitter_cfg.c ****     /* `#START CyClockStartupError` */
 114:.\Generated_Source\PSoC5/cyfitter_cfg.c **** 
 115:.\Generated_Source\PSoC5/cyfitter_cfg.c ****     /* If we have a clock startup error (bad MHz crystal, PLL lock, etc.),  */
 116:.\Generated_Source\PSoC5/cyfitter_cfg.c ****     /* we will end up here to allow the customer to implement something to  */
 117:.\Generated_Source\PSoC5/cyfitter_cfg.c ****     /* deal with the clock condition.                                       */
 118:.\Generated_Source\PSoC5/cyfitter_cfg.c **** 
 119:.\Generated_Source\PSoC5/cyfitter_cfg.c ****     /* `#END` */
 120:.\Generated_Source\PSoC5/cyfitter_cfg.c **** 
 121:.\Generated_Source\PSoC5/cyfitter_cfg.c ****     /* If nothing else, stop here since the clocks have not started         */
 122:.\Generated_Source\PSoC5/cyfitter_cfg.c ****     /* correctly.                                                           */
 123:.\Generated_Source\PSoC5/cyfitter_cfg.c ****     while(1) {}
 151              		.loc 1 123 0 discriminator 1
 152 000a FEE7     		b	.L5
 153              		.cfi_endproc
 154              	.LFE3:
 155              		.size	CyClockStartupError, .-CyClockStartupError
 156              		.section	.text.cfg_write_bytes32,"ax",%progbits
 157              		.align	2
 158              		.thumb
 159              		.thumb_func
 160              		.type	cfg_write_bytes32, %function
 161              	cfg_write_bytes32:
 162              	.LFB4:
ARM GAS  C:\Users\glenn\AppData\Local\Temp\cc934L16.s 			page 6


 124:.\Generated_Source\PSoC5/cyfitter_cfg.c **** }
 125:.\Generated_Source\PSoC5/cyfitter_cfg.c **** #endif
 126:.\Generated_Source\PSoC5/cyfitter_cfg.c **** 
 127:.\Generated_Source\PSoC5/cyfitter_cfg.c **** #define CY_CFG_BASE_ADDR_COUNT 38u
 128:.\Generated_Source\PSoC5/cyfitter_cfg.c **** CYPACKED typedef struct
 129:.\Generated_Source\PSoC5/cyfitter_cfg.c **** {
 130:.\Generated_Source\PSoC5/cyfitter_cfg.c **** 	uint8 offset;
 131:.\Generated_Source\PSoC5/cyfitter_cfg.c **** 	uint8 value;
 132:.\Generated_Source\PSoC5/cyfitter_cfg.c **** } CYPACKED_ATTR cy_cfg_addrvalue_t;
 133:.\Generated_Source\PSoC5/cyfitter_cfg.c **** 
 134:.\Generated_Source\PSoC5/cyfitter_cfg.c **** 
 135:.\Generated_Source\PSoC5/cyfitter_cfg.c **** 
 136:.\Generated_Source\PSoC5/cyfitter_cfg.c **** /*******************************************************************************
 137:.\Generated_Source\PSoC5/cyfitter_cfg.c **** * Function Name: cfg_write_bytes32
 138:.\Generated_Source\PSoC5/cyfitter_cfg.c **** ********************************************************************************
 139:.\Generated_Source\PSoC5/cyfitter_cfg.c **** * Summary:
 140:.\Generated_Source\PSoC5/cyfitter_cfg.c **** *  This function is used for setting up the chip configuration areas that
 141:.\Generated_Source\PSoC5/cyfitter_cfg.c **** *  contain relatively sparse data.
 142:.\Generated_Source\PSoC5/cyfitter_cfg.c **** *
 143:.\Generated_Source\PSoC5/cyfitter_cfg.c **** * Parameters:
 144:.\Generated_Source\PSoC5/cyfitter_cfg.c **** *   void
 145:.\Generated_Source\PSoC5/cyfitter_cfg.c **** *
 146:.\Generated_Source\PSoC5/cyfitter_cfg.c **** * Return:
 147:.\Generated_Source\PSoC5/cyfitter_cfg.c **** *   void
 148:.\Generated_Source\PSoC5/cyfitter_cfg.c **** *
 149:.\Generated_Source\PSoC5/cyfitter_cfg.c **** *******************************************************************************/
 150:.\Generated_Source\PSoC5/cyfitter_cfg.c **** static void cfg_write_bytes32(const uint32 addr_table[], const cy_cfg_addrvalue_t data_table[]);
 151:.\Generated_Source\PSoC5/cyfitter_cfg.c **** static void cfg_write_bytes32(const uint32 addr_table[], const cy_cfg_addrvalue_t data_table[])
 152:.\Generated_Source\PSoC5/cyfitter_cfg.c **** {
 163              		.loc 1 152 0
 164              		.cfi_startproc
 165              		@ args = 0, pretend = 0, frame = 24
 166              		@ frame_needed = 1, uses_anonymous_args = 0
 167              		@ link register save eliminated.
 168 0000 80B4     		push	{r7}
 169              		.cfi_def_cfa_offset 4
 170              		.cfi_offset 7, -4
 171 0002 87B0     		sub	sp, sp, #28
 172              		.cfi_def_cfa_offset 32
 173 0004 00AF     		add	r7, sp, #0
 174              		.cfi_def_cfa_register 7
 175 0006 7860     		str	r0, [r7, #4]
 176 0008 3960     		str	r1, [r7]
 153:.\Generated_Source\PSoC5/cyfitter_cfg.c **** 	/* For 32-bit little-endian architectures */
 154:.\Generated_Source\PSoC5/cyfitter_cfg.c **** 	uint32 i, j = 0u;
 177              		.loc 1 154 0
 178 000a 0023     		movs	r3, #0
 179 000c 3B61     		str	r3, [r7, #16]
 155:.\Generated_Source\PSoC5/cyfitter_cfg.c **** 	for (i = 0u; i < CY_CFG_BASE_ADDR_COUNT; i++)
 180              		.loc 1 155 0
 181 000e 0023     		movs	r3, #0
 182 0010 7B61     		str	r3, [r7, #20]
 183 0012 27E0     		b	.L7
 184              	.L10:
 185              	.LBB2:
 156:.\Generated_Source\PSoC5/cyfitter_cfg.c **** 	{
 157:.\Generated_Source\PSoC5/cyfitter_cfg.c **** 		uint32 baseAddr = addr_table[i];
ARM GAS  C:\Users\glenn\AppData\Local\Temp\cc934L16.s 			page 7


 186              		.loc 1 157 0
 187 0014 7B69     		ldr	r3, [r7, #20]
 188 0016 9B00     		lsls	r3, r3, #2
 189 0018 7A68     		ldr	r2, [r7, #4]
 190 001a 1344     		add	r3, r3, r2
 191 001c 1B68     		ldr	r3, [r3]
 192 001e BB60     		str	r3, [r7, #8]
 158:.\Generated_Source\PSoC5/cyfitter_cfg.c **** 		uint8 count = (uint8)baseAddr;
 193              		.loc 1 158 0
 194 0020 BB68     		ldr	r3, [r7, #8]
 195 0022 FB73     		strb	r3, [r7, #15]
 159:.\Generated_Source\PSoC5/cyfitter_cfg.c **** 		baseAddr &= 0xFFFFFF00u;
 196              		.loc 1 159 0
 197 0024 BB68     		ldr	r3, [r7, #8]
 198 0026 23F0FF03 		bic	r3, r3, #255
 199 002a BB60     		str	r3, [r7, #8]
 160:.\Generated_Source\PSoC5/cyfitter_cfg.c **** 		while (count != 0u)
 200              		.loc 1 160 0
 201 002c 14E0     		b	.L8
 202              	.L9:
 161:.\Generated_Source\PSoC5/cyfitter_cfg.c **** 		{
 162:.\Generated_Source\PSoC5/cyfitter_cfg.c **** 			CY_SET_XTND_REG8((void CYFAR *)(baseAddr + data_table[j].offset), data_table[j].value);
 203              		.loc 1 162 0
 204 002e 3B69     		ldr	r3, [r7, #16]
 205 0030 5B00     		lsls	r3, r3, #1
 206 0032 3A68     		ldr	r2, [r7]
 207 0034 1344     		add	r3, r3, r2
 208 0036 1B78     		ldrb	r3, [r3]	@ zero_extendqisi2
 209 0038 1A46     		mov	r2, r3
 210 003a BB68     		ldr	r3, [r7, #8]
 211 003c 1344     		add	r3, r3, r2
 212 003e 1946     		mov	r1, r3
 213 0040 3B69     		ldr	r3, [r7, #16]
 214 0042 5B00     		lsls	r3, r3, #1
 215 0044 3A68     		ldr	r2, [r7]
 216 0046 1344     		add	r3, r3, r2
 217 0048 5B78     		ldrb	r3, [r3, #1]	@ zero_extendqisi2
 218 004a 0B70     		strb	r3, [r1]
 163:.\Generated_Source\PSoC5/cyfitter_cfg.c **** 			j++;
 219              		.loc 1 163 0
 220 004c 3B69     		ldr	r3, [r7, #16]
 221 004e 0133     		adds	r3, r3, #1
 222 0050 3B61     		str	r3, [r7, #16]
 164:.\Generated_Source\PSoC5/cyfitter_cfg.c **** 			count--;
 223              		.loc 1 164 0
 224 0052 FB7B     		ldrb	r3, [r7, #15]	@ zero_extendqisi2
 225 0054 013B     		subs	r3, r3, #1
 226 0056 FB73     		strb	r3, [r7, #15]
 227              	.L8:
 160:.\Generated_Source\PSoC5/cyfitter_cfg.c **** 		{
 228              		.loc 1 160 0
 229 0058 FB7B     		ldrb	r3, [r7, #15]	@ zero_extendqisi2
 230 005a 002B     		cmp	r3, #0
 231 005c E7D1     		bne	.L9
 232              	.LBE2:
 155:.\Generated_Source\PSoC5/cyfitter_cfg.c **** 	{
 233              		.loc 1 155 0 discriminator 2
ARM GAS  C:\Users\glenn\AppData\Local\Temp\cc934L16.s 			page 8


 234 005e 7B69     		ldr	r3, [r7, #20]
 235 0060 0133     		adds	r3, r3, #1
 236 0062 7B61     		str	r3, [r7, #20]
 237              	.L7:
 155:.\Generated_Source\PSoC5/cyfitter_cfg.c **** 	{
 238              		.loc 1 155 0 is_stmt 0 discriminator 1
 239 0064 7B69     		ldr	r3, [r7, #20]
 240 0066 252B     		cmp	r3, #37
 241 0068 D4D9     		bls	.L10
 165:.\Generated_Source\PSoC5/cyfitter_cfg.c **** 		}
 166:.\Generated_Source\PSoC5/cyfitter_cfg.c **** 	}
 167:.\Generated_Source\PSoC5/cyfitter_cfg.c **** }
 242              		.loc 1 167 0 is_stmt 1
 243 006a 1C37     		adds	r7, r7, #28
 244              		.cfi_def_cfa_offset 4
 245 006c BD46     		mov	sp, r7
 246              		.cfi_def_cfa_register 13
 247              		@ sp needed
 248 006e 5DF8047B 		ldr	r7, [sp], #4
 249              		.cfi_restore 7
 250              		.cfi_def_cfa_offset 0
 251 0072 7047     		bx	lr
 252              		.cfi_endproc
 253              	.LFE4:
 254              		.size	cfg_write_bytes32, .-cfg_write_bytes32
 255              		.section	.text.ClockSetup,"ax",%progbits
 256              		.align	2
 257              		.thumb
 258              		.thumb_func
 259              		.type	ClockSetup, %function
 260              	ClockSetup:
 261              	.LFB5:
 168:.\Generated_Source\PSoC5/cyfitter_cfg.c **** 
 169:.\Generated_Source\PSoC5/cyfitter_cfg.c **** /*******************************************************************************
 170:.\Generated_Source\PSoC5/cyfitter_cfg.c **** * Function Name: ClockSetup
 171:.\Generated_Source\PSoC5/cyfitter_cfg.c **** ********************************************************************************
 172:.\Generated_Source\PSoC5/cyfitter_cfg.c **** *
 173:.\Generated_Source\PSoC5/cyfitter_cfg.c **** * Summary:
 174:.\Generated_Source\PSoC5/cyfitter_cfg.c **** *  Performs the initialization of all of the clocks in the device based on the
 175:.\Generated_Source\PSoC5/cyfitter_cfg.c **** *  settings in the Clock tab of the DWR.  This includes enabling the requested
 176:.\Generated_Source\PSoC5/cyfitter_cfg.c **** *  clocks and setting the necessary dividers to produce the desired frequency. 
 177:.\Generated_Source\PSoC5/cyfitter_cfg.c **** *
 178:.\Generated_Source\PSoC5/cyfitter_cfg.c **** * Parameters:
 179:.\Generated_Source\PSoC5/cyfitter_cfg.c **** *  void
 180:.\Generated_Source\PSoC5/cyfitter_cfg.c **** *
 181:.\Generated_Source\PSoC5/cyfitter_cfg.c **** * Return:
 182:.\Generated_Source\PSoC5/cyfitter_cfg.c **** *  void
 183:.\Generated_Source\PSoC5/cyfitter_cfg.c **** *
 184:.\Generated_Source\PSoC5/cyfitter_cfg.c **** *******************************************************************************/
 185:.\Generated_Source\PSoC5/cyfitter_cfg.c **** static void ClockSetup(void);
 186:.\Generated_Source\PSoC5/cyfitter_cfg.c **** static void ClockSetup(void)
 187:.\Generated_Source\PSoC5/cyfitter_cfg.c **** {
 262              		.loc 1 187 0
 263              		.cfi_startproc
 264              		@ args = 0, pretend = 0, frame = 8
 265              		@ frame_needed = 1, uses_anonymous_args = 0
 266 0000 80B5     		push	{r7, lr}
ARM GAS  C:\Users\glenn\AppData\Local\Temp\cc934L16.s 			page 9


 267              		.cfi_def_cfa_offset 8
 268              		.cfi_offset 7, -8
 269              		.cfi_offset 14, -4
 270 0002 82B0     		sub	sp, sp, #8
 271              		.cfi_def_cfa_offset 16
 272 0004 00AF     		add	r7, sp, #0
 273              		.cfi_def_cfa_register 7
 188:.\Generated_Source\PSoC5/cyfitter_cfg.c **** 	/* CYDEV_CLKDIST_ACFG0_CFG0 Address: CYREG_CLKDIST_ACFG0_CFG0 Size (bytes): 4 */
 189:.\Generated_Source\PSoC5/cyfitter_cfg.c **** 	static const uint8 CYCODE BS_CYDEV_CLKDIST_ACFG0_CFG0_VAL[] = {
 190:.\Generated_Source\PSoC5/cyfitter_cfg.c **** 		0x14u, 0x00u, 0x18u, 0x01u};
 191:.\Generated_Source\PSoC5/cyfitter_cfg.c **** 
 192:.\Generated_Source\PSoC5/cyfitter_cfg.c **** 	uint8 x32TrHold;
 193:.\Generated_Source\PSoC5/cyfitter_cfg.c **** 	uint32 timeout;
 194:.\Generated_Source\PSoC5/cyfitter_cfg.c **** 	uint8 pllLock;
 195:.\Generated_Source\PSoC5/cyfitter_cfg.c **** 
 196:.\Generated_Source\PSoC5/cyfitter_cfg.c **** 	x32TrHold = CY_GET_XTND_REG8((void CYFAR *)CYREG_X32_TR);
 274              		.loc 1 196 0
 275 0006 634B     		ldr	r3, .L19
 276 0008 1B78     		ldrb	r3, [r3]
 277 000a BB70     		strb	r3, [r7, #2]
 197:.\Generated_Source\PSoC5/cyfitter_cfg.c **** 
 198:.\Generated_Source\PSoC5/cyfitter_cfg.c **** 	/* Configure Digital Clocks based on settings from Clock DWR */
 199:.\Generated_Source\PSoC5/cyfitter_cfg.c **** 	CY_SET_XTND_REG16((void CYFAR *)(CYREG_CLKDIST_DCFG0_CFG0), 0x0000u);
 278              		.loc 1 199 0
 279 000c 624B     		ldr	r3, .L19+4
 280 000e 0022     		movs	r2, #0
 281 0010 1A80     		strh	r2, [r3]	@ movhi
 200:.\Generated_Source\PSoC5/cyfitter_cfg.c **** 	CY_SET_XTND_REG8((void CYFAR *)(CYREG_CLKDIST_DCFG0_CFG0 + 0x2u), 0x50u);
 282              		.loc 1 200 0
 283 0012 624B     		ldr	r3, .L19+8
 284 0014 5022     		movs	r2, #80
 285 0016 1A70     		strb	r2, [r3]
 201:.\Generated_Source\PSoC5/cyfitter_cfg.c **** 	CY_SET_XTND_REG16((void CYFAR *)(CYREG_CLKDIST_DCFG1_CFG0), 0x0027u);
 286              		.loc 1 201 0
 287 0018 614B     		ldr	r3, .L19+12
 288 001a 2722     		movs	r2, #39
 289 001c 1A80     		strh	r2, [r3]	@ movhi
 202:.\Generated_Source\PSoC5/cyfitter_cfg.c **** 	CY_SET_XTND_REG8((void CYFAR *)(CYREG_CLKDIST_DCFG1_CFG0 + 0x2u), 0x18u);
 290              		.loc 1 202 0
 291 001e 614B     		ldr	r3, .L19+16
 292 0020 1822     		movs	r2, #24
 293 0022 1A70     		strb	r2, [r3]
 203:.\Generated_Source\PSoC5/cyfitter_cfg.c **** 	CY_SET_XTND_REG16((void CYFAR *)(CYREG_CLKDIST_DCFG2_CFG0), 0x004Du);
 294              		.loc 1 203 0
 295 0024 604B     		ldr	r3, .L19+20
 296 0026 4D22     		movs	r2, #77
 297 0028 1A80     		strh	r2, [r3]	@ movhi
 204:.\Generated_Source\PSoC5/cyfitter_cfg.c **** 	CY_SET_XTND_REG8((void CYFAR *)(CYREG_CLKDIST_DCFG2_CFG0 + 0x2u), 0x19u);
 298              		.loc 1 204 0
 299 002a 604B     		ldr	r3, .L19+24
 300 002c 1922     		movs	r2, #25
 301 002e 1A70     		strb	r2, [r3]
 205:.\Generated_Source\PSoC5/cyfitter_cfg.c **** 	CY_SET_XTND_REG16((void CYFAR *)(CYREG_CLKDIST_DCFG3_CFG0), 0x2EDFu);
 302              		.loc 1 205 0
 303 0030 5F4B     		ldr	r3, .L19+28
 304 0032 42F6DF62 		movw	r2, #11999
 305 0036 1A80     		strh	r2, [r3]	@ movhi
ARM GAS  C:\Users\glenn\AppData\Local\Temp\cc934L16.s 			page 10


 206:.\Generated_Source\PSoC5/cyfitter_cfg.c **** 	CY_SET_XTND_REG8((void CYFAR *)(CYREG_CLKDIST_DCFG3_CFG0 + 0x2u), 0x19u);
 306              		.loc 1 206 0
 307 0038 5E4B     		ldr	r3, .L19+32
 308 003a 1922     		movs	r2, #25
 309 003c 1A70     		strb	r2, [r3]
 207:.\Generated_Source\PSoC5/cyfitter_cfg.c **** 	CY_SET_XTND_REG16((void CYFAR *)(CYREG_CLKDIST_DCFG4_CFG0), 0x5DBFu);
 310              		.loc 1 207 0
 311 003e 5E4B     		ldr	r3, .L19+36
 312 0040 45F6BF52 		movw	r2, #23999
 313 0044 1A80     		strh	r2, [r3]	@ movhi
 208:.\Generated_Source\PSoC5/cyfitter_cfg.c **** 	CY_SET_XTND_REG8((void CYFAR *)(CYREG_CLKDIST_DCFG4_CFG0 + 0x2u), 0x19u);
 314              		.loc 1 208 0
 315 0046 5D4B     		ldr	r3, .L19+40
 316 0048 1922     		movs	r2, #25
 317 004a 1A70     		strb	r2, [r3]
 209:.\Generated_Source\PSoC5/cyfitter_cfg.c **** 	CY_SET_XTND_REG16((void CYFAR *)(CYREG_CLKDIST_DCFG5_CFG0), 0x0110u);
 318              		.loc 1 209 0
 319 004c 5C4B     		ldr	r3, .L19+44
 320 004e 4FF48872 		mov	r2, #272
 321 0052 1A80     		strh	r2, [r3]	@ movhi
 210:.\Generated_Source\PSoC5/cyfitter_cfg.c **** 	CY_SET_XTND_REG8((void CYFAR *)(CYREG_CLKDIST_DCFG5_CFG0 + 0x2u), 0x1Du);
 322              		.loc 1 210 0
 323 0054 5B4B     		ldr	r3, .L19+48
 324 0056 1D22     		movs	r2, #29
 325 0058 1A70     		strb	r2, [r3]
 211:.\Generated_Source\PSoC5/cyfitter_cfg.c **** 	CY_SET_XTND_REG16((void CYFAR *)(CYREG_CLKDIST_DCFG6_CFG0), 0x028Eu);
 326              		.loc 1 211 0
 327 005a 5B4B     		ldr	r3, .L19+52
 328 005c 40F28E22 		movw	r2, #654
 329 0060 1A80     		strh	r2, [r3]	@ movhi
 212:.\Generated_Source\PSoC5/cyfitter_cfg.c **** 	CY_SET_XTND_REG8((void CYFAR *)(CYREG_CLKDIST_DCFG6_CFG0 + 0x2u), 0x1Du);
 330              		.loc 1 212 0
 331 0062 5A4B     		ldr	r3, .L19+56
 332 0064 1D22     		movs	r2, #29
 333 0066 1A70     		strb	r2, [r3]
 213:.\Generated_Source\PSoC5/cyfitter_cfg.c **** 
 214:.\Generated_Source\PSoC5/cyfitter_cfg.c **** 	/* Configure Analog Clocks based on settings from Clock DWR */
 215:.\Generated_Source\PSoC5/cyfitter_cfg.c **** 	CYCONFIGCPYCODE((void CYFAR *)(CYREG_CLKDIST_ACFG0_CFG0), (const void CYCODE *)(BS_CYDEV_CLKDIST_A
 334              		.loc 1 215 0
 335 0068 5948     		ldr	r0, .L19+60
 336 006a 5A49     		ldr	r1, .L19+64
 337 006c 0422     		movs	r2, #4
 338 006e FFF7FEFF 		bl	CYCONFIGCPYCODE
 216:.\Generated_Source\PSoC5/cyfitter_cfg.c **** 
 217:.\Generated_Source\PSoC5/cyfitter_cfg.c **** 	/* Configure ILO based on settings from Clock DWR */
 218:.\Generated_Source\PSoC5/cyfitter_cfg.c **** 	CY_SET_XTND_REG8((void CYFAR *)(CYREG_SLOWCLK_ILO_CR0), 0x06u);
 339              		.loc 1 218 0
 340 0072 594B     		ldr	r3, .L19+68
 341 0074 0622     		movs	r2, #6
 342 0076 1A70     		strb	r2, [r3]
 219:.\Generated_Source\PSoC5/cyfitter_cfg.c **** 
 220:.\Generated_Source\PSoC5/cyfitter_cfg.c **** 	/* Configure XTAL 32kHz based on settings from Clock DWR */
 221:.\Generated_Source\PSoC5/cyfitter_cfg.c **** 	CY_SET_XTND_REG8((void CYFAR *)(CYREG_SLOWCLK_X32_TST), 0xF3u);
 343              		.loc 1 221 0
 344 0078 584B     		ldr	r3, .L19+72
 345 007a F322     		movs	r2, #243
 346 007c 1A70     		strb	r2, [r3]
ARM GAS  C:\Users\glenn\AppData\Local\Temp\cc934L16.s 			page 11


 222:.\Generated_Source\PSoC5/cyfitter_cfg.c **** 	CY_SET_XTND_REG8((void CYFAR *)(CYREG_X32_TR), 0x03u);
 347              		.loc 1 222 0
 348 007e 454B     		ldr	r3, .L19
 349 0080 0322     		movs	r2, #3
 350 0082 1A70     		strb	r2, [r3]
 223:.\Generated_Source\PSoC5/cyfitter_cfg.c **** 	CY_SET_XTND_REG8((void CYFAR *)(CYREG_SLOWCLK_X32_CFG), 0x84u);
 351              		.loc 1 223 0
 352 0084 564B     		ldr	r3, .L19+76
 353 0086 8422     		movs	r2, #132
 354 0088 1A70     		strb	r2, [r3]
 224:.\Generated_Source\PSoC5/cyfitter_cfg.c **** 	CY_SET_XTND_REG8((void CYFAR *)(CYREG_SLOWCLK_X32_CR), 0x05u);
 355              		.loc 1 224 0
 356 008a 564B     		ldr	r3, .L19+80
 357 008c 0522     		movs	r2, #5
 358 008e 1A70     		strb	r2, [r3]
 225:.\Generated_Source\PSoC5/cyfitter_cfg.c **** 	/* Wait up to 1000000us for the XTAL 32kHz to lock */
 226:.\Generated_Source\PSoC5/cyfitter_cfg.c **** 	for (timeout = 1000000u / 10u; (timeout > 0u) && ((CY_GET_XTND_REG8((void CYFAR *)CYREG_SLOWCLK_X3
 359              		.loc 1 226 0
 360 0090 554B     		ldr	r3, .L19+84
 361 0092 7B60     		str	r3, [r7, #4]
 362 0094 06E0     		b	.L12
 363              	.L14:
 227:.\Generated_Source\PSoC5/cyfitter_cfg.c **** 	{ 
 228:.\Generated_Source\PSoC5/cyfitter_cfg.c **** 		
 229:.\Generated_Source\PSoC5/cyfitter_cfg.c **** 		CyDelayCycles(10u * 48u); /* Delay 10us based on 48MHz clock */
 364              		.loc 1 229 0 discriminator 4
 365 0096 4FF4F070 		mov	r0, #480
 366 009a FFF7FEFF 		bl	CyDelayCycles
 226:.\Generated_Source\PSoC5/cyfitter_cfg.c **** 	{ 
 367              		.loc 1 226 0 discriminator 4
 368 009e 7B68     		ldr	r3, [r7, #4]
 369 00a0 013B     		subs	r3, r3, #1
 370 00a2 7B60     		str	r3, [r7, #4]
 371              	.L12:
 226:.\Generated_Source\PSoC5/cyfitter_cfg.c **** 	{ 
 372              		.loc 1 226 0 is_stmt 0 discriminator 1
 373 00a4 7B68     		ldr	r3, [r7, #4]
 374 00a6 002B     		cmp	r3, #0
 375 00a8 06D0     		beq	.L13
 226:.\Generated_Source\PSoC5/cyfitter_cfg.c **** 	{ 
 376              		.loc 1 226 0 discriminator 3
 377 00aa 4E4B     		ldr	r3, .L19+80
 378 00ac 1B78     		ldrb	r3, [r3]
 379 00ae DBB2     		uxtb	r3, r3
 380 00b0 03F02003 		and	r3, r3, #32
 381 00b4 002B     		cmp	r3, #0
 382 00b6 EED0     		beq	.L14
 383              	.L13:
 230:.\Generated_Source\PSoC5/cyfitter_cfg.c **** 	}
 231:.\Generated_Source\PSoC5/cyfitter_cfg.c **** 	CY_SET_XTND_REG8((void CYFAR *)(CYREG_X32_TR), (x32TrHold));
 384              		.loc 1 231 0 is_stmt 1
 385 00b8 364A     		ldr	r2, .L19
 386 00ba BB78     		ldrb	r3, [r7, #2]
 387 00bc 1370     		strb	r3, [r2]
 232:.\Generated_Source\PSoC5/cyfitter_cfg.c **** 
 233:.\Generated_Source\PSoC5/cyfitter_cfg.c **** 	/* Configure IMO based on settings from Clock DWR */
 234:.\Generated_Source\PSoC5/cyfitter_cfg.c **** 	CY_SET_XTND_REG8((void CYFAR *)(CYREG_FASTCLK_IMO_CR), 0x52u);
ARM GAS  C:\Users\glenn\AppData\Local\Temp\cc934L16.s 			page 12


 388              		.loc 1 234 0
 389 00be 4B4B     		ldr	r3, .L19+88
 390 00c0 5222     		movs	r2, #82
 391 00c2 1A70     		strb	r2, [r3]
 235:.\Generated_Source\PSoC5/cyfitter_cfg.c **** 	CY_SET_XTND_REG8((void CYFAR *)(CYREG_IMO_TR1), (CY_GET_XTND_REG8((void CYFAR *)CYREG_FLSHID_CUST_
 392              		.loc 1 235 0
 393 00c4 4A4B     		ldr	r3, .L19+92
 394 00c6 4B4A     		ldr	r2, .L19+96
 395 00c8 1278     		ldrb	r2, [r2]
 396 00ca D2B2     		uxtb	r2, r2
 397 00cc 1A70     		strb	r2, [r3]
 236:.\Generated_Source\PSoC5/cyfitter_cfg.c **** 
 237:.\Generated_Source\PSoC5/cyfitter_cfg.c **** 	/* Configure PLL based on settings from Clock DWR */
 238:.\Generated_Source\PSoC5/cyfitter_cfg.c **** 	CY_SET_XTND_REG16((void CYFAR *)(CYREG_FASTCLK_PLL_P), 0x0818u);
 398              		.loc 1 238 0
 399 00ce 4A4B     		ldr	r3, .L19+100
 400 00d0 40F61802 		movw	r2, #2072
 401 00d4 1A80     		strh	r2, [r3]	@ movhi
 239:.\Generated_Source\PSoC5/cyfitter_cfg.c **** 	CY_SET_XTND_REG16((void CYFAR *)(CYREG_FASTCLK_PLL_CFG0), 0x1251u);
 402              		.loc 1 239 0
 403 00d6 494B     		ldr	r3, .L19+104
 404 00d8 41F25122 		movw	r2, #4689
 405 00dc 1A80     		strh	r2, [r3]	@ movhi
 240:.\Generated_Source\PSoC5/cyfitter_cfg.c **** 	/* Wait up to 250us for the PLL to lock */
 241:.\Generated_Source\PSoC5/cyfitter_cfg.c **** 	pllLock = 0u;
 406              		.loc 1 241 0
 407 00de 0023     		movs	r3, #0
 408 00e0 FB70     		strb	r3, [r7, #3]
 242:.\Generated_Source\PSoC5/cyfitter_cfg.c **** 	for (timeout = 250u / 10u; (timeout > 0u) && (pllLock != 0x03u); timeout--)
 409              		.loc 1 242 0
 410 00e2 1923     		movs	r3, #25
 411 00e4 7B60     		str	r3, [r7, #4]
 412 00e6 14E0     		b	.L15
 413              	.L17:
 243:.\Generated_Source\PSoC5/cyfitter_cfg.c **** 	{ 
 244:.\Generated_Source\PSoC5/cyfitter_cfg.c **** 		pllLock = 0x03u & ((uint8)((uint8)pllLock << 1) | ((CY_GET_XTND_REG8((void CYFAR *)CYREG_FASTCLK_
 414              		.loc 1 244 0 discriminator 4
 415 00e8 FB78     		ldrb	r3, [r7, #3]
 416 00ea 5B00     		lsls	r3, r3, #1
 417 00ec DAB2     		uxtb	r2, r3
 418 00ee 444B     		ldr	r3, .L19+108
 419 00f0 1B78     		ldrb	r3, [r3]
 420 00f2 DBB2     		uxtb	r3, r3
 421 00f4 03F00103 		and	r3, r3, #1
 422 00f8 DBB2     		uxtb	r3, r3
 423 00fa 1343     		orrs	r3, r3, r2
 424 00fc DBB2     		uxtb	r3, r3
 425 00fe 03F00303 		and	r3, r3, #3
 426 0102 FB70     		strb	r3, [r7, #3]
 245:.\Generated_Source\PSoC5/cyfitter_cfg.c **** 		CyDelayCycles(10u * 48u); /* Delay 10us based on 48MHz clock */
 427              		.loc 1 245 0 discriminator 4
 428 0104 4FF4F070 		mov	r0, #480
 429 0108 FFF7FEFF 		bl	CyDelayCycles
 242:.\Generated_Source\PSoC5/cyfitter_cfg.c **** 	for (timeout = 250u / 10u; (timeout > 0u) && (pllLock != 0x03u); timeout--)
 430              		.loc 1 242 0 discriminator 4
 431 010c 7B68     		ldr	r3, [r7, #4]
 432 010e 013B     		subs	r3, r3, #1
ARM GAS  C:\Users\glenn\AppData\Local\Temp\cc934L16.s 			page 13


 433 0110 7B60     		str	r3, [r7, #4]
 434              	.L15:
 242:.\Generated_Source\PSoC5/cyfitter_cfg.c **** 	for (timeout = 250u / 10u; (timeout > 0u) && (pllLock != 0x03u); timeout--)
 435              		.loc 1 242 0 is_stmt 0 discriminator 1
 436 0112 7B68     		ldr	r3, [r7, #4]
 437 0114 002B     		cmp	r3, #0
 438 0116 02D0     		beq	.L16
 242:.\Generated_Source\PSoC5/cyfitter_cfg.c **** 	for (timeout = 250u / 10u; (timeout > 0u) && (pllLock != 0x03u); timeout--)
 439              		.loc 1 242 0 discriminator 3
 440 0118 FB78     		ldrb	r3, [r7, #3]	@ zero_extendqisi2
 441 011a 032B     		cmp	r3, #3
 442 011c E4D1     		bne	.L17
 443              	.L16:
 246:.\Generated_Source\PSoC5/cyfitter_cfg.c **** 	}
 247:.\Generated_Source\PSoC5/cyfitter_cfg.c **** 	/* If we ran out of time the PLL didn't lock so go to the error function */
 248:.\Generated_Source\PSoC5/cyfitter_cfg.c **** 	if (timeout == 0u)
 444              		.loc 1 248 0 is_stmt 1
 445 011e 7B68     		ldr	r3, [r7, #4]
 446 0120 002B     		cmp	r3, #0
 447 0122 02D1     		bne	.L18
 249:.\Generated_Source\PSoC5/cyfitter_cfg.c **** 	{
 250:.\Generated_Source\PSoC5/cyfitter_cfg.c **** 		CyClockStartupError(CYCLOCKSTART_PLL_ERROR);
 448              		.loc 1 250 0
 449 0124 0320     		movs	r0, #3
 450 0126 FFF7FEFF 		bl	CyClockStartupError
 451              	.L18:
 251:.\Generated_Source\PSoC5/cyfitter_cfg.c **** 	}
 252:.\Generated_Source\PSoC5/cyfitter_cfg.c **** 
 253:.\Generated_Source\PSoC5/cyfitter_cfg.c **** 	/* Configure Bus/Master Clock based on settings from Clock DWR */
 254:.\Generated_Source\PSoC5/cyfitter_cfg.c **** 	CY_SET_XTND_REG16((void CYFAR *)(CYREG_CLKDIST_MSTR0), 0x0100u);
 452              		.loc 1 254 0
 453 012a 364B     		ldr	r3, .L19+112
 454 012c 4FF48072 		mov	r2, #256
 455 0130 1A80     		strh	r2, [r3]	@ movhi
 255:.\Generated_Source\PSoC5/cyfitter_cfg.c **** 	CY_SET_XTND_REG8((void CYFAR *)(CYREG_CLKDIST_MSTR0), 0x07u);
 456              		.loc 1 255 0
 457 0132 344B     		ldr	r3, .L19+112
 458 0134 0722     		movs	r2, #7
 459 0136 1A70     		strb	r2, [r3]
 256:.\Generated_Source\PSoC5/cyfitter_cfg.c **** 	CY_SET_XTND_REG8((void CYFAR *)(CYREG_CLKDIST_BCFG0), 0x00u);
 460              		.loc 1 256 0
 461 0138 334B     		ldr	r3, .L19+116
 462 013a 0022     		movs	r2, #0
 463 013c 1A70     		strb	r2, [r3]
 257:.\Generated_Source\PSoC5/cyfitter_cfg.c **** 	CY_SET_XTND_REG8((void CYFAR *)(CYREG_CLKDIST_BCFG2), 0x48u);
 464              		.loc 1 257 0
 465 013e 334B     		ldr	r3, .L19+120
 466 0140 4822     		movs	r2, #72
 467 0142 1A70     		strb	r2, [r3]
 258:.\Generated_Source\PSoC5/cyfitter_cfg.c **** 	CY_SET_XTND_REG8((void CYFAR *)(CYREG_CLKDIST_MSTR0), 0x00u);
 468              		.loc 1 258 0
 469 0144 2F4B     		ldr	r3, .L19+112
 470 0146 0022     		movs	r2, #0
 471 0148 1A70     		strb	r2, [r3]
 259:.\Generated_Source\PSoC5/cyfitter_cfg.c **** 
 260:.\Generated_Source\PSoC5/cyfitter_cfg.c **** 	/* Configure USB Clock based on settings from Clock DWR */
 261:.\Generated_Source\PSoC5/cyfitter_cfg.c **** 	CY_SET_XTND_REG8((void CYFAR *)(CYREG_CLKDIST_UCFG), 0x00u);
ARM GAS  C:\Users\glenn\AppData\Local\Temp\cc934L16.s 			page 14


 472              		.loc 1 261 0
 473 014a 314B     		ldr	r3, .L19+124
 474 014c 0022     		movs	r2, #0
 475 014e 1A70     		strb	r2, [r3]
 262:.\Generated_Source\PSoC5/cyfitter_cfg.c **** 	CY_SET_XTND_REG8((void CYFAR *)(CYREG_CLKDIST_LD), 0x02u);
 476              		.loc 1 262 0
 477 0150 304B     		ldr	r3, .L19+128
 478 0152 0222     		movs	r2, #2
 479 0154 1A70     		strb	r2, [r3]
 263:.\Generated_Source\PSoC5/cyfitter_cfg.c **** 	CY_SET_XTND_REG8((void CYFAR *)(CYREG_CLKDIST_DLY1), 0x04u);
 480              		.loc 1 263 0
 481 0156 304B     		ldr	r3, .L19+132
 482 0158 0422     		movs	r2, #4
 483 015a 1A70     		strb	r2, [r3]
 264:.\Generated_Source\PSoC5/cyfitter_cfg.c **** 
 265:.\Generated_Source\PSoC5/cyfitter_cfg.c **** 	CY_SET_XTND_REG8((void CYFAR *)(CYREG_PM_ACT_CFG2), ((CY_GET_XTND_REG8((void CYFAR *)CYREG_PM_ACT_
 484              		.loc 1 265 0
 485 015c 2F4A     		ldr	r2, .L19+136
 486 015e 2F4B     		ldr	r3, .L19+136
 487 0160 1B78     		ldrb	r3, [r3]
 488 0162 DBB2     		uxtb	r3, r3
 489 0164 43F07F03 		orr	r3, r3, #127
 490 0168 DBB2     		uxtb	r3, r3
 491 016a 1370     		strb	r3, [r2]
 266:.\Generated_Source\PSoC5/cyfitter_cfg.c **** 	CY_SET_XTND_REG8((void CYFAR *)(CYREG_PM_ACT_CFG1), ((CY_GET_XTND_REG8((void CYFAR *)CYREG_PM_ACT_
 492              		.loc 1 266 0
 493 016c 2C4A     		ldr	r2, .L19+140
 494 016e 2C4B     		ldr	r3, .L19+140
 495 0170 1B78     		ldrb	r3, [r3]
 496 0172 DBB2     		uxtb	r3, r3
 497 0174 43F00103 		orr	r3, r3, #1
 498 0178 DBB2     		uxtb	r3, r3
 499 017a 1370     		strb	r3, [r2]
 267:.\Generated_Source\PSoC5/cyfitter_cfg.c **** 	CY_SET_XTND_REG8((void CYFAR *)(CYREG_PM_ACT_CFG0), ((CY_GET_XTND_REG8((void CYFAR *)CYREG_PM_ACT_
 500              		.loc 1 267 0
 501 017c 294A     		ldr	r2, .L19+144
 502 017e 294B     		ldr	r3, .L19+144
 503 0180 1B78     		ldrb	r3, [r3]
 504 0182 DBB2     		uxtb	r3, r3
 505 0184 63F07F03 		orn	r3, r3, #127
 506 0188 DBB2     		uxtb	r3, r3
 507 018a 1370     		strb	r3, [r2]
 268:.\Generated_Source\PSoC5/cyfitter_cfg.c **** }
 508              		.loc 1 268 0
 509 018c 0837     		adds	r7, r7, #8
 510              		.cfi_def_cfa_offset 8
 511 018e BD46     		mov	sp, r7
 512              		.cfi_def_cfa_register 13
 513              		@ sp needed
 514 0190 80BD     		pop	{r7, pc}
 515              	.L20:
 516 0192 00BF     		.align	2
 517              	.L19:
 518 0194 98460040 		.word	1073759896
 519 0198 80400040 		.word	1073758336
 520 019c 82400040 		.word	1073758338
 521 01a0 84400040 		.word	1073758340
ARM GAS  C:\Users\glenn\AppData\Local\Temp\cc934L16.s 			page 15


 522 01a4 86400040 		.word	1073758342
 523 01a8 88400040 		.word	1073758344
 524 01ac 8A400040 		.word	1073758346
 525 01b0 8C400040 		.word	1073758348
 526 01b4 8E400040 		.word	1073758350
 527 01b8 90400040 		.word	1073758352
 528 01bc 92400040 		.word	1073758354
 529 01c0 94400040 		.word	1073758356
 530 01c4 96400040 		.word	1073758358
 531 01c8 98400040 		.word	1073758360
 532 01cc 9A400040 		.word	1073758362
 533 01d0 00410040 		.word	1073758464
 534 01d4 B8000000 		.word	BS_CYDEV_CLKDIST_ACFG0_CFG0_VAL.4874
 535 01d8 00430040 		.word	1073758976
 536 01dc 0A430040 		.word	1073758986
 537 01e0 09430040 		.word	1073758985
 538 01e4 08430040 		.word	1073758984
 539 01e8 A0860100 		.word	100000
 540 01ec 00420040 		.word	1073758720
 541 01f0 A1460040 		.word	1073759905
 542 01f4 0F010049 		.word	1224737039
 543 01f8 22420040 		.word	1073758754
 544 01fc 20420040 		.word	1073758752
 545 0200 25420040 		.word	1073758757
 546 0204 04400040 		.word	1073758212
 547 0208 06400040 		.word	1073758214
 548 020c 08400040 		.word	1073758216
 549 0210 09400040 		.word	1073758217
 550 0214 01400040 		.word	1073758209
 551 0218 0B400040 		.word	1073758219
 552 021c A2430040 		.word	1073759138
 553 0220 A1430040 		.word	1073759137
 554 0224 A0430040 		.word	1073759136
 555              		.cfi_endproc
 556              	.LFE5:
 557              		.size	ClockSetup, .-ClockSetup
 558              		.section	.text.AnalogSetDefault,"ax",%progbits
 559              		.align	2
 560              		.thumb
 561              		.thumb_func
 562              		.type	AnalogSetDefault, %function
 563              	AnalogSetDefault:
 564              	.LFB6:
 269:.\Generated_Source\PSoC5/cyfitter_cfg.c **** 
 270:.\Generated_Source\PSoC5/cyfitter_cfg.c **** 
 271:.\Generated_Source\PSoC5/cyfitter_cfg.c **** /* Analog API Functions */
 272:.\Generated_Source\PSoC5/cyfitter_cfg.c **** 
 273:.\Generated_Source\PSoC5/cyfitter_cfg.c **** 
 274:.\Generated_Source\PSoC5/cyfitter_cfg.c **** /*******************************************************************************
 275:.\Generated_Source\PSoC5/cyfitter_cfg.c **** * Function Name: AnalogSetDefault
 276:.\Generated_Source\PSoC5/cyfitter_cfg.c **** ********************************************************************************
 277:.\Generated_Source\PSoC5/cyfitter_cfg.c **** *
 278:.\Generated_Source\PSoC5/cyfitter_cfg.c **** * Summary:
 279:.\Generated_Source\PSoC5/cyfitter_cfg.c **** *  Sets up the analog portions of the chip to default values based on chip
 280:.\Generated_Source\PSoC5/cyfitter_cfg.c **** *  configuration options from the project.
 281:.\Generated_Source\PSoC5/cyfitter_cfg.c **** *
 282:.\Generated_Source\PSoC5/cyfitter_cfg.c **** * Parameters:
ARM GAS  C:\Users\glenn\AppData\Local\Temp\cc934L16.s 			page 16


 283:.\Generated_Source\PSoC5/cyfitter_cfg.c **** *  void
 284:.\Generated_Source\PSoC5/cyfitter_cfg.c **** *
 285:.\Generated_Source\PSoC5/cyfitter_cfg.c **** * Return:
 286:.\Generated_Source\PSoC5/cyfitter_cfg.c **** *  void
 287:.\Generated_Source\PSoC5/cyfitter_cfg.c **** *
 288:.\Generated_Source\PSoC5/cyfitter_cfg.c **** *******************************************************************************/
 289:.\Generated_Source\PSoC5/cyfitter_cfg.c **** static void AnalogSetDefault(void);
 290:.\Generated_Source\PSoC5/cyfitter_cfg.c **** static void AnalogSetDefault(void)
 291:.\Generated_Source\PSoC5/cyfitter_cfg.c **** {
 565              		.loc 1 291 0
 566              		.cfi_startproc
 567              		@ args = 0, pretend = 0, frame = 8
 568              		@ frame_needed = 1, uses_anonymous_args = 0
 569 0000 80B5     		push	{r7, lr}
 570              		.cfi_def_cfa_offset 8
 571              		.cfi_offset 7, -8
 572              		.cfi_offset 14, -4
 573 0002 82B0     		sub	sp, sp, #8
 574              		.cfi_def_cfa_offset 16
 575 0004 00AF     		add	r7, sp, #0
 576              		.cfi_def_cfa_register 7
 292:.\Generated_Source\PSoC5/cyfitter_cfg.c **** 	uint8 bg_xover_inl_trim = CY_GET_XTND_REG8((void CYFAR *)(CYREG_FLSHID_MFG_CFG_BG_XOVER_INL_TRIM +
 577              		.loc 1 292 0
 578 0006 204B     		ldr	r3, .L22
 579 0008 1B78     		ldrb	r3, [r3]
 580 000a FB71     		strb	r3, [r7, #7]
 293:.\Generated_Source\PSoC5/cyfitter_cfg.c **** 	uint8 cr4 = CY_GET_XTND_REG8((void CYFAR *)(CYREG_RESET_CR4));
 581              		.loc 1 293 0
 582 000c 1F4B     		ldr	r3, .L22+4
 583 000e 1B78     		ldrb	r3, [r3]
 584 0010 BB71     		strb	r3, [r7, #6]
 294:.\Generated_Source\PSoC5/cyfitter_cfg.c **** 	uint8 cr5 = CY_GET_XTND_REG8((void CYFAR *)(CYREG_RESET_CR5));
 585              		.loc 1 294 0
 586 0012 1F4B     		ldr	r3, .L22+8
 587 0014 1B78     		ldrb	r3, [r3]
 588 0016 7B71     		strb	r3, [r7, #5]
 295:.\Generated_Source\PSoC5/cyfitter_cfg.c **** 	CY_SET_XTND_REG8((void CYFAR *)(CYREG_BG_DFT0), (bg_xover_inl_trim & 0x07u));
 589              		.loc 1 295 0
 590 0018 1E4A     		ldr	r2, .L22+12
 591 001a FB79     		ldrb	r3, [r7, #7]
 592 001c 03F00703 		and	r3, r3, #7
 593 0020 DBB2     		uxtb	r3, r3
 594 0022 1370     		strb	r3, [r2]
 296:.\Generated_Source\PSoC5/cyfitter_cfg.c **** 	CY_SET_XTND_REG8((void CYFAR *)(CYREG_BG_DFT1), ((bg_xover_inl_trim >> 4) & 0x0Fu));
 595              		.loc 1 296 0
 596 0024 1C4A     		ldr	r2, .L22+16
 597 0026 FB79     		ldrb	r3, [r7, #7]	@ zero_extendqisi2
 598 0028 1B09     		lsrs	r3, r3, #4
 599 002a DBB2     		uxtb	r3, r3
 600 002c 1370     		strb	r3, [r2]
 297:.\Generated_Source\PSoC5/cyfitter_cfg.c **** 	/* Disable PRES while setting up SAR voltage reference */
 298:.\Generated_Source\PSoC5/cyfitter_cfg.c **** 	CY_SET_XTND_REG8((void CYFAR *)(CYREG_RESET_CR4), (cr4 | 0x03u));
 601              		.loc 1 298 0
 602 002e 174A     		ldr	r2, .L22+4
 603 0030 BB79     		ldrb	r3, [r7, #6]
 604 0032 43F00303 		orr	r3, r3, #3
 605 0036 DBB2     		uxtb	r3, r3
ARM GAS  C:\Users\glenn\AppData\Local\Temp\cc934L16.s 			page 17


 606 0038 1370     		strb	r3, [r2]
 299:.\Generated_Source\PSoC5/cyfitter_cfg.c **** 	CY_SET_XTND_REG8((void CYFAR *)(CYREG_RESET_CR5), (cr5 | 0x03u));
 607              		.loc 1 299 0
 608 003a 154A     		ldr	r2, .L22+8
 609 003c 7B79     		ldrb	r3, [r7, #5]
 610 003e 43F00303 		orr	r3, r3, #3
 611 0042 DBB2     		uxtb	r3, r3
 612 0044 1370     		strb	r3, [r2]
 300:.\Generated_Source\PSoC5/cyfitter_cfg.c **** 	CY_SET_XTND_REG8((void CYFAR *)CYREG_PRT2_AMUX, 0x08u);
 613              		.loc 1 300 0
 614 0046 154B     		ldr	r3, .L22+20
 615 0048 0822     		movs	r2, #8
 616 004a 1A70     		strb	r2, [r3]
 301:.\Generated_Source\PSoC5/cyfitter_cfg.c **** 	CY_SET_XTND_REG8((void CYFAR *)CYREG_SAR0_CSR1, 0x40u);
 617              		.loc 1 301 0
 618 004c 144B     		ldr	r3, .L22+24
 619 004e 4022     		movs	r2, #64
 620 0050 1A70     		strb	r2, [r3]
 302:.\Generated_Source\PSoC5/cyfitter_cfg.c **** 	CY_SET_XTND_REG8((void CYFAR *)CYREG_SAR0_CSR3, 0x40u);
 621              		.loc 1 302 0
 622 0052 144B     		ldr	r3, .L22+28
 623 0054 4022     		movs	r2, #64
 624 0056 1A70     		strb	r2, [r3]
 303:.\Generated_Source\PSoC5/cyfitter_cfg.c **** 	CY_SET_XTND_REG8((void CYFAR *)CYREG_DSM0_SW0, 0xF0u);
 625              		.loc 1 303 0
 626 0058 134B     		ldr	r3, .L22+32
 627 005a F022     		movs	r2, #240
 628 005c 1A70     		strb	r2, [r3]
 304:.\Generated_Source\PSoC5/cyfitter_cfg.c **** 	CY_SET_XTND_REG8((void CYFAR *)CYREG_SAR0_SW3, 0x21u);
 629              		.loc 1 304 0
 630 005e 134B     		ldr	r3, .L22+36
 631 0060 2122     		movs	r2, #33
 632 0062 1A70     		strb	r2, [r3]
 305:.\Generated_Source\PSoC5/cyfitter_cfg.c **** 	CY_SET_XTND_REG8((void CYFAR *)CYREG_BUS_SW0, 0xF0u);
 633              		.loc 1 305 0
 634 0064 124B     		ldr	r3, .L22+40
 635 0066 F022     		movs	r2, #240
 636 0068 1A70     		strb	r2, [r3]
 306:.\Generated_Source\PSoC5/cyfitter_cfg.c **** 	CyDelayUs(10u); /* Allow vref to settle before re-enabling PRES */
 637              		.loc 1 306 0
 638 006a 0A20     		movs	r0, #10
 639 006c FFF7FEFF 		bl	CyDelayUs
 307:.\Generated_Source\PSoC5/cyfitter_cfg.c **** 	CY_SET_XTND_REG8((void CYFAR *)(CYREG_RESET_CR5), (cr5));
 640              		.loc 1 307 0
 641 0070 074A     		ldr	r2, .L22+8
 642 0072 7B79     		ldrb	r3, [r7, #5]
 643 0074 1370     		strb	r3, [r2]
 308:.\Generated_Source\PSoC5/cyfitter_cfg.c **** 	CY_SET_XTND_REG8((void CYFAR *)(CYREG_RESET_CR4), (cr4));
 644              		.loc 1 308 0
 645 0076 054A     		ldr	r2, .L22+4
 646 0078 BB79     		ldrb	r3, [r7, #6]
 647 007a 1370     		strb	r3, [r2]
 309:.\Generated_Source\PSoC5/cyfitter_cfg.c **** 	CY_SET_XTND_REG8((void CYFAR *)CYREG_PUMP_CR0, 0x44u);
 648              		.loc 1 309 0
 649 007c 0D4B     		ldr	r3, .L22+44
 650 007e 4422     		movs	r2, #68
 651 0080 1A70     		strb	r2, [r3]
ARM GAS  C:\Users\glenn\AppData\Local\Temp\cc934L16.s 			page 18


 310:.\Generated_Source\PSoC5/cyfitter_cfg.c **** }
 652              		.loc 1 310 0
 653 0082 0837     		adds	r7, r7, #8
 654              		.cfi_def_cfa_offset 8
 655 0084 BD46     		mov	sp, r7
 656              		.cfi_def_cfa_register 13
 657              		@ sp needed
 658 0086 80BD     		pop	{r7, pc}
 659              	.L23:
 660              		.align	2
 661              	.L22:
 662 0088 CF010049 		.word	1224737231
 663 008c F8460040 		.word	1073759992
 664 0090 F9460040 		.word	1073759993
 665 0094 6E580040 		.word	1073764462
 666 0098 6F580040 		.word	1073764463
 667 009c 2C510040 		.word	1073762604
 668 00a0 01590040 		.word	1073764609
 669 00a4 03590040 		.word	1073764611
 670 00a8 005B0040 		.word	1073765120
 671 00ac 235B0040 		.word	1073765155
 672 00b0 585B0040 		.word	1073765208
 673 00b4 76580040 		.word	1073764470
 674              		.cfi_endproc
 675              	.LFE6:
 676              		.size	AnalogSetDefault, .-AnalogSetDefault
 677              		.section	.text.SetAnalogRoutingPumps,"ax",%progbits
 678              		.align	2
 679              		.global	SetAnalogRoutingPumps
 680              		.thumb
 681              		.thumb_func
 682              		.type	SetAnalogRoutingPumps, %function
 683              	SetAnalogRoutingPumps:
 684              	.LFB7:
 311:.\Generated_Source\PSoC5/cyfitter_cfg.c **** 
 312:.\Generated_Source\PSoC5/cyfitter_cfg.c **** 
 313:.\Generated_Source\PSoC5/cyfitter_cfg.c **** /*******************************************************************************
 314:.\Generated_Source\PSoC5/cyfitter_cfg.c **** * Function Name: SetAnalogRoutingPumps
 315:.\Generated_Source\PSoC5/cyfitter_cfg.c **** ********************************************************************************
 316:.\Generated_Source\PSoC5/cyfitter_cfg.c **** *
 317:.\Generated_Source\PSoC5/cyfitter_cfg.c **** * Summary:
 318:.\Generated_Source\PSoC5/cyfitter_cfg.c **** * Enables or disables the analog pumps feeding analog routing switches.
 319:.\Generated_Source\PSoC5/cyfitter_cfg.c **** * Intended to be called at startup, based on the Vdda system configuration;
 320:.\Generated_Source\PSoC5/cyfitter_cfg.c **** * may be called during operation when the user informs us that the Vdda voltage
 321:.\Generated_Source\PSoC5/cyfitter_cfg.c **** * crossed the pump threshold.
 322:.\Generated_Source\PSoC5/cyfitter_cfg.c **** *
 323:.\Generated_Source\PSoC5/cyfitter_cfg.c **** * Parameters:
 324:.\Generated_Source\PSoC5/cyfitter_cfg.c **** *  enabled - 1 to enable the pumps, 0 to disable the pumps
 325:.\Generated_Source\PSoC5/cyfitter_cfg.c **** *
 326:.\Generated_Source\PSoC5/cyfitter_cfg.c **** * Return:
 327:.\Generated_Source\PSoC5/cyfitter_cfg.c **** *  void
 328:.\Generated_Source\PSoC5/cyfitter_cfg.c **** *
 329:.\Generated_Source\PSoC5/cyfitter_cfg.c **** *******************************************************************************/
 330:.\Generated_Source\PSoC5/cyfitter_cfg.c **** void SetAnalogRoutingPumps(uint8 enabled)
 331:.\Generated_Source\PSoC5/cyfitter_cfg.c **** {
 685              		.loc 1 331 0
 686              		.cfi_startproc
ARM GAS  C:\Users\glenn\AppData\Local\Temp\cc934L16.s 			page 19


 687              		@ args = 0, pretend = 0, frame = 16
 688              		@ frame_needed = 1, uses_anonymous_args = 0
 689              		@ link register save eliminated.
 690 0000 80B4     		push	{r7}
 691              		.cfi_def_cfa_offset 4
 692              		.cfi_offset 7, -4
 693 0002 85B0     		sub	sp, sp, #20
 694              		.cfi_def_cfa_offset 24
 695 0004 00AF     		add	r7, sp, #0
 696              		.cfi_def_cfa_register 7
 697 0006 0346     		mov	r3, r0
 698 0008 FB71     		strb	r3, [r7, #7]
 332:.\Generated_Source\PSoC5/cyfitter_cfg.c **** 	uint8 regValue = CY_GET_XTND_REG8((void CYFAR *)CYREG_PUMP_CR0);
 699              		.loc 1 332 0
 700 000a 0B4B     		ldr	r3, .L27
 701 000c 1B78     		ldrb	r3, [r3]
 702 000e FB73     		strb	r3, [r7, #15]
 333:.\Generated_Source\PSoC5/cyfitter_cfg.c **** 	if (enabled != 0u)
 703              		.loc 1 333 0
 704 0010 FB79     		ldrb	r3, [r7, #7]	@ zero_extendqisi2
 705 0012 002B     		cmp	r3, #0
 706 0014 04D0     		beq	.L25
 334:.\Generated_Source\PSoC5/cyfitter_cfg.c **** 	{
 335:.\Generated_Source\PSoC5/cyfitter_cfg.c **** 		regValue |= 0x22u;
 707              		.loc 1 335 0
 708 0016 FB7B     		ldrb	r3, [r7, #15]
 709 0018 43F02203 		orr	r3, r3, #34
 710 001c FB73     		strb	r3, [r7, #15]
 711 001e 03E0     		b	.L26
 712              	.L25:
 336:.\Generated_Source\PSoC5/cyfitter_cfg.c **** 	}
 337:.\Generated_Source\PSoC5/cyfitter_cfg.c **** 	else
 338:.\Generated_Source\PSoC5/cyfitter_cfg.c **** 	{
 339:.\Generated_Source\PSoC5/cyfitter_cfg.c **** 		regValue &= (uint8)~0x22u;
 713              		.loc 1 339 0
 714 0020 FB7B     		ldrb	r3, [r7, #15]
 715 0022 23F02203 		bic	r3, r3, #34
 716 0026 FB73     		strb	r3, [r7, #15]
 717              	.L26:
 340:.\Generated_Source\PSoC5/cyfitter_cfg.c **** 	}
 341:.\Generated_Source\PSoC5/cyfitter_cfg.c **** 	CY_SET_XTND_REG8((void CYFAR *)CYREG_PUMP_CR0, regValue);
 718              		.loc 1 341 0
 719 0028 034A     		ldr	r2, .L27
 720 002a FB7B     		ldrb	r3, [r7, #15]
 721 002c 1370     		strb	r3, [r2]
 342:.\Generated_Source\PSoC5/cyfitter_cfg.c **** }
 722              		.loc 1 342 0
 723 002e 1437     		adds	r7, r7, #20
 724              		.cfi_def_cfa_offset 4
 725 0030 BD46     		mov	sp, r7
 726              		.cfi_def_cfa_register 13
 727              		@ sp needed
 728 0032 5DF8047B 		ldr	r7, [sp], #4
 729              		.cfi_restore 7
 730              		.cfi_def_cfa_offset 0
 731 0036 7047     		bx	lr
 732              	.L28:
ARM GAS  C:\Users\glenn\AppData\Local\Temp\cc934L16.s 			page 20


 733              		.align	2
 734              	.L27:
 735 0038 76580040 		.word	1073764470
 736              		.cfi_endproc
 737              	.LFE7:
 738              		.size	SetAnalogRoutingPumps, .-SetAnalogRoutingPumps
 739              		.global	Sink_Source_Setup__addrTable
 740              		.section	.rodata
 741              		.align	2
 742              		.type	Sink_Source_Setup__addrTable, %object
 743              		.size	Sink_Source_Setup__addrTable, 136
 744              	Sink_Source_Setup__addrTable:
 745 0000 3D510040 		.word	1073762621
 746 0004 24430040 		.word	1073759012
 747 0008 3D510040 		.word	1073762621
 748 000c 24430040 		.word	1073759012
 749 0010 3D510040 		.word	1073762621
 750 0014 24430040 		.word	1073759012
 751 0018 3D510040 		.word	1073762621
 752 001c 24430040 		.word	1073759012
 753 0020 3D510040 		.word	1073762621
 754 0024 24430040 		.word	1073759012
 755 0028 3D510040 		.word	1073762621
 756 002c 24430040 		.word	1073759012
 757 0030 3D510040 		.word	1073762621
 758 0034 24430040 		.word	1073759012
 759 0038 3D510040 		.word	1073762621
 760 003c 24430040 		.word	1073759012
 761 0040 0D510040 		.word	1073762573
 762 0044 24430040 		.word	1073759012
 763 0048 0D510040 		.word	1073762573
 764 004c 24430040 		.word	1073759012
 765 0050 0D510040 		.word	1073762573
 766 0054 24430040 		.word	1073759012
 767 0058 0D510040 		.word	1073762573
 768 005c 24430040 		.word	1073759012
 769 0060 0D510040 		.word	1073762573
 770 0064 24430040 		.word	1073759012
 771 0068 0D510040 		.word	1073762573
 772 006c 24430040 		.word	1073759012
 773 0070 0D510040 		.word	1073762573
 774 0074 24430040 		.word	1073759012
 775 0078 0D510040 		.word	1073762573
 776 007c 24430040 		.word	1073759012
 777 0080 5B5B0040 		.word	1073765211
 778 0084 005B0040 		.word	1073765120
 779              		.global	Sink_Source_Setup__maskTable
 780              		.align	2
 781              		.type	Sink_Source_Setup__maskTable, %object
 782              		.size	Sink_Source_Setup__maskTable, 34
 783              	Sink_Source_Setup__maskTable:
 784 0088 01       		.byte	1
 785 0089 00       		.byte	0
 786 008a 02       		.byte	2
 787 008b 00       		.byte	0
 788 008c 04       		.byte	4
 789 008d 00       		.byte	0
ARM GAS  C:\Users\glenn\AppData\Local\Temp\cc934L16.s 			page 21


 790 008e 08       		.byte	8
 791 008f 00       		.byte	0
 792 0090 10       		.byte	16
 793 0091 00       		.byte	0
 794 0092 20       		.byte	32
 795 0093 00       		.byte	0
 796 0094 40       		.byte	64
 797 0095 00       		.byte	0
 798 0096 80       		.byte	-128
 799 0097 00       		.byte	0
 800 0098 01       		.byte	1
 801 0099 00       		.byte	0
 802 009a 02       		.byte	2
 803 009b 00       		.byte	0
 804 009c 04       		.byte	4
 805 009d 00       		.byte	0
 806 009e 08       		.byte	8
 807 009f 00       		.byte	0
 808 00a0 10       		.byte	16
 809 00a1 00       		.byte	0
 810 00a2 20       		.byte	32
 811 00a3 00       		.byte	0
 812 00a4 40       		.byte	64
 813 00a5 00       		.byte	0
 814 00a6 80       		.byte	-128
 815 00a7 00       		.byte	0
 816 00a8 08       		.byte	8
 817 00a9 08       		.byte	8
 818              		.section	.text.Sink_Source_Setup_Set,"ax",%progbits
 819              		.align	2
 820              		.global	Sink_Source_Setup_Set
 821              		.thumb
 822              		.thumb_func
 823              		.type	Sink_Source_Setup_Set, %function
 824              	Sink_Source_Setup_Set:
 825              	.LFB8:
 343:.\Generated_Source\PSoC5/cyfitter_cfg.c **** 
 344:.\Generated_Source\PSoC5/cyfitter_cfg.c **** #define CY_AMUX_UNUSED CYREG_BOOST_SR
 345:.\Generated_Source\PSoC5/cyfitter_cfg.c **** /* This is an implementation detail of the AMux. Code that depends on it may be
 346:.\Generated_Source\PSoC5/cyfitter_cfg.c ****    incompatible with other versions of PSoC Creator. */
 347:.\Generated_Source\PSoC5/cyfitter_cfg.c **** uint8 CYXDATA * const CYCODE Sink_Source_Setup__addrTable[34] = {
 348:.\Generated_Source\PSoC5/cyfitter_cfg.c **** 	(uint8 CYXDATA *)CYREG_PRT3_AG, (uint8 CYXDATA *)CY_AMUX_UNUSED, 
 349:.\Generated_Source\PSoC5/cyfitter_cfg.c **** 	(uint8 CYXDATA *)CYREG_PRT3_AG, (uint8 CYXDATA *)CY_AMUX_UNUSED, 
 350:.\Generated_Source\PSoC5/cyfitter_cfg.c **** 	(uint8 CYXDATA *)CYREG_PRT3_AG, (uint8 CYXDATA *)CY_AMUX_UNUSED, 
 351:.\Generated_Source\PSoC5/cyfitter_cfg.c **** 	(uint8 CYXDATA *)CYREG_PRT3_AG, (uint8 CYXDATA *)CY_AMUX_UNUSED, 
 352:.\Generated_Source\PSoC5/cyfitter_cfg.c **** 	(uint8 CYXDATA *)CYREG_PRT3_AG, (uint8 CYXDATA *)CY_AMUX_UNUSED, 
 353:.\Generated_Source\PSoC5/cyfitter_cfg.c **** 	(uint8 CYXDATA *)CYREG_PRT3_AG, (uint8 CYXDATA *)CY_AMUX_UNUSED, 
 354:.\Generated_Source\PSoC5/cyfitter_cfg.c **** 	(uint8 CYXDATA *)CYREG_PRT3_AG, (uint8 CYXDATA *)CY_AMUX_UNUSED, 
 355:.\Generated_Source\PSoC5/cyfitter_cfg.c **** 	(uint8 CYXDATA *)CYREG_PRT3_AG, (uint8 CYXDATA *)CY_AMUX_UNUSED, 
 356:.\Generated_Source\PSoC5/cyfitter_cfg.c **** 	(uint8 CYXDATA *)CYREG_PRT0_AG, (uint8 CYXDATA *)CY_AMUX_UNUSED, 
 357:.\Generated_Source\PSoC5/cyfitter_cfg.c **** 	(uint8 CYXDATA *)CYREG_PRT0_AG, (uint8 CYXDATA *)CY_AMUX_UNUSED, 
 358:.\Generated_Source\PSoC5/cyfitter_cfg.c **** 	(uint8 CYXDATA *)CYREG_PRT0_AG, (uint8 CYXDATA *)CY_AMUX_UNUSED, 
 359:.\Generated_Source\PSoC5/cyfitter_cfg.c **** 	(uint8 CYXDATA *)CYREG_PRT0_AG, (uint8 CYXDATA *)CY_AMUX_UNUSED, 
 360:.\Generated_Source\PSoC5/cyfitter_cfg.c **** 	(uint8 CYXDATA *)CYREG_PRT0_AG, (uint8 CYXDATA *)CY_AMUX_UNUSED, 
 361:.\Generated_Source\PSoC5/cyfitter_cfg.c **** 	(uint8 CYXDATA *)CYREG_PRT0_AG, (uint8 CYXDATA *)CY_AMUX_UNUSED, 
 362:.\Generated_Source\PSoC5/cyfitter_cfg.c **** 	(uint8 CYXDATA *)CYREG_PRT0_AG, (uint8 CYXDATA *)CY_AMUX_UNUSED, 
 363:.\Generated_Source\PSoC5/cyfitter_cfg.c **** 	(uint8 CYXDATA *)CYREG_PRT0_AG, (uint8 CYXDATA *)CY_AMUX_UNUSED, 
ARM GAS  C:\Users\glenn\AppData\Local\Temp\cc934L16.s 			page 22


 364:.\Generated_Source\PSoC5/cyfitter_cfg.c **** 	(uint8 CYXDATA *)CYREG_BUS_SW3, (uint8 CYXDATA *)CYREG_DSM0_SW0, 
 365:.\Generated_Source\PSoC5/cyfitter_cfg.c **** };
 366:.\Generated_Source\PSoC5/cyfitter_cfg.c **** 
 367:.\Generated_Source\PSoC5/cyfitter_cfg.c **** /* This is an implementation detail of the AMux. Code that depends on it may be
 368:.\Generated_Source\PSoC5/cyfitter_cfg.c ****    incompatible with other versions of PSoC Creator. */
 369:.\Generated_Source\PSoC5/cyfitter_cfg.c **** const uint8 CYCODE Sink_Source_Setup__maskTable[34] = {
 370:.\Generated_Source\PSoC5/cyfitter_cfg.c **** 	0x01u, 0x00u, 
 371:.\Generated_Source\PSoC5/cyfitter_cfg.c **** 	0x02u, 0x00u, 
 372:.\Generated_Source\PSoC5/cyfitter_cfg.c **** 	0x04u, 0x00u, 
 373:.\Generated_Source\PSoC5/cyfitter_cfg.c **** 	0x08u, 0x00u, 
 374:.\Generated_Source\PSoC5/cyfitter_cfg.c **** 	0x10u, 0x00u, 
 375:.\Generated_Source\PSoC5/cyfitter_cfg.c **** 	0x20u, 0x00u, 
 376:.\Generated_Source\PSoC5/cyfitter_cfg.c **** 	0x40u, 0x00u, 
 377:.\Generated_Source\PSoC5/cyfitter_cfg.c **** 	0x80u, 0x00u, 
 378:.\Generated_Source\PSoC5/cyfitter_cfg.c **** 	0x01u, 0x00u, 
 379:.\Generated_Source\PSoC5/cyfitter_cfg.c **** 	0x02u, 0x00u, 
 380:.\Generated_Source\PSoC5/cyfitter_cfg.c **** 	0x04u, 0x00u, 
 381:.\Generated_Source\PSoC5/cyfitter_cfg.c **** 	0x08u, 0x00u, 
 382:.\Generated_Source\PSoC5/cyfitter_cfg.c **** 	0x10u, 0x00u, 
 383:.\Generated_Source\PSoC5/cyfitter_cfg.c **** 	0x20u, 0x00u, 
 384:.\Generated_Source\PSoC5/cyfitter_cfg.c **** 	0x40u, 0x00u, 
 385:.\Generated_Source\PSoC5/cyfitter_cfg.c **** 	0x80u, 0x00u, 
 386:.\Generated_Source\PSoC5/cyfitter_cfg.c **** 	0x08u, 0x08u, 
 387:.\Generated_Source\PSoC5/cyfitter_cfg.c **** };
 388:.\Generated_Source\PSoC5/cyfitter_cfg.c **** 
 389:.\Generated_Source\PSoC5/cyfitter_cfg.c **** /*******************************************************************************
 390:.\Generated_Source\PSoC5/cyfitter_cfg.c **** * Function Name: Sink_Source_Setup_Set
 391:.\Generated_Source\PSoC5/cyfitter_cfg.c **** ********************************************************************************
 392:.\Generated_Source\PSoC5/cyfitter_cfg.c **** * Summary:
 393:.\Generated_Source\PSoC5/cyfitter_cfg.c **** *  This function is used to set a particular channel as active on the AMux.
 394:.\Generated_Source\PSoC5/cyfitter_cfg.c **** *
 395:.\Generated_Source\PSoC5/cyfitter_cfg.c **** * Parameters:  
 396:.\Generated_Source\PSoC5/cyfitter_cfg.c **** *   channel - The mux channel input to set as active
 397:.\Generated_Source\PSoC5/cyfitter_cfg.c **** *
 398:.\Generated_Source\PSoC5/cyfitter_cfg.c **** * Return:
 399:.\Generated_Source\PSoC5/cyfitter_cfg.c **** *   void
 400:.\Generated_Source\PSoC5/cyfitter_cfg.c **** *
 401:.\Generated_Source\PSoC5/cyfitter_cfg.c **** *******************************************************************************/
 402:.\Generated_Source\PSoC5/cyfitter_cfg.c **** void Sink_Source_Setup_Set(uint8 channel)
 403:.\Generated_Source\PSoC5/cyfitter_cfg.c **** {
 826              		.loc 1 403 0
 827              		.cfi_startproc
 828              		@ args = 0, pretend = 0, frame = 8
 829              		@ frame_needed = 1, uses_anonymous_args = 0
 830              		@ link register save eliminated.
 831 0000 80B4     		push	{r7}
 832              		.cfi_def_cfa_offset 4
 833              		.cfi_offset 7, -4
 834 0002 83B0     		sub	sp, sp, #12
 835              		.cfi_def_cfa_offset 16
 836 0004 00AF     		add	r7, sp, #0
 837              		.cfi_def_cfa_register 7
 838 0006 0346     		mov	r3, r0
 839 0008 FB71     		strb	r3, [r7, #7]
 404:.\Generated_Source\PSoC5/cyfitter_cfg.c **** 	if (channel < 17)
 840              		.loc 1 404 0
 841 000a FB79     		ldrb	r3, [r7, #7]	@ zero_extendqisi2
ARM GAS  C:\Users\glenn\AppData\Local\Temp\cc934L16.s 			page 23


 842 000c 102B     		cmp	r3, #16
 843 000e 24D8     		bhi	.L29
 405:.\Generated_Source\PSoC5/cyfitter_cfg.c **** 	{
 406:.\Generated_Source\PSoC5/cyfitter_cfg.c **** 		channel += channel;
 844              		.loc 1 406 0
 845 0010 FA79     		ldrb	r2, [r7, #7]
 846 0012 FB79     		ldrb	r3, [r7, #7]
 847 0014 1344     		add	r3, r3, r2
 848 0016 FB71     		strb	r3, [r7, #7]
 407:.\Generated_Source\PSoC5/cyfitter_cfg.c **** 		*Sink_Source_Setup__addrTable[channel] |= Sink_Source_Setup__maskTable[channel];
 849              		.loc 1 407 0
 850 0018 FB79     		ldrb	r3, [r7, #7]	@ zero_extendqisi2
 851 001a 124A     		ldr	r2, .L31
 852 001c 52F82330 		ldr	r3, [r2, r3, lsl #2]
 853 0020 FA79     		ldrb	r2, [r7, #7]	@ zero_extendqisi2
 854 0022 1049     		ldr	r1, .L31
 855 0024 51F82220 		ldr	r2, [r1, r2, lsl #2]
 856 0028 1178     		ldrb	r1, [r2]	@ zero_extendqisi2
 857 002a FA79     		ldrb	r2, [r7, #7]	@ zero_extendqisi2
 858 002c 0E48     		ldr	r0, .L31+4
 859 002e 825C     		ldrb	r2, [r0, r2]	@ zero_extendqisi2
 860 0030 0A43     		orrs	r2, r2, r1
 861 0032 D2B2     		uxtb	r2, r2
 862 0034 1A70     		strb	r2, [r3]
 408:.\Generated_Source\PSoC5/cyfitter_cfg.c **** 		channel++;
 863              		.loc 1 408 0
 864 0036 FB79     		ldrb	r3, [r7, #7]	@ zero_extendqisi2
 865 0038 0133     		adds	r3, r3, #1
 866 003a FB71     		strb	r3, [r7, #7]
 409:.\Generated_Source\PSoC5/cyfitter_cfg.c **** 		*Sink_Source_Setup__addrTable[channel] |= Sink_Source_Setup__maskTable[channel];
 867              		.loc 1 409 0
 868 003c FB79     		ldrb	r3, [r7, #7]	@ zero_extendqisi2
 869 003e 094A     		ldr	r2, .L31
 870 0040 52F82330 		ldr	r3, [r2, r3, lsl #2]
 871 0044 FA79     		ldrb	r2, [r7, #7]	@ zero_extendqisi2
 872 0046 0749     		ldr	r1, .L31
 873 0048 51F82220 		ldr	r2, [r1, r2, lsl #2]
 874 004c 1178     		ldrb	r1, [r2]	@ zero_extendqisi2
 875 004e FA79     		ldrb	r2, [r7, #7]	@ zero_extendqisi2
 876 0050 0548     		ldr	r0, .L31+4
 877 0052 825C     		ldrb	r2, [r0, r2]	@ zero_extendqisi2
 878 0054 0A43     		orrs	r2, r2, r1
 879 0056 D2B2     		uxtb	r2, r2
 880 0058 1A70     		strb	r2, [r3]
 881              	.L29:
 410:.\Generated_Source\PSoC5/cyfitter_cfg.c **** 	}
 411:.\Generated_Source\PSoC5/cyfitter_cfg.c **** }
 882              		.loc 1 411 0
 883 005a 0C37     		adds	r7, r7, #12
 884              		.cfi_def_cfa_offset 4
 885 005c BD46     		mov	sp, r7
 886              		.cfi_def_cfa_register 13
 887              		@ sp needed
 888 005e 5DF8047B 		ldr	r7, [sp], #4
 889              		.cfi_restore 7
 890              		.cfi_def_cfa_offset 0
 891 0062 7047     		bx	lr
ARM GAS  C:\Users\glenn\AppData\Local\Temp\cc934L16.s 			page 24


 892              	.L32:
 893              		.align	2
 894              	.L31:
 895 0064 00000000 		.word	Sink_Source_Setup__addrTable
 896 0068 00000000 		.word	Sink_Source_Setup__maskTable
 897              		.cfi_endproc
 898              	.LFE8:
 899              		.size	Sink_Source_Setup_Set, .-Sink_Source_Setup_Set
 900              		.section	.text.Sink_Source_Setup_Unset,"ax",%progbits
 901              		.align	2
 902              		.global	Sink_Source_Setup_Unset
 903              		.thumb
 904              		.thumb_func
 905              		.type	Sink_Source_Setup_Unset, %function
 906              	Sink_Source_Setup_Unset:
 907              	.LFB9:
 412:.\Generated_Source\PSoC5/cyfitter_cfg.c **** 
 413:.\Generated_Source\PSoC5/cyfitter_cfg.c **** /*******************************************************************************
 414:.\Generated_Source\PSoC5/cyfitter_cfg.c **** * Function Name: Sink_Source_Setup_Unset
 415:.\Generated_Source\PSoC5/cyfitter_cfg.c **** ********************************************************************************
 416:.\Generated_Source\PSoC5/cyfitter_cfg.c **** * Summary:
 417:.\Generated_Source\PSoC5/cyfitter_cfg.c **** *  This function is used to clear a particular channel from being active on the
 418:.\Generated_Source\PSoC5/cyfitter_cfg.c **** *  AMux.
 419:.\Generated_Source\PSoC5/cyfitter_cfg.c **** *
 420:.\Generated_Source\PSoC5/cyfitter_cfg.c **** * Parameters:  
 421:.\Generated_Source\PSoC5/cyfitter_cfg.c **** *   channel - The mux channel input to mark inactive
 422:.\Generated_Source\PSoC5/cyfitter_cfg.c **** *
 423:.\Generated_Source\PSoC5/cyfitter_cfg.c **** * Return:
 424:.\Generated_Source\PSoC5/cyfitter_cfg.c **** *   void
 425:.\Generated_Source\PSoC5/cyfitter_cfg.c **** *
 426:.\Generated_Source\PSoC5/cyfitter_cfg.c **** *******************************************************************************/
 427:.\Generated_Source\PSoC5/cyfitter_cfg.c **** void Sink_Source_Setup_Unset(uint8 channel)
 428:.\Generated_Source\PSoC5/cyfitter_cfg.c **** {
 908              		.loc 1 428 0
 909              		.cfi_startproc
 910              		@ args = 0, pretend = 0, frame = 8
 911              		@ frame_needed = 1, uses_anonymous_args = 0
 912              		@ link register save eliminated.
 913 0000 80B4     		push	{r7}
 914              		.cfi_def_cfa_offset 4
 915              		.cfi_offset 7, -4
 916 0002 83B0     		sub	sp, sp, #12
 917              		.cfi_def_cfa_offset 16
 918 0004 00AF     		add	r7, sp, #0
 919              		.cfi_def_cfa_register 7
 920 0006 0346     		mov	r3, r0
 921 0008 FB71     		strb	r3, [r7, #7]
 429:.\Generated_Source\PSoC5/cyfitter_cfg.c **** 	if (channel < 17)
 922              		.loc 1 429 0
 923 000a FB79     		ldrb	r3, [r7, #7]	@ zero_extendqisi2
 924 000c 102B     		cmp	r3, #16
 925 000e 28D8     		bhi	.L33
 430:.\Generated_Source\PSoC5/cyfitter_cfg.c **** 	{
 431:.\Generated_Source\PSoC5/cyfitter_cfg.c **** 		channel += channel;
 926              		.loc 1 431 0
 927 0010 FA79     		ldrb	r2, [r7, #7]
 928 0012 FB79     		ldrb	r3, [r7, #7]
ARM GAS  C:\Users\glenn\AppData\Local\Temp\cc934L16.s 			page 25


 929 0014 1344     		add	r3, r3, r2
 930 0016 FB71     		strb	r3, [r7, #7]
 432:.\Generated_Source\PSoC5/cyfitter_cfg.c **** 		*Sink_Source_Setup__addrTable[channel] &= (uint8)~Sink_Source_Setup__maskTable[channel];
 931              		.loc 1 432 0
 932 0018 FB79     		ldrb	r3, [r7, #7]	@ zero_extendqisi2
 933 001a 144A     		ldr	r2, .L35
 934 001c 52F82330 		ldr	r3, [r2, r3, lsl #2]
 935 0020 FA79     		ldrb	r2, [r7, #7]	@ zero_extendqisi2
 936 0022 1249     		ldr	r1, .L35
 937 0024 51F82220 		ldr	r2, [r1, r2, lsl #2]
 938 0028 1178     		ldrb	r1, [r2]	@ zero_extendqisi2
 939 002a FA79     		ldrb	r2, [r7, #7]	@ zero_extendqisi2
 940 002c 1048     		ldr	r0, .L35+4
 941 002e 825C     		ldrb	r2, [r0, r2]	@ zero_extendqisi2
 942 0030 D243     		mvns	r2, r2
 943 0032 D2B2     		uxtb	r2, r2
 944 0034 0A40     		ands	r2, r2, r1
 945 0036 D2B2     		uxtb	r2, r2
 946 0038 1A70     		strb	r2, [r3]
 433:.\Generated_Source\PSoC5/cyfitter_cfg.c **** 		channel++;
 947              		.loc 1 433 0
 948 003a FB79     		ldrb	r3, [r7, #7]	@ zero_extendqisi2
 949 003c 0133     		adds	r3, r3, #1
 950 003e FB71     		strb	r3, [r7, #7]
 434:.\Generated_Source\PSoC5/cyfitter_cfg.c **** 		*Sink_Source_Setup__addrTable[channel] &= (uint8)~Sink_Source_Setup__maskTable[channel];
 951              		.loc 1 434 0
 952 0040 FB79     		ldrb	r3, [r7, #7]	@ zero_extendqisi2
 953 0042 0A4A     		ldr	r2, .L35
 954 0044 52F82330 		ldr	r3, [r2, r3, lsl #2]
 955 0048 FA79     		ldrb	r2, [r7, #7]	@ zero_extendqisi2
 956 004a 0849     		ldr	r1, .L35
 957 004c 51F82220 		ldr	r2, [r1, r2, lsl #2]
 958 0050 1178     		ldrb	r1, [r2]	@ zero_extendqisi2
 959 0052 FA79     		ldrb	r2, [r7, #7]	@ zero_extendqisi2
 960 0054 0648     		ldr	r0, .L35+4
 961 0056 825C     		ldrb	r2, [r0, r2]	@ zero_extendqisi2
 962 0058 D243     		mvns	r2, r2
 963 005a D2B2     		uxtb	r2, r2
 964 005c 0A40     		ands	r2, r2, r1
 965 005e D2B2     		uxtb	r2, r2
 966 0060 1A70     		strb	r2, [r3]
 967              	.L33:
 435:.\Generated_Source\PSoC5/cyfitter_cfg.c **** 	}
 436:.\Generated_Source\PSoC5/cyfitter_cfg.c **** }
 968              		.loc 1 436 0
 969 0062 0C37     		adds	r7, r7, #12
 970              		.cfi_def_cfa_offset 4
 971 0064 BD46     		mov	sp, r7
 972              		.cfi_def_cfa_register 13
 973              		@ sp needed
 974 0066 5DF8047B 		ldr	r7, [sp], #4
 975              		.cfi_restore 7
 976              		.cfi_def_cfa_offset 0
 977 006a 7047     		bx	lr
 978              	.L36:
 979              		.align	2
 980              	.L35:
ARM GAS  C:\Users\glenn\AppData\Local\Temp\cc934L16.s 			page 26


 981 006c 00000000 		.word	Sink_Source_Setup__addrTable
 982 0070 00000000 		.word	Sink_Source_Setup__maskTable
 983              		.cfi_endproc
 984              	.LFE9:
 985              		.size	Sink_Source_Setup_Unset, .-Sink_Source_Setup_Unset
 986              		.global	SIGMA_A_D_AMux__addrTable
 987              		.section	.rodata
 988 00aa 0000     		.align	2
 989              		.type	SIGMA_A_D_AMux__addrTable, %object
 990              		.size	SIGMA_A_D_AMux__addrTable, 8
 991              	SIGMA_A_D_AMux__addrTable:
 992 00ac 035B0040 		.word	1073765123
 993 00b0 24430040 		.word	1073759012
 994              		.global	SIGMA_A_D_AMux__maskTable
 995              		.align	2
 996              		.type	SIGMA_A_D_AMux__maskTable, %object
 997              		.size	SIGMA_A_D_AMux__maskTable, 2
 998              	SIGMA_A_D_AMux__maskTable:
 999 00b4 40       		.byte	64
 1000 00b5 00       		.byte	0
 1001              		.section	.text.SIGMA_A_D_AMux_Set,"ax",%progbits
 1002              		.align	2
 1003              		.global	SIGMA_A_D_AMux_Set
 1004              		.thumb
 1005              		.thumb_func
 1006              		.type	SIGMA_A_D_AMux_Set, %function
 1007              	SIGMA_A_D_AMux_Set:
 1008              	.LFB10:
 437:.\Generated_Source\PSoC5/cyfitter_cfg.c **** 
 438:.\Generated_Source\PSoC5/cyfitter_cfg.c **** /* This is an implementation detail of the AMux. Code that depends on it may be
 439:.\Generated_Source\PSoC5/cyfitter_cfg.c ****    incompatible with other versions of PSoC Creator. */
 440:.\Generated_Source\PSoC5/cyfitter_cfg.c **** uint8 CYXDATA * const CYCODE SIGMA_A_D_AMux__addrTable[2] = {
 441:.\Generated_Source\PSoC5/cyfitter_cfg.c **** 	(uint8 CYXDATA *)CYREG_DSM0_SW3, 
 442:.\Generated_Source\PSoC5/cyfitter_cfg.c **** 	(uint8 CYXDATA *)CY_AMUX_UNUSED, 
 443:.\Generated_Source\PSoC5/cyfitter_cfg.c **** };
 444:.\Generated_Source\PSoC5/cyfitter_cfg.c **** 
 445:.\Generated_Source\PSoC5/cyfitter_cfg.c **** /* This is an implementation detail of the AMux. Code that depends on it may be
 446:.\Generated_Source\PSoC5/cyfitter_cfg.c ****    incompatible with other versions of PSoC Creator. */
 447:.\Generated_Source\PSoC5/cyfitter_cfg.c **** const uint8 CYCODE SIGMA_A_D_AMux__maskTable[2] = {
 448:.\Generated_Source\PSoC5/cyfitter_cfg.c **** 	0x40u, 
 449:.\Generated_Source\PSoC5/cyfitter_cfg.c **** 	0x00u, 
 450:.\Generated_Source\PSoC5/cyfitter_cfg.c **** };
 451:.\Generated_Source\PSoC5/cyfitter_cfg.c **** 
 452:.\Generated_Source\PSoC5/cyfitter_cfg.c **** /*******************************************************************************
 453:.\Generated_Source\PSoC5/cyfitter_cfg.c **** * Function Name: SIGMA_A_D_AMux_Set
 454:.\Generated_Source\PSoC5/cyfitter_cfg.c **** ********************************************************************************
 455:.\Generated_Source\PSoC5/cyfitter_cfg.c **** * Summary:
 456:.\Generated_Source\PSoC5/cyfitter_cfg.c **** *  This function is used to set a particular channel as active on the AMux.
 457:.\Generated_Source\PSoC5/cyfitter_cfg.c **** *
 458:.\Generated_Source\PSoC5/cyfitter_cfg.c **** * Parameters:  
 459:.\Generated_Source\PSoC5/cyfitter_cfg.c **** *   channel - The mux channel input to set as active
 460:.\Generated_Source\PSoC5/cyfitter_cfg.c **** *
 461:.\Generated_Source\PSoC5/cyfitter_cfg.c **** * Return:
 462:.\Generated_Source\PSoC5/cyfitter_cfg.c **** *   void
 463:.\Generated_Source\PSoC5/cyfitter_cfg.c **** *
 464:.\Generated_Source\PSoC5/cyfitter_cfg.c **** *******************************************************************************/
 465:.\Generated_Source\PSoC5/cyfitter_cfg.c **** void SIGMA_A_D_AMux_Set(uint8 channel)
ARM GAS  C:\Users\glenn\AppData\Local\Temp\cc934L16.s 			page 27


 466:.\Generated_Source\PSoC5/cyfitter_cfg.c **** {
 1009              		.loc 1 466 0
 1010              		.cfi_startproc
 1011              		@ args = 0, pretend = 0, frame = 8
 1012              		@ frame_needed = 1, uses_anonymous_args = 0
 1013              		@ link register save eliminated.
 1014 0000 80B4     		push	{r7}
 1015              		.cfi_def_cfa_offset 4
 1016              		.cfi_offset 7, -4
 1017 0002 83B0     		sub	sp, sp, #12
 1018              		.cfi_def_cfa_offset 16
 1019 0004 00AF     		add	r7, sp, #0
 1020              		.cfi_def_cfa_register 7
 1021 0006 0346     		mov	r3, r0
 1022 0008 FB71     		strb	r3, [r7, #7]
 467:.\Generated_Source\PSoC5/cyfitter_cfg.c **** 	if (channel < 2)
 1023              		.loc 1 467 0
 1024 000a FB79     		ldrb	r3, [r7, #7]	@ zero_extendqisi2
 1025 000c 012B     		cmp	r3, #1
 1026 000e 0ED8     		bhi	.L37
 468:.\Generated_Source\PSoC5/cyfitter_cfg.c **** 	{
 469:.\Generated_Source\PSoC5/cyfitter_cfg.c **** 		*SIGMA_A_D_AMux__addrTable[channel] |= SIGMA_A_D_AMux__maskTable[channel];
 1027              		.loc 1 469 0
 1028 0010 FB79     		ldrb	r3, [r7, #7]	@ zero_extendqisi2
 1029 0012 094A     		ldr	r2, .L39
 1030 0014 52F82330 		ldr	r3, [r2, r3, lsl #2]
 1031 0018 FA79     		ldrb	r2, [r7, #7]	@ zero_extendqisi2
 1032 001a 0749     		ldr	r1, .L39
 1033 001c 51F82220 		ldr	r2, [r1, r2, lsl #2]
 1034 0020 1178     		ldrb	r1, [r2]	@ zero_extendqisi2
 1035 0022 FA79     		ldrb	r2, [r7, #7]	@ zero_extendqisi2
 1036 0024 0548     		ldr	r0, .L39+4
 1037 0026 825C     		ldrb	r2, [r0, r2]	@ zero_extendqisi2
 1038 0028 0A43     		orrs	r2, r2, r1
 1039 002a D2B2     		uxtb	r2, r2
 1040 002c 1A70     		strb	r2, [r3]
 1041              	.L37:
 470:.\Generated_Source\PSoC5/cyfitter_cfg.c **** 	}
 471:.\Generated_Source\PSoC5/cyfitter_cfg.c **** }
 1042              		.loc 1 471 0
 1043 002e 0C37     		adds	r7, r7, #12
 1044              		.cfi_def_cfa_offset 4
 1045 0030 BD46     		mov	sp, r7
 1046              		.cfi_def_cfa_register 13
 1047              		@ sp needed
 1048 0032 5DF8047B 		ldr	r7, [sp], #4
 1049              		.cfi_restore 7
 1050              		.cfi_def_cfa_offset 0
 1051 0036 7047     		bx	lr
 1052              	.L40:
 1053              		.align	2
 1054              	.L39:
 1055 0038 00000000 		.word	SIGMA_A_D_AMux__addrTable
 1056 003c 00000000 		.word	SIGMA_A_D_AMux__maskTable
 1057              		.cfi_endproc
 1058              	.LFE10:
 1059              		.size	SIGMA_A_D_AMux_Set, .-SIGMA_A_D_AMux_Set
ARM GAS  C:\Users\glenn\AppData\Local\Temp\cc934L16.s 			page 28


 1060              		.section	.text.SIGMA_A_D_AMux_Unset,"ax",%progbits
 1061              		.align	2
 1062              		.global	SIGMA_A_D_AMux_Unset
 1063              		.thumb
 1064              		.thumb_func
 1065              		.type	SIGMA_A_D_AMux_Unset, %function
 1066              	SIGMA_A_D_AMux_Unset:
 1067              	.LFB11:
 472:.\Generated_Source\PSoC5/cyfitter_cfg.c **** 
 473:.\Generated_Source\PSoC5/cyfitter_cfg.c **** /*******************************************************************************
 474:.\Generated_Source\PSoC5/cyfitter_cfg.c **** * Function Name: SIGMA_A_D_AMux_Unset
 475:.\Generated_Source\PSoC5/cyfitter_cfg.c **** ********************************************************************************
 476:.\Generated_Source\PSoC5/cyfitter_cfg.c **** * Summary:
 477:.\Generated_Source\PSoC5/cyfitter_cfg.c **** *  This function is used to clear a particular channel from being active on the
 478:.\Generated_Source\PSoC5/cyfitter_cfg.c **** *  AMux.
 479:.\Generated_Source\PSoC5/cyfitter_cfg.c **** *
 480:.\Generated_Source\PSoC5/cyfitter_cfg.c **** * Parameters:  
 481:.\Generated_Source\PSoC5/cyfitter_cfg.c **** *   channel - The mux channel input to mark inactive
 482:.\Generated_Source\PSoC5/cyfitter_cfg.c **** *
 483:.\Generated_Source\PSoC5/cyfitter_cfg.c **** * Return:
 484:.\Generated_Source\PSoC5/cyfitter_cfg.c **** *   void
 485:.\Generated_Source\PSoC5/cyfitter_cfg.c **** *
 486:.\Generated_Source\PSoC5/cyfitter_cfg.c **** *******************************************************************************/
 487:.\Generated_Source\PSoC5/cyfitter_cfg.c **** void SIGMA_A_D_AMux_Unset(uint8 channel)
 488:.\Generated_Source\PSoC5/cyfitter_cfg.c **** {
 1068              		.loc 1 488 0
 1069              		.cfi_startproc
 1070              		@ args = 0, pretend = 0, frame = 8
 1071              		@ frame_needed = 1, uses_anonymous_args = 0
 1072              		@ link register save eliminated.
 1073 0000 80B4     		push	{r7}
 1074              		.cfi_def_cfa_offset 4
 1075              		.cfi_offset 7, -4
 1076 0002 83B0     		sub	sp, sp, #12
 1077              		.cfi_def_cfa_offset 16
 1078 0004 00AF     		add	r7, sp, #0
 1079              		.cfi_def_cfa_register 7
 1080 0006 0346     		mov	r3, r0
 1081 0008 FB71     		strb	r3, [r7, #7]
 489:.\Generated_Source\PSoC5/cyfitter_cfg.c **** 	if (channel < 2)
 1082              		.loc 1 489 0
 1083 000a FB79     		ldrb	r3, [r7, #7]	@ zero_extendqisi2
 1084 000c 012B     		cmp	r3, #1
 1085 000e 10D8     		bhi	.L41
 490:.\Generated_Source\PSoC5/cyfitter_cfg.c **** 	{
 491:.\Generated_Source\PSoC5/cyfitter_cfg.c **** 		*SIGMA_A_D_AMux__addrTable[channel] &= (uint8)~SIGMA_A_D_AMux__maskTable[channel];
 1086              		.loc 1 491 0
 1087 0010 FB79     		ldrb	r3, [r7, #7]	@ zero_extendqisi2
 1088 0012 0A4A     		ldr	r2, .L43
 1089 0014 52F82330 		ldr	r3, [r2, r3, lsl #2]
 1090 0018 FA79     		ldrb	r2, [r7, #7]	@ zero_extendqisi2
 1091 001a 0849     		ldr	r1, .L43
 1092 001c 51F82220 		ldr	r2, [r1, r2, lsl #2]
 1093 0020 1178     		ldrb	r1, [r2]	@ zero_extendqisi2
 1094 0022 FA79     		ldrb	r2, [r7, #7]	@ zero_extendqisi2
 1095 0024 0648     		ldr	r0, .L43+4
 1096 0026 825C     		ldrb	r2, [r0, r2]	@ zero_extendqisi2
ARM GAS  C:\Users\glenn\AppData\Local\Temp\cc934L16.s 			page 29


 1097 0028 D243     		mvns	r2, r2
 1098 002a D2B2     		uxtb	r2, r2
 1099 002c 0A40     		ands	r2, r2, r1
 1100 002e D2B2     		uxtb	r2, r2
 1101 0030 1A70     		strb	r2, [r3]
 1102              	.L41:
 492:.\Generated_Source\PSoC5/cyfitter_cfg.c **** 	}
 493:.\Generated_Source\PSoC5/cyfitter_cfg.c **** }
 1103              		.loc 1 493 0
 1104 0032 0C37     		adds	r7, r7, #12
 1105              		.cfi_def_cfa_offset 4
 1106 0034 BD46     		mov	sp, r7
 1107              		.cfi_def_cfa_register 13
 1108              		@ sp needed
 1109 0036 5DF8047B 		ldr	r7, [sp], #4
 1110              		.cfi_restore 7
 1111              		.cfi_def_cfa_offset 0
 1112 003a 7047     		bx	lr
 1113              	.L44:
 1114              		.align	2
 1115              	.L43:
 1116 003c 00000000 		.word	SIGMA_A_D_AMux__addrTable
 1117 0040 00000000 		.word	SIGMA_A_D_AMux__maskTable
 1118              		.cfi_endproc
 1119              	.LFE11:
 1120              		.size	SIGMA_A_D_AMux_Unset, .-SIGMA_A_D_AMux_Unset
 1121              		.section	.text.cyfitter_cfg,"ax",%progbits
 1122              		.align	2
 1123              		.global	cyfitter_cfg
 1124              		.thumb
 1125              		.thumb_func
 1126              		.type	cyfitter_cfg, %function
 1127              	cyfitter_cfg:
 1128              	.LFB12:
 494:.\Generated_Source\PSoC5/cyfitter_cfg.c **** 
 495:.\Generated_Source\PSoC5/cyfitter_cfg.c **** 
 496:.\Generated_Source\PSoC5/cyfitter_cfg.c **** 
 497:.\Generated_Source\PSoC5/cyfitter_cfg.c **** /*******************************************************************************
 498:.\Generated_Source\PSoC5/cyfitter_cfg.c **** * Function Name: cyfitter_cfg
 499:.\Generated_Source\PSoC5/cyfitter_cfg.c **** ********************************************************************************
 500:.\Generated_Source\PSoC5/cyfitter_cfg.c **** * Summary:
 501:.\Generated_Source\PSoC5/cyfitter_cfg.c **** *  This function is called by the start-up code for the selected device. It
 502:.\Generated_Source\PSoC5/cyfitter_cfg.c **** *  performs all of the necessary device configuration based on the design
 503:.\Generated_Source\PSoC5/cyfitter_cfg.c **** *  settings.  This includes settings from the Design Wide Resources (DWR) such
 504:.\Generated_Source\PSoC5/cyfitter_cfg.c **** *  as Clocks and Pins as well as any component configuration that is necessary.
 505:.\Generated_Source\PSoC5/cyfitter_cfg.c **** *
 506:.\Generated_Source\PSoC5/cyfitter_cfg.c **** * Parameters:  
 507:.\Generated_Source\PSoC5/cyfitter_cfg.c **** *   void
 508:.\Generated_Source\PSoC5/cyfitter_cfg.c **** *
 509:.\Generated_Source\PSoC5/cyfitter_cfg.c **** * Return:
 510:.\Generated_Source\PSoC5/cyfitter_cfg.c **** *   void
 511:.\Generated_Source\PSoC5/cyfitter_cfg.c **** *
 512:.\Generated_Source\PSoC5/cyfitter_cfg.c **** *******************************************************************************/
 513:.\Generated_Source\PSoC5/cyfitter_cfg.c **** 
 514:.\Generated_Source\PSoC5/cyfitter_cfg.c **** void cyfitter_cfg(void)
 515:.\Generated_Source\PSoC5/cyfitter_cfg.c **** {
 1129              		.loc 1 515 0
ARM GAS  C:\Users\glenn\AppData\Local\Temp\cc934L16.s 			page 30


 1130              		.cfi_startproc
 1131              		@ args = 0, pretend = 0, frame = 8
 1132              		@ frame_needed = 1, uses_anonymous_args = 0
 1133 0000 80B5     		push	{r7, lr}
 1134              		.cfi_def_cfa_offset 8
 1135              		.cfi_offset 7, -8
 1136              		.cfi_offset 14, -4
 1137 0002 82B0     		sub	sp, sp, #8
 1138              		.cfi_def_cfa_offset 16
 1139 0004 00AF     		add	r7, sp, #0
 1140              		.cfi_def_cfa_register 7
 516:.\Generated_Source\PSoC5/cyfitter_cfg.c **** 	/* IOPINS0_0 Address: CYREG_PRT0_DM0 Size (bytes): 8 */
 517:.\Generated_Source\PSoC5/cyfitter_cfg.c **** 	static const uint8 CYCODE BS_IOPINS0_0_VAL[] = {
 518:.\Generated_Source\PSoC5/cyfitter_cfg.c **** 		0x00u, 0x00u, 0x00u, 0x00u, 0x00u, 0x00u, 0xFFu, 0x00u};
 519:.\Generated_Source\PSoC5/cyfitter_cfg.c **** 
 520:.\Generated_Source\PSoC5/cyfitter_cfg.c **** 	/* IOPINS0_8 Address: CYREG_PRT15_DM0 Size (bytes): 8 */
 521:.\Generated_Source\PSoC5/cyfitter_cfg.c **** 	static const uint8 CYCODE BS_IOPINS0_8_VAL[] = {
 522:.\Generated_Source\PSoC5/cyfitter_cfg.c **** 		0x00u, 0x12u, 0x12u, 0x00u, 0x12u, 0x12u, 0x00u, 0x00u};
 523:.\Generated_Source\PSoC5/cyfitter_cfg.c **** 
 524:.\Generated_Source\PSoC5/cyfitter_cfg.c **** 	/* IOPINS0_1 Address: CYREG_PRT1_DR Size (bytes): 10 */
 525:.\Generated_Source\PSoC5/cyfitter_cfg.c **** 	static const uint8 CYCODE BS_IOPINS0_1_VAL[] = {
 526:.\Generated_Source\PSoC5/cyfitter_cfg.c **** 		0x00u, 0x00u, 0x30u, 0xD4u, 0xC0u, 0x00u, 0xC0u, 0x00u, 0x00u, 0x00u};
 527:.\Generated_Source\PSoC5/cyfitter_cfg.c **** 
 528:.\Generated_Source\PSoC5/cyfitter_cfg.c **** 	/* IOPINS0_2 Address: CYREG_PRT2_DR Size (bytes): 10 */
 529:.\Generated_Source\PSoC5/cyfitter_cfg.c **** 	static const uint8 CYCODE BS_IOPINS0_2_VAL[] = {
 530:.\Generated_Source\PSoC5/cyfitter_cfg.c **** 		0x07u, 0x00u, 0x00u, 0x07u, 0x02u, 0x00u, 0x00u, 0x08u, 0x08u, 0x00u};
 531:.\Generated_Source\PSoC5/cyfitter_cfg.c **** 
 532:.\Generated_Source\PSoC5/cyfitter_cfg.c **** 	/* IOPINS0_3 Address: CYREG_PRT3_DM0 Size (bytes): 8 */
 533:.\Generated_Source\PSoC5/cyfitter_cfg.c **** 	static const uint8 CYCODE BS_IOPINS0_3_VAL[] = {
 534:.\Generated_Source\PSoC5/cyfitter_cfg.c **** 		0x00u, 0x00u, 0x00u, 0x00u, 0x00u, 0x00u, 0xFFu, 0x00u};
 535:.\Generated_Source\PSoC5/cyfitter_cfg.c **** 
 536:.\Generated_Source\PSoC5/cyfitter_cfg.c **** 	/* PHUB_CFGMEM1 Address: CYREG_PHUB_CFGMEM1_CFG0 Size (bytes): 4 */
 537:.\Generated_Source\PSoC5/cyfitter_cfg.c **** 	static const uint8 CYCODE BS_PHUB_CFGMEM1_VAL[] = {
 538:.\Generated_Source\PSoC5/cyfitter_cfg.c **** 		0x00u, 0x01u, 0x00u, 0x00u};
 539:.\Generated_Source\PSoC5/cyfitter_cfg.c **** 
 540:.\Generated_Source\PSoC5/cyfitter_cfg.c **** #ifdef CYGlobalIntDisable
 541:.\Generated_Source\PSoC5/cyfitter_cfg.c **** 	/* Disable interrupts by default. Let user enable if/when they want. */
 542:.\Generated_Source\PSoC5/cyfitter_cfg.c **** 	CYGlobalIntDisable
 1141              		.loc 1 542 0
 1142              	@ 542 ".\Generated_Source\PSoC5\cyfitter_cfg.c" 1
 1143 0006 72B6     		CPSID   i
 1144              	@ 0 "" 2
 543:.\Generated_Source\PSoC5/cyfitter_cfg.c **** #endif
 544:.\Generated_Source\PSoC5/cyfitter_cfg.c **** 
 545:.\Generated_Source\PSoC5/cyfitter_cfg.c **** 	/* Enable/Disable Debug functionality based on settings from System DWR */
 546:.\Generated_Source\PSoC5/cyfitter_cfg.c **** 	CY_SET_XTND_REG8((void CYFAR *)CYREG_MLOGIC_DEBUG, (CY_GET_XTND_REG8((void CYFAR *)CYREG_MLOGIC_DE
 1145              		.loc 1 546 0
 1146              		.thumb
 1147 0008 434A     		ldr	r2, .L48
 1148 000a 434B     		ldr	r3, .L48
 1149 000c 1B78     		ldrb	r3, [r3]
 1150 000e DBB2     		uxtb	r3, r3
 1151 0010 43F00403 		orr	r3, r3, #4
 1152 0014 DBB2     		uxtb	r3, r3
 1153 0016 1370     		strb	r3, [r2]
 1154              	.LBB3:
 547:.\Generated_Source\PSoC5/cyfitter_cfg.c **** 
ARM GAS  C:\Users\glenn\AppData\Local\Temp\cc934L16.s 			page 31


 548:.\Generated_Source\PSoC5/cyfitter_cfg.c **** 	{
 549:.\Generated_Source\PSoC5/cyfitter_cfg.c **** 		static const uint32 CYCODE cy_cfg_addr_table[] = {
 550:.\Generated_Source\PSoC5/cyfitter_cfg.c **** 			0x40005205u, /* Base address: 0x40005200 Count: 5 */
 551:.\Generated_Source\PSoC5/cyfitter_cfg.c **** 			0x40005B01u, /* Base address: 0x40005B00 Count: 1 */
 552:.\Generated_Source\PSoC5/cyfitter_cfg.c **** 			0x40006402u, /* Base address: 0x40006400 Count: 2 */
 553:.\Generated_Source\PSoC5/cyfitter_cfg.c **** 			0x40006501u, /* Base address: 0x40006500 Count: 1 */
 554:.\Generated_Source\PSoC5/cyfitter_cfg.c **** 			0x40010101u, /* Base address: 0x40010100 Count: 1 */
 555:.\Generated_Source\PSoC5/cyfitter_cfg.c **** 			0x40010501u, /* Base address: 0x40010500 Count: 1 */
 556:.\Generated_Source\PSoC5/cyfitter_cfg.c **** 			0x4001060Bu, /* Base address: 0x40010600 Count: 11 */
 557:.\Generated_Source\PSoC5/cyfitter_cfg.c **** 			0x4001072Au, /* Base address: 0x40010700 Count: 42 */
 558:.\Generated_Source\PSoC5/cyfitter_cfg.c **** 			0x40010837u, /* Base address: 0x40010800 Count: 55 */
 559:.\Generated_Source\PSoC5/cyfitter_cfg.c **** 			0x40010943u, /* Base address: 0x40010900 Count: 67 */
 560:.\Generated_Source\PSoC5/cyfitter_cfg.c **** 			0x40010A32u, /* Base address: 0x40010A00 Count: 50 */
 561:.\Generated_Source\PSoC5/cyfitter_cfg.c **** 			0x40010B41u, /* Base address: 0x40010B00 Count: 65 */
 562:.\Generated_Source\PSoC5/cyfitter_cfg.c **** 			0x40010C40u, /* Base address: 0x40010C00 Count: 64 */
 563:.\Generated_Source\PSoC5/cyfitter_cfg.c **** 			0x40010D3Au, /* Base address: 0x40010D00 Count: 58 */
 564:.\Generated_Source\PSoC5/cyfitter_cfg.c **** 			0x40010E32u, /* Base address: 0x40010E00 Count: 50 */
 565:.\Generated_Source\PSoC5/cyfitter_cfg.c **** 			0x40010F2Fu, /* Base address: 0x40010F00 Count: 47 */
 566:.\Generated_Source\PSoC5/cyfitter_cfg.c **** 			0x40011404u, /* Base address: 0x40011400 Count: 4 */
 567:.\Generated_Source\PSoC5/cyfitter_cfg.c **** 			0x4001150Fu, /* Base address: 0x40011500 Count: 15 */
 568:.\Generated_Source\PSoC5/cyfitter_cfg.c **** 			0x40011611u, /* Base address: 0x40011600 Count: 17 */
 569:.\Generated_Source\PSoC5/cyfitter_cfg.c **** 			0x40011733u, /* Base address: 0x40011700 Count: 51 */
 570:.\Generated_Source\PSoC5/cyfitter_cfg.c **** 			0x4001182Au, /* Base address: 0x40011800 Count: 42 */
 571:.\Generated_Source\PSoC5/cyfitter_cfg.c **** 			0x4001194Bu, /* Base address: 0x40011900 Count: 75 */
 572:.\Generated_Source\PSoC5/cyfitter_cfg.c **** 			0x40011A31u, /* Base address: 0x40011A00 Count: 49 */
 573:.\Generated_Source\PSoC5/cyfitter_cfg.c **** 			0x40011B4Cu, /* Base address: 0x40011B00 Count: 76 */
 574:.\Generated_Source\PSoC5/cyfitter_cfg.c **** 			0x4001400Eu, /* Base address: 0x40014000 Count: 14 */
 575:.\Generated_Source\PSoC5/cyfitter_cfg.c **** 			0x4001410Cu, /* Base address: 0x40014100 Count: 12 */
 576:.\Generated_Source\PSoC5/cyfitter_cfg.c **** 			0x40014209u, /* Base address: 0x40014200 Count: 9 */
 577:.\Generated_Source\PSoC5/cyfitter_cfg.c **** 			0x40014311u, /* Base address: 0x40014300 Count: 17 */
 578:.\Generated_Source\PSoC5/cyfitter_cfg.c **** 			0x40014402u, /* Base address: 0x40014400 Count: 2 */
 579:.\Generated_Source\PSoC5/cyfitter_cfg.c **** 			0x40014506u, /* Base address: 0x40014500 Count: 6 */
 580:.\Generated_Source\PSoC5/cyfitter_cfg.c **** 			0x40014613u, /* Base address: 0x40014600 Count: 19 */
 581:.\Generated_Source\PSoC5/cyfitter_cfg.c **** 			0x4001470Fu, /* Base address: 0x40014700 Count: 15 */
 582:.\Generated_Source\PSoC5/cyfitter_cfg.c **** 			0x4001480Bu, /* Base address: 0x40014800 Count: 11 */
 583:.\Generated_Source\PSoC5/cyfitter_cfg.c **** 			0x4001490Bu, /* Base address: 0x40014900 Count: 11 */
 584:.\Generated_Source\PSoC5/cyfitter_cfg.c **** 			0x40014C10u, /* Base address: 0x40014C00 Count: 16 */
 585:.\Generated_Source\PSoC5/cyfitter_cfg.c **** 			0x40014D05u, /* Base address: 0x40014D00 Count: 5 */
 586:.\Generated_Source\PSoC5/cyfitter_cfg.c **** 			0x4001500Bu, /* Base address: 0x40015000 Count: 11 */
 587:.\Generated_Source\PSoC5/cyfitter_cfg.c **** 			0x40015104u, /* Base address: 0x40015100 Count: 4 */
 588:.\Generated_Source\PSoC5/cyfitter_cfg.c **** 		};
 589:.\Generated_Source\PSoC5/cyfitter_cfg.c **** 
 590:.\Generated_Source\PSoC5/cyfitter_cfg.c **** 		static const cy_cfg_addrvalue_t CYCODE cy_cfg_data_table[] = {
 591:.\Generated_Source\PSoC5/cyfitter_cfg.c **** 			{0x08u, 0x80u},
 592:.\Generated_Source\PSoC5/cyfitter_cfg.c **** 			{0x09u, 0xC0u},
 593:.\Generated_Source\PSoC5/cyfitter_cfg.c **** 			{0x78u, 0x02u},
 594:.\Generated_Source\PSoC5/cyfitter_cfg.c **** 			{0x7Au, 0x12u},
 595:.\Generated_Source\PSoC5/cyfitter_cfg.c **** 			{0x7Bu, 0x02u},
 596:.\Generated_Source\PSoC5/cyfitter_cfg.c **** 			{0x27u, 0x84u},
 597:.\Generated_Source\PSoC5/cyfitter_cfg.c **** 			{0x8Bu, 0x38u},
 598:.\Generated_Source\PSoC5/cyfitter_cfg.c **** 			{0x8Eu, 0x0Fu},
 599:.\Generated_Source\PSoC5/cyfitter_cfg.c **** 			{0x8Bu, 0x72u},
 600:.\Generated_Source\PSoC5/cyfitter_cfg.c **** 			{0xE6u, 0x20u},
 601:.\Generated_Source\PSoC5/cyfitter_cfg.c **** 			{0xE2u, 0x08u},
 602:.\Generated_Source\PSoC5/cyfitter_cfg.c **** 			{0x58u, 0x04u},
 603:.\Generated_Source\PSoC5/cyfitter_cfg.c **** 			{0x59u, 0x04u},
 604:.\Generated_Source\PSoC5/cyfitter_cfg.c **** 			{0x5Cu, 0x11u},
ARM GAS  C:\Users\glenn\AppData\Local\Temp\cc934L16.s 			page 32


 605:.\Generated_Source\PSoC5/cyfitter_cfg.c **** 			{0x5Fu, 0x01u},
 606:.\Generated_Source\PSoC5/cyfitter_cfg.c **** 			{0xD4u, 0x01u},
 607:.\Generated_Source\PSoC5/cyfitter_cfg.c **** 			{0xD8u, 0x04u},
 608:.\Generated_Source\PSoC5/cyfitter_cfg.c **** 			{0xD9u, 0x04u},
 609:.\Generated_Source\PSoC5/cyfitter_cfg.c **** 			{0xDBu, 0x0Eu},
 610:.\Generated_Source\PSoC5/cyfitter_cfg.c **** 			{0xDCu, 0x11u},
 611:.\Generated_Source\PSoC5/cyfitter_cfg.c **** 			{0xDDu, 0x10u},
 612:.\Generated_Source\PSoC5/cyfitter_cfg.c **** 			{0xDFu, 0x01u},
 613:.\Generated_Source\PSoC5/cyfitter_cfg.c **** 			{0x00u, 0x10u},
 614:.\Generated_Source\PSoC5/cyfitter_cfg.c **** 			{0x01u, 0x08u},
 615:.\Generated_Source\PSoC5/cyfitter_cfg.c **** 			{0x04u, 0x10u},
 616:.\Generated_Source\PSoC5/cyfitter_cfg.c **** 			{0x08u, 0x01u},
 617:.\Generated_Source\PSoC5/cyfitter_cfg.c **** 			{0x09u, 0x80u},
 618:.\Generated_Source\PSoC5/cyfitter_cfg.c **** 			{0x0Au, 0x44u},
 619:.\Generated_Source\PSoC5/cyfitter_cfg.c **** 			{0x0Cu, 0x08u},
 620:.\Generated_Source\PSoC5/cyfitter_cfg.c **** 			{0x0Du, 0x80u},
 621:.\Generated_Source\PSoC5/cyfitter_cfg.c **** 			{0x0Eu, 0x44u},
 622:.\Generated_Source\PSoC5/cyfitter_cfg.c **** 			{0x10u, 0x08u},
 623:.\Generated_Source\PSoC5/cyfitter_cfg.c **** 			{0x12u, 0x40u},
 624:.\Generated_Source\PSoC5/cyfitter_cfg.c **** 			{0x16u, 0x84u},
 625:.\Generated_Source\PSoC5/cyfitter_cfg.c **** 			{0x28u, 0x01u},
 626:.\Generated_Source\PSoC5/cyfitter_cfg.c **** 			{0x29u, 0x08u},
 627:.\Generated_Source\PSoC5/cyfitter_cfg.c **** 			{0x2Au, 0x04u},
 628:.\Generated_Source\PSoC5/cyfitter_cfg.c **** 			{0x2Cu, 0x08u},
 629:.\Generated_Source\PSoC5/cyfitter_cfg.c **** 			{0x2Du, 0x08u},
 630:.\Generated_Source\PSoC5/cyfitter_cfg.c **** 			{0x2Eu, 0x40u},
 631:.\Generated_Source\PSoC5/cyfitter_cfg.c **** 			{0x2Fu, 0x80u},
 632:.\Generated_Source\PSoC5/cyfitter_cfg.c **** 			{0x30u, 0x08u},
 633:.\Generated_Source\PSoC5/cyfitter_cfg.c **** 			{0x31u, 0x80u},
 634:.\Generated_Source\PSoC5/cyfitter_cfg.c **** 			{0x33u, 0x80u},
 635:.\Generated_Source\PSoC5/cyfitter_cfg.c **** 			{0x38u, 0x10u},
 636:.\Generated_Source\PSoC5/cyfitter_cfg.c **** 			{0x3Au, 0xC8u},
 637:.\Generated_Source\PSoC5/cyfitter_cfg.c **** 			{0x3Cu, 0x10u},
 638:.\Generated_Source\PSoC5/cyfitter_cfg.c **** 			{0x3Eu, 0x8Cu},
 639:.\Generated_Source\PSoC5/cyfitter_cfg.c **** 			{0x5Bu, 0x80u},
 640:.\Generated_Source\PSoC5/cyfitter_cfg.c **** 			{0x79u, 0x08u},
 641:.\Generated_Source\PSoC5/cyfitter_cfg.c **** 			{0x80u, 0x04u},
 642:.\Generated_Source\PSoC5/cyfitter_cfg.c **** 			{0x85u, 0x04u},
 643:.\Generated_Source\PSoC5/cyfitter_cfg.c **** 			{0x8Bu, 0x80u},
 644:.\Generated_Source\PSoC5/cyfitter_cfg.c **** 			{0xC0u, 0x46u},
 645:.\Generated_Source\PSoC5/cyfitter_cfg.c **** 			{0xC2u, 0xFBu},
 646:.\Generated_Source\PSoC5/cyfitter_cfg.c **** 			{0xC4u, 0x5Au},
 647:.\Generated_Source\PSoC5/cyfitter_cfg.c **** 			{0xCAu, 0xFAu},
 648:.\Generated_Source\PSoC5/cyfitter_cfg.c **** 			{0xCCu, 0x0Au},
 649:.\Generated_Source\PSoC5/cyfitter_cfg.c **** 			{0xCEu, 0x7Eu},
 650:.\Generated_Source\PSoC5/cyfitter_cfg.c **** 			{0xD6u, 0x08u},
 651:.\Generated_Source\PSoC5/cyfitter_cfg.c **** 			{0xDEu, 0x02u},
 652:.\Generated_Source\PSoC5/cyfitter_cfg.c **** 			{0xE2u, 0x08u},
 653:.\Generated_Source\PSoC5/cyfitter_cfg.c **** 			{0xE6u, 0x20u},
 654:.\Generated_Source\PSoC5/cyfitter_cfg.c **** 			{0xEEu, 0x04u},
 655:.\Generated_Source\PSoC5/cyfitter_cfg.c **** 			{0x01u, 0xC3u},
 656:.\Generated_Source\PSoC5/cyfitter_cfg.c **** 			{0x02u, 0x02u},
 657:.\Generated_Source\PSoC5/cyfitter_cfg.c **** 			{0x06u, 0x20u},
 658:.\Generated_Source\PSoC5/cyfitter_cfg.c **** 			{0x07u, 0xF3u},
 659:.\Generated_Source\PSoC5/cyfitter_cfg.c **** 			{0x09u, 0x0Fu},
 660:.\Generated_Source\PSoC5/cyfitter_cfg.c **** 			{0x0Bu, 0xF0u},
 661:.\Generated_Source\PSoC5/cyfitter_cfg.c **** 			{0x0Du, 0x08u},
ARM GAS  C:\Users\glenn\AppData\Local\Temp\cc934L16.s 			page 33


 662:.\Generated_Source\PSoC5/cyfitter_cfg.c **** 			{0x0Eu, 0x01u},
 663:.\Generated_Source\PSoC5/cyfitter_cfg.c **** 			{0x11u, 0xF3u},
 664:.\Generated_Source\PSoC5/cyfitter_cfg.c **** 			{0x12u, 0x04u},
 665:.\Generated_Source\PSoC5/cyfitter_cfg.c **** 			{0x13u, 0x0Cu},
 666:.\Generated_Source\PSoC5/cyfitter_cfg.c **** 			{0x14u, 0x08u},
 667:.\Generated_Source\PSoC5/cyfitter_cfg.c **** 			{0x15u, 0x0Cu},
 668:.\Generated_Source\PSoC5/cyfitter_cfg.c **** 			{0x19u, 0x1Cu},
 669:.\Generated_Source\PSoC5/cyfitter_cfg.c **** 			{0x1Bu, 0xE3u},
 670:.\Generated_Source\PSoC5/cyfitter_cfg.c **** 			{0x1Eu, 0x04u},
 671:.\Generated_Source\PSoC5/cyfitter_cfg.c **** 			{0x20u, 0x08u},
 672:.\Generated_Source\PSoC5/cyfitter_cfg.c **** 			{0x21u, 0x04u},
 673:.\Generated_Source\PSoC5/cyfitter_cfg.c **** 			{0x25u, 0x41u},
 674:.\Generated_Source\PSoC5/cyfitter_cfg.c **** 			{0x26u, 0x20u},
 675:.\Generated_Source\PSoC5/cyfitter_cfg.c **** 			{0x28u, 0x01u},
 676:.\Generated_Source\PSoC5/cyfitter_cfg.c **** 			{0x29u, 0x82u},
 677:.\Generated_Source\PSoC5/cyfitter_cfg.c **** 			{0x2Du, 0xFFu},
 678:.\Generated_Source\PSoC5/cyfitter_cfg.c **** 			{0x2Eu, 0x10u},
 679:.\Generated_Source\PSoC5/cyfitter_cfg.c **** 			{0x30u, 0x08u},
 680:.\Generated_Source\PSoC5/cyfitter_cfg.c **** 			{0x31u, 0xC0u},
 681:.\Generated_Source\PSoC5/cyfitter_cfg.c **** 			{0x32u, 0x04u},
 682:.\Generated_Source\PSoC5/cyfitter_cfg.c **** 			{0x33u, 0x1Cu},
 683:.\Generated_Source\PSoC5/cyfitter_cfg.c **** 			{0x34u, 0x30u},
 684:.\Generated_Source\PSoC5/cyfitter_cfg.c **** 			{0x35u, 0x2Cu},
 685:.\Generated_Source\PSoC5/cyfitter_cfg.c **** 			{0x36u, 0x03u},
 686:.\Generated_Source\PSoC5/cyfitter_cfg.c **** 			{0x37u, 0x0Fu},
 687:.\Generated_Source\PSoC5/cyfitter_cfg.c **** 			{0x38u, 0x02u},
 688:.\Generated_Source\PSoC5/cyfitter_cfg.c **** 			{0x3Bu, 0xA0u},
 689:.\Generated_Source\PSoC5/cyfitter_cfg.c **** 			{0x3Eu, 0x15u},
 690:.\Generated_Source\PSoC5/cyfitter_cfg.c **** 			{0x52u, 0x03u},
 691:.\Generated_Source\PSoC5/cyfitter_cfg.c **** 			{0x53u, 0x02u},
 692:.\Generated_Source\PSoC5/cyfitter_cfg.c **** 			{0x58u, 0x04u},
 693:.\Generated_Source\PSoC5/cyfitter_cfg.c **** 			{0x59u, 0x04u},
 694:.\Generated_Source\PSoC5/cyfitter_cfg.c **** 			{0x5Bu, 0x04u},
 695:.\Generated_Source\PSoC5/cyfitter_cfg.c **** 			{0x5Cu, 0x29u},
 696:.\Generated_Source\PSoC5/cyfitter_cfg.c **** 			{0x5Du, 0x10u},
 697:.\Generated_Source\PSoC5/cyfitter_cfg.c **** 			{0x5Fu, 0x01u},
 698:.\Generated_Source\PSoC5/cyfitter_cfg.c **** 			{0x86u, 0x02u},
 699:.\Generated_Source\PSoC5/cyfitter_cfg.c **** 			{0x91u, 0x01u},
 700:.\Generated_Source\PSoC5/cyfitter_cfg.c **** 			{0xA3u, 0x03u},
 701:.\Generated_Source\PSoC5/cyfitter_cfg.c **** 			{0xA6u, 0x01u},
 702:.\Generated_Source\PSoC5/cyfitter_cfg.c **** 			{0xB0u, 0x01u},
 703:.\Generated_Source\PSoC5/cyfitter_cfg.c **** 			{0xB1u, 0x02u},
 704:.\Generated_Source\PSoC5/cyfitter_cfg.c **** 			{0xB5u, 0x01u},
 705:.\Generated_Source\PSoC5/cyfitter_cfg.c **** 			{0xB6u, 0x02u},
 706:.\Generated_Source\PSoC5/cyfitter_cfg.c **** 			{0xD8u, 0x04u},
 707:.\Generated_Source\PSoC5/cyfitter_cfg.c **** 			{0xD9u, 0x0Cu},
 708:.\Generated_Source\PSoC5/cyfitter_cfg.c **** 			{0xDCu, 0x11u},
 709:.\Generated_Source\PSoC5/cyfitter_cfg.c **** 			{0xDFu, 0x01u},
 710:.\Generated_Source\PSoC5/cyfitter_cfg.c **** 			{0x01u, 0x20u},
 711:.\Generated_Source\PSoC5/cyfitter_cfg.c **** 			{0x02u, 0x80u},
 712:.\Generated_Source\PSoC5/cyfitter_cfg.c **** 			{0x03u, 0x10u},
 713:.\Generated_Source\PSoC5/cyfitter_cfg.c **** 			{0x04u, 0x08u},
 714:.\Generated_Source\PSoC5/cyfitter_cfg.c **** 			{0x05u, 0x40u},
 715:.\Generated_Source\PSoC5/cyfitter_cfg.c **** 			{0x06u, 0x60u},
 716:.\Generated_Source\PSoC5/cyfitter_cfg.c **** 			{0x08u, 0x20u},
 717:.\Generated_Source\PSoC5/cyfitter_cfg.c **** 			{0x09u, 0x40u},
 718:.\Generated_Source\PSoC5/cyfitter_cfg.c **** 			{0x0Au, 0x40u},
ARM GAS  C:\Users\glenn\AppData\Local\Temp\cc934L16.s 			page 34


 719:.\Generated_Source\PSoC5/cyfitter_cfg.c **** 			{0x0Eu, 0x21u},
 720:.\Generated_Source\PSoC5/cyfitter_cfg.c **** 			{0x0Fu, 0x80u},
 721:.\Generated_Source\PSoC5/cyfitter_cfg.c **** 			{0x11u, 0x02u},
 722:.\Generated_Source\PSoC5/cyfitter_cfg.c **** 			{0x13u, 0x18u},
 723:.\Generated_Source\PSoC5/cyfitter_cfg.c **** 			{0x14u, 0x80u},
 724:.\Generated_Source\PSoC5/cyfitter_cfg.c **** 			{0x15u, 0x24u},
 725:.\Generated_Source\PSoC5/cyfitter_cfg.c **** 			{0x16u, 0x02u},
 726:.\Generated_Source\PSoC5/cyfitter_cfg.c **** 			{0x17u, 0x40u},
 727:.\Generated_Source\PSoC5/cyfitter_cfg.c **** 			{0x18u, 0x01u},
 728:.\Generated_Source\PSoC5/cyfitter_cfg.c **** 			{0x1Au, 0x40u},
 729:.\Generated_Source\PSoC5/cyfitter_cfg.c **** 			{0x1Bu, 0x01u},
 730:.\Generated_Source\PSoC5/cyfitter_cfg.c **** 			{0x1Du, 0x61u},
 731:.\Generated_Source\PSoC5/cyfitter_cfg.c **** 			{0x1Fu, 0x84u},
 732:.\Generated_Source\PSoC5/cyfitter_cfg.c **** 			{0x21u, 0x12u},
 733:.\Generated_Source\PSoC5/cyfitter_cfg.c **** 			{0x25u, 0x90u},
 734:.\Generated_Source\PSoC5/cyfitter_cfg.c **** 			{0x26u, 0x0Du},
 735:.\Generated_Source\PSoC5/cyfitter_cfg.c **** 			{0x27u, 0x05u},
 736:.\Generated_Source\PSoC5/cyfitter_cfg.c **** 			{0x2Bu, 0x80u},
 737:.\Generated_Source\PSoC5/cyfitter_cfg.c **** 			{0x2Cu, 0x02u},
 738:.\Generated_Source\PSoC5/cyfitter_cfg.c **** 			{0x2Du, 0x04u},
 739:.\Generated_Source\PSoC5/cyfitter_cfg.c **** 			{0x2Eu, 0x20u},
 740:.\Generated_Source\PSoC5/cyfitter_cfg.c **** 			{0x2Fu, 0x40u},
 741:.\Generated_Source\PSoC5/cyfitter_cfg.c **** 			{0x31u, 0x02u},
 742:.\Generated_Source\PSoC5/cyfitter_cfg.c **** 			{0x34u, 0x10u},
 743:.\Generated_Source\PSoC5/cyfitter_cfg.c **** 			{0x35u, 0x04u},
 744:.\Generated_Source\PSoC5/cyfitter_cfg.c **** 			{0x37u, 0x01u},
 745:.\Generated_Source\PSoC5/cyfitter_cfg.c **** 			{0x3Cu, 0x80u},
 746:.\Generated_Source\PSoC5/cyfitter_cfg.c **** 			{0x3Du, 0x28u},
 747:.\Generated_Source\PSoC5/cyfitter_cfg.c **** 			{0x3Eu, 0x02u},
 748:.\Generated_Source\PSoC5/cyfitter_cfg.c **** 			{0x4Cu, 0x03u},
 749:.\Generated_Source\PSoC5/cyfitter_cfg.c **** 			{0x6Du, 0x40u},
 750:.\Generated_Source\PSoC5/cyfitter_cfg.c **** 			{0x6Eu, 0x20u},
 751:.\Generated_Source\PSoC5/cyfitter_cfg.c **** 			{0x6Fu, 0x02u},
 752:.\Generated_Source\PSoC5/cyfitter_cfg.c **** 			{0x79u, 0x40u},
 753:.\Generated_Source\PSoC5/cyfitter_cfg.c **** 			{0x7Cu, 0x01u},
 754:.\Generated_Source\PSoC5/cyfitter_cfg.c **** 			{0x7Du, 0x02u},
 755:.\Generated_Source\PSoC5/cyfitter_cfg.c **** 			{0x87u, 0x02u},
 756:.\Generated_Source\PSoC5/cyfitter_cfg.c **** 			{0x89u, 0x10u},
 757:.\Generated_Source\PSoC5/cyfitter_cfg.c **** 			{0x8Cu, 0x80u},
 758:.\Generated_Source\PSoC5/cyfitter_cfg.c **** 			{0x94u, 0x02u},
 759:.\Generated_Source\PSoC5/cyfitter_cfg.c **** 			{0x97u, 0x18u},
 760:.\Generated_Source\PSoC5/cyfitter_cfg.c **** 			{0x9Cu, 0x40u},
 761:.\Generated_Source\PSoC5/cyfitter_cfg.c **** 			{0x9Du, 0x28u},
 762:.\Generated_Source\PSoC5/cyfitter_cfg.c **** 			{0x9Fu, 0x01u},
 763:.\Generated_Source\PSoC5/cyfitter_cfg.c **** 			{0xA3u, 0x40u},
 764:.\Generated_Source\PSoC5/cyfitter_cfg.c **** 			{0xA5u, 0x65u},
 765:.\Generated_Source\PSoC5/cyfitter_cfg.c **** 			{0xA6u, 0x0Du},
 766:.\Generated_Source\PSoC5/cyfitter_cfg.c **** 			{0xA7u, 0x01u},
 767:.\Generated_Source\PSoC5/cyfitter_cfg.c **** 			{0xAEu, 0x20u},
 768:.\Generated_Source\PSoC5/cyfitter_cfg.c **** 			{0xC0u, 0xBEu},
 769:.\Generated_Source\PSoC5/cyfitter_cfg.c **** 			{0xC2u, 0xBBu},
 770:.\Generated_Source\PSoC5/cyfitter_cfg.c **** 			{0xC4u, 0xFEu},
 771:.\Generated_Source\PSoC5/cyfitter_cfg.c **** 			{0xCAu, 0xF1u},
 772:.\Generated_Source\PSoC5/cyfitter_cfg.c **** 			{0xCCu, 0xE1u},
 773:.\Generated_Source\PSoC5/cyfitter_cfg.c **** 			{0xCEu, 0xF0u},
 774:.\Generated_Source\PSoC5/cyfitter_cfg.c **** 			{0xDEu, 0x08u},
 775:.\Generated_Source\PSoC5/cyfitter_cfg.c **** 			{0xE6u, 0x20u},
ARM GAS  C:\Users\glenn\AppData\Local\Temp\cc934L16.s 			page 35


 776:.\Generated_Source\PSoC5/cyfitter_cfg.c **** 			{0xEEu, 0x06u},
 777:.\Generated_Source\PSoC5/cyfitter_cfg.c **** 			{0x06u, 0x01u},
 778:.\Generated_Source\PSoC5/cyfitter_cfg.c **** 			{0x19u, 0x01u},
 779:.\Generated_Source\PSoC5/cyfitter_cfg.c **** 			{0x26u, 0x04u},
 780:.\Generated_Source\PSoC5/cyfitter_cfg.c **** 			{0x2Au, 0x02u},
 781:.\Generated_Source\PSoC5/cyfitter_cfg.c **** 			{0x32u, 0x01u},
 782:.\Generated_Source\PSoC5/cyfitter_cfg.c **** 			{0x34u, 0x02u},
 783:.\Generated_Source\PSoC5/cyfitter_cfg.c **** 			{0x36u, 0x04u},
 784:.\Generated_Source\PSoC5/cyfitter_cfg.c **** 			{0x37u, 0x01u},
 785:.\Generated_Source\PSoC5/cyfitter_cfg.c **** 			{0x3Fu, 0x40u},
 786:.\Generated_Source\PSoC5/cyfitter_cfg.c **** 			{0x58u, 0x04u},
 787:.\Generated_Source\PSoC5/cyfitter_cfg.c **** 			{0x59u, 0x04u},
 788:.\Generated_Source\PSoC5/cyfitter_cfg.c **** 			{0x5Bu, 0x04u},
 789:.\Generated_Source\PSoC5/cyfitter_cfg.c **** 			{0x5Cu, 0x16u},
 790:.\Generated_Source\PSoC5/cyfitter_cfg.c **** 			{0x5Fu, 0x01u},
 791:.\Generated_Source\PSoC5/cyfitter_cfg.c **** 			{0x9Au, 0x01u},
 792:.\Generated_Source\PSoC5/cyfitter_cfg.c **** 			{0xAAu, 0x01u},
 793:.\Generated_Source\PSoC5/cyfitter_cfg.c **** 			{0xB0u, 0x01u},
 794:.\Generated_Source\PSoC5/cyfitter_cfg.c **** 			{0xBEu, 0x01u},
 795:.\Generated_Source\PSoC5/cyfitter_cfg.c **** 			{0xC0u, 0x43u},
 796:.\Generated_Source\PSoC5/cyfitter_cfg.c **** 			{0xC1u, 0x05u},
 797:.\Generated_Source\PSoC5/cyfitter_cfg.c **** 			{0xC2u, 0x06u},
 798:.\Generated_Source\PSoC5/cyfitter_cfg.c **** 			{0xC4u, 0x02u},
 799:.\Generated_Source\PSoC5/cyfitter_cfg.c **** 			{0xC6u, 0x0Eu},
 800:.\Generated_Source\PSoC5/cyfitter_cfg.c **** 			{0xC7u, 0x0Cu},
 801:.\Generated_Source\PSoC5/cyfitter_cfg.c **** 			{0xC8u, 0x14u},
 802:.\Generated_Source\PSoC5/cyfitter_cfg.c **** 			{0xC9u, 0xFFu},
 803:.\Generated_Source\PSoC5/cyfitter_cfg.c **** 			{0xCAu, 0xFFu},
 804:.\Generated_Source\PSoC5/cyfitter_cfg.c **** 			{0xCBu, 0xFFu},
 805:.\Generated_Source\PSoC5/cyfitter_cfg.c **** 			{0xCCu, 0x62u},
 806:.\Generated_Source\PSoC5/cyfitter_cfg.c **** 			{0xCDu, 0xA0u},
 807:.\Generated_Source\PSoC5/cyfitter_cfg.c **** 			{0xCEu, 0xF0u},
 808:.\Generated_Source\PSoC5/cyfitter_cfg.c **** 			{0xCFu, 0x41u},
 809:.\Generated_Source\PSoC5/cyfitter_cfg.c **** 			{0xD0u, 0x0Cu},
 810:.\Generated_Source\PSoC5/cyfitter_cfg.c **** 			{0xD4u, 0x18u},
 811:.\Generated_Source\PSoC5/cyfitter_cfg.c **** 			{0xD6u, 0x04u},
 812:.\Generated_Source\PSoC5/cyfitter_cfg.c **** 			{0xD8u, 0x04u},
 813:.\Generated_Source\PSoC5/cyfitter_cfg.c **** 			{0xD9u, 0x04u},
 814:.\Generated_Source\PSoC5/cyfitter_cfg.c **** 			{0xDAu, 0x04u},
 815:.\Generated_Source\PSoC5/cyfitter_cfg.c **** 			{0xDBu, 0x04u},
 816:.\Generated_Source\PSoC5/cyfitter_cfg.c **** 			{0xDCu, 0x11u},
 817:.\Generated_Source\PSoC5/cyfitter_cfg.c **** 			{0xDDu, 0x22u},
 818:.\Generated_Source\PSoC5/cyfitter_cfg.c **** 			{0xDFu, 0x01u},
 819:.\Generated_Source\PSoC5/cyfitter_cfg.c **** 			{0xE6u, 0x40u},
 820:.\Generated_Source\PSoC5/cyfitter_cfg.c **** 			{0xE7u, 0x02u},
 821:.\Generated_Source\PSoC5/cyfitter_cfg.c **** 			{0xE9u, 0x10u},
 822:.\Generated_Source\PSoC5/cyfitter_cfg.c **** 			{0xEAu, 0x30u},
 823:.\Generated_Source\PSoC5/cyfitter_cfg.c **** 			{0xEBu, 0x10u},
 824:.\Generated_Source\PSoC5/cyfitter_cfg.c **** 			{0xEDu, 0x10u},
 825:.\Generated_Source\PSoC5/cyfitter_cfg.c **** 			{0xEEu, 0x10u},
 826:.\Generated_Source\PSoC5/cyfitter_cfg.c **** 			{0xEFu, 0x12u},
 827:.\Generated_Source\PSoC5/cyfitter_cfg.c **** 			{0x02u, 0x20u},
 828:.\Generated_Source\PSoC5/cyfitter_cfg.c **** 			{0x05u, 0x20u},
 829:.\Generated_Source\PSoC5/cyfitter_cfg.c **** 			{0x08u, 0x81u},
 830:.\Generated_Source\PSoC5/cyfitter_cfg.c **** 			{0x09u, 0x41u},
 831:.\Generated_Source\PSoC5/cyfitter_cfg.c **** 			{0x0Bu, 0x40u},
 832:.\Generated_Source\PSoC5/cyfitter_cfg.c **** 			{0x0Eu, 0x08u},
ARM GAS  C:\Users\glenn\AppData\Local\Temp\cc934L16.s 			page 36


 833:.\Generated_Source\PSoC5/cyfitter_cfg.c **** 			{0x0Fu, 0x52u},
 834:.\Generated_Source\PSoC5/cyfitter_cfg.c **** 			{0x10u, 0x14u},
 835:.\Generated_Source\PSoC5/cyfitter_cfg.c **** 			{0x14u, 0x80u},
 836:.\Generated_Source\PSoC5/cyfitter_cfg.c **** 			{0x15u, 0x04u},
 837:.\Generated_Source\PSoC5/cyfitter_cfg.c **** 			{0x16u, 0x49u},
 838:.\Generated_Source\PSoC5/cyfitter_cfg.c **** 			{0x19u, 0x54u},
 839:.\Generated_Source\PSoC5/cyfitter_cfg.c **** 			{0x1Fu, 0x01u},
 840:.\Generated_Source\PSoC5/cyfitter_cfg.c **** 			{0x22u, 0x80u},
 841:.\Generated_Source\PSoC5/cyfitter_cfg.c **** 			{0x28u, 0x40u},
 842:.\Generated_Source\PSoC5/cyfitter_cfg.c **** 			{0x29u, 0x28u},
 843:.\Generated_Source\PSoC5/cyfitter_cfg.c **** 			{0x2Au, 0x01u},
 844:.\Generated_Source\PSoC5/cyfitter_cfg.c **** 			{0x2Du, 0x0Du},
 845:.\Generated_Source\PSoC5/cyfitter_cfg.c **** 			{0x30u, 0x01u},
 846:.\Generated_Source\PSoC5/cyfitter_cfg.c **** 			{0x33u, 0x10u},
 847:.\Generated_Source\PSoC5/cyfitter_cfg.c **** 			{0x34u, 0x41u},
 848:.\Generated_Source\PSoC5/cyfitter_cfg.c **** 			{0x35u, 0x20u},
 849:.\Generated_Source\PSoC5/cyfitter_cfg.c **** 			{0x39u, 0x01u},
 850:.\Generated_Source\PSoC5/cyfitter_cfg.c **** 			{0x3Au, 0x44u},
 851:.\Generated_Source\PSoC5/cyfitter_cfg.c **** 			{0x3Du, 0x80u},
 852:.\Generated_Source\PSoC5/cyfitter_cfg.c **** 			{0x3Fu, 0x10u},
 853:.\Generated_Source\PSoC5/cyfitter_cfg.c **** 			{0x45u, 0x24u},
 854:.\Generated_Source\PSoC5/cyfitter_cfg.c **** 			{0x47u, 0x01u},
 855:.\Generated_Source\PSoC5/cyfitter_cfg.c **** 			{0x4Cu, 0x01u},
 856:.\Generated_Source\PSoC5/cyfitter_cfg.c **** 			{0x4Eu, 0x08u},
 857:.\Generated_Source\PSoC5/cyfitter_cfg.c **** 			{0x56u, 0x08u},
 858:.\Generated_Source\PSoC5/cyfitter_cfg.c **** 			{0x57u, 0x40u},
 859:.\Generated_Source\PSoC5/cyfitter_cfg.c **** 			{0x59u, 0x54u},
 860:.\Generated_Source\PSoC5/cyfitter_cfg.c **** 			{0x5Eu, 0x02u},
 861:.\Generated_Source\PSoC5/cyfitter_cfg.c **** 			{0x62u, 0x04u},
 862:.\Generated_Source\PSoC5/cyfitter_cfg.c **** 			{0x63u, 0x10u},
 863:.\Generated_Source\PSoC5/cyfitter_cfg.c **** 			{0x67u, 0x8Au},
 864:.\Generated_Source\PSoC5/cyfitter_cfg.c **** 			{0x69u, 0x90u},
 865:.\Generated_Source\PSoC5/cyfitter_cfg.c **** 			{0x87u, 0x40u},
 866:.\Generated_Source\PSoC5/cyfitter_cfg.c **** 			{0x89u, 0x10u},
 867:.\Generated_Source\PSoC5/cyfitter_cfg.c **** 			{0x8Du, 0x40u},
 868:.\Generated_Source\PSoC5/cyfitter_cfg.c **** 			{0x8Eu, 0x80u},
 869:.\Generated_Source\PSoC5/cyfitter_cfg.c **** 			{0x91u, 0x01u},
 870:.\Generated_Source\PSoC5/cyfitter_cfg.c **** 			{0x97u, 0x10u},
 871:.\Generated_Source\PSoC5/cyfitter_cfg.c **** 			{0x98u, 0x14u},
 872:.\Generated_Source\PSoC5/cyfitter_cfg.c **** 			{0x9Bu, 0x10u},
 873:.\Generated_Source\PSoC5/cyfitter_cfg.c **** 			{0x9Cu, 0x41u},
 874:.\Generated_Source\PSoC5/cyfitter_cfg.c **** 			{0x9Du, 0x28u},
 875:.\Generated_Source\PSoC5/cyfitter_cfg.c **** 			{0xA5u, 0x41u},
 876:.\Generated_Source\PSoC5/cyfitter_cfg.c **** 			{0xA7u, 0x01u},
 877:.\Generated_Source\PSoC5/cyfitter_cfg.c **** 			{0xA8u, 0x04u},
 878:.\Generated_Source\PSoC5/cyfitter_cfg.c **** 			{0xB0u, 0x14u},
 879:.\Generated_Source\PSoC5/cyfitter_cfg.c **** 			{0xB6u, 0x40u},
 880:.\Generated_Source\PSoC5/cyfitter_cfg.c **** 			{0xB7u, 0x10u},
 881:.\Generated_Source\PSoC5/cyfitter_cfg.c **** 			{0xC0u, 0x44u},
 882:.\Generated_Source\PSoC5/cyfitter_cfg.c **** 			{0xC2u, 0xF0u},
 883:.\Generated_Source\PSoC5/cyfitter_cfg.c **** 			{0xC4u, 0xF6u},
 884:.\Generated_Source\PSoC5/cyfitter_cfg.c **** 			{0xCAu, 0xC7u},
 885:.\Generated_Source\PSoC5/cyfitter_cfg.c **** 			{0xCCu, 0xB5u},
 886:.\Generated_Source\PSoC5/cyfitter_cfg.c **** 			{0xCEu, 0x3Bu},
 887:.\Generated_Source\PSoC5/cyfitter_cfg.c **** 			{0xD0u, 0xE0u},
 888:.\Generated_Source\PSoC5/cyfitter_cfg.c **** 			{0xD2u, 0x30u},
 889:.\Generated_Source\PSoC5/cyfitter_cfg.c **** 			{0xD6u, 0x8Eu},
ARM GAS  C:\Users\glenn\AppData\Local\Temp\cc934L16.s 			page 37


 890:.\Generated_Source\PSoC5/cyfitter_cfg.c **** 			{0xD8u, 0xB0u},
 891:.\Generated_Source\PSoC5/cyfitter_cfg.c **** 			{0xECu, 0x01u},
 892:.\Generated_Source\PSoC5/cyfitter_cfg.c **** 			{0x01u, 0x01u},
 893:.\Generated_Source\PSoC5/cyfitter_cfg.c **** 			{0x09u, 0x01u},
 894:.\Generated_Source\PSoC5/cyfitter_cfg.c **** 			{0x0Du, 0x01u},
 895:.\Generated_Source\PSoC5/cyfitter_cfg.c **** 			{0x11u, 0x01u},
 896:.\Generated_Source\PSoC5/cyfitter_cfg.c **** 			{0x19u, 0x01u},
 897:.\Generated_Source\PSoC5/cyfitter_cfg.c **** 			{0x1Fu, 0x01u},
 898:.\Generated_Source\PSoC5/cyfitter_cfg.c **** 			{0x25u, 0x01u},
 899:.\Generated_Source\PSoC5/cyfitter_cfg.c **** 			{0x35u, 0x01u},
 900:.\Generated_Source\PSoC5/cyfitter_cfg.c **** 			{0x58u, 0x04u},
 901:.\Generated_Source\PSoC5/cyfitter_cfg.c **** 			{0x59u, 0x04u},
 902:.\Generated_Source\PSoC5/cyfitter_cfg.c **** 			{0x5Cu, 0x11u},
 903:.\Generated_Source\PSoC5/cyfitter_cfg.c **** 			{0x5Fu, 0x01u},
 904:.\Generated_Source\PSoC5/cyfitter_cfg.c **** 			{0x80u, 0x10u},
 905:.\Generated_Source\PSoC5/cyfitter_cfg.c **** 			{0x82u, 0x40u},
 906:.\Generated_Source\PSoC5/cyfitter_cfg.c **** 			{0x84u, 0x0Cu},
 907:.\Generated_Source\PSoC5/cyfitter_cfg.c **** 			{0x85u, 0x53u},
 908:.\Generated_Source\PSoC5/cyfitter_cfg.c **** 			{0x86u, 0x71u},
 909:.\Generated_Source\PSoC5/cyfitter_cfg.c **** 			{0x87u, 0x04u},
 910:.\Generated_Source\PSoC5/cyfitter_cfg.c **** 			{0x89u, 0x20u},
 911:.\Generated_Source\PSoC5/cyfitter_cfg.c **** 			{0x8Bu, 0x05u},
 912:.\Generated_Source\PSoC5/cyfitter_cfg.c **** 			{0x8Cu, 0x10u},
 913:.\Generated_Source\PSoC5/cyfitter_cfg.c **** 			{0x8Eu, 0xACu},
 914:.\Generated_Source\PSoC5/cyfitter_cfg.c **** 			{0x8Fu, 0x08u},
 915:.\Generated_Source\PSoC5/cyfitter_cfg.c **** 			{0x92u, 0x03u},
 916:.\Generated_Source\PSoC5/cyfitter_cfg.c **** 			{0x96u, 0x20u},
 917:.\Generated_Source\PSoC5/cyfitter_cfg.c **** 			{0x99u, 0x4Au},
 918:.\Generated_Source\PSoC5/cyfitter_cfg.c **** 			{0x9Bu, 0x14u},
 919:.\Generated_Source\PSoC5/cyfitter_cfg.c **** 			{0x9Cu, 0x14u},
 920:.\Generated_Source\PSoC5/cyfitter_cfg.c **** 			{0xA0u, 0x09u},
 921:.\Generated_Source\PSoC5/cyfitter_cfg.c **** 			{0xA1u, 0x53u},
 922:.\Generated_Source\PSoC5/cyfitter_cfg.c **** 			{0xA2u, 0xD0u},
 923:.\Generated_Source\PSoC5/cyfitter_cfg.c **** 			{0xA3u, 0x0Cu},
 924:.\Generated_Source\PSoC5/cyfitter_cfg.c **** 			{0xA4u, 0xDCu},
 925:.\Generated_Source\PSoC5/cyfitter_cfg.c **** 			{0xA5u, 0x03u},
 926:.\Generated_Source\PSoC5/cyfitter_cfg.c **** 			{0xA6u, 0x22u},
 927:.\Generated_Source\PSoC5/cyfitter_cfg.c **** 			{0xA7u, 0x04u},
 928:.\Generated_Source\PSoC5/cyfitter_cfg.c **** 			{0xB0u, 0x1Fu},
 929:.\Generated_Source\PSoC5/cyfitter_cfg.c **** 			{0xB1u, 0x0Fu},
 930:.\Generated_Source\PSoC5/cyfitter_cfg.c **** 			{0xB4u, 0xE0u},
 931:.\Generated_Source\PSoC5/cyfitter_cfg.c **** 			{0xB5u, 0x40u},
 932:.\Generated_Source\PSoC5/cyfitter_cfg.c **** 			{0xB7u, 0x30u},
 933:.\Generated_Source\PSoC5/cyfitter_cfg.c **** 			{0xB9u, 0xA0u},
 934:.\Generated_Source\PSoC5/cyfitter_cfg.c **** 			{0xBAu, 0x20u},
 935:.\Generated_Source\PSoC5/cyfitter_cfg.c **** 			{0xBBu, 0x02u},
 936:.\Generated_Source\PSoC5/cyfitter_cfg.c **** 			{0xC0u, 0x46u},
 937:.\Generated_Source\PSoC5/cyfitter_cfg.c **** 			{0xC1u, 0x02u},
 938:.\Generated_Source\PSoC5/cyfitter_cfg.c **** 			{0xC6u, 0xCBu},
 939:.\Generated_Source\PSoC5/cyfitter_cfg.c **** 			{0xC7u, 0x0Eu},
 940:.\Generated_Source\PSoC5/cyfitter_cfg.c **** 			{0xC8u, 0x1Cu},
 941:.\Generated_Source\PSoC5/cyfitter_cfg.c **** 			{0xC9u, 0xFFu},
 942:.\Generated_Source\PSoC5/cyfitter_cfg.c **** 			{0xCAu, 0xFFu},
 943:.\Generated_Source\PSoC5/cyfitter_cfg.c **** 			{0xCBu, 0xFFu},
 944:.\Generated_Source\PSoC5/cyfitter_cfg.c **** 			{0xCEu, 0xF0u},
 945:.\Generated_Source\PSoC5/cyfitter_cfg.c **** 			{0xCFu, 0x44u},
 946:.\Generated_Source\PSoC5/cyfitter_cfg.c **** 			{0xD0u, 0x0Cu},
ARM GAS  C:\Users\glenn\AppData\Local\Temp\cc934L16.s 			page 38


 947:.\Generated_Source\PSoC5/cyfitter_cfg.c **** 			{0xD8u, 0x04u},
 948:.\Generated_Source\PSoC5/cyfitter_cfg.c **** 			{0xD9u, 0x04u},
 949:.\Generated_Source\PSoC5/cyfitter_cfg.c **** 			{0xDAu, 0x04u},
 950:.\Generated_Source\PSoC5/cyfitter_cfg.c **** 			{0xDCu, 0x22u},
 951:.\Generated_Source\PSoC5/cyfitter_cfg.c **** 			{0xDDu, 0x02u},
 952:.\Generated_Source\PSoC5/cyfitter_cfg.c **** 			{0xDFu, 0x01u},
 953:.\Generated_Source\PSoC5/cyfitter_cfg.c **** 			{0xE6u, 0xC0u},
 954:.\Generated_Source\PSoC5/cyfitter_cfg.c **** 			{0xEAu, 0x40u},
 955:.\Generated_Source\PSoC5/cyfitter_cfg.c **** 			{0xEBu, 0x02u},
 956:.\Generated_Source\PSoC5/cyfitter_cfg.c **** 			{0x00u, 0x44u},
 957:.\Generated_Source\PSoC5/cyfitter_cfg.c **** 			{0x02u, 0x80u},
 958:.\Generated_Source\PSoC5/cyfitter_cfg.c **** 			{0x05u, 0x28u},
 959:.\Generated_Source\PSoC5/cyfitter_cfg.c **** 			{0x09u, 0x88u},
 960:.\Generated_Source\PSoC5/cyfitter_cfg.c **** 			{0x0Au, 0x40u},
 961:.\Generated_Source\PSoC5/cyfitter_cfg.c **** 			{0x0Fu, 0x52u},
 962:.\Generated_Source\PSoC5/cyfitter_cfg.c **** 			{0x10u, 0x20u},
 963:.\Generated_Source\PSoC5/cyfitter_cfg.c **** 			{0x13u, 0x06u},
 964:.\Generated_Source\PSoC5/cyfitter_cfg.c **** 			{0x14u, 0x41u},
 965:.\Generated_Source\PSoC5/cyfitter_cfg.c **** 			{0x18u, 0x04u},
 966:.\Generated_Source\PSoC5/cyfitter_cfg.c **** 			{0x1Au, 0x40u},
 967:.\Generated_Source\PSoC5/cyfitter_cfg.c **** 			{0x20u, 0xC0u},
 968:.\Generated_Source\PSoC5/cyfitter_cfg.c **** 			{0x21u, 0x40u},
 969:.\Generated_Source\PSoC5/cyfitter_cfg.c **** 			{0x22u, 0x20u},
 970:.\Generated_Source\PSoC5/cyfitter_cfg.c **** 			{0x23u, 0x02u},
 971:.\Generated_Source\PSoC5/cyfitter_cfg.c **** 			{0x24u, 0x08u},
 972:.\Generated_Source\PSoC5/cyfitter_cfg.c **** 			{0x28u, 0x80u},
 973:.\Generated_Source\PSoC5/cyfitter_cfg.c **** 			{0x2Bu, 0x20u},
 974:.\Generated_Source\PSoC5/cyfitter_cfg.c **** 			{0x2Du, 0x08u},
 975:.\Generated_Source\PSoC5/cyfitter_cfg.c **** 			{0x30u, 0x20u},
 976:.\Generated_Source\PSoC5/cyfitter_cfg.c **** 			{0x34u, 0x41u},
 977:.\Generated_Source\PSoC5/cyfitter_cfg.c **** 			{0x35u, 0x20u},
 978:.\Generated_Source\PSoC5/cyfitter_cfg.c **** 			{0x38u, 0x04u},
 979:.\Generated_Source\PSoC5/cyfitter_cfg.c **** 			{0x39u, 0x80u},
 980:.\Generated_Source\PSoC5/cyfitter_cfg.c **** 			{0x3Bu, 0x20u},
 981:.\Generated_Source\PSoC5/cyfitter_cfg.c **** 			{0x3Du, 0x81u},
 982:.\Generated_Source\PSoC5/cyfitter_cfg.c **** 			{0x3Fu, 0x52u},
 983:.\Generated_Source\PSoC5/cyfitter_cfg.c **** 			{0x40u, 0xC4u},
 984:.\Generated_Source\PSoC5/cyfitter_cfg.c **** 			{0x48u, 0x08u},
 985:.\Generated_Source\PSoC5/cyfitter_cfg.c **** 			{0x4Bu, 0x20u},
 986:.\Generated_Source\PSoC5/cyfitter_cfg.c **** 			{0x51u, 0x90u},
 987:.\Generated_Source\PSoC5/cyfitter_cfg.c **** 			{0x52u, 0x04u},
 988:.\Generated_Source\PSoC5/cyfitter_cfg.c **** 			{0x53u, 0x20u},
 989:.\Generated_Source\PSoC5/cyfitter_cfg.c **** 			{0x82u, 0x20u},
 990:.\Generated_Source\PSoC5/cyfitter_cfg.c **** 			{0x93u, 0x04u},
 991:.\Generated_Source\PSoC5/cyfitter_cfg.c **** 			{0x94u, 0x04u},
 992:.\Generated_Source\PSoC5/cyfitter_cfg.c **** 			{0x95u, 0xA1u},
 993:.\Generated_Source\PSoC5/cyfitter_cfg.c **** 			{0x97u, 0x10u},
 994:.\Generated_Source\PSoC5/cyfitter_cfg.c **** 			{0x9Cu, 0x40u},
 995:.\Generated_Source\PSoC5/cyfitter_cfg.c **** 			{0x9Du, 0x28u},
 996:.\Generated_Source\PSoC5/cyfitter_cfg.c **** 			{0x9Eu, 0x04u},
 997:.\Generated_Source\PSoC5/cyfitter_cfg.c **** 			{0xA0u, 0x08u},
 998:.\Generated_Source\PSoC5/cyfitter_cfg.c **** 			{0xA1u, 0x08u},
 999:.\Generated_Source\PSoC5/cyfitter_cfg.c **** 			{0xA2u, 0x80u},
1000:.\Generated_Source\PSoC5/cyfitter_cfg.c **** 			{0xA4u, 0x40u},
1001:.\Generated_Source\PSoC5/cyfitter_cfg.c **** 			{0xA5u, 0x41u},
1002:.\Generated_Source\PSoC5/cyfitter_cfg.c **** 			{0xA7u, 0x01u},
1003:.\Generated_Source\PSoC5/cyfitter_cfg.c **** 			{0xB2u, 0x08u},
ARM GAS  C:\Users\glenn\AppData\Local\Temp\cc934L16.s 			page 39


1004:.\Generated_Source\PSoC5/cyfitter_cfg.c **** 			{0xB3u, 0x02u},
1005:.\Generated_Source\PSoC5/cyfitter_cfg.c **** 			{0xC0u, 0x6Du},
1006:.\Generated_Source\PSoC5/cyfitter_cfg.c **** 			{0xC2u, 0xBDu},
1007:.\Generated_Source\PSoC5/cyfitter_cfg.c **** 			{0xC4u, 0x9Cu},
1008:.\Generated_Source\PSoC5/cyfitter_cfg.c **** 			{0xCAu, 0x43u},
1009:.\Generated_Source\PSoC5/cyfitter_cfg.c **** 			{0xCCu, 0xB4u},
1010:.\Generated_Source\PSoC5/cyfitter_cfg.c **** 			{0xCEu, 0xBEu},
1011:.\Generated_Source\PSoC5/cyfitter_cfg.c **** 			{0xD0u, 0x05u},
1012:.\Generated_Source\PSoC5/cyfitter_cfg.c **** 			{0xD2u, 0x04u},
1013:.\Generated_Source\PSoC5/cyfitter_cfg.c **** 			{0xE4u, 0x01u},
1014:.\Generated_Source\PSoC5/cyfitter_cfg.c **** 			{0x04u, 0x03u},
1015:.\Generated_Source\PSoC5/cyfitter_cfg.c **** 			{0x05u, 0x11u},
1016:.\Generated_Source\PSoC5/cyfitter_cfg.c **** 			{0x07u, 0x0Eu},
1017:.\Generated_Source\PSoC5/cyfitter_cfg.c **** 			{0x0Bu, 0x10u},
1018:.\Generated_Source\PSoC5/cyfitter_cfg.c **** 			{0x0Cu, 0x03u},
1019:.\Generated_Source\PSoC5/cyfitter_cfg.c **** 			{0x0Fu, 0x0Cu},
1020:.\Generated_Source\PSoC5/cyfitter_cfg.c **** 			{0x16u, 0x01u},
1021:.\Generated_Source\PSoC5/cyfitter_cfg.c **** 			{0x17u, 0x13u},
1022:.\Generated_Source\PSoC5/cyfitter_cfg.c **** 			{0x18u, 0x02u},
1023:.\Generated_Source\PSoC5/cyfitter_cfg.c **** 			{0x19u, 0x0Cu},
1024:.\Generated_Source\PSoC5/cyfitter_cfg.c **** 			{0x1Bu, 0x13u},
1025:.\Generated_Source\PSoC5/cyfitter_cfg.c **** 			{0x1Fu, 0x08u},
1026:.\Generated_Source\PSoC5/cyfitter_cfg.c **** 			{0x21u, 0x11u},
1027:.\Generated_Source\PSoC5/cyfitter_cfg.c **** 			{0x23u, 0x06u},
1028:.\Generated_Source\PSoC5/cyfitter_cfg.c **** 			{0x25u, 0x20u},
1029:.\Generated_Source\PSoC5/cyfitter_cfg.c **** 			{0x32u, 0x03u},
1030:.\Generated_Source\PSoC5/cyfitter_cfg.c **** 			{0x33u, 0x20u},
1031:.\Generated_Source\PSoC5/cyfitter_cfg.c **** 			{0x35u, 0x0Fu},
1032:.\Generated_Source\PSoC5/cyfitter_cfg.c **** 			{0x37u, 0x10u},
1033:.\Generated_Source\PSoC5/cyfitter_cfg.c **** 			{0x38u, 0x08u},
1034:.\Generated_Source\PSoC5/cyfitter_cfg.c **** 			{0x3Bu, 0x20u},
1035:.\Generated_Source\PSoC5/cyfitter_cfg.c **** 			{0x3Eu, 0x04u},
1036:.\Generated_Source\PSoC5/cyfitter_cfg.c **** 			{0x3Fu, 0x44u},
1037:.\Generated_Source\PSoC5/cyfitter_cfg.c **** 			{0x40u, 0x03u},
1038:.\Generated_Source\PSoC5/cyfitter_cfg.c **** 			{0x45u, 0x40u},
1039:.\Generated_Source\PSoC5/cyfitter_cfg.c **** 			{0x49u, 0xFFu},
1040:.\Generated_Source\PSoC5/cyfitter_cfg.c **** 			{0x4Au, 0x07u},
1041:.\Generated_Source\PSoC5/cyfitter_cfg.c **** 			{0x4Bu, 0xFFu},
1042:.\Generated_Source\PSoC5/cyfitter_cfg.c **** 			{0x4Cu, 0x40u},
1043:.\Generated_Source\PSoC5/cyfitter_cfg.c **** 			{0x4Du, 0x20u},
1044:.\Generated_Source\PSoC5/cyfitter_cfg.c **** 			{0x4Eu, 0xF0u},
1045:.\Generated_Source\PSoC5/cyfitter_cfg.c **** 			{0x4Fu, 0x05u},
1046:.\Generated_Source\PSoC5/cyfitter_cfg.c **** 			{0x50u, 0x08u},
1047:.\Generated_Source\PSoC5/cyfitter_cfg.c **** 			{0x54u, 0x01u},
1048:.\Generated_Source\PSoC5/cyfitter_cfg.c **** 			{0x56u, 0x04u},
1049:.\Generated_Source\PSoC5/cyfitter_cfg.c **** 			{0x58u, 0x04u},
1050:.\Generated_Source\PSoC5/cyfitter_cfg.c **** 			{0x59u, 0x04u},
1051:.\Generated_Source\PSoC5/cyfitter_cfg.c **** 			{0x5Au, 0x04u},
1052:.\Generated_Source\PSoC5/cyfitter_cfg.c **** 			{0x5Bu, 0x04u},
1053:.\Generated_Source\PSoC5/cyfitter_cfg.c **** 			{0x5Cu, 0x21u},
1054:.\Generated_Source\PSoC5/cyfitter_cfg.c **** 			{0x5Du, 0x22u},
1055:.\Generated_Source\PSoC5/cyfitter_cfg.c **** 			{0x5Fu, 0x01u},
1056:.\Generated_Source\PSoC5/cyfitter_cfg.c **** 			{0x60u, 0x40u},
1057:.\Generated_Source\PSoC5/cyfitter_cfg.c **** 			{0x61u, 0xA8u},
1058:.\Generated_Source\PSoC5/cyfitter_cfg.c **** 			{0x62u, 0x40u},
1059:.\Generated_Source\PSoC5/cyfitter_cfg.c **** 			{0x63u, 0x20u},
1060:.\Generated_Source\PSoC5/cyfitter_cfg.c **** 			{0xD8u, 0x04u},
ARM GAS  C:\Users\glenn\AppData\Local\Temp\cc934L16.s 			page 40


1061:.\Generated_Source\PSoC5/cyfitter_cfg.c **** 			{0xD9u, 0x04u},
1062:.\Generated_Source\PSoC5/cyfitter_cfg.c **** 			{0xDCu, 0x11u},
1063:.\Generated_Source\PSoC5/cyfitter_cfg.c **** 			{0xDFu, 0x01u},
1064:.\Generated_Source\PSoC5/cyfitter_cfg.c **** 			{0x00u, 0x84u},
1065:.\Generated_Source\PSoC5/cyfitter_cfg.c **** 			{0x01u, 0x20u},
1066:.\Generated_Source\PSoC5/cyfitter_cfg.c **** 			{0x02u, 0x01u},
1067:.\Generated_Source\PSoC5/cyfitter_cfg.c **** 			{0x05u, 0x28u},
1068:.\Generated_Source\PSoC5/cyfitter_cfg.c **** 			{0x08u, 0x41u},
1069:.\Generated_Source\PSoC5/cyfitter_cfg.c **** 			{0x09u, 0x29u},
1070:.\Generated_Source\PSoC5/cyfitter_cfg.c **** 			{0x0Fu, 0x52u},
1071:.\Generated_Source\PSoC5/cyfitter_cfg.c **** 			{0x10u, 0x10u},
1072:.\Generated_Source\PSoC5/cyfitter_cfg.c **** 			{0x11u, 0x81u},
1073:.\Generated_Source\PSoC5/cyfitter_cfg.c **** 			{0x13u, 0x50u},
1074:.\Generated_Source\PSoC5/cyfitter_cfg.c **** 			{0x14u, 0x41u},
1075:.\Generated_Source\PSoC5/cyfitter_cfg.c **** 			{0x18u, 0x10u},
1076:.\Generated_Source\PSoC5/cyfitter_cfg.c **** 			{0x21u, 0x20u},
1077:.\Generated_Source\PSoC5/cyfitter_cfg.c **** 			{0x22u, 0x44u},
1078:.\Generated_Source\PSoC5/cyfitter_cfg.c **** 			{0x23u, 0x04u},
1079:.\Generated_Source\PSoC5/cyfitter_cfg.c **** 			{0x2Au, 0x0Du},
1080:.\Generated_Source\PSoC5/cyfitter_cfg.c **** 			{0x2Cu, 0x10u},
1081:.\Generated_Source\PSoC5/cyfitter_cfg.c **** 			{0x2Du, 0x09u},
1082:.\Generated_Source\PSoC5/cyfitter_cfg.c **** 			{0x30u, 0x08u},
1083:.\Generated_Source\PSoC5/cyfitter_cfg.c **** 			{0x31u, 0x20u},
1084:.\Generated_Source\PSoC5/cyfitter_cfg.c **** 			{0x32u, 0x80u},
1085:.\Generated_Source\PSoC5/cyfitter_cfg.c **** 			{0x34u, 0x41u},
1086:.\Generated_Source\PSoC5/cyfitter_cfg.c **** 			{0x35u, 0x20u},
1087:.\Generated_Source\PSoC5/cyfitter_cfg.c **** 			{0x38u, 0x04u},
1088:.\Generated_Source\PSoC5/cyfitter_cfg.c **** 			{0x39u, 0xA0u},
1089:.\Generated_Source\PSoC5/cyfitter_cfg.c **** 			{0x3Du, 0x80u},
1090:.\Generated_Source\PSoC5/cyfitter_cfg.c **** 			{0x3Fu, 0x10u},
1091:.\Generated_Source\PSoC5/cyfitter_cfg.c **** 			{0x40u, 0x10u},
1092:.\Generated_Source\PSoC5/cyfitter_cfg.c **** 			{0x41u, 0x10u},
1093:.\Generated_Source\PSoC5/cyfitter_cfg.c **** 			{0x43u, 0x10u},
1094:.\Generated_Source\PSoC5/cyfitter_cfg.c **** 			{0x4Au, 0x80u},
1095:.\Generated_Source\PSoC5/cyfitter_cfg.c **** 			{0x50u, 0x08u},
1096:.\Generated_Source\PSoC5/cyfitter_cfg.c **** 			{0x51u, 0x08u},
1097:.\Generated_Source\PSoC5/cyfitter_cfg.c **** 			{0x5Au, 0x88u},
1098:.\Generated_Source\PSoC5/cyfitter_cfg.c **** 			{0x5Bu, 0x12u},
1099:.\Generated_Source\PSoC5/cyfitter_cfg.c **** 			{0x62u, 0x02u},
1100:.\Generated_Source\PSoC5/cyfitter_cfg.c **** 			{0x8Au, 0x02u},
1101:.\Generated_Source\PSoC5/cyfitter_cfg.c **** 			{0xC0u, 0x67u},
1102:.\Generated_Source\PSoC5/cyfitter_cfg.c **** 			{0xC2u, 0xBFu},
1103:.\Generated_Source\PSoC5/cyfitter_cfg.c **** 			{0xC4u, 0x9Fu},
1104:.\Generated_Source\PSoC5/cyfitter_cfg.c **** 			{0xCAu, 0xC3u},
1105:.\Generated_Source\PSoC5/cyfitter_cfg.c **** 			{0xCCu, 0xBEu},
1106:.\Generated_Source\PSoC5/cyfitter_cfg.c **** 			{0xCEu, 0x3Eu},
1107:.\Generated_Source\PSoC5/cyfitter_cfg.c **** 			{0xD0u, 0x02u},
1108:.\Generated_Source\PSoC5/cyfitter_cfg.c **** 			{0xD6u, 0x0Fu},
1109:.\Generated_Source\PSoC5/cyfitter_cfg.c **** 			{0xD8u, 0x01u},
1110:.\Generated_Source\PSoC5/cyfitter_cfg.c **** 			{0xE6u, 0x20u},
1111:.\Generated_Source\PSoC5/cyfitter_cfg.c **** 			{0x38u, 0x80u},
1112:.\Generated_Source\PSoC5/cyfitter_cfg.c **** 			{0x3Eu, 0x40u},
1113:.\Generated_Source\PSoC5/cyfitter_cfg.c **** 			{0x58u, 0x04u},
1114:.\Generated_Source\PSoC5/cyfitter_cfg.c **** 			{0x5Fu, 0x01u},
1115:.\Generated_Source\PSoC5/cyfitter_cfg.c **** 			{0x18u, 0x01u},
1116:.\Generated_Source\PSoC5/cyfitter_cfg.c **** 			{0x8Cu, 0x01u},
1117:.\Generated_Source\PSoC5/cyfitter_cfg.c **** 			{0xA8u, 0x10u},
ARM GAS  C:\Users\glenn\AppData\Local\Temp\cc934L16.s 			page 41


1118:.\Generated_Source\PSoC5/cyfitter_cfg.c **** 			{0xAAu, 0x04u},
1119:.\Generated_Source\PSoC5/cyfitter_cfg.c **** 			{0xACu, 0x41u},
1120:.\Generated_Source\PSoC5/cyfitter_cfg.c **** 			{0xADu, 0x40u},
1121:.\Generated_Source\PSoC5/cyfitter_cfg.c **** 			{0xAEu, 0x04u},
1122:.\Generated_Source\PSoC5/cyfitter_cfg.c **** 			{0xB4u, 0x40u},
1123:.\Generated_Source\PSoC5/cyfitter_cfg.c **** 			{0xB5u, 0x90u},
1124:.\Generated_Source\PSoC5/cyfitter_cfg.c **** 			{0xB7u, 0x01u},
1125:.\Generated_Source\PSoC5/cyfitter_cfg.c **** 			{0xE0u, 0x10u},
1126:.\Generated_Source\PSoC5/cyfitter_cfg.c **** 			{0xE8u, 0x02u},
1127:.\Generated_Source\PSoC5/cyfitter_cfg.c **** 			{0xEAu, 0x05u},
1128:.\Generated_Source\PSoC5/cyfitter_cfg.c **** 			{0xECu, 0x20u},
1129:.\Generated_Source\PSoC5/cyfitter_cfg.c **** 			{0xEEu, 0x08u},
1130:.\Generated_Source\PSoC5/cyfitter_cfg.c **** 			{0x58u, 0x04u},
1131:.\Generated_Source\PSoC5/cyfitter_cfg.c **** 			{0x59u, 0x04u},
1132:.\Generated_Source\PSoC5/cyfitter_cfg.c **** 			{0x5Bu, 0x04u},
1133:.\Generated_Source\PSoC5/cyfitter_cfg.c **** 			{0x5Cu, 0x11u},
1134:.\Generated_Source\PSoC5/cyfitter_cfg.c **** 			{0x5Fu, 0x01u},
1135:.\Generated_Source\PSoC5/cyfitter_cfg.c **** 			{0x87u, 0x02u},
1136:.\Generated_Source\PSoC5/cyfitter_cfg.c **** 			{0x8Bu, 0x01u},
1137:.\Generated_Source\PSoC5/cyfitter_cfg.c **** 			{0xA2u, 0x01u},
1138:.\Generated_Source\PSoC5/cyfitter_cfg.c **** 			{0xA3u, 0x04u},
1139:.\Generated_Source\PSoC5/cyfitter_cfg.c **** 			{0xB0u, 0x01u},
1140:.\Generated_Source\PSoC5/cyfitter_cfg.c **** 			{0xB1u, 0x01u},
1141:.\Generated_Source\PSoC5/cyfitter_cfg.c **** 			{0xB3u, 0x04u},
1142:.\Generated_Source\PSoC5/cyfitter_cfg.c **** 			{0xB7u, 0x02u},
1143:.\Generated_Source\PSoC5/cyfitter_cfg.c **** 			{0xD8u, 0x04u},
1144:.\Generated_Source\PSoC5/cyfitter_cfg.c **** 			{0xD9u, 0x04u},
1145:.\Generated_Source\PSoC5/cyfitter_cfg.c **** 			{0xDCu, 0x11u},
1146:.\Generated_Source\PSoC5/cyfitter_cfg.c **** 			{0xDFu, 0x01u},
1147:.\Generated_Source\PSoC5/cyfitter_cfg.c **** 			{0x00u, 0x12u},
1148:.\Generated_Source\PSoC5/cyfitter_cfg.c **** 			{0x01u, 0x08u},
1149:.\Generated_Source\PSoC5/cyfitter_cfg.c **** 			{0x04u, 0x80u},
1150:.\Generated_Source\PSoC5/cyfitter_cfg.c **** 			{0x05u, 0x18u},
1151:.\Generated_Source\PSoC5/cyfitter_cfg.c **** 			{0x06u, 0x80u},
1152:.\Generated_Source\PSoC5/cyfitter_cfg.c **** 			{0x0Au, 0x84u},
1153:.\Generated_Source\PSoC5/cyfitter_cfg.c **** 			{0x0Bu, 0x02u},
1154:.\Generated_Source\PSoC5/cyfitter_cfg.c **** 			{0x0Du, 0x81u},
1155:.\Generated_Source\PSoC5/cyfitter_cfg.c **** 			{0x10u, 0x48u},
1156:.\Generated_Source\PSoC5/cyfitter_cfg.c **** 			{0x17u, 0x30u},
1157:.\Generated_Source\PSoC5/cyfitter_cfg.c **** 			{0x18u, 0x40u},
1158:.\Generated_Source\PSoC5/cyfitter_cfg.c **** 			{0x19u, 0x02u},
1159:.\Generated_Source\PSoC5/cyfitter_cfg.c **** 			{0x1Au, 0x40u},
1160:.\Generated_Source\PSoC5/cyfitter_cfg.c **** 			{0x20u, 0x90u},
1161:.\Generated_Source\PSoC5/cyfitter_cfg.c **** 			{0x21u, 0x81u},
1162:.\Generated_Source\PSoC5/cyfitter_cfg.c **** 			{0x22u, 0xC0u},
1163:.\Generated_Source\PSoC5/cyfitter_cfg.c **** 			{0x23u, 0x20u},
1164:.\Generated_Source\PSoC5/cyfitter_cfg.c **** 			{0x29u, 0x59u},
1165:.\Generated_Source\PSoC5/cyfitter_cfg.c **** 			{0x2Au, 0x80u},
1166:.\Generated_Source\PSoC5/cyfitter_cfg.c **** 			{0x2Cu, 0x08u},
1167:.\Generated_Source\PSoC5/cyfitter_cfg.c **** 			{0x2Du, 0x0Au},
1168:.\Generated_Source\PSoC5/cyfitter_cfg.c **** 			{0x31u, 0x80u},
1169:.\Generated_Source\PSoC5/cyfitter_cfg.c **** 			{0x33u, 0x10u},
1170:.\Generated_Source\PSoC5/cyfitter_cfg.c **** 			{0x36u, 0x80u},
1171:.\Generated_Source\PSoC5/cyfitter_cfg.c **** 			{0x38u, 0xA0u},
1172:.\Generated_Source\PSoC5/cyfitter_cfg.c **** 			{0x39u, 0x02u},
1173:.\Generated_Source\PSoC5/cyfitter_cfg.c **** 			{0x3Au, 0x04u},
1174:.\Generated_Source\PSoC5/cyfitter_cfg.c **** 			{0x3Cu, 0x92u},
ARM GAS  C:\Users\glenn\AppData\Local\Temp\cc934L16.s 			page 42


1175:.\Generated_Source\PSoC5/cyfitter_cfg.c **** 			{0x6Cu, 0x04u},
1176:.\Generated_Source\PSoC5/cyfitter_cfg.c **** 			{0x6Fu, 0x01u},
1177:.\Generated_Source\PSoC5/cyfitter_cfg.c **** 			{0x80u, 0x10u},
1178:.\Generated_Source\PSoC5/cyfitter_cfg.c **** 			{0x81u, 0x01u},
1179:.\Generated_Source\PSoC5/cyfitter_cfg.c **** 			{0x84u, 0x40u},
1180:.\Generated_Source\PSoC5/cyfitter_cfg.c **** 			{0x89u, 0x08u},
1181:.\Generated_Source\PSoC5/cyfitter_cfg.c **** 			{0x8Bu, 0x01u},
1182:.\Generated_Source\PSoC5/cyfitter_cfg.c **** 			{0x8Cu, 0x48u},
1183:.\Generated_Source\PSoC5/cyfitter_cfg.c **** 			{0x94u, 0x18u},
1184:.\Generated_Source\PSoC5/cyfitter_cfg.c **** 			{0x96u, 0x44u},
1185:.\Generated_Source\PSoC5/cyfitter_cfg.c **** 			{0x9Du, 0x08u},
1186:.\Generated_Source\PSoC5/cyfitter_cfg.c **** 			{0x9Eu, 0x80u},
1187:.\Generated_Source\PSoC5/cyfitter_cfg.c **** 			{0xA4u, 0x08u},
1188:.\Generated_Source\PSoC5/cyfitter_cfg.c **** 			{0xA5u, 0x80u},
1189:.\Generated_Source\PSoC5/cyfitter_cfg.c **** 			{0xC0u, 0xFEu},
1190:.\Generated_Source\PSoC5/cyfitter_cfg.c **** 			{0xC2u, 0x9Bu},
1191:.\Generated_Source\PSoC5/cyfitter_cfg.c **** 			{0xC4u, 0x4Au},
1192:.\Generated_Source\PSoC5/cyfitter_cfg.c **** 			{0xCAu, 0xEFu},
1193:.\Generated_Source\PSoC5/cyfitter_cfg.c **** 			{0xCCu, 0x1Cu},
1194:.\Generated_Source\PSoC5/cyfitter_cfg.c **** 			{0xCEu, 0xBFu},
1195:.\Generated_Source\PSoC5/cyfitter_cfg.c **** 			{0xE2u, 0x04u},
1196:.\Generated_Source\PSoC5/cyfitter_cfg.c **** 			{0xE4u, 0x41u},
1197:.\Generated_Source\PSoC5/cyfitter_cfg.c **** 			{0xE6u, 0x28u},
1198:.\Generated_Source\PSoC5/cyfitter_cfg.c **** 			{0x01u, 0x01u},
1199:.\Generated_Source\PSoC5/cyfitter_cfg.c **** 			{0x02u, 0x08u},
1200:.\Generated_Source\PSoC5/cyfitter_cfg.c **** 			{0x06u, 0x02u},
1201:.\Generated_Source\PSoC5/cyfitter_cfg.c **** 			{0x07u, 0x08u},
1202:.\Generated_Source\PSoC5/cyfitter_cfg.c **** 			{0x08u, 0x10u},
1203:.\Generated_Source\PSoC5/cyfitter_cfg.c **** 			{0x09u, 0x04u},
1204:.\Generated_Source\PSoC5/cyfitter_cfg.c **** 			{0x0Au, 0x20u},
1205:.\Generated_Source\PSoC5/cyfitter_cfg.c **** 			{0x0Cu, 0x04u},
1206:.\Generated_Source\PSoC5/cyfitter_cfg.c **** 			{0x10u, 0x80u},
1207:.\Generated_Source\PSoC5/cyfitter_cfg.c **** 			{0x11u, 0x08u},
1208:.\Generated_Source\PSoC5/cyfitter_cfg.c **** 			{0x12u, 0x40u},
1209:.\Generated_Source\PSoC5/cyfitter_cfg.c **** 			{0x14u, 0x20u},
1210:.\Generated_Source\PSoC5/cyfitter_cfg.c **** 			{0x16u, 0x10u},
1211:.\Generated_Source\PSoC5/cyfitter_cfg.c **** 			{0x17u, 0x01u},
1212:.\Generated_Source\PSoC5/cyfitter_cfg.c **** 			{0x18u, 0x40u},
1213:.\Generated_Source\PSoC5/cyfitter_cfg.c **** 			{0x1Au, 0x80u},
1214:.\Generated_Source\PSoC5/cyfitter_cfg.c **** 			{0x1Eu, 0x01u},
1215:.\Generated_Source\PSoC5/cyfitter_cfg.c **** 			{0x22u, 0x04u},
1216:.\Generated_Source\PSoC5/cyfitter_cfg.c **** 			{0x23u, 0x02u},
1217:.\Generated_Source\PSoC5/cyfitter_cfg.c **** 			{0x24u, 0x01u},
1218:.\Generated_Source\PSoC5/cyfitter_cfg.c **** 			{0x27u, 0x10u},
1219:.\Generated_Source\PSoC5/cyfitter_cfg.c **** 			{0x28u, 0x08u},
1220:.\Generated_Source\PSoC5/cyfitter_cfg.c **** 			{0x29u, 0x02u},
1221:.\Generated_Source\PSoC5/cyfitter_cfg.c **** 			{0x2Cu, 0x02u},
1222:.\Generated_Source\PSoC5/cyfitter_cfg.c **** 			{0x2Fu, 0x04u},
1223:.\Generated_Source\PSoC5/cyfitter_cfg.c **** 			{0x34u, 0xFFu},
1224:.\Generated_Source\PSoC5/cyfitter_cfg.c **** 			{0x37u, 0x1Fu},
1225:.\Generated_Source\PSoC5/cyfitter_cfg.c **** 			{0x39u, 0x80u},
1226:.\Generated_Source\PSoC5/cyfitter_cfg.c **** 			{0x3Eu, 0x10u},
1227:.\Generated_Source\PSoC5/cyfitter_cfg.c **** 			{0x3Fu, 0x40u},
1228:.\Generated_Source\PSoC5/cyfitter_cfg.c **** 			{0x56u, 0x02u},
1229:.\Generated_Source\PSoC5/cyfitter_cfg.c **** 			{0x57u, 0x3Du},
1230:.\Generated_Source\PSoC5/cyfitter_cfg.c **** 			{0x58u, 0x04u},
1231:.\Generated_Source\PSoC5/cyfitter_cfg.c **** 			{0x59u, 0x04u},
ARM GAS  C:\Users\glenn\AppData\Local\Temp\cc934L16.s 			page 43


1232:.\Generated_Source\PSoC5/cyfitter_cfg.c **** 			{0x5Bu, 0x0Cu},
1233:.\Generated_Source\PSoC5/cyfitter_cfg.c **** 			{0x5Cu, 0x10u},
1234:.\Generated_Source\PSoC5/cyfitter_cfg.c **** 			{0x5Du, 0x10u},
1235:.\Generated_Source\PSoC5/cyfitter_cfg.c **** 			{0x5Fu, 0x01u},
1236:.\Generated_Source\PSoC5/cyfitter_cfg.c **** 			{0xD8u, 0x04u},
1237:.\Generated_Source\PSoC5/cyfitter_cfg.c **** 			{0xD9u, 0x04u},
1238:.\Generated_Source\PSoC5/cyfitter_cfg.c **** 			{0xDCu, 0x11u},
1239:.\Generated_Source\PSoC5/cyfitter_cfg.c **** 			{0xDFu, 0x01u},
1240:.\Generated_Source\PSoC5/cyfitter_cfg.c **** 			{0x01u, 0x28u},
1241:.\Generated_Source\PSoC5/cyfitter_cfg.c **** 			{0x02u, 0x80u},
1242:.\Generated_Source\PSoC5/cyfitter_cfg.c **** 			{0x04u, 0x81u},
1243:.\Generated_Source\PSoC5/cyfitter_cfg.c **** 			{0x05u, 0xAAu},
1244:.\Generated_Source\PSoC5/cyfitter_cfg.c **** 			{0x06u, 0x20u},
1245:.\Generated_Source\PSoC5/cyfitter_cfg.c **** 			{0x09u, 0x41u},
1246:.\Generated_Source\PSoC5/cyfitter_cfg.c **** 			{0x0Cu, 0x80u},
1247:.\Generated_Source\PSoC5/cyfitter_cfg.c **** 			{0x0Du, 0x40u},
1248:.\Generated_Source\PSoC5/cyfitter_cfg.c **** 			{0x0Eu, 0x50u},
1249:.\Generated_Source\PSoC5/cyfitter_cfg.c **** 			{0x0Fu, 0x06u},
1250:.\Generated_Source\PSoC5/cyfitter_cfg.c **** 			{0x10u, 0x80u},
1251:.\Generated_Source\PSoC5/cyfitter_cfg.c **** 			{0x13u, 0x10u},
1252:.\Generated_Source\PSoC5/cyfitter_cfg.c **** 			{0x14u, 0x80u},
1253:.\Generated_Source\PSoC5/cyfitter_cfg.c **** 			{0x16u, 0x02u},
1254:.\Generated_Source\PSoC5/cyfitter_cfg.c **** 			{0x17u, 0x18u},
1255:.\Generated_Source\PSoC5/cyfitter_cfg.c **** 			{0x1Fu, 0x10u},
1256:.\Generated_Source\PSoC5/cyfitter_cfg.c **** 			{0x26u, 0x80u},
1257:.\Generated_Source\PSoC5/cyfitter_cfg.c **** 			{0x28u, 0x20u},
1258:.\Generated_Source\PSoC5/cyfitter_cfg.c **** 			{0x29u, 0x22u},
1259:.\Generated_Source\PSoC5/cyfitter_cfg.c **** 			{0x2Du, 0x80u},
1260:.\Generated_Source\PSoC5/cyfitter_cfg.c **** 			{0x2Eu, 0x22u},
1261:.\Generated_Source\PSoC5/cyfitter_cfg.c **** 			{0x2Fu, 0x10u},
1262:.\Generated_Source\PSoC5/cyfitter_cfg.c **** 			{0x32u, 0x80u},
1263:.\Generated_Source\PSoC5/cyfitter_cfg.c **** 			{0x35u, 0x22u},
1264:.\Generated_Source\PSoC5/cyfitter_cfg.c **** 			{0x36u, 0x80u},
1265:.\Generated_Source\PSoC5/cyfitter_cfg.c **** 			{0x37u, 0x08u},
1266:.\Generated_Source\PSoC5/cyfitter_cfg.c **** 			{0x39u, 0x80u},
1267:.\Generated_Source\PSoC5/cyfitter_cfg.c **** 			{0x3Bu, 0x14u},
1268:.\Generated_Source\PSoC5/cyfitter_cfg.c **** 			{0x3Du, 0x80u},
1269:.\Generated_Source\PSoC5/cyfitter_cfg.c **** 			{0x3Eu, 0x04u},
1270:.\Generated_Source\PSoC5/cyfitter_cfg.c **** 			{0x3Fu, 0x32u},
1271:.\Generated_Source\PSoC5/cyfitter_cfg.c **** 			{0x5Eu, 0x20u},
1272:.\Generated_Source\PSoC5/cyfitter_cfg.c **** 			{0x65u, 0x01u},
1273:.\Generated_Source\PSoC5/cyfitter_cfg.c **** 			{0x6Cu, 0x40u},
1274:.\Generated_Source\PSoC5/cyfitter_cfg.c **** 			{0x6Eu, 0x54u},
1275:.\Generated_Source\PSoC5/cyfitter_cfg.c **** 			{0x6Fu, 0x10u},
1276:.\Generated_Source\PSoC5/cyfitter_cfg.c **** 			{0x76u, 0x02u},
1277:.\Generated_Source\PSoC5/cyfitter_cfg.c **** 			{0x77u, 0x08u},
1278:.\Generated_Source\PSoC5/cyfitter_cfg.c **** 			{0x7Fu, 0x02u},
1279:.\Generated_Source\PSoC5/cyfitter_cfg.c **** 			{0x80u, 0x80u},
1280:.\Generated_Source\PSoC5/cyfitter_cfg.c **** 			{0x81u, 0x80u},
1281:.\Generated_Source\PSoC5/cyfitter_cfg.c **** 			{0x83u, 0x10u},
1282:.\Generated_Source\PSoC5/cyfitter_cfg.c **** 			{0x86u, 0x02u},
1283:.\Generated_Source\PSoC5/cyfitter_cfg.c **** 			{0x89u, 0x04u},
1284:.\Generated_Source\PSoC5/cyfitter_cfg.c **** 			{0x8Bu, 0x01u},
1285:.\Generated_Source\PSoC5/cyfitter_cfg.c **** 			{0x8Cu, 0x01u},
1286:.\Generated_Source\PSoC5/cyfitter_cfg.c **** 			{0x90u, 0x01u},
1287:.\Generated_Source\PSoC5/cyfitter_cfg.c **** 			{0x94u, 0x0Au},
1288:.\Generated_Source\PSoC5/cyfitter_cfg.c **** 			{0x95u, 0x04u},
ARM GAS  C:\Users\glenn\AppData\Local\Temp\cc934L16.s 			page 44


1289:.\Generated_Source\PSoC5/cyfitter_cfg.c **** 			{0x96u, 0x01u},
1290:.\Generated_Source\PSoC5/cyfitter_cfg.c **** 			{0x97u, 0x90u},
1291:.\Generated_Source\PSoC5/cyfitter_cfg.c **** 			{0x99u, 0x01u},
1292:.\Generated_Source\PSoC5/cyfitter_cfg.c **** 			{0x9Bu, 0x04u},
1293:.\Generated_Source\PSoC5/cyfitter_cfg.c **** 			{0x9Cu, 0x70u},
1294:.\Generated_Source\PSoC5/cyfitter_cfg.c **** 			{0x9Du, 0x2Cu},
1295:.\Generated_Source\PSoC5/cyfitter_cfg.c **** 			{0x9Eu, 0x40u},
1296:.\Generated_Source\PSoC5/cyfitter_cfg.c **** 			{0x9Fu, 0x58u},
1297:.\Generated_Source\PSoC5/cyfitter_cfg.c **** 			{0xA1u, 0x81u},
1298:.\Generated_Source\PSoC5/cyfitter_cfg.c **** 			{0xA2u, 0x10u},
1299:.\Generated_Source\PSoC5/cyfitter_cfg.c **** 			{0xA3u, 0x03u},
1300:.\Generated_Source\PSoC5/cyfitter_cfg.c **** 			{0xA4u, 0x40u},
1301:.\Generated_Source\PSoC5/cyfitter_cfg.c **** 			{0xA5u, 0x44u},
1302:.\Generated_Source\PSoC5/cyfitter_cfg.c **** 			{0xA6u, 0x80u},
1303:.\Generated_Source\PSoC5/cyfitter_cfg.c **** 			{0xC0u, 0xFEu},
1304:.\Generated_Source\PSoC5/cyfitter_cfg.c **** 			{0xC2u, 0xF9u},
1305:.\Generated_Source\PSoC5/cyfitter_cfg.c **** 			{0xC4u, 0xFAu},
1306:.\Generated_Source\PSoC5/cyfitter_cfg.c **** 			{0xCAu, 0xF7u},
1307:.\Generated_Source\PSoC5/cyfitter_cfg.c **** 			{0xCCu, 0xF8u},
1308:.\Generated_Source\PSoC5/cyfitter_cfg.c **** 			{0xCEu, 0xFEu},
1309:.\Generated_Source\PSoC5/cyfitter_cfg.c **** 			{0xD6u, 0x20u},
1310:.\Generated_Source\PSoC5/cyfitter_cfg.c **** 			{0xD8u, 0x80u},
1311:.\Generated_Source\PSoC5/cyfitter_cfg.c **** 			{0xDEu, 0x10u},
1312:.\Generated_Source\PSoC5/cyfitter_cfg.c **** 			{0xE2u, 0x80u},
1313:.\Generated_Source\PSoC5/cyfitter_cfg.c **** 			{0xE4u, 0x40u},
1314:.\Generated_Source\PSoC5/cyfitter_cfg.c **** 			{0xE6u, 0x10u},
1315:.\Generated_Source\PSoC5/cyfitter_cfg.c **** 			{0x56u, 0x08u},
1316:.\Generated_Source\PSoC5/cyfitter_cfg.c **** 			{0x58u, 0x04u},
1317:.\Generated_Source\PSoC5/cyfitter_cfg.c **** 			{0x59u, 0x04u},
1318:.\Generated_Source\PSoC5/cyfitter_cfg.c **** 			{0x5Bu, 0x04u},
1319:.\Generated_Source\PSoC5/cyfitter_cfg.c **** 			{0x5Cu, 0x11u},
1320:.\Generated_Source\PSoC5/cyfitter_cfg.c **** 			{0x5Du, 0x90u},
1321:.\Generated_Source\PSoC5/cyfitter_cfg.c **** 			{0x5Fu, 0x01u},
1322:.\Generated_Source\PSoC5/cyfitter_cfg.c **** 			{0x80u, 0x7Fu},
1323:.\Generated_Source\PSoC5/cyfitter_cfg.c **** 			{0x84u, 0x18u},
1324:.\Generated_Source\PSoC5/cyfitter_cfg.c **** 			{0x85u, 0x3Fu},
1325:.\Generated_Source\PSoC5/cyfitter_cfg.c **** 			{0x88u, 0x08u},
1326:.\Generated_Source\PSoC5/cyfitter_cfg.c **** 			{0x89u, 0x3Fu},
1327:.\Generated_Source\PSoC5/cyfitter_cfg.c **** 			{0x8Cu, 0x10u},
1328:.\Generated_Source\PSoC5/cyfitter_cfg.c **** 			{0x91u, 0x01u},
1329:.\Generated_Source\PSoC5/cyfitter_cfg.c **** 			{0x92u, 0x04u},
1330:.\Generated_Source\PSoC5/cyfitter_cfg.c **** 			{0x94u, 0x04u},
1331:.\Generated_Source\PSoC5/cyfitter_cfg.c **** 			{0x96u, 0x80u},
1332:.\Generated_Source\PSoC5/cyfitter_cfg.c **** 			{0x98u, 0x3Cu},
1333:.\Generated_Source\PSoC5/cyfitter_cfg.c **** 			{0x99u, 0x24u},
1334:.\Generated_Source\PSoC5/cyfitter_cfg.c **** 			{0x9Au, 0x42u},
1335:.\Generated_Source\PSoC5/cyfitter_cfg.c **** 			{0x9Bu, 0x0Au},
1336:.\Generated_Source\PSoC5/cyfitter_cfg.c **** 			{0x9Cu, 0x67u},
1337:.\Generated_Source\PSoC5/cyfitter_cfg.c **** 			{0x9Du, 0x08u},
1338:.\Generated_Source\PSoC5/cyfitter_cfg.c **** 			{0x9Eu, 0x18u},
1339:.\Generated_Source\PSoC5/cyfitter_cfg.c **** 			{0x9Fu, 0x30u},
1340:.\Generated_Source\PSoC5/cyfitter_cfg.c **** 			{0xA4u, 0x3Cu},
1341:.\Generated_Source\PSoC5/cyfitter_cfg.c **** 			{0xA5u, 0x12u},
1342:.\Generated_Source\PSoC5/cyfitter_cfg.c **** 			{0xA6u, 0x41u},
1343:.\Generated_Source\PSoC5/cyfitter_cfg.c **** 			{0xA7u, 0x0Cu},
1344:.\Generated_Source\PSoC5/cyfitter_cfg.c **** 			{0xAAu, 0x03u},
1345:.\Generated_Source\PSoC5/cyfitter_cfg.c **** 			{0xB0u, 0x80u},
ARM GAS  C:\Users\glenn\AppData\Local\Temp\cc934L16.s 			page 45


1346:.\Generated_Source\PSoC5/cyfitter_cfg.c **** 			{0xB1u, 0x38u},
1347:.\Generated_Source\PSoC5/cyfitter_cfg.c **** 			{0xB2u, 0x20u},
1348:.\Generated_Source\PSoC5/cyfitter_cfg.c **** 			{0xB3u, 0x01u},
1349:.\Generated_Source\PSoC5/cyfitter_cfg.c **** 			{0xB4u, 0x1Fu},
1350:.\Generated_Source\PSoC5/cyfitter_cfg.c **** 			{0xB5u, 0x06u},
1351:.\Generated_Source\PSoC5/cyfitter_cfg.c **** 			{0xB6u, 0x40u},
1352:.\Generated_Source\PSoC5/cyfitter_cfg.c **** 			{0xB8u, 0x80u},
1353:.\Generated_Source\PSoC5/cyfitter_cfg.c **** 			{0xBAu, 0x20u},
1354:.\Generated_Source\PSoC5/cyfitter_cfg.c **** 			{0xBBu, 0x80u},
1355:.\Generated_Source\PSoC5/cyfitter_cfg.c **** 			{0xBEu, 0x04u},
1356:.\Generated_Source\PSoC5/cyfitter_cfg.c **** 			{0xD6u, 0x02u},
1357:.\Generated_Source\PSoC5/cyfitter_cfg.c **** 			{0xD7u, 0x11u},
1358:.\Generated_Source\PSoC5/cyfitter_cfg.c **** 			{0xD8u, 0x04u},
1359:.\Generated_Source\PSoC5/cyfitter_cfg.c **** 			{0xD9u, 0x04u},
1360:.\Generated_Source\PSoC5/cyfitter_cfg.c **** 			{0xDBu, 0x04u},
1361:.\Generated_Source\PSoC5/cyfitter_cfg.c **** 			{0xDCu, 0x22u},
1362:.\Generated_Source\PSoC5/cyfitter_cfg.c **** 			{0xDDu, 0x20u},
1363:.\Generated_Source\PSoC5/cyfitter_cfg.c **** 			{0xDFu, 0x01u},
1364:.\Generated_Source\PSoC5/cyfitter_cfg.c **** 			{0x01u, 0x20u},
1365:.\Generated_Source\PSoC5/cyfitter_cfg.c **** 			{0x02u, 0x80u},
1366:.\Generated_Source\PSoC5/cyfitter_cfg.c **** 			{0x04u, 0x02u},
1367:.\Generated_Source\PSoC5/cyfitter_cfg.c **** 			{0x05u, 0x04u},
1368:.\Generated_Source\PSoC5/cyfitter_cfg.c **** 			{0x06u, 0x02u},
1369:.\Generated_Source\PSoC5/cyfitter_cfg.c **** 			{0x07u, 0x08u},
1370:.\Generated_Source\PSoC5/cyfitter_cfg.c **** 			{0x08u, 0x22u},
1371:.\Generated_Source\PSoC5/cyfitter_cfg.c **** 			{0x09u, 0x41u},
1372:.\Generated_Source\PSoC5/cyfitter_cfg.c **** 			{0x0Bu, 0x10u},
1373:.\Generated_Source\PSoC5/cyfitter_cfg.c **** 			{0x0Cu, 0x10u},
1374:.\Generated_Source\PSoC5/cyfitter_cfg.c **** 			{0x0Du, 0xA4u},
1375:.\Generated_Source\PSoC5/cyfitter_cfg.c **** 			{0x0Eu, 0x40u},
1376:.\Generated_Source\PSoC5/cyfitter_cfg.c **** 			{0x10u, 0x80u},
1377:.\Generated_Source\PSoC5/cyfitter_cfg.c **** 			{0x17u, 0x24u},
1378:.\Generated_Source\PSoC5/cyfitter_cfg.c **** 			{0x1Du, 0x20u},
1379:.\Generated_Source\PSoC5/cyfitter_cfg.c **** 			{0x1Eu, 0x61u},
1380:.\Generated_Source\PSoC5/cyfitter_cfg.c **** 			{0x24u, 0x0Au},
1381:.\Generated_Source\PSoC5/cyfitter_cfg.c **** 			{0x25u, 0x04u},
1382:.\Generated_Source\PSoC5/cyfitter_cfg.c **** 			{0x26u, 0x20u},
1383:.\Generated_Source\PSoC5/cyfitter_cfg.c **** 			{0x27u, 0x60u},
1384:.\Generated_Source\PSoC5/cyfitter_cfg.c **** 			{0x28u, 0x62u},
1385:.\Generated_Source\PSoC5/cyfitter_cfg.c **** 			{0x29u, 0x20u},
1386:.\Generated_Source\PSoC5/cyfitter_cfg.c **** 			{0x2Du, 0x04u},
1387:.\Generated_Source\PSoC5/cyfitter_cfg.c **** 			{0x30u, 0x80u},
1388:.\Generated_Source\PSoC5/cyfitter_cfg.c **** 			{0x36u, 0x20u},
1389:.\Generated_Source\PSoC5/cyfitter_cfg.c **** 			{0x37u, 0x41u},
1390:.\Generated_Source\PSoC5/cyfitter_cfg.c **** 			{0x3Bu, 0x14u},
1391:.\Generated_Source\PSoC5/cyfitter_cfg.c **** 			{0x3Eu, 0x14u},
1392:.\Generated_Source\PSoC5/cyfitter_cfg.c **** 			{0x58u, 0x80u},
1393:.\Generated_Source\PSoC5/cyfitter_cfg.c **** 			{0x5Eu, 0x20u},
1394:.\Generated_Source\PSoC5/cyfitter_cfg.c **** 			{0x62u, 0x40u},
1395:.\Generated_Source\PSoC5/cyfitter_cfg.c **** 			{0x6Eu, 0x14u},
1396:.\Generated_Source\PSoC5/cyfitter_cfg.c **** 			{0x6Fu, 0x01u},
1397:.\Generated_Source\PSoC5/cyfitter_cfg.c **** 			{0x74u, 0x40u},
1398:.\Generated_Source\PSoC5/cyfitter_cfg.c **** 			{0x75u, 0x04u},
1399:.\Generated_Source\PSoC5/cyfitter_cfg.c **** 			{0x76u, 0x02u},
1400:.\Generated_Source\PSoC5/cyfitter_cfg.c **** 			{0x77u, 0x08u},
1401:.\Generated_Source\PSoC5/cyfitter_cfg.c **** 			{0x79u, 0x0Cu},
1402:.\Generated_Source\PSoC5/cyfitter_cfg.c **** 			{0x8Bu, 0x48u},
ARM GAS  C:\Users\glenn\AppData\Local\Temp\cc934L16.s 			page 46


1403:.\Generated_Source\PSoC5/cyfitter_cfg.c **** 			{0x8Cu, 0x80u},
1404:.\Generated_Source\PSoC5/cyfitter_cfg.c **** 			{0x91u, 0x04u},
1405:.\Generated_Source\PSoC5/cyfitter_cfg.c **** 			{0x93u, 0x14u},
1406:.\Generated_Source\PSoC5/cyfitter_cfg.c **** 			{0x94u, 0x0Au},
1407:.\Generated_Source\PSoC5/cyfitter_cfg.c **** 			{0x96u, 0x01u},
1408:.\Generated_Source\PSoC5/cyfitter_cfg.c **** 			{0x97u, 0x80u},
1409:.\Generated_Source\PSoC5/cyfitter_cfg.c **** 			{0x98u, 0x60u},
1410:.\Generated_Source\PSoC5/cyfitter_cfg.c **** 			{0x99u, 0x20u},
1411:.\Generated_Source\PSoC5/cyfitter_cfg.c **** 			{0x9Bu, 0x04u},
1412:.\Generated_Source\PSoC5/cyfitter_cfg.c **** 			{0x9Cu, 0x10u},
1413:.\Generated_Source\PSoC5/cyfitter_cfg.c **** 			{0x9Du, 0x04u},
1414:.\Generated_Source\PSoC5/cyfitter_cfg.c **** 			{0x9Eu, 0x40u},
1415:.\Generated_Source\PSoC5/cyfitter_cfg.c **** 			{0x9Fu, 0x40u},
1416:.\Generated_Source\PSoC5/cyfitter_cfg.c **** 			{0xA0u, 0x80u},
1417:.\Generated_Source\PSoC5/cyfitter_cfg.c **** 			{0xA1u, 0xC1u},
1418:.\Generated_Source\PSoC5/cyfitter_cfg.c **** 			{0xA2u, 0x80u},
1419:.\Generated_Source\PSoC5/cyfitter_cfg.c **** 			{0xA4u, 0x40u},
1420:.\Generated_Source\PSoC5/cyfitter_cfg.c **** 			{0xA5u, 0x04u},
1421:.\Generated_Source\PSoC5/cyfitter_cfg.c **** 			{0xAAu, 0x50u},
1422:.\Generated_Source\PSoC5/cyfitter_cfg.c **** 			{0xACu, 0x40u},
1423:.\Generated_Source\PSoC5/cyfitter_cfg.c **** 			{0xADu, 0x40u},
1424:.\Generated_Source\PSoC5/cyfitter_cfg.c **** 			{0xAEu, 0x80u},
1425:.\Generated_Source\PSoC5/cyfitter_cfg.c **** 			{0xAFu, 0x04u},
1426:.\Generated_Source\PSoC5/cyfitter_cfg.c **** 			{0xB4u, 0x20u},
1427:.\Generated_Source\PSoC5/cyfitter_cfg.c **** 			{0xB5u, 0x28u},
1428:.\Generated_Source\PSoC5/cyfitter_cfg.c **** 			{0xC0u, 0xFAu},
1429:.\Generated_Source\PSoC5/cyfitter_cfg.c **** 			{0xC2u, 0xFFu},
1430:.\Generated_Source\PSoC5/cyfitter_cfg.c **** 			{0xC4u, 0x68u},
1431:.\Generated_Source\PSoC5/cyfitter_cfg.c **** 			{0xCAu, 0x4Fu},
1432:.\Generated_Source\PSoC5/cyfitter_cfg.c **** 			{0xCCu, 0xB8u},
1433:.\Generated_Source\PSoC5/cyfitter_cfg.c **** 			{0xCEu, 0x66u},
1434:.\Generated_Source\PSoC5/cyfitter_cfg.c **** 			{0xD6u, 0x28u},
1435:.\Generated_Source\PSoC5/cyfitter_cfg.c **** 			{0xD8u, 0x08u},
1436:.\Generated_Source\PSoC5/cyfitter_cfg.c **** 			{0xE0u, 0x10u},
1437:.\Generated_Source\PSoC5/cyfitter_cfg.c **** 			{0xE4u, 0x10u},
1438:.\Generated_Source\PSoC5/cyfitter_cfg.c **** 			{0xE8u, 0x50u},
1439:.\Generated_Source\PSoC5/cyfitter_cfg.c **** 			{0xECu, 0x20u},
1440:.\Generated_Source\PSoC5/cyfitter_cfg.c **** 			{0x13u, 0x02u},
1441:.\Generated_Source\PSoC5/cyfitter_cfg.c **** 			{0x16u, 0x80u},
1442:.\Generated_Source\PSoC5/cyfitter_cfg.c **** 			{0x30u, 0x08u},
1443:.\Generated_Source\PSoC5/cyfitter_cfg.c **** 			{0x33u, 0x20u},
1444:.\Generated_Source\PSoC5/cyfitter_cfg.c **** 			{0x34u, 0x04u},
1445:.\Generated_Source\PSoC5/cyfitter_cfg.c **** 			{0x37u, 0x80u},
1446:.\Generated_Source\PSoC5/cyfitter_cfg.c **** 			{0x3Bu, 0x82u},
1447:.\Generated_Source\PSoC5/cyfitter_cfg.c **** 			{0x3Eu, 0x80u},
1448:.\Generated_Source\PSoC5/cyfitter_cfg.c **** 			{0x7Fu, 0x60u},
1449:.\Generated_Source\PSoC5/cyfitter_cfg.c **** 			{0x88u, 0x20u},
1450:.\Generated_Source\PSoC5/cyfitter_cfg.c **** 			{0x8Bu, 0x80u},
1451:.\Generated_Source\PSoC5/cyfitter_cfg.c **** 			{0xC4u, 0x30u},
1452:.\Generated_Source\PSoC5/cyfitter_cfg.c **** 			{0xCCu, 0xF0u},
1453:.\Generated_Source\PSoC5/cyfitter_cfg.c **** 			{0xCEu, 0x70u},
1454:.\Generated_Source\PSoC5/cyfitter_cfg.c **** 			{0x30u, 0x20u},
1455:.\Generated_Source\PSoC5/cyfitter_cfg.c **** 			{0x32u, 0x08u},
1456:.\Generated_Source\PSoC5/cyfitter_cfg.c **** 			{0x35u, 0x80u},
1457:.\Generated_Source\PSoC5/cyfitter_cfg.c **** 			{0x36u, 0x04u},
1458:.\Generated_Source\PSoC5/cyfitter_cfg.c **** 			{0x39u, 0x80u},
1459:.\Generated_Source\PSoC5/cyfitter_cfg.c **** 			{0x97u, 0x82u},
ARM GAS  C:\Users\glenn\AppData\Local\Temp\cc934L16.s 			page 47


1460:.\Generated_Source\PSoC5/cyfitter_cfg.c **** 			{0x9Bu, 0x02u},
1461:.\Generated_Source\PSoC5/cyfitter_cfg.c **** 			{0x9Cu, 0x04u},
1462:.\Generated_Source\PSoC5/cyfitter_cfg.c **** 			{0xA0u, 0x20u},
1463:.\Generated_Source\PSoC5/cyfitter_cfg.c **** 			{0xA4u, 0x08u},
1464:.\Generated_Source\PSoC5/cyfitter_cfg.c **** 			{0xCCu, 0xF0u},
1465:.\Generated_Source\PSoC5/cyfitter_cfg.c **** 			{0xCEu, 0x10u},
1466:.\Generated_Source\PSoC5/cyfitter_cfg.c **** 			{0x87u, 0x40u},
1467:.\Generated_Source\PSoC5/cyfitter_cfg.c **** 			{0x95u, 0x80u},
1468:.\Generated_Source\PSoC5/cyfitter_cfg.c **** 			{0x97u, 0x82u},
1469:.\Generated_Source\PSoC5/cyfitter_cfg.c **** 			{0x9Bu, 0x02u},
1470:.\Generated_Source\PSoC5/cyfitter_cfg.c **** 			{0x9Cu, 0x04u},
1471:.\Generated_Source\PSoC5/cyfitter_cfg.c **** 			{0x9Du, 0x80u},
1472:.\Generated_Source\PSoC5/cyfitter_cfg.c **** 			{0xA4u, 0x08u},
1473:.\Generated_Source\PSoC5/cyfitter_cfg.c **** 			{0xA6u, 0x0Cu},
1474:.\Generated_Source\PSoC5/cyfitter_cfg.c **** 			{0xE2u, 0x10u},
1475:.\Generated_Source\PSoC5/cyfitter_cfg.c **** 			{0x26u, 0x08u},
1476:.\Generated_Source\PSoC5/cyfitter_cfg.c **** 			{0x2Cu, 0x04u},
1477:.\Generated_Source\PSoC5/cyfitter_cfg.c **** 			{0x5Cu, 0x10u},
1478:.\Generated_Source\PSoC5/cyfitter_cfg.c **** 			{0x80u, 0x10u},
1479:.\Generated_Source\PSoC5/cyfitter_cfg.c **** 			{0x88u, 0x08u},
1480:.\Generated_Source\PSoC5/cyfitter_cfg.c **** 			{0x95u, 0x80u},
1481:.\Generated_Source\PSoC5/cyfitter_cfg.c **** 			{0x9Bu, 0x02u},
1482:.\Generated_Source\PSoC5/cyfitter_cfg.c **** 			{0x9Cu, 0x04u},
1483:.\Generated_Source\PSoC5/cyfitter_cfg.c **** 			{0x9Du, 0x80u},
1484:.\Generated_Source\PSoC5/cyfitter_cfg.c **** 			{0xA4u, 0x08u},
1485:.\Generated_Source\PSoC5/cyfitter_cfg.c **** 			{0xA6u, 0x0Cu},
1486:.\Generated_Source\PSoC5/cyfitter_cfg.c **** 			{0xABu, 0x01u},
1487:.\Generated_Source\PSoC5/cyfitter_cfg.c **** 			{0xC8u, 0x80u},
1488:.\Generated_Source\PSoC5/cyfitter_cfg.c **** 			{0xCAu, 0x20u},
1489:.\Generated_Source\PSoC5/cyfitter_cfg.c **** 			{0xD6u, 0x20u},
1490:.\Generated_Source\PSoC5/cyfitter_cfg.c **** 			{0xE6u, 0x80u},
1491:.\Generated_Source\PSoC5/cyfitter_cfg.c **** 			{0xEEu, 0x20u},
1492:.\Generated_Source\PSoC5/cyfitter_cfg.c **** 			{0x7Cu, 0x01u},
1493:.\Generated_Source\PSoC5/cyfitter_cfg.c **** 			{0xDEu, 0x01u},
1494:.\Generated_Source\PSoC5/cyfitter_cfg.c **** 			{0x00u, 0x28u},
1495:.\Generated_Source\PSoC5/cyfitter_cfg.c **** 			{0x52u, 0x20u},
1496:.\Generated_Source\PSoC5/cyfitter_cfg.c **** 			{0x80u, 0x80u},
1497:.\Generated_Source\PSoC5/cyfitter_cfg.c **** 			{0x94u, 0x01u},
1498:.\Generated_Source\PSoC5/cyfitter_cfg.c **** 			{0xC0u, 0x0Au},
1499:.\Generated_Source\PSoC5/cyfitter_cfg.c **** 			{0xD4u, 0x04u},
1500:.\Generated_Source\PSoC5/cyfitter_cfg.c **** 			{0x1Bu, 0x04u},
1501:.\Generated_Source\PSoC5/cyfitter_cfg.c **** 			{0x24u, 0x10u},
1502:.\Generated_Source\PSoC5/cyfitter_cfg.c **** 			{0x45u, 0x04u},
1503:.\Generated_Source\PSoC5/cyfitter_cfg.c **** 			{0x50u, 0x08u},
1504:.\Generated_Source\PSoC5/cyfitter_cfg.c **** 			{0x88u, 0x01u},
1505:.\Generated_Source\PSoC5/cyfitter_cfg.c **** 			{0x8Cu, 0x08u},
1506:.\Generated_Source\PSoC5/cyfitter_cfg.c **** 			{0x8Eu, 0x02u},
1507:.\Generated_Source\PSoC5/cyfitter_cfg.c **** 			{0x94u, 0x01u},
1508:.\Generated_Source\PSoC5/cyfitter_cfg.c **** 			{0x98u, 0x80u},
1509:.\Generated_Source\PSoC5/cyfitter_cfg.c **** 			{0xAAu, 0x20u},
1510:.\Generated_Source\PSoC5/cyfitter_cfg.c **** 			{0xB0u, 0x14u},
1511:.\Generated_Source\PSoC5/cyfitter_cfg.c **** 			{0xC6u, 0x08u},
1512:.\Generated_Source\PSoC5/cyfitter_cfg.c **** 			{0xC8u, 0x01u},
1513:.\Generated_Source\PSoC5/cyfitter_cfg.c **** 			{0xD0u, 0x01u},
1514:.\Generated_Source\PSoC5/cyfitter_cfg.c **** 			{0xD4u, 0x04u},
1515:.\Generated_Source\PSoC5/cyfitter_cfg.c **** 			{0xE0u, 0x03u},
1516:.\Generated_Source\PSoC5/cyfitter_cfg.c **** 			{0xE4u, 0x08u},
ARM GAS  C:\Users\glenn\AppData\Local\Temp\cc934L16.s 			page 48


1517:.\Generated_Source\PSoC5/cyfitter_cfg.c **** 			{0xEAu, 0x04u},
1518:.\Generated_Source\PSoC5/cyfitter_cfg.c **** 			{0xEEu, 0x01u},
1519:.\Generated_Source\PSoC5/cyfitter_cfg.c **** 			{0x44u, 0x01u},
1520:.\Generated_Source\PSoC5/cyfitter_cfg.c **** 			{0x54u, 0x01u},
1521:.\Generated_Source\PSoC5/cyfitter_cfg.c **** 			{0x8Cu, 0x10u},
1522:.\Generated_Source\PSoC5/cyfitter_cfg.c **** 			{0x90u, 0x10u},
1523:.\Generated_Source\PSoC5/cyfitter_cfg.c **** 			{0x94u, 0x01u},
1524:.\Generated_Source\PSoC5/cyfitter_cfg.c **** 			{0x97u, 0x20u},
1525:.\Generated_Source\PSoC5/cyfitter_cfg.c **** 			{0x98u, 0x80u},
1526:.\Generated_Source\PSoC5/cyfitter_cfg.c **** 			{0x9Au, 0x02u},
1527:.\Generated_Source\PSoC5/cyfitter_cfg.c **** 			{0xA0u, 0x01u},
1528:.\Generated_Source\PSoC5/cyfitter_cfg.c **** 			{0xA5u, 0x04u},
1529:.\Generated_Source\PSoC5/cyfitter_cfg.c **** 			{0xABu, 0x04u},
1530:.\Generated_Source\PSoC5/cyfitter_cfg.c **** 			{0xAFu, 0x10u},
1531:.\Generated_Source\PSoC5/cyfitter_cfg.c **** 			{0xD0u, 0x04u},
1532:.\Generated_Source\PSoC5/cyfitter_cfg.c **** 			{0xD6u, 0x04u},
1533:.\Generated_Source\PSoC5/cyfitter_cfg.c **** 			{0xE2u, 0x08u},
1534:.\Generated_Source\PSoC5/cyfitter_cfg.c **** 			{0x20u, 0x80u},
1535:.\Generated_Source\PSoC5/cyfitter_cfg.c **** 			{0x25u, 0x20u},
1536:.\Generated_Source\PSoC5/cyfitter_cfg.c **** 			{0x56u, 0x10u},
1537:.\Generated_Source\PSoC5/cyfitter_cfg.c **** 			{0x8Au, 0x10u},
1538:.\Generated_Source\PSoC5/cyfitter_cfg.c **** 			{0x8Du, 0x20u},
1539:.\Generated_Source\PSoC5/cyfitter_cfg.c **** 			{0x95u, 0x80u},
1540:.\Generated_Source\PSoC5/cyfitter_cfg.c **** 			{0x9Bu, 0x02u},
1541:.\Generated_Source\PSoC5/cyfitter_cfg.c **** 			{0x9Du, 0x80u},
1542:.\Generated_Source\PSoC5/cyfitter_cfg.c **** 			{0xA6u, 0x04u},
1543:.\Generated_Source\PSoC5/cyfitter_cfg.c **** 			{0xC8u, 0x60u},
1544:.\Generated_Source\PSoC5/cyfitter_cfg.c **** 			{0xD4u, 0x40u},
1545:.\Generated_Source\PSoC5/cyfitter_cfg.c **** 			{0x19u, 0x80u},
1546:.\Generated_Source\PSoC5/cyfitter_cfg.c **** 			{0x1Eu, 0x08u},
1547:.\Generated_Source\PSoC5/cyfitter_cfg.c **** 			{0x21u, 0x40u},
1548:.\Generated_Source\PSoC5/cyfitter_cfg.c **** 			{0x8Fu, 0x02u},
1549:.\Generated_Source\PSoC5/cyfitter_cfg.c **** 			{0x95u, 0x80u},
1550:.\Generated_Source\PSoC5/cyfitter_cfg.c **** 			{0x9Bu, 0x02u},
1551:.\Generated_Source\PSoC5/cyfitter_cfg.c **** 			{0x9Du, 0x80u},
1552:.\Generated_Source\PSoC5/cyfitter_cfg.c **** 			{0xA6u, 0x04u},
1553:.\Generated_Source\PSoC5/cyfitter_cfg.c **** 			{0xB0u, 0x40u},
1554:.\Generated_Source\PSoC5/cyfitter_cfg.c **** 			{0xC6u, 0xC0u},
1555:.\Generated_Source\PSoC5/cyfitter_cfg.c **** 			{0xC8u, 0x10u},
1556:.\Generated_Source\PSoC5/cyfitter_cfg.c **** 			{0x0Bu, 0x20u},
1557:.\Generated_Source\PSoC5/cyfitter_cfg.c **** 			{0x0Du, 0x01u},
1558:.\Generated_Source\PSoC5/cyfitter_cfg.c **** 			{0x60u, 0x80u},
1559:.\Generated_Source\PSoC5/cyfitter_cfg.c **** 			{0x66u, 0x02u},
1560:.\Generated_Source\PSoC5/cyfitter_cfg.c **** 			{0x89u, 0x01u},
1561:.\Generated_Source\PSoC5/cyfitter_cfg.c **** 			{0x8Du, 0x04u},
1562:.\Generated_Source\PSoC5/cyfitter_cfg.c **** 			{0x94u, 0x01u},
1563:.\Generated_Source\PSoC5/cyfitter_cfg.c **** 			{0x97u, 0x20u},
1564:.\Generated_Source\PSoC5/cyfitter_cfg.c **** 			{0x98u, 0x80u},
1565:.\Generated_Source\PSoC5/cyfitter_cfg.c **** 			{0x9Au, 0x02u},
1566:.\Generated_Source\PSoC5/cyfitter_cfg.c **** 			{0x9Cu, 0x01u},
1567:.\Generated_Source\PSoC5/cyfitter_cfg.c **** 			{0xA5u, 0x04u},
1568:.\Generated_Source\PSoC5/cyfitter_cfg.c **** 			{0xC2u, 0x0Cu},
1569:.\Generated_Source\PSoC5/cyfitter_cfg.c **** 			{0xD8u, 0x03u},
1570:.\Generated_Source\PSoC5/cyfitter_cfg.c **** 			{0xE2u, 0x04u},
1571:.\Generated_Source\PSoC5/cyfitter_cfg.c **** 			{0xE4u, 0x02u},
1572:.\Generated_Source\PSoC5/cyfitter_cfg.c **** 			{0x8Cu, 0x01u},
1573:.\Generated_Source\PSoC5/cyfitter_cfg.c **** 			{0x94u, 0x01u},
ARM GAS  C:\Users\glenn\AppData\Local\Temp\cc934L16.s 			page 49


1574:.\Generated_Source\PSoC5/cyfitter_cfg.c **** 			{0xB0u, 0x01u},
1575:.\Generated_Source\PSoC5/cyfitter_cfg.c **** 			{0xE4u, 0x08u},
1576:.\Generated_Source\PSoC5/cyfitter_cfg.c **** 			{0xECu, 0x04u},
1577:.\Generated_Source\PSoC5/cyfitter_cfg.c **** 			{0x00u, 0x46u},
1578:.\Generated_Source\PSoC5/cyfitter_cfg.c **** 			{0x01u, 0x01u},
1579:.\Generated_Source\PSoC5/cyfitter_cfg.c **** 			{0x0Au, 0x02u},
1580:.\Generated_Source\PSoC5/cyfitter_cfg.c **** 			{0x0Cu, 0x46u},
1581:.\Generated_Source\PSoC5/cyfitter_cfg.c **** 			{0x0Du, 0x01u},
1582:.\Generated_Source\PSoC5/cyfitter_cfg.c **** 			{0x0Eu, 0x06u},
1583:.\Generated_Source\PSoC5/cyfitter_cfg.c **** 			{0x10u, 0x06u},
1584:.\Generated_Source\PSoC5/cyfitter_cfg.c **** 			{0x11u, 0x01u},
1585:.\Generated_Source\PSoC5/cyfitter_cfg.c **** 			{0x1Au, 0x02u},
1586:.\Generated_Source\PSoC5/cyfitter_cfg.c **** 			{0x1Cu, 0x06u},
1587:.\Generated_Source\PSoC5/cyfitter_cfg.c **** 			{0x1Du, 0x01u},
1588:.\Generated_Source\PSoC5/cyfitter_cfg.c **** 			{0x00u, 0xBFu},
1589:.\Generated_Source\PSoC5/cyfitter_cfg.c **** 			{0x01u, 0xBFu},
1590:.\Generated_Source\PSoC5/cyfitter_cfg.c **** 			{0x02u, 0x0Fu},
1591:.\Generated_Source\PSoC5/cyfitter_cfg.c **** 			{0x10u, 0x0Au},
1592:.\Generated_Source\PSoC5/cyfitter_cfg.c **** 		};
1593:.\Generated_Source\PSoC5/cyfitter_cfg.c **** 
1594:.\Generated_Source\PSoC5/cyfitter_cfg.c **** 
1595:.\Generated_Source\PSoC5/cyfitter_cfg.c **** 
1596:.\Generated_Source\PSoC5/cyfitter_cfg.c **** 		CYPACKED typedef struct {
1597:.\Generated_Source\PSoC5/cyfitter_cfg.c **** 			void CYFAR *address;
1598:.\Generated_Source\PSoC5/cyfitter_cfg.c **** 			uint16 size;
1599:.\Generated_Source\PSoC5/cyfitter_cfg.c **** 		} CYPACKED_ATTR cfg_memset_t;
1600:.\Generated_Source\PSoC5/cyfitter_cfg.c **** 
1601:.\Generated_Source\PSoC5/cyfitter_cfg.c **** 		static const cfg_memset_t CYCODE cfg_memset_list [] = {
1602:.\Generated_Source\PSoC5/cyfitter_cfg.c **** 			/* address, size */
1603:.\Generated_Source\PSoC5/cyfitter_cfg.c **** 			{(void CYFAR *)(CYREG_PRT4_DR), 48u},
1604:.\Generated_Source\PSoC5/cyfitter_cfg.c **** 			{(void CYFAR *)(CYREG_PRT12_DR), 16u},
1605:.\Generated_Source\PSoC5/cyfitter_cfg.c **** 			{(void CYFAR *)(CYDEV_UCFG_B0_P0_U0_BASE), 4096u},
1606:.\Generated_Source\PSoC5/cyfitter_cfg.c **** 			{(void CYFAR *)(CYDEV_UCFG_B1_P2_U0_BASE), 2048u},
1607:.\Generated_Source\PSoC5/cyfitter_cfg.c **** 			{(void CYFAR *)(CYDEV_UCFG_DSI0_BASE), 2560u},
1608:.\Generated_Source\PSoC5/cyfitter_cfg.c **** 			{(void CYFAR *)(CYDEV_UCFG_DSI12_BASE), 512u},
1609:.\Generated_Source\PSoC5/cyfitter_cfg.c **** 			{(void CYFAR *)(CYREG_BCTL0_MDCLK_EN), 32u},
1610:.\Generated_Source\PSoC5/cyfitter_cfg.c **** 		};
1611:.\Generated_Source\PSoC5/cyfitter_cfg.c **** 
1612:.\Generated_Source\PSoC5/cyfitter_cfg.c **** 		uint8 CYDATA i;
1613:.\Generated_Source\PSoC5/cyfitter_cfg.c **** 
1614:.\Generated_Source\PSoC5/cyfitter_cfg.c **** 		/* Zero out critical memory blocks before beginning configuration */
1615:.\Generated_Source\PSoC5/cyfitter_cfg.c **** 		for (i = 0u; i < (sizeof(cfg_memset_list)/sizeof(cfg_memset_list[0])); i++)
 1155              		.loc 1 1615 0
 1156 0018 0023     		movs	r3, #0
 1157 001a FB71     		strb	r3, [r7, #7]
 1158 001c 13E0     		b	.L46
 1159              	.L47:
 1160              	.LBB4:
1616:.\Generated_Source\PSoC5/cyfitter_cfg.c **** 		{
1617:.\Generated_Source\PSoC5/cyfitter_cfg.c **** 			const cfg_memset_t CYCODE * CYDATA ms = &cfg_memset_list[i];
 1161              		.loc 1 1617 0 discriminator 3
 1162 001e FA79     		ldrb	r2, [r7, #7]	@ zero_extendqisi2
 1163 0020 1346     		mov	r3, r2
 1164 0022 5B00     		lsls	r3, r3, #1
 1165 0024 1344     		add	r3, r3, r2
 1166 0026 5B00     		lsls	r3, r3, #1
 1167 0028 3C4A     		ldr	r2, .L48+4
ARM GAS  C:\Users\glenn\AppData\Local\Temp\cc934L16.s 			page 50


 1168 002a 1344     		add	r3, r3, r2
 1169 002c 3B60     		str	r3, [r7]
1618:.\Generated_Source\PSoC5/cyfitter_cfg.c **** 			CYMEMZERO(ms->address, (size_t)(uint32)(ms->size));
 1170              		.loc 1 1618 0 discriminator 3
 1171 002e 3B68     		ldr	r3, [r7]
 1172 0030 1A68     		ldr	r2, [r3]	@ unaligned
 1173 0032 3B68     		ldr	r3, [r7]
 1174 0034 9B88     		ldrh	r3, [r3, #4]	@ unaligned
 1175 0036 9BB2     		uxth	r3, r3
 1176 0038 1046     		mov	r0, r2
 1177 003a 1946     		mov	r1, r3
 1178 003c FFF7FEFF 		bl	CYMEMZERO
 1179              	.LBE4:
1615:.\Generated_Source\PSoC5/cyfitter_cfg.c **** 		{
 1180              		.loc 1 1615 0 discriminator 3
 1181 0040 FB79     		ldrb	r3, [r7, #7]	@ zero_extendqisi2
 1182 0042 0133     		adds	r3, r3, #1
 1183 0044 FB71     		strb	r3, [r7, #7]
 1184              	.L46:
1615:.\Generated_Source\PSoC5/cyfitter_cfg.c **** 		{
 1185              		.loc 1 1615 0 is_stmt 0 discriminator 1
 1186 0046 FB79     		ldrb	r3, [r7, #7]	@ zero_extendqisi2
 1187 0048 062B     		cmp	r3, #6
 1188 004a E8D9     		bls	.L47
1619:.\Generated_Source\PSoC5/cyfitter_cfg.c **** 		}
1620:.\Generated_Source\PSoC5/cyfitter_cfg.c **** 
1621:.\Generated_Source\PSoC5/cyfitter_cfg.c **** 		cfg_write_bytes32(cy_cfg_addr_table, cy_cfg_data_table);
 1189              		.loc 1 1621 0 is_stmt 1
 1190 004c 3448     		ldr	r0, .L48+8
 1191 004e 3549     		ldr	r1, .L48+12
 1192 0050 FFF7FEFF 		bl	cfg_write_bytes32
1622:.\Generated_Source\PSoC5/cyfitter_cfg.c **** 
1623:.\Generated_Source\PSoC5/cyfitter_cfg.c **** 		/* Perform normal device configuration. Order is not critical for these items. */
1624:.\Generated_Source\PSoC5/cyfitter_cfg.c **** 		CY_SET_XTND_REG8((void CYFAR *)(CYREG_DSM0_CR3), 0x0Au);
 1193              		.loc 1 1624 0
 1194 0054 344B     		ldr	r3, .L48+16
 1195 0056 0A22     		movs	r2, #10
 1196 0058 1A70     		strb	r2, [r3]
1625:.\Generated_Source\PSoC5/cyfitter_cfg.c **** 		CYMEMZERO((void CYFAR *)(CYREG_PHUB_CFGMEM0_CFG0), 4u);
 1197              		.loc 1 1625 0
 1198 005a 3448     		ldr	r0, .L48+20
 1199 005c 0421     		movs	r1, #4
 1200 005e FFF7FEFF 		bl	CYMEMZERO
1626:.\Generated_Source\PSoC5/cyfitter_cfg.c **** 		CYCONFIGCPYCODE((void CYFAR *)(CYREG_PHUB_CFGMEM1_CFG0), (const void CYCODE *)(BS_PHUB_CFGMEM1_VA
 1201              		.loc 1 1626 0
 1202 0062 3348     		ldr	r0, .L48+24
 1203 0064 3349     		ldr	r1, .L48+28
 1204 0066 0422     		movs	r2, #4
 1205 0068 FFF7FEFF 		bl	CYCONFIGCPYCODE
1627:.\Generated_Source\PSoC5/cyfitter_cfg.c **** 
1628:.\Generated_Source\PSoC5/cyfitter_cfg.c **** 		/* Enable digital routing */
1629:.\Generated_Source\PSoC5/cyfitter_cfg.c **** 		CY_SET_XTND_REG8((void CYFAR *)CYREG_BCTL0_BANK_CTL, CY_GET_XTND_REG8((void CYFAR *)CYREG_BCTL0_B
 1206              		.loc 1 1629 0
 1207 006c 324A     		ldr	r2, .L48+32
 1208 006e 324B     		ldr	r3, .L48+32
 1209 0070 1B78     		ldrb	r3, [r3]
 1210 0072 DBB2     		uxtb	r3, r3
ARM GAS  C:\Users\glenn\AppData\Local\Temp\cc934L16.s 			page 51


 1211 0074 43F00203 		orr	r3, r3, #2
 1212 0078 DBB2     		uxtb	r3, r3
 1213 007a 1370     		strb	r3, [r2]
1630:.\Generated_Source\PSoC5/cyfitter_cfg.c **** 		CY_SET_XTND_REG8((void CYFAR *)CYREG_BCTL1_BANK_CTL, CY_GET_XTND_REG8((void CYFAR *)CYREG_BCTL1_B
 1214              		.loc 1 1630 0
 1215 007c 2F4A     		ldr	r2, .L48+36
 1216 007e 2F4B     		ldr	r3, .L48+36
 1217 0080 1B78     		ldrb	r3, [r3]
 1218 0082 DBB2     		uxtb	r3, r3
 1219 0084 43F00203 		orr	r3, r3, #2
 1220 0088 DBB2     		uxtb	r3, r3
 1221 008a 1370     		strb	r3, [r2]
1631:.\Generated_Source\PSoC5/cyfitter_cfg.c **** 
1632:.\Generated_Source\PSoC5/cyfitter_cfg.c **** 		/* Enable UDB array */
1633:.\Generated_Source\PSoC5/cyfitter_cfg.c **** 		CY_SET_XTND_REG8((void CYFAR *)CYREG_PM_ACT_CFG0, CY_GET_XTND_REG8((void CYFAR *)CYREG_PM_ACT_CFG
 1222              		.loc 1 1633 0
 1223 008c 2C4A     		ldr	r2, .L48+40
 1224 008e 2C4B     		ldr	r3, .L48+40
 1225 0090 1B78     		ldrb	r3, [r3]
 1226 0092 DBB2     		uxtb	r3, r3
 1227 0094 43F04003 		orr	r3, r3, #64
 1228 0098 DBB2     		uxtb	r3, r3
 1229 009a 1370     		strb	r3, [r2]
1634:.\Generated_Source\PSoC5/cyfitter_cfg.c **** 		CY_SET_XTND_REG8((void CYFAR *)CYREG_PM_AVAIL_CR2, CY_GET_XTND_REG8((void CYFAR *)CYREG_PM_AVAIL_
 1230              		.loc 1 1634 0
 1231 009c 294A     		ldr	r2, .L48+44
 1232 009e 294B     		ldr	r3, .L48+44
 1233 00a0 1B78     		ldrb	r3, [r3]
 1234 00a2 DBB2     		uxtb	r3, r3
 1235 00a4 43F01003 		orr	r3, r3, #16
 1236 00a8 DBB2     		uxtb	r3, r3
 1237 00aa 1370     		strb	r3, [r2]
 1238              	.LBE3:
1635:.\Generated_Source\PSoC5/cyfitter_cfg.c **** 	}
1636:.\Generated_Source\PSoC5/cyfitter_cfg.c **** 
1637:.\Generated_Source\PSoC5/cyfitter_cfg.c **** 
1638:.\Generated_Source\PSoC5/cyfitter_cfg.c **** 	/* Perform second pass device configuration. These items must be configured in specific order afte
1639:.\Generated_Source\PSoC5/cyfitter_cfg.c **** 	CYCONFIGCPYCODE((void CYFAR *)(CYREG_PRT0_DM0), (const void CYCODE *)(BS_IOPINS0_0_VAL), 8u);
 1239              		.loc 1 1639 0
 1240 00ac 2648     		ldr	r0, .L48+48
 1241 00ae 2749     		ldr	r1, .L48+52
 1242 00b0 0822     		movs	r2, #8
 1243 00b2 FFF7FEFF 		bl	CYCONFIGCPYCODE
1640:.\Generated_Source\PSoC5/cyfitter_cfg.c **** 	CYCONFIGCPYCODE((void CYFAR *)(CYREG_PRT15_DM0), (const void CYCODE *)(BS_IOPINS0_8_VAL), 8u);
 1244              		.loc 1 1640 0
 1245 00b6 2648     		ldr	r0, .L48+56
 1246 00b8 2649     		ldr	r1, .L48+60
 1247 00ba 0822     		movs	r2, #8
 1248 00bc FFF7FEFF 		bl	CYCONFIGCPYCODE
1641:.\Generated_Source\PSoC5/cyfitter_cfg.c **** 	CYCONFIGCPYCODE((void CYFAR *)(CYREG_PRT1_DR), (const void CYCODE *)(BS_IOPINS0_1_VAL), 10u);
 1249              		.loc 1 1641 0
 1250 00c0 2548     		ldr	r0, .L48+64
 1251 00c2 2649     		ldr	r1, .L48+68
 1252 00c4 0A22     		movs	r2, #10
 1253 00c6 FFF7FEFF 		bl	CYCONFIGCPYCODE
1642:.\Generated_Source\PSoC5/cyfitter_cfg.c **** 	CYCONFIGCPYCODE((void CYFAR *)(CYREG_PRT2_DR), (const void CYCODE *)(BS_IOPINS0_2_VAL), 10u);
 1254              		.loc 1 1642 0
ARM GAS  C:\Users\glenn\AppData\Local\Temp\cc934L16.s 			page 52


 1255 00ca 2548     		ldr	r0, .L48+72
 1256 00cc 2549     		ldr	r1, .L48+76
 1257 00ce 0A22     		movs	r2, #10
 1258 00d0 FFF7FEFF 		bl	CYCONFIGCPYCODE
1643:.\Generated_Source\PSoC5/cyfitter_cfg.c **** 	CYCONFIGCPYCODE((void CYFAR *)(CYREG_PRT3_DM0), (const void CYCODE *)(BS_IOPINS0_3_VAL), 8u);
 1259              		.loc 1 1643 0
 1260 00d4 2448     		ldr	r0, .L48+80
 1261 00d6 2549     		ldr	r1, .L48+84
 1262 00d8 0822     		movs	r2, #8
 1263 00da FFF7FEFF 		bl	CYCONFIGCPYCODE
1644:.\Generated_Source\PSoC5/cyfitter_cfg.c **** 	/* Switch Boost to the precision bandgap reference from its internal reference */
1645:.\Generated_Source\PSoC5/cyfitter_cfg.c **** 	CY_SET_REG8((void CYXDATA *)CYREG_BOOST_CR2, (CY_GET_REG8((void CYXDATA *)CYREG_BOOST_CR2) | 0x08u
 1264              		.loc 1 1645 0
 1265 00de 244A     		ldr	r2, .L48+88
 1266 00e0 234B     		ldr	r3, .L48+88
 1267 00e2 1B78     		ldrb	r3, [r3]
 1268 00e4 DBB2     		uxtb	r3, r3
 1269 00e6 43F00803 		orr	r3, r3, #8
 1270 00ea DBB2     		uxtb	r3, r3
 1271 00ec 1370     		strb	r3, [r2]
1646:.\Generated_Source\PSoC5/cyfitter_cfg.c **** 
1647:.\Generated_Source\PSoC5/cyfitter_cfg.c **** 	/* Set Flash Cycles based on max possible frequency in case a glitch occurs during ClockSetup(). *
1648:.\Generated_Source\PSoC5/cyfitter_cfg.c **** 	CY_SET_XTND_REG8((void CYFAR *)(CYREG_CACHE_CC_CTL), (((CYDEV_INSTRUCT_CACHE_ENABLED) != 0) ? 0x61
 1272              		.loc 1 1648 0
 1273 00ee 214B     		ldr	r3, .L48+92
 1274 00f0 6022     		movs	r2, #96
 1275 00f2 1A70     		strb	r2, [r3]
1649:.\Generated_Source\PSoC5/cyfitter_cfg.c **** 	/* Setup clocks based on selections from Clock DWR */
1650:.\Generated_Source\PSoC5/cyfitter_cfg.c **** 	ClockSetup();
 1276              		.loc 1 1650 0
 1277 00f4 FFF7FEFF 		bl	ClockSetup
1651:.\Generated_Source\PSoC5/cyfitter_cfg.c **** 	/* Set Flash Cycles based on newly configured 64.00MHz Bus Clock. */
1652:.\Generated_Source\PSoC5/cyfitter_cfg.c **** 	CY_SET_XTND_REG8((void CYFAR *)(CYREG_CACHE_CC_CTL), (((CYDEV_INSTRUCT_CACHE_ENABLED) != 0) ? 0x01
 1278              		.loc 1 1652 0
 1279 00f8 1E4B     		ldr	r3, .L48+92
 1280 00fa 0022     		movs	r2, #0
 1281 00fc 1A70     		strb	r2, [r3]
1653:.\Generated_Source\PSoC5/cyfitter_cfg.c **** 
1654:.\Generated_Source\PSoC5/cyfitter_cfg.c **** 	CyEEPROM_Start(); /* Start EEPROM since it is used in DWR */
 1282              		.loc 1 1654 0
 1283 00fe FFF7FEFF 		bl	CyEEPROM_Start
1655:.\Generated_Source\PSoC5/cyfitter_cfg.c **** 
1656:.\Generated_Source\PSoC5/cyfitter_cfg.c **** 	/* Perform basic analog initialization to defaults */
1657:.\Generated_Source\PSoC5/cyfitter_cfg.c **** 	AnalogSetDefault();
 1284              		.loc 1 1657 0
 1285 0102 FFF7FEFF 		bl	AnalogSetDefault
1658:.\Generated_Source\PSoC5/cyfitter_cfg.c **** 
1659:.\Generated_Source\PSoC5/cyfitter_cfg.c **** 	/* Configure alternate active mode */
1660:.\Generated_Source\PSoC5/cyfitter_cfg.c **** 	CYCONFIGCPY((void CYFAR *)CYDEV_PM_STBY_BASE, (const void CYFAR *)CYDEV_PM_ACT_BASE, 14u);
 1286              		.loc 1 1660 0
 1287 0106 1C48     		ldr	r0, .L48+96
 1288 0108 0D49     		ldr	r1, .L48+40
 1289 010a 0E22     		movs	r2, #14
 1290 010c FFF7FEFF 		bl	CYCONFIGCPY
1661:.\Generated_Source\PSoC5/cyfitter_cfg.c **** }
 1291              		.loc 1 1661 0
 1292 0110 0837     		adds	r7, r7, #8
ARM GAS  C:\Users\glenn\AppData\Local\Temp\cc934L16.s 			page 53


 1293              		.cfi_def_cfa_offset 8
 1294 0112 BD46     		mov	sp, r7
 1295              		.cfi_def_cfa_register 13
 1296              		@ sp needed
 1297 0114 80BD     		pop	{r7, pc}
 1298              	.L49:
 1299 0116 00BF     		.align	2
 1300              	.L48:
 1301 0118 E8460040 		.word	1073759976
 1302 011c BC000000 		.word	cfg_memset_list.4927
 1303 0120 E8000000 		.word	cy_cfg_addr_table.4921
 1304 0124 80010000 		.word	cy_cfg_data_table.4922
 1305 0128 83580040 		.word	1073764483
 1306 012c 00760040 		.word	1073772032
 1307 0130 08760040 		.word	1073772040
 1308 0134 54090000 		.word	BS_PHUB_CFGMEM1_VAL.4920
 1309 0138 03500140 		.word	1073827843
 1310 013c 13500140 		.word	1073827859
 1311 0140 A0430040 		.word	1073759136
 1312 0144 C2430040 		.word	1073759170
 1313 0148 02510040 		.word	1073762562
 1314 014c 58090000 		.word	BS_IOPINS0_0_VAL.4915
 1315 0150 F2510040 		.word	1073762802
 1316 0154 60090000 		.word	BS_IOPINS0_8_VAL.4916
 1317 0158 10510040 		.word	1073762576
 1318 015c 68090000 		.word	BS_IOPINS0_1_VAL.4917
 1319 0160 20510040 		.word	1073762592
 1320 0164 74090000 		.word	BS_IOPINS0_2_VAL.4918
 1321 0168 32510040 		.word	1073762610
 1322 016c 80090000 		.word	BS_IOPINS0_3_VAL.4919
 1323 0170 22430040 		.word	1073759010
 1324 0174 00480040 		.word	1073760256
 1325 0178 B0430040 		.word	1073759152
 1326              		.cfi_endproc
 1327              	.LFE12:
 1328              		.size	cyfitter_cfg, .-cyfitter_cfg
 1329              		.section	.rodata
 1330 00b6 0000     		.align	2
 1331              		.type	BS_CYDEV_CLKDIST_ACFG0_CFG0_VAL.4874, %object
 1332              		.size	BS_CYDEV_CLKDIST_ACFG0_CFG0_VAL.4874, 4
 1333              	BS_CYDEV_CLKDIST_ACFG0_CFG0_VAL.4874:
 1334 00b8 14       		.byte	20
 1335 00b9 00       		.byte	0
 1336 00ba 18       		.byte	24
 1337 00bb 01       		.byte	1
 1338              		.align	2
 1339              		.type	cfg_memset_list.4927, %object
 1340              		.size	cfg_memset_list.4927, 42
 1341              	cfg_memset_list.4927:
 1342 00bc 40510040 		.word	1073762624
 1343 00c0 3000     		.short	48
 1344 00c2 C0510040 		.4byte	1073762752
 1345 00c6 1000     		.short	16
 1346 00c8 00000140 		.word	1073807360
 1347 00cc 0010     		.short	4096
 1348 00ce 00140140 		.4byte	1073812480
 1349 00d2 0008     		.short	2048
ARM GAS  C:\Users\glenn\AppData\Local\Temp\cc934L16.s 			page 54


 1350 00d4 00400140 		.word	1073823744
 1351 00d8 000A     		.short	2560
 1352 00da 004C0140 		.4byte	1073826816
 1353 00de 0002     		.short	512
 1354 00e0 00500140 		.word	1073827840
 1355 00e4 2000     		.short	32
 1356 00e6 0000     		.align	2
 1357              		.type	cy_cfg_addr_table.4921, %object
 1358              		.size	cy_cfg_addr_table.4921, 152
 1359              	cy_cfg_addr_table.4921:
 1360 00e8 05520040 		.word	1073762821
 1361 00ec 015B0040 		.word	1073765121
 1362 00f0 02640040 		.word	1073767426
 1363 00f4 01650040 		.word	1073767681
 1364 00f8 01010140 		.word	1073807617
 1365 00fc 01050140 		.word	1073808641
 1366 0100 0B060140 		.word	1073808907
 1367 0104 2A070140 		.word	1073809194
 1368 0108 37080140 		.word	1073809463
 1369 010c 43090140 		.word	1073809731
 1370 0110 320A0140 		.word	1073809970
 1371 0114 410B0140 		.word	1073810241
 1372 0118 400C0140 		.word	1073810496
 1373 011c 3A0D0140 		.word	1073810746
 1374 0120 320E0140 		.word	1073810994
 1375 0124 2F0F0140 		.word	1073811247
 1376 0128 04140140 		.word	1073812484
 1377 012c 0F150140 		.word	1073812751
 1378 0130 11160140 		.word	1073813009
 1379 0134 33170140 		.word	1073813299
 1380 0138 2A180140 		.word	1073813546
 1381 013c 4B190140 		.word	1073813835
 1382 0140 311A0140 		.word	1073814065
 1383 0144 4C1B0140 		.word	1073814348
 1384 0148 0E400140 		.word	1073823758
 1385 014c 0C410140 		.word	1073824012
 1386 0150 09420140 		.word	1073824265
 1387 0154 11430140 		.word	1073824529
 1388 0158 02440140 		.word	1073824770
 1389 015c 06450140 		.word	1073825030
 1390 0160 13460140 		.word	1073825299
 1391 0164 0F470140 		.word	1073825551
 1392 0168 0B480140 		.word	1073825803
 1393 016c 0B490140 		.word	1073826059
 1394 0170 104C0140 		.word	1073826832
 1395 0174 054D0140 		.word	1073827077
 1396 0178 0B500140 		.word	1073827851
 1397 017c 04510140 		.word	1073828100
 1398              		.align	2
 1399              		.type	cy_cfg_data_table.4922, %object
 1400              		.size	cy_cfg_data_table.4922, 2002
 1401              	cy_cfg_data_table.4922:
 1402 0180 08       		.byte	8
 1403 0181 80       		.byte	-128
 1404 0182 09       		.byte	9
 1405 0183 C0       		.byte	-64
 1406 0184 78       		.byte	120
ARM GAS  C:\Users\glenn\AppData\Local\Temp\cc934L16.s 			page 55


 1407 0185 02       		.byte	2
 1408 0186 7A       		.byte	122
 1409 0187 12       		.byte	18
 1410 0188 7B       		.byte	123
 1411 0189 02       		.byte	2
 1412 018a 27       		.byte	39
 1413 018b 84       		.byte	-124
 1414 018c 8B       		.byte	-117
 1415 018d 38       		.byte	56
 1416 018e 8E       		.byte	-114
 1417 018f 0F       		.byte	15
 1418 0190 8B       		.byte	-117
 1419 0191 72       		.byte	114
 1420 0192 E6       		.byte	-26
 1421 0193 20       		.byte	32
 1422 0194 E2       		.byte	-30
 1423 0195 08       		.byte	8
 1424 0196 58       		.byte	88
 1425 0197 04       		.byte	4
 1426 0198 59       		.byte	89
 1427 0199 04       		.byte	4
 1428 019a 5C       		.byte	92
 1429 019b 11       		.byte	17
 1430 019c 5F       		.byte	95
 1431 019d 01       		.byte	1
 1432 019e D4       		.byte	-44
 1433 019f 01       		.byte	1
 1434 01a0 D8       		.byte	-40
 1435 01a1 04       		.byte	4
 1436 01a2 D9       		.byte	-39
 1437 01a3 04       		.byte	4
 1438 01a4 DB       		.byte	-37
 1439 01a5 0E       		.byte	14
 1440 01a6 DC       		.byte	-36
 1441 01a7 11       		.byte	17
 1442 01a8 DD       		.byte	-35
 1443 01a9 10       		.byte	16
 1444 01aa DF       		.byte	-33
 1445 01ab 01       		.byte	1
 1446 01ac 00       		.byte	0
 1447 01ad 10       		.byte	16
 1448 01ae 01       		.byte	1
 1449 01af 08       		.byte	8
 1450 01b0 04       		.byte	4
 1451 01b1 10       		.byte	16
 1452 01b2 08       		.byte	8
 1453 01b3 01       		.byte	1
 1454 01b4 09       		.byte	9
 1455 01b5 80       		.byte	-128
 1456 01b6 0A       		.byte	10
 1457 01b7 44       		.byte	68
 1458 01b8 0C       		.byte	12
 1459 01b9 08       		.byte	8
 1460 01ba 0D       		.byte	13
 1461 01bb 80       		.byte	-128
 1462 01bc 0E       		.byte	14
 1463 01bd 44       		.byte	68
ARM GAS  C:\Users\glenn\AppData\Local\Temp\cc934L16.s 			page 56


 1464 01be 10       		.byte	16
 1465 01bf 08       		.byte	8
 1466 01c0 12       		.byte	18
 1467 01c1 40       		.byte	64
 1468 01c2 16       		.byte	22
 1469 01c3 84       		.byte	-124
 1470 01c4 28       		.byte	40
 1471 01c5 01       		.byte	1
 1472 01c6 29       		.byte	41
 1473 01c7 08       		.byte	8
 1474 01c8 2A       		.byte	42
 1475 01c9 04       		.byte	4
 1476 01ca 2C       		.byte	44
 1477 01cb 08       		.byte	8
 1478 01cc 2D       		.byte	45
 1479 01cd 08       		.byte	8
 1480 01ce 2E       		.byte	46
 1481 01cf 40       		.byte	64
 1482 01d0 2F       		.byte	47
 1483 01d1 80       		.byte	-128
 1484 01d2 30       		.byte	48
 1485 01d3 08       		.byte	8
 1486 01d4 31       		.byte	49
 1487 01d5 80       		.byte	-128
 1488 01d6 33       		.byte	51
 1489 01d7 80       		.byte	-128
 1490 01d8 38       		.byte	56
 1491 01d9 10       		.byte	16
 1492 01da 3A       		.byte	58
 1493 01db C8       		.byte	-56
 1494 01dc 3C       		.byte	60
 1495 01dd 10       		.byte	16
 1496 01de 3E       		.byte	62
 1497 01df 8C       		.byte	-116
 1498 01e0 5B       		.byte	91
 1499 01e1 80       		.byte	-128
 1500 01e2 79       		.byte	121
 1501 01e3 08       		.byte	8
 1502 01e4 80       		.byte	-128
 1503 01e5 04       		.byte	4
 1504 01e6 85       		.byte	-123
 1505 01e7 04       		.byte	4
 1506 01e8 8B       		.byte	-117
 1507 01e9 80       		.byte	-128
 1508 01ea C0       		.byte	-64
 1509 01eb 46       		.byte	70
 1510 01ec C2       		.byte	-62
 1511 01ed FB       		.byte	-5
 1512 01ee C4       		.byte	-60
 1513 01ef 5A       		.byte	90
 1514 01f0 CA       		.byte	-54
 1515 01f1 FA       		.byte	-6
 1516 01f2 CC       		.byte	-52
 1517 01f3 0A       		.byte	10
 1518 01f4 CE       		.byte	-50
 1519 01f5 7E       		.byte	126
 1520 01f6 D6       		.byte	-42
ARM GAS  C:\Users\glenn\AppData\Local\Temp\cc934L16.s 			page 57


 1521 01f7 08       		.byte	8
 1522 01f8 DE       		.byte	-34
 1523 01f9 02       		.byte	2
 1524 01fa E2       		.byte	-30
 1525 01fb 08       		.byte	8
 1526 01fc E6       		.byte	-26
 1527 01fd 20       		.byte	32
 1528 01fe EE       		.byte	-18
 1529 01ff 04       		.byte	4
 1530 0200 01       		.byte	1
 1531 0201 C3       		.byte	-61
 1532 0202 02       		.byte	2
 1533 0203 02       		.byte	2
 1534 0204 06       		.byte	6
 1535 0205 20       		.byte	32
 1536 0206 07       		.byte	7
 1537 0207 F3       		.byte	-13
 1538 0208 09       		.byte	9
 1539 0209 0F       		.byte	15
 1540 020a 0B       		.byte	11
 1541 020b F0       		.byte	-16
 1542 020c 0D       		.byte	13
 1543 020d 08       		.byte	8
 1544 020e 0E       		.byte	14
 1545 020f 01       		.byte	1
 1546 0210 11       		.byte	17
 1547 0211 F3       		.byte	-13
 1548 0212 12       		.byte	18
 1549 0213 04       		.byte	4
 1550 0214 13       		.byte	19
 1551 0215 0C       		.byte	12
 1552 0216 14       		.byte	20
 1553 0217 08       		.byte	8
 1554 0218 15       		.byte	21
 1555 0219 0C       		.byte	12
 1556 021a 19       		.byte	25
 1557 021b 1C       		.byte	28
 1558 021c 1B       		.byte	27
 1559 021d E3       		.byte	-29
 1560 021e 1E       		.byte	30
 1561 021f 04       		.byte	4
 1562 0220 20       		.byte	32
 1563 0221 08       		.byte	8
 1564 0222 21       		.byte	33
 1565 0223 04       		.byte	4
 1566 0224 25       		.byte	37
 1567 0225 41       		.byte	65
 1568 0226 26       		.byte	38
 1569 0227 20       		.byte	32
 1570 0228 28       		.byte	40
 1571 0229 01       		.byte	1
 1572 022a 29       		.byte	41
 1573 022b 82       		.byte	-126
 1574 022c 2D       		.byte	45
 1575 022d FF       		.byte	-1
 1576 022e 2E       		.byte	46
 1577 022f 10       		.byte	16
ARM GAS  C:\Users\glenn\AppData\Local\Temp\cc934L16.s 			page 58


 1578 0230 30       		.byte	48
 1579 0231 08       		.byte	8
 1580 0232 31       		.byte	49
 1581 0233 C0       		.byte	-64
 1582 0234 32       		.byte	50
 1583 0235 04       		.byte	4
 1584 0236 33       		.byte	51
 1585 0237 1C       		.byte	28
 1586 0238 34       		.byte	52
 1587 0239 30       		.byte	48
 1588 023a 35       		.byte	53
 1589 023b 2C       		.byte	44
 1590 023c 36       		.byte	54
 1591 023d 03       		.byte	3
 1592 023e 37       		.byte	55
 1593 023f 0F       		.byte	15
 1594 0240 38       		.byte	56
 1595 0241 02       		.byte	2
 1596 0242 3B       		.byte	59
 1597 0243 A0       		.byte	-96
 1598 0244 3E       		.byte	62
 1599 0245 15       		.byte	21
 1600 0246 52       		.byte	82
 1601 0247 03       		.byte	3
 1602 0248 53       		.byte	83
 1603 0249 02       		.byte	2
 1604 024a 58       		.byte	88
 1605 024b 04       		.byte	4
 1606 024c 59       		.byte	89
 1607 024d 04       		.byte	4
 1608 024e 5B       		.byte	91
 1609 024f 04       		.byte	4
 1610 0250 5C       		.byte	92
 1611 0251 29       		.byte	41
 1612 0252 5D       		.byte	93
 1613 0253 10       		.byte	16
 1614 0254 5F       		.byte	95
 1615 0255 01       		.byte	1
 1616 0256 86       		.byte	-122
 1617 0257 02       		.byte	2
 1618 0258 91       		.byte	-111
 1619 0259 01       		.byte	1
 1620 025a A3       		.byte	-93
 1621 025b 03       		.byte	3
 1622 025c A6       		.byte	-90
 1623 025d 01       		.byte	1
 1624 025e B0       		.byte	-80
 1625 025f 01       		.byte	1
 1626 0260 B1       		.byte	-79
 1627 0261 02       		.byte	2
 1628 0262 B5       		.byte	-75
 1629 0263 01       		.byte	1
 1630 0264 B6       		.byte	-74
 1631 0265 02       		.byte	2
 1632 0266 D8       		.byte	-40
 1633 0267 04       		.byte	4
 1634 0268 D9       		.byte	-39
ARM GAS  C:\Users\glenn\AppData\Local\Temp\cc934L16.s 			page 59


 1635 0269 0C       		.byte	12
 1636 026a DC       		.byte	-36
 1637 026b 11       		.byte	17
 1638 026c DF       		.byte	-33
 1639 026d 01       		.byte	1
 1640 026e 01       		.byte	1
 1641 026f 20       		.byte	32
 1642 0270 02       		.byte	2
 1643 0271 80       		.byte	-128
 1644 0272 03       		.byte	3
 1645 0273 10       		.byte	16
 1646 0274 04       		.byte	4
 1647 0275 08       		.byte	8
 1648 0276 05       		.byte	5
 1649 0277 40       		.byte	64
 1650 0278 06       		.byte	6
 1651 0279 60       		.byte	96
 1652 027a 08       		.byte	8
 1653 027b 20       		.byte	32
 1654 027c 09       		.byte	9
 1655 027d 40       		.byte	64
 1656 027e 0A       		.byte	10
 1657 027f 40       		.byte	64
 1658 0280 0E       		.byte	14
 1659 0281 21       		.byte	33
 1660 0282 0F       		.byte	15
 1661 0283 80       		.byte	-128
 1662 0284 11       		.byte	17
 1663 0285 02       		.byte	2
 1664 0286 13       		.byte	19
 1665 0287 18       		.byte	24
 1666 0288 14       		.byte	20
 1667 0289 80       		.byte	-128
 1668 028a 15       		.byte	21
 1669 028b 24       		.byte	36
 1670 028c 16       		.byte	22
 1671 028d 02       		.byte	2
 1672 028e 17       		.byte	23
 1673 028f 40       		.byte	64
 1674 0290 18       		.byte	24
 1675 0291 01       		.byte	1
 1676 0292 1A       		.byte	26
 1677 0293 40       		.byte	64
 1678 0294 1B       		.byte	27
 1679 0295 01       		.byte	1
 1680 0296 1D       		.byte	29
 1681 0297 61       		.byte	97
 1682 0298 1F       		.byte	31
 1683 0299 84       		.byte	-124
 1684 029a 21       		.byte	33
 1685 029b 12       		.byte	18
 1686 029c 25       		.byte	37
 1687 029d 90       		.byte	-112
 1688 029e 26       		.byte	38
 1689 029f 0D       		.byte	13
 1690 02a0 27       		.byte	39
 1691 02a1 05       		.byte	5
ARM GAS  C:\Users\glenn\AppData\Local\Temp\cc934L16.s 			page 60


 1692 02a2 2B       		.byte	43
 1693 02a3 80       		.byte	-128
 1694 02a4 2C       		.byte	44
 1695 02a5 02       		.byte	2
 1696 02a6 2D       		.byte	45
 1697 02a7 04       		.byte	4
 1698 02a8 2E       		.byte	46
 1699 02a9 20       		.byte	32
 1700 02aa 2F       		.byte	47
 1701 02ab 40       		.byte	64
 1702 02ac 31       		.byte	49
 1703 02ad 02       		.byte	2
 1704 02ae 34       		.byte	52
 1705 02af 10       		.byte	16
 1706 02b0 35       		.byte	53
 1707 02b1 04       		.byte	4
 1708 02b2 37       		.byte	55
 1709 02b3 01       		.byte	1
 1710 02b4 3C       		.byte	60
 1711 02b5 80       		.byte	-128
 1712 02b6 3D       		.byte	61
 1713 02b7 28       		.byte	40
 1714 02b8 3E       		.byte	62
 1715 02b9 02       		.byte	2
 1716 02ba 4C       		.byte	76
 1717 02bb 03       		.byte	3
 1718 02bc 6D       		.byte	109
 1719 02bd 40       		.byte	64
 1720 02be 6E       		.byte	110
 1721 02bf 20       		.byte	32
 1722 02c0 6F       		.byte	111
 1723 02c1 02       		.byte	2
 1724 02c2 79       		.byte	121
 1725 02c3 40       		.byte	64
 1726 02c4 7C       		.byte	124
 1727 02c5 01       		.byte	1
 1728 02c6 7D       		.byte	125
 1729 02c7 02       		.byte	2
 1730 02c8 87       		.byte	-121
 1731 02c9 02       		.byte	2
 1732 02ca 89       		.byte	-119
 1733 02cb 10       		.byte	16
 1734 02cc 8C       		.byte	-116
 1735 02cd 80       		.byte	-128
 1736 02ce 94       		.byte	-108
 1737 02cf 02       		.byte	2
 1738 02d0 97       		.byte	-105
 1739 02d1 18       		.byte	24
 1740 02d2 9C       		.byte	-100
 1741 02d3 40       		.byte	64
 1742 02d4 9D       		.byte	-99
 1743 02d5 28       		.byte	40
 1744 02d6 9F       		.byte	-97
 1745 02d7 01       		.byte	1
 1746 02d8 A3       		.byte	-93
 1747 02d9 40       		.byte	64
 1748 02da A5       		.byte	-91
ARM GAS  C:\Users\glenn\AppData\Local\Temp\cc934L16.s 			page 61


 1749 02db 65       		.byte	101
 1750 02dc A6       		.byte	-90
 1751 02dd 0D       		.byte	13
 1752 02de A7       		.byte	-89
 1753 02df 01       		.byte	1
 1754 02e0 AE       		.byte	-82
 1755 02e1 20       		.byte	32
 1756 02e2 C0       		.byte	-64
 1757 02e3 BE       		.byte	-66
 1758 02e4 C2       		.byte	-62
 1759 02e5 BB       		.byte	-69
 1760 02e6 C4       		.byte	-60
 1761 02e7 FE       		.byte	-2
 1762 02e8 CA       		.byte	-54
 1763 02e9 F1       		.byte	-15
 1764 02ea CC       		.byte	-52
 1765 02eb E1       		.byte	-31
 1766 02ec CE       		.byte	-50
 1767 02ed F0       		.byte	-16
 1768 02ee DE       		.byte	-34
 1769 02ef 08       		.byte	8
 1770 02f0 E6       		.byte	-26
 1771 02f1 20       		.byte	32
 1772 02f2 EE       		.byte	-18
 1773 02f3 06       		.byte	6
 1774 02f4 06       		.byte	6
 1775 02f5 01       		.byte	1
 1776 02f6 19       		.byte	25
 1777 02f7 01       		.byte	1
 1778 02f8 26       		.byte	38
 1779 02f9 04       		.byte	4
 1780 02fa 2A       		.byte	42
 1781 02fb 02       		.byte	2
 1782 02fc 32       		.byte	50
 1783 02fd 01       		.byte	1
 1784 02fe 34       		.byte	52
 1785 02ff 02       		.byte	2
 1786 0300 36       		.byte	54
 1787 0301 04       		.byte	4
 1788 0302 37       		.byte	55
 1789 0303 01       		.byte	1
 1790 0304 3F       		.byte	63
 1791 0305 40       		.byte	64
 1792 0306 58       		.byte	88
 1793 0307 04       		.byte	4
 1794 0308 59       		.byte	89
 1795 0309 04       		.byte	4
 1796 030a 5B       		.byte	91
 1797 030b 04       		.byte	4
 1798 030c 5C       		.byte	92
 1799 030d 16       		.byte	22
 1800 030e 5F       		.byte	95
 1801 030f 01       		.byte	1
 1802 0310 9A       		.byte	-102
 1803 0311 01       		.byte	1
 1804 0312 AA       		.byte	-86
 1805 0313 01       		.byte	1
ARM GAS  C:\Users\glenn\AppData\Local\Temp\cc934L16.s 			page 62


 1806 0314 B0       		.byte	-80
 1807 0315 01       		.byte	1
 1808 0316 BE       		.byte	-66
 1809 0317 01       		.byte	1
 1810 0318 C0       		.byte	-64
 1811 0319 43       		.byte	67
 1812 031a C1       		.byte	-63
 1813 031b 05       		.byte	5
 1814 031c C2       		.byte	-62
 1815 031d 06       		.byte	6
 1816 031e C4       		.byte	-60
 1817 031f 02       		.byte	2
 1818 0320 C6       		.byte	-58
 1819 0321 0E       		.byte	14
 1820 0322 C7       		.byte	-57
 1821 0323 0C       		.byte	12
 1822 0324 C8       		.byte	-56
 1823 0325 14       		.byte	20
 1824 0326 C9       		.byte	-55
 1825 0327 FF       		.byte	-1
 1826 0328 CA       		.byte	-54
 1827 0329 FF       		.byte	-1
 1828 032a CB       		.byte	-53
 1829 032b FF       		.byte	-1
 1830 032c CC       		.byte	-52
 1831 032d 62       		.byte	98
 1832 032e CD       		.byte	-51
 1833 032f A0       		.byte	-96
 1834 0330 CE       		.byte	-50
 1835 0331 F0       		.byte	-16
 1836 0332 CF       		.byte	-49
 1837 0333 41       		.byte	65
 1838 0334 D0       		.byte	-48
 1839 0335 0C       		.byte	12
 1840 0336 D4       		.byte	-44
 1841 0337 18       		.byte	24
 1842 0338 D6       		.byte	-42
 1843 0339 04       		.byte	4
 1844 033a D8       		.byte	-40
 1845 033b 04       		.byte	4
 1846 033c D9       		.byte	-39
 1847 033d 04       		.byte	4
 1848 033e DA       		.byte	-38
 1849 033f 04       		.byte	4
 1850 0340 DB       		.byte	-37
 1851 0341 04       		.byte	4
 1852 0342 DC       		.byte	-36
 1853 0343 11       		.byte	17
 1854 0344 DD       		.byte	-35
 1855 0345 22       		.byte	34
 1856 0346 DF       		.byte	-33
 1857 0347 01       		.byte	1
 1858 0348 E6       		.byte	-26
 1859 0349 40       		.byte	64
 1860 034a E7       		.byte	-25
 1861 034b 02       		.byte	2
 1862 034c E9       		.byte	-23
ARM GAS  C:\Users\glenn\AppData\Local\Temp\cc934L16.s 			page 63


 1863 034d 10       		.byte	16
 1864 034e EA       		.byte	-22
 1865 034f 30       		.byte	48
 1866 0350 EB       		.byte	-21
 1867 0351 10       		.byte	16
 1868 0352 ED       		.byte	-19
 1869 0353 10       		.byte	16
 1870 0354 EE       		.byte	-18
 1871 0355 10       		.byte	16
 1872 0356 EF       		.byte	-17
 1873 0357 12       		.byte	18
 1874 0358 02       		.byte	2
 1875 0359 20       		.byte	32
 1876 035a 05       		.byte	5
 1877 035b 20       		.byte	32
 1878 035c 08       		.byte	8
 1879 035d 81       		.byte	-127
 1880 035e 09       		.byte	9
 1881 035f 41       		.byte	65
 1882 0360 0B       		.byte	11
 1883 0361 40       		.byte	64
 1884 0362 0E       		.byte	14
 1885 0363 08       		.byte	8
 1886 0364 0F       		.byte	15
 1887 0365 52       		.byte	82
 1888 0366 10       		.byte	16
 1889 0367 14       		.byte	20
 1890 0368 14       		.byte	20
 1891 0369 80       		.byte	-128
 1892 036a 15       		.byte	21
 1893 036b 04       		.byte	4
 1894 036c 16       		.byte	22
 1895 036d 49       		.byte	73
 1896 036e 19       		.byte	25
 1897 036f 54       		.byte	84
 1898 0370 1F       		.byte	31
 1899 0371 01       		.byte	1
 1900 0372 22       		.byte	34
 1901 0373 80       		.byte	-128
 1902 0374 28       		.byte	40
 1903 0375 40       		.byte	64
 1904 0376 29       		.byte	41
 1905 0377 28       		.byte	40
 1906 0378 2A       		.byte	42
 1907 0379 01       		.byte	1
 1908 037a 2D       		.byte	45
 1909 037b 0D       		.byte	13
 1910 037c 30       		.byte	48
 1911 037d 01       		.byte	1
 1912 037e 33       		.byte	51
 1913 037f 10       		.byte	16
 1914 0380 34       		.byte	52
 1915 0381 41       		.byte	65
 1916 0382 35       		.byte	53
 1917 0383 20       		.byte	32
 1918 0384 39       		.byte	57
 1919 0385 01       		.byte	1
ARM GAS  C:\Users\glenn\AppData\Local\Temp\cc934L16.s 			page 64


 1920 0386 3A       		.byte	58
 1921 0387 44       		.byte	68
 1922 0388 3D       		.byte	61
 1923 0389 80       		.byte	-128
 1924 038a 3F       		.byte	63
 1925 038b 10       		.byte	16
 1926 038c 45       		.byte	69
 1927 038d 24       		.byte	36
 1928 038e 47       		.byte	71
 1929 038f 01       		.byte	1
 1930 0390 4C       		.byte	76
 1931 0391 01       		.byte	1
 1932 0392 4E       		.byte	78
 1933 0393 08       		.byte	8
 1934 0394 56       		.byte	86
 1935 0395 08       		.byte	8
 1936 0396 57       		.byte	87
 1937 0397 40       		.byte	64
 1938 0398 59       		.byte	89
 1939 0399 54       		.byte	84
 1940 039a 5E       		.byte	94
 1941 039b 02       		.byte	2
 1942 039c 62       		.byte	98
 1943 039d 04       		.byte	4
 1944 039e 63       		.byte	99
 1945 039f 10       		.byte	16
 1946 03a0 67       		.byte	103
 1947 03a1 8A       		.byte	-118
 1948 03a2 69       		.byte	105
 1949 03a3 90       		.byte	-112
 1950 03a4 87       		.byte	-121
 1951 03a5 40       		.byte	64
 1952 03a6 89       		.byte	-119
 1953 03a7 10       		.byte	16
 1954 03a8 8D       		.byte	-115
 1955 03a9 40       		.byte	64
 1956 03aa 8E       		.byte	-114
 1957 03ab 80       		.byte	-128
 1958 03ac 91       		.byte	-111
 1959 03ad 01       		.byte	1
 1960 03ae 97       		.byte	-105
 1961 03af 10       		.byte	16
 1962 03b0 98       		.byte	-104
 1963 03b1 14       		.byte	20
 1964 03b2 9B       		.byte	-101
 1965 03b3 10       		.byte	16
 1966 03b4 9C       		.byte	-100
 1967 03b5 41       		.byte	65
 1968 03b6 9D       		.byte	-99
 1969 03b7 28       		.byte	40
 1970 03b8 A5       		.byte	-91
 1971 03b9 41       		.byte	65
 1972 03ba A7       		.byte	-89
 1973 03bb 01       		.byte	1
 1974 03bc A8       		.byte	-88
 1975 03bd 04       		.byte	4
 1976 03be B0       		.byte	-80
ARM GAS  C:\Users\glenn\AppData\Local\Temp\cc934L16.s 			page 65


 1977 03bf 14       		.byte	20
 1978 03c0 B6       		.byte	-74
 1979 03c1 40       		.byte	64
 1980 03c2 B7       		.byte	-73
 1981 03c3 10       		.byte	16
 1982 03c4 C0       		.byte	-64
 1983 03c5 44       		.byte	68
 1984 03c6 C2       		.byte	-62
 1985 03c7 F0       		.byte	-16
 1986 03c8 C4       		.byte	-60
 1987 03c9 F6       		.byte	-10
 1988 03ca CA       		.byte	-54
 1989 03cb C7       		.byte	-57
 1990 03cc CC       		.byte	-52
 1991 03cd B5       		.byte	-75
 1992 03ce CE       		.byte	-50
 1993 03cf 3B       		.byte	59
 1994 03d0 D0       		.byte	-48
 1995 03d1 E0       		.byte	-32
 1996 03d2 D2       		.byte	-46
 1997 03d3 30       		.byte	48
 1998 03d4 D6       		.byte	-42
 1999 03d5 8E       		.byte	-114
 2000 03d6 D8       		.byte	-40
 2001 03d7 B0       		.byte	-80
 2002 03d8 EC       		.byte	-20
 2003 03d9 01       		.byte	1
 2004 03da 01       		.byte	1
 2005 03db 01       		.byte	1
 2006 03dc 09       		.byte	9
 2007 03dd 01       		.byte	1
 2008 03de 0D       		.byte	13
 2009 03df 01       		.byte	1
 2010 03e0 11       		.byte	17
 2011 03e1 01       		.byte	1
 2012 03e2 19       		.byte	25
 2013 03e3 01       		.byte	1
 2014 03e4 1F       		.byte	31
 2015 03e5 01       		.byte	1
 2016 03e6 25       		.byte	37
 2017 03e7 01       		.byte	1
 2018 03e8 35       		.byte	53
 2019 03e9 01       		.byte	1
 2020 03ea 58       		.byte	88
 2021 03eb 04       		.byte	4
 2022 03ec 59       		.byte	89
 2023 03ed 04       		.byte	4
 2024 03ee 5C       		.byte	92
 2025 03ef 11       		.byte	17
 2026 03f0 5F       		.byte	95
 2027 03f1 01       		.byte	1
 2028 03f2 80       		.byte	-128
 2029 03f3 10       		.byte	16
 2030 03f4 82       		.byte	-126
 2031 03f5 40       		.byte	64
 2032 03f6 84       		.byte	-124
 2033 03f7 0C       		.byte	12
ARM GAS  C:\Users\glenn\AppData\Local\Temp\cc934L16.s 			page 66


 2034 03f8 85       		.byte	-123
 2035 03f9 53       		.byte	83
 2036 03fa 86       		.byte	-122
 2037 03fb 71       		.byte	113
 2038 03fc 87       		.byte	-121
 2039 03fd 04       		.byte	4
 2040 03fe 89       		.byte	-119
 2041 03ff 20       		.byte	32
 2042 0400 8B       		.byte	-117
 2043 0401 05       		.byte	5
 2044 0402 8C       		.byte	-116
 2045 0403 10       		.byte	16
 2046 0404 8E       		.byte	-114
 2047 0405 AC       		.byte	-84
 2048 0406 8F       		.byte	-113
 2049 0407 08       		.byte	8
 2050 0408 92       		.byte	-110
 2051 0409 03       		.byte	3
 2052 040a 96       		.byte	-106
 2053 040b 20       		.byte	32
 2054 040c 99       		.byte	-103
 2055 040d 4A       		.byte	74
 2056 040e 9B       		.byte	-101
 2057 040f 14       		.byte	20
 2058 0410 9C       		.byte	-100
 2059 0411 14       		.byte	20
 2060 0412 A0       		.byte	-96
 2061 0413 09       		.byte	9
 2062 0414 A1       		.byte	-95
 2063 0415 53       		.byte	83
 2064 0416 A2       		.byte	-94
 2065 0417 D0       		.byte	-48
 2066 0418 A3       		.byte	-93
 2067 0419 0C       		.byte	12
 2068 041a A4       		.byte	-92
 2069 041b DC       		.byte	-36
 2070 041c A5       		.byte	-91
 2071 041d 03       		.byte	3
 2072 041e A6       		.byte	-90
 2073 041f 22       		.byte	34
 2074 0420 A7       		.byte	-89
 2075 0421 04       		.byte	4
 2076 0422 B0       		.byte	-80
 2077 0423 1F       		.byte	31
 2078 0424 B1       		.byte	-79
 2079 0425 0F       		.byte	15
 2080 0426 B4       		.byte	-76
 2081 0427 E0       		.byte	-32
 2082 0428 B5       		.byte	-75
 2083 0429 40       		.byte	64
 2084 042a B7       		.byte	-73
 2085 042b 30       		.byte	48
 2086 042c B9       		.byte	-71
 2087 042d A0       		.byte	-96
 2088 042e BA       		.byte	-70
 2089 042f 20       		.byte	32
 2090 0430 BB       		.byte	-69
ARM GAS  C:\Users\glenn\AppData\Local\Temp\cc934L16.s 			page 67


 2091 0431 02       		.byte	2
 2092 0432 C0       		.byte	-64
 2093 0433 46       		.byte	70
 2094 0434 C1       		.byte	-63
 2095 0435 02       		.byte	2
 2096 0436 C6       		.byte	-58
 2097 0437 CB       		.byte	-53
 2098 0438 C7       		.byte	-57
 2099 0439 0E       		.byte	14
 2100 043a C8       		.byte	-56
 2101 043b 1C       		.byte	28
 2102 043c C9       		.byte	-55
 2103 043d FF       		.byte	-1
 2104 043e CA       		.byte	-54
 2105 043f FF       		.byte	-1
 2106 0440 CB       		.byte	-53
 2107 0441 FF       		.byte	-1
 2108 0442 CE       		.byte	-50
 2109 0443 F0       		.byte	-16
 2110 0444 CF       		.byte	-49
 2111 0445 44       		.byte	68
 2112 0446 D0       		.byte	-48
 2113 0447 0C       		.byte	12
 2114 0448 D8       		.byte	-40
 2115 0449 04       		.byte	4
 2116 044a D9       		.byte	-39
 2117 044b 04       		.byte	4
 2118 044c DA       		.byte	-38
 2119 044d 04       		.byte	4
 2120 044e DC       		.byte	-36
 2121 044f 22       		.byte	34
 2122 0450 DD       		.byte	-35
 2123 0451 02       		.byte	2
 2124 0452 DF       		.byte	-33
 2125 0453 01       		.byte	1
 2126 0454 E6       		.byte	-26
 2127 0455 C0       		.byte	-64
 2128 0456 EA       		.byte	-22
 2129 0457 40       		.byte	64
 2130 0458 EB       		.byte	-21
 2131 0459 02       		.byte	2
 2132 045a 00       		.byte	0
 2133 045b 44       		.byte	68
 2134 045c 02       		.byte	2
 2135 045d 80       		.byte	-128
 2136 045e 05       		.byte	5
 2137 045f 28       		.byte	40
 2138 0460 09       		.byte	9
 2139 0461 88       		.byte	-120
 2140 0462 0A       		.byte	10
 2141 0463 40       		.byte	64
 2142 0464 0F       		.byte	15
 2143 0465 52       		.byte	82
 2144 0466 10       		.byte	16
 2145 0467 20       		.byte	32
 2146 0468 13       		.byte	19
 2147 0469 06       		.byte	6
ARM GAS  C:\Users\glenn\AppData\Local\Temp\cc934L16.s 			page 68


 2148 046a 14       		.byte	20
 2149 046b 41       		.byte	65
 2150 046c 18       		.byte	24
 2151 046d 04       		.byte	4
 2152 046e 1A       		.byte	26
 2153 046f 40       		.byte	64
 2154 0470 20       		.byte	32
 2155 0471 C0       		.byte	-64
 2156 0472 21       		.byte	33
 2157 0473 40       		.byte	64
 2158 0474 22       		.byte	34
 2159 0475 20       		.byte	32
 2160 0476 23       		.byte	35
 2161 0477 02       		.byte	2
 2162 0478 24       		.byte	36
 2163 0479 08       		.byte	8
 2164 047a 28       		.byte	40
 2165 047b 80       		.byte	-128
 2166 047c 2B       		.byte	43
 2167 047d 20       		.byte	32
 2168 047e 2D       		.byte	45
 2169 047f 08       		.byte	8
 2170 0480 30       		.byte	48
 2171 0481 20       		.byte	32
 2172 0482 34       		.byte	52
 2173 0483 41       		.byte	65
 2174 0484 35       		.byte	53
 2175 0485 20       		.byte	32
 2176 0486 38       		.byte	56
 2177 0487 04       		.byte	4
 2178 0488 39       		.byte	57
 2179 0489 80       		.byte	-128
 2180 048a 3B       		.byte	59
 2181 048b 20       		.byte	32
 2182 048c 3D       		.byte	61
 2183 048d 81       		.byte	-127
 2184 048e 3F       		.byte	63
 2185 048f 52       		.byte	82
 2186 0490 40       		.byte	64
 2187 0491 C4       		.byte	-60
 2188 0492 48       		.byte	72
 2189 0493 08       		.byte	8
 2190 0494 4B       		.byte	75
 2191 0495 20       		.byte	32
 2192 0496 51       		.byte	81
 2193 0497 90       		.byte	-112
 2194 0498 52       		.byte	82
 2195 0499 04       		.byte	4
 2196 049a 53       		.byte	83
 2197 049b 20       		.byte	32
 2198 049c 82       		.byte	-126
 2199 049d 20       		.byte	32
 2200 049e 93       		.byte	-109
 2201 049f 04       		.byte	4
 2202 04a0 94       		.byte	-108
 2203 04a1 04       		.byte	4
 2204 04a2 95       		.byte	-107
ARM GAS  C:\Users\glenn\AppData\Local\Temp\cc934L16.s 			page 69


 2205 04a3 A1       		.byte	-95
 2206 04a4 97       		.byte	-105
 2207 04a5 10       		.byte	16
 2208 04a6 9C       		.byte	-100
 2209 04a7 40       		.byte	64
 2210 04a8 9D       		.byte	-99
 2211 04a9 28       		.byte	40
 2212 04aa 9E       		.byte	-98
 2213 04ab 04       		.byte	4
 2214 04ac A0       		.byte	-96
 2215 04ad 08       		.byte	8
 2216 04ae A1       		.byte	-95
 2217 04af 08       		.byte	8
 2218 04b0 A2       		.byte	-94
 2219 04b1 80       		.byte	-128
 2220 04b2 A4       		.byte	-92
 2221 04b3 40       		.byte	64
 2222 04b4 A5       		.byte	-91
 2223 04b5 41       		.byte	65
 2224 04b6 A7       		.byte	-89
 2225 04b7 01       		.byte	1
 2226 04b8 B2       		.byte	-78
 2227 04b9 08       		.byte	8
 2228 04ba B3       		.byte	-77
 2229 04bb 02       		.byte	2
 2230 04bc C0       		.byte	-64
 2231 04bd 6D       		.byte	109
 2232 04be C2       		.byte	-62
 2233 04bf BD       		.byte	-67
 2234 04c0 C4       		.byte	-60
 2235 04c1 9C       		.byte	-100
 2236 04c2 CA       		.byte	-54
 2237 04c3 43       		.byte	67
 2238 04c4 CC       		.byte	-52
 2239 04c5 B4       		.byte	-76
 2240 04c6 CE       		.byte	-50
 2241 04c7 BE       		.byte	-66
 2242 04c8 D0       		.byte	-48
 2243 04c9 05       		.byte	5
 2244 04ca D2       		.byte	-46
 2245 04cb 04       		.byte	4
 2246 04cc E4       		.byte	-28
 2247 04cd 01       		.byte	1
 2248 04ce 04       		.byte	4
 2249 04cf 03       		.byte	3
 2250 04d0 05       		.byte	5
 2251 04d1 11       		.byte	17
 2252 04d2 07       		.byte	7
 2253 04d3 0E       		.byte	14
 2254 04d4 0B       		.byte	11
 2255 04d5 10       		.byte	16
 2256 04d6 0C       		.byte	12
 2257 04d7 03       		.byte	3
 2258 04d8 0F       		.byte	15
 2259 04d9 0C       		.byte	12
 2260 04da 16       		.byte	22
 2261 04db 01       		.byte	1
ARM GAS  C:\Users\glenn\AppData\Local\Temp\cc934L16.s 			page 70


 2262 04dc 17       		.byte	23
 2263 04dd 13       		.byte	19
 2264 04de 18       		.byte	24
 2265 04df 02       		.byte	2
 2266 04e0 19       		.byte	25
 2267 04e1 0C       		.byte	12
 2268 04e2 1B       		.byte	27
 2269 04e3 13       		.byte	19
 2270 04e4 1F       		.byte	31
 2271 04e5 08       		.byte	8
 2272 04e6 21       		.byte	33
 2273 04e7 11       		.byte	17
 2274 04e8 23       		.byte	35
 2275 04e9 06       		.byte	6
 2276 04ea 25       		.byte	37
 2277 04eb 20       		.byte	32
 2278 04ec 32       		.byte	50
 2279 04ed 03       		.byte	3
 2280 04ee 33       		.byte	51
 2281 04ef 20       		.byte	32
 2282 04f0 35       		.byte	53
 2283 04f1 0F       		.byte	15
 2284 04f2 37       		.byte	55
 2285 04f3 10       		.byte	16
 2286 04f4 38       		.byte	56
 2287 04f5 08       		.byte	8
 2288 04f6 3B       		.byte	59
 2289 04f7 20       		.byte	32
 2290 04f8 3E       		.byte	62
 2291 04f9 04       		.byte	4
 2292 04fa 3F       		.byte	63
 2293 04fb 44       		.byte	68
 2294 04fc 40       		.byte	64
 2295 04fd 03       		.byte	3
 2296 04fe 45       		.byte	69
 2297 04ff 40       		.byte	64
 2298 0500 49       		.byte	73
 2299 0501 FF       		.byte	-1
 2300 0502 4A       		.byte	74
 2301 0503 07       		.byte	7
 2302 0504 4B       		.byte	75
 2303 0505 FF       		.byte	-1
 2304 0506 4C       		.byte	76
 2305 0507 40       		.byte	64
 2306 0508 4D       		.byte	77
 2307 0509 20       		.byte	32
 2308 050a 4E       		.byte	78
 2309 050b F0       		.byte	-16
 2310 050c 4F       		.byte	79
 2311 050d 05       		.byte	5
 2312 050e 50       		.byte	80
 2313 050f 08       		.byte	8
 2314 0510 54       		.byte	84
 2315 0511 01       		.byte	1
 2316 0512 56       		.byte	86
 2317 0513 04       		.byte	4
 2318 0514 58       		.byte	88
ARM GAS  C:\Users\glenn\AppData\Local\Temp\cc934L16.s 			page 71


 2319 0515 04       		.byte	4
 2320 0516 59       		.byte	89
 2321 0517 04       		.byte	4
 2322 0518 5A       		.byte	90
 2323 0519 04       		.byte	4
 2324 051a 5B       		.byte	91
 2325 051b 04       		.byte	4
 2326 051c 5C       		.byte	92
 2327 051d 21       		.byte	33
 2328 051e 5D       		.byte	93
 2329 051f 22       		.byte	34
 2330 0520 5F       		.byte	95
 2331 0521 01       		.byte	1
 2332 0522 60       		.byte	96
 2333 0523 40       		.byte	64
 2334 0524 61       		.byte	97
 2335 0525 A8       		.byte	-88
 2336 0526 62       		.byte	98
 2337 0527 40       		.byte	64
 2338 0528 63       		.byte	99
 2339 0529 20       		.byte	32
 2340 052a D8       		.byte	-40
 2341 052b 04       		.byte	4
 2342 052c D9       		.byte	-39
 2343 052d 04       		.byte	4
 2344 052e DC       		.byte	-36
 2345 052f 11       		.byte	17
 2346 0530 DF       		.byte	-33
 2347 0531 01       		.byte	1
 2348 0532 00       		.byte	0
 2349 0533 84       		.byte	-124
 2350 0534 01       		.byte	1
 2351 0535 20       		.byte	32
 2352 0536 02       		.byte	2
 2353 0537 01       		.byte	1
 2354 0538 05       		.byte	5
 2355 0539 28       		.byte	40
 2356 053a 08       		.byte	8
 2357 053b 41       		.byte	65
 2358 053c 09       		.byte	9
 2359 053d 29       		.byte	41
 2360 053e 0F       		.byte	15
 2361 053f 52       		.byte	82
 2362 0540 10       		.byte	16
 2363 0541 10       		.byte	16
 2364 0542 11       		.byte	17
 2365 0543 81       		.byte	-127
 2366 0544 13       		.byte	19
 2367 0545 50       		.byte	80
 2368 0546 14       		.byte	20
 2369 0547 41       		.byte	65
 2370 0548 18       		.byte	24
 2371 0549 10       		.byte	16
 2372 054a 21       		.byte	33
 2373 054b 20       		.byte	32
 2374 054c 22       		.byte	34
 2375 054d 44       		.byte	68
ARM GAS  C:\Users\glenn\AppData\Local\Temp\cc934L16.s 			page 72


 2376 054e 23       		.byte	35
 2377 054f 04       		.byte	4
 2378 0550 2A       		.byte	42
 2379 0551 0D       		.byte	13
 2380 0552 2C       		.byte	44
 2381 0553 10       		.byte	16
 2382 0554 2D       		.byte	45
 2383 0555 09       		.byte	9
 2384 0556 30       		.byte	48
 2385 0557 08       		.byte	8
 2386 0558 31       		.byte	49
 2387 0559 20       		.byte	32
 2388 055a 32       		.byte	50
 2389 055b 80       		.byte	-128
 2390 055c 34       		.byte	52
 2391 055d 41       		.byte	65
 2392 055e 35       		.byte	53
 2393 055f 20       		.byte	32
 2394 0560 38       		.byte	56
 2395 0561 04       		.byte	4
 2396 0562 39       		.byte	57
 2397 0563 A0       		.byte	-96
 2398 0564 3D       		.byte	61
 2399 0565 80       		.byte	-128
 2400 0566 3F       		.byte	63
 2401 0567 10       		.byte	16
 2402 0568 40       		.byte	64
 2403 0569 10       		.byte	16
 2404 056a 41       		.byte	65
 2405 056b 10       		.byte	16
 2406 056c 43       		.byte	67
 2407 056d 10       		.byte	16
 2408 056e 4A       		.byte	74
 2409 056f 80       		.byte	-128
 2410 0570 50       		.byte	80
 2411 0571 08       		.byte	8
 2412 0572 51       		.byte	81
 2413 0573 08       		.byte	8
 2414 0574 5A       		.byte	90
 2415 0575 88       		.byte	-120
 2416 0576 5B       		.byte	91
 2417 0577 12       		.byte	18
 2418 0578 62       		.byte	98
 2419 0579 02       		.byte	2
 2420 057a 8A       		.byte	-118
 2421 057b 02       		.byte	2
 2422 057c C0       		.byte	-64
 2423 057d 67       		.byte	103
 2424 057e C2       		.byte	-62
 2425 057f BF       		.byte	-65
 2426 0580 C4       		.byte	-60
 2427 0581 9F       		.byte	-97
 2428 0582 CA       		.byte	-54
 2429 0583 C3       		.byte	-61
 2430 0584 CC       		.byte	-52
 2431 0585 BE       		.byte	-66
 2432 0586 CE       		.byte	-50
ARM GAS  C:\Users\glenn\AppData\Local\Temp\cc934L16.s 			page 73


 2433 0587 3E       		.byte	62
 2434 0588 D0       		.byte	-48
 2435 0589 02       		.byte	2
 2436 058a D6       		.byte	-42
 2437 058b 0F       		.byte	15
 2438 058c D8       		.byte	-40
 2439 058d 01       		.byte	1
 2440 058e E6       		.byte	-26
 2441 058f 20       		.byte	32
 2442 0590 38       		.byte	56
 2443 0591 80       		.byte	-128
 2444 0592 3E       		.byte	62
 2445 0593 40       		.byte	64
 2446 0594 58       		.byte	88
 2447 0595 04       		.byte	4
 2448 0596 5F       		.byte	95
 2449 0597 01       		.byte	1
 2450 0598 18       		.byte	24
 2451 0599 01       		.byte	1
 2452 059a 8C       		.byte	-116
 2453 059b 01       		.byte	1
 2454 059c A8       		.byte	-88
 2455 059d 10       		.byte	16
 2456 059e AA       		.byte	-86
 2457 059f 04       		.byte	4
 2458 05a0 AC       		.byte	-84
 2459 05a1 41       		.byte	65
 2460 05a2 AD       		.byte	-83
 2461 05a3 40       		.byte	64
 2462 05a4 AE       		.byte	-82
 2463 05a5 04       		.byte	4
 2464 05a6 B4       		.byte	-76
 2465 05a7 40       		.byte	64
 2466 05a8 B5       		.byte	-75
 2467 05a9 90       		.byte	-112
 2468 05aa B7       		.byte	-73
 2469 05ab 01       		.byte	1
 2470 05ac E0       		.byte	-32
 2471 05ad 10       		.byte	16
 2472 05ae E8       		.byte	-24
 2473 05af 02       		.byte	2
 2474 05b0 EA       		.byte	-22
 2475 05b1 05       		.byte	5
 2476 05b2 EC       		.byte	-20
 2477 05b3 20       		.byte	32
 2478 05b4 EE       		.byte	-18
 2479 05b5 08       		.byte	8
 2480 05b6 58       		.byte	88
 2481 05b7 04       		.byte	4
 2482 05b8 59       		.byte	89
 2483 05b9 04       		.byte	4
 2484 05ba 5B       		.byte	91
 2485 05bb 04       		.byte	4
 2486 05bc 5C       		.byte	92
 2487 05bd 11       		.byte	17
 2488 05be 5F       		.byte	95
 2489 05bf 01       		.byte	1
ARM GAS  C:\Users\glenn\AppData\Local\Temp\cc934L16.s 			page 74


 2490 05c0 87       		.byte	-121
 2491 05c1 02       		.byte	2
 2492 05c2 8B       		.byte	-117
 2493 05c3 01       		.byte	1
 2494 05c4 A2       		.byte	-94
 2495 05c5 01       		.byte	1
 2496 05c6 A3       		.byte	-93
 2497 05c7 04       		.byte	4
 2498 05c8 B0       		.byte	-80
 2499 05c9 01       		.byte	1
 2500 05ca B1       		.byte	-79
 2501 05cb 01       		.byte	1
 2502 05cc B3       		.byte	-77
 2503 05cd 04       		.byte	4
 2504 05ce B7       		.byte	-73
 2505 05cf 02       		.byte	2
 2506 05d0 D8       		.byte	-40
 2507 05d1 04       		.byte	4
 2508 05d2 D9       		.byte	-39
 2509 05d3 04       		.byte	4
 2510 05d4 DC       		.byte	-36
 2511 05d5 11       		.byte	17
 2512 05d6 DF       		.byte	-33
 2513 05d7 01       		.byte	1
 2514 05d8 00       		.byte	0
 2515 05d9 12       		.byte	18
 2516 05da 01       		.byte	1
 2517 05db 08       		.byte	8
 2518 05dc 04       		.byte	4
 2519 05dd 80       		.byte	-128
 2520 05de 05       		.byte	5
 2521 05df 18       		.byte	24
 2522 05e0 06       		.byte	6
 2523 05e1 80       		.byte	-128
 2524 05e2 0A       		.byte	10
 2525 05e3 84       		.byte	-124
 2526 05e4 0B       		.byte	11
 2527 05e5 02       		.byte	2
 2528 05e6 0D       		.byte	13
 2529 05e7 81       		.byte	-127
 2530 05e8 10       		.byte	16
 2531 05e9 48       		.byte	72
 2532 05ea 17       		.byte	23
 2533 05eb 30       		.byte	48
 2534 05ec 18       		.byte	24
 2535 05ed 40       		.byte	64
 2536 05ee 19       		.byte	25
 2537 05ef 02       		.byte	2
 2538 05f0 1A       		.byte	26
 2539 05f1 40       		.byte	64
 2540 05f2 20       		.byte	32
 2541 05f3 90       		.byte	-112
 2542 05f4 21       		.byte	33
 2543 05f5 81       		.byte	-127
 2544 05f6 22       		.byte	34
 2545 05f7 C0       		.byte	-64
 2546 05f8 23       		.byte	35
ARM GAS  C:\Users\glenn\AppData\Local\Temp\cc934L16.s 			page 75


 2547 05f9 20       		.byte	32
 2548 05fa 29       		.byte	41
 2549 05fb 59       		.byte	89
 2550 05fc 2A       		.byte	42
 2551 05fd 80       		.byte	-128
 2552 05fe 2C       		.byte	44
 2553 05ff 08       		.byte	8
 2554 0600 2D       		.byte	45
 2555 0601 0A       		.byte	10
 2556 0602 31       		.byte	49
 2557 0603 80       		.byte	-128
 2558 0604 33       		.byte	51
 2559 0605 10       		.byte	16
 2560 0606 36       		.byte	54
 2561 0607 80       		.byte	-128
 2562 0608 38       		.byte	56
 2563 0609 A0       		.byte	-96
 2564 060a 39       		.byte	57
 2565 060b 02       		.byte	2
 2566 060c 3A       		.byte	58
 2567 060d 04       		.byte	4
 2568 060e 3C       		.byte	60
 2569 060f 92       		.byte	-110
 2570 0610 6C       		.byte	108
 2571 0611 04       		.byte	4
 2572 0612 6F       		.byte	111
 2573 0613 01       		.byte	1
 2574 0614 80       		.byte	-128
 2575 0615 10       		.byte	16
 2576 0616 81       		.byte	-127
 2577 0617 01       		.byte	1
 2578 0618 84       		.byte	-124
 2579 0619 40       		.byte	64
 2580 061a 89       		.byte	-119
 2581 061b 08       		.byte	8
 2582 061c 8B       		.byte	-117
 2583 061d 01       		.byte	1
 2584 061e 8C       		.byte	-116
 2585 061f 48       		.byte	72
 2586 0620 94       		.byte	-108
 2587 0621 18       		.byte	24
 2588 0622 96       		.byte	-106
 2589 0623 44       		.byte	68
 2590 0624 9D       		.byte	-99
 2591 0625 08       		.byte	8
 2592 0626 9E       		.byte	-98
 2593 0627 80       		.byte	-128
 2594 0628 A4       		.byte	-92
 2595 0629 08       		.byte	8
 2596 062a A5       		.byte	-91
 2597 062b 80       		.byte	-128
 2598 062c C0       		.byte	-64
 2599 062d FE       		.byte	-2
 2600 062e C2       		.byte	-62
 2601 062f 9B       		.byte	-101
 2602 0630 C4       		.byte	-60
 2603 0631 4A       		.byte	74
ARM GAS  C:\Users\glenn\AppData\Local\Temp\cc934L16.s 			page 76


 2604 0632 CA       		.byte	-54
 2605 0633 EF       		.byte	-17
 2606 0634 CC       		.byte	-52
 2607 0635 1C       		.byte	28
 2608 0636 CE       		.byte	-50
 2609 0637 BF       		.byte	-65
 2610 0638 E2       		.byte	-30
 2611 0639 04       		.byte	4
 2612 063a E4       		.byte	-28
 2613 063b 41       		.byte	65
 2614 063c E6       		.byte	-26
 2615 063d 28       		.byte	40
 2616 063e 01       		.byte	1
 2617 063f 01       		.byte	1
 2618 0640 02       		.byte	2
 2619 0641 08       		.byte	8
 2620 0642 06       		.byte	6
 2621 0643 02       		.byte	2
 2622 0644 07       		.byte	7
 2623 0645 08       		.byte	8
 2624 0646 08       		.byte	8
 2625 0647 10       		.byte	16
 2626 0648 09       		.byte	9
 2627 0649 04       		.byte	4
 2628 064a 0A       		.byte	10
 2629 064b 20       		.byte	32
 2630 064c 0C       		.byte	12
 2631 064d 04       		.byte	4
 2632 064e 10       		.byte	16
 2633 064f 80       		.byte	-128
 2634 0650 11       		.byte	17
 2635 0651 08       		.byte	8
 2636 0652 12       		.byte	18
 2637 0653 40       		.byte	64
 2638 0654 14       		.byte	20
 2639 0655 20       		.byte	32
 2640 0656 16       		.byte	22
 2641 0657 10       		.byte	16
 2642 0658 17       		.byte	23
 2643 0659 01       		.byte	1
 2644 065a 18       		.byte	24
 2645 065b 40       		.byte	64
 2646 065c 1A       		.byte	26
 2647 065d 80       		.byte	-128
 2648 065e 1E       		.byte	30
 2649 065f 01       		.byte	1
 2650 0660 22       		.byte	34
 2651 0661 04       		.byte	4
 2652 0662 23       		.byte	35
 2653 0663 02       		.byte	2
 2654 0664 24       		.byte	36
 2655 0665 01       		.byte	1
 2656 0666 27       		.byte	39
 2657 0667 10       		.byte	16
 2658 0668 28       		.byte	40
 2659 0669 08       		.byte	8
 2660 066a 29       		.byte	41
ARM GAS  C:\Users\glenn\AppData\Local\Temp\cc934L16.s 			page 77


 2661 066b 02       		.byte	2
 2662 066c 2C       		.byte	44
 2663 066d 02       		.byte	2
 2664 066e 2F       		.byte	47
 2665 066f 04       		.byte	4
 2666 0670 34       		.byte	52
 2667 0671 FF       		.byte	-1
 2668 0672 37       		.byte	55
 2669 0673 1F       		.byte	31
 2670 0674 39       		.byte	57
 2671 0675 80       		.byte	-128
 2672 0676 3E       		.byte	62
 2673 0677 10       		.byte	16
 2674 0678 3F       		.byte	63
 2675 0679 40       		.byte	64
 2676 067a 56       		.byte	86
 2677 067b 02       		.byte	2
 2678 067c 57       		.byte	87
 2679 067d 3D       		.byte	61
 2680 067e 58       		.byte	88
 2681 067f 04       		.byte	4
 2682 0680 59       		.byte	89
 2683 0681 04       		.byte	4
 2684 0682 5B       		.byte	91
 2685 0683 0C       		.byte	12
 2686 0684 5C       		.byte	92
 2687 0685 10       		.byte	16
 2688 0686 5D       		.byte	93
 2689 0687 10       		.byte	16
 2690 0688 5F       		.byte	95
 2691 0689 01       		.byte	1
 2692 068a D8       		.byte	-40
 2693 068b 04       		.byte	4
 2694 068c D9       		.byte	-39
 2695 068d 04       		.byte	4
 2696 068e DC       		.byte	-36
 2697 068f 11       		.byte	17
 2698 0690 DF       		.byte	-33
 2699 0691 01       		.byte	1
 2700 0692 01       		.byte	1
 2701 0693 28       		.byte	40
 2702 0694 02       		.byte	2
 2703 0695 80       		.byte	-128
 2704 0696 04       		.byte	4
 2705 0697 81       		.byte	-127
 2706 0698 05       		.byte	5
 2707 0699 AA       		.byte	-86
 2708 069a 06       		.byte	6
 2709 069b 20       		.byte	32
 2710 069c 09       		.byte	9
 2711 069d 41       		.byte	65
 2712 069e 0C       		.byte	12
 2713 069f 80       		.byte	-128
 2714 06a0 0D       		.byte	13
 2715 06a1 40       		.byte	64
 2716 06a2 0E       		.byte	14
 2717 06a3 50       		.byte	80
ARM GAS  C:\Users\glenn\AppData\Local\Temp\cc934L16.s 			page 78


 2718 06a4 0F       		.byte	15
 2719 06a5 06       		.byte	6
 2720 06a6 10       		.byte	16
 2721 06a7 80       		.byte	-128
 2722 06a8 13       		.byte	19
 2723 06a9 10       		.byte	16
 2724 06aa 14       		.byte	20
 2725 06ab 80       		.byte	-128
 2726 06ac 16       		.byte	22
 2727 06ad 02       		.byte	2
 2728 06ae 17       		.byte	23
 2729 06af 18       		.byte	24
 2730 06b0 1F       		.byte	31
 2731 06b1 10       		.byte	16
 2732 06b2 26       		.byte	38
 2733 06b3 80       		.byte	-128
 2734 06b4 28       		.byte	40
 2735 06b5 20       		.byte	32
 2736 06b6 29       		.byte	41
 2737 06b7 22       		.byte	34
 2738 06b8 2D       		.byte	45
 2739 06b9 80       		.byte	-128
 2740 06ba 2E       		.byte	46
 2741 06bb 22       		.byte	34
 2742 06bc 2F       		.byte	47
 2743 06bd 10       		.byte	16
 2744 06be 32       		.byte	50
 2745 06bf 80       		.byte	-128
 2746 06c0 35       		.byte	53
 2747 06c1 22       		.byte	34
 2748 06c2 36       		.byte	54
 2749 06c3 80       		.byte	-128
 2750 06c4 37       		.byte	55
 2751 06c5 08       		.byte	8
 2752 06c6 39       		.byte	57
 2753 06c7 80       		.byte	-128
 2754 06c8 3B       		.byte	59
 2755 06c9 14       		.byte	20
 2756 06ca 3D       		.byte	61
 2757 06cb 80       		.byte	-128
 2758 06cc 3E       		.byte	62
 2759 06cd 04       		.byte	4
 2760 06ce 3F       		.byte	63
 2761 06cf 32       		.byte	50
 2762 06d0 5E       		.byte	94
 2763 06d1 20       		.byte	32
 2764 06d2 65       		.byte	101
 2765 06d3 01       		.byte	1
 2766 06d4 6C       		.byte	108
 2767 06d5 40       		.byte	64
 2768 06d6 6E       		.byte	110
 2769 06d7 54       		.byte	84
 2770 06d8 6F       		.byte	111
 2771 06d9 10       		.byte	16
 2772 06da 76       		.byte	118
 2773 06db 02       		.byte	2
 2774 06dc 77       		.byte	119
ARM GAS  C:\Users\glenn\AppData\Local\Temp\cc934L16.s 			page 79


 2775 06dd 08       		.byte	8
 2776 06de 7F       		.byte	127
 2777 06df 02       		.byte	2
 2778 06e0 80       		.byte	-128
 2779 06e1 80       		.byte	-128
 2780 06e2 81       		.byte	-127
 2781 06e3 80       		.byte	-128
 2782 06e4 83       		.byte	-125
 2783 06e5 10       		.byte	16
 2784 06e6 86       		.byte	-122
 2785 06e7 02       		.byte	2
 2786 06e8 89       		.byte	-119
 2787 06e9 04       		.byte	4
 2788 06ea 8B       		.byte	-117
 2789 06eb 01       		.byte	1
 2790 06ec 8C       		.byte	-116
 2791 06ed 01       		.byte	1
 2792 06ee 90       		.byte	-112
 2793 06ef 01       		.byte	1
 2794 06f0 94       		.byte	-108
 2795 06f1 0A       		.byte	10
 2796 06f2 95       		.byte	-107
 2797 06f3 04       		.byte	4
 2798 06f4 96       		.byte	-106
 2799 06f5 01       		.byte	1
 2800 06f6 97       		.byte	-105
 2801 06f7 90       		.byte	-112
 2802 06f8 99       		.byte	-103
 2803 06f9 01       		.byte	1
 2804 06fa 9B       		.byte	-101
 2805 06fb 04       		.byte	4
 2806 06fc 9C       		.byte	-100
 2807 06fd 70       		.byte	112
 2808 06fe 9D       		.byte	-99
 2809 06ff 2C       		.byte	44
 2810 0700 9E       		.byte	-98
 2811 0701 40       		.byte	64
 2812 0702 9F       		.byte	-97
 2813 0703 58       		.byte	88
 2814 0704 A1       		.byte	-95
 2815 0705 81       		.byte	-127
 2816 0706 A2       		.byte	-94
 2817 0707 10       		.byte	16
 2818 0708 A3       		.byte	-93
 2819 0709 03       		.byte	3
 2820 070a A4       		.byte	-92
 2821 070b 40       		.byte	64
 2822 070c A5       		.byte	-91
 2823 070d 44       		.byte	68
 2824 070e A6       		.byte	-90
 2825 070f 80       		.byte	-128
 2826 0710 C0       		.byte	-64
 2827 0711 FE       		.byte	-2
 2828 0712 C2       		.byte	-62
 2829 0713 F9       		.byte	-7
 2830 0714 C4       		.byte	-60
 2831 0715 FA       		.byte	-6
ARM GAS  C:\Users\glenn\AppData\Local\Temp\cc934L16.s 			page 80


 2832 0716 CA       		.byte	-54
 2833 0717 F7       		.byte	-9
 2834 0718 CC       		.byte	-52
 2835 0719 F8       		.byte	-8
 2836 071a CE       		.byte	-50
 2837 071b FE       		.byte	-2
 2838 071c D6       		.byte	-42
 2839 071d 20       		.byte	32
 2840 071e D8       		.byte	-40
 2841 071f 80       		.byte	-128
 2842 0720 DE       		.byte	-34
 2843 0721 10       		.byte	16
 2844 0722 E2       		.byte	-30
 2845 0723 80       		.byte	-128
 2846 0724 E4       		.byte	-28
 2847 0725 40       		.byte	64
 2848 0726 E6       		.byte	-26
 2849 0727 10       		.byte	16
 2850 0728 56       		.byte	86
 2851 0729 08       		.byte	8
 2852 072a 58       		.byte	88
 2853 072b 04       		.byte	4
 2854 072c 59       		.byte	89
 2855 072d 04       		.byte	4
 2856 072e 5B       		.byte	91
 2857 072f 04       		.byte	4
 2858 0730 5C       		.byte	92
 2859 0731 11       		.byte	17
 2860 0732 5D       		.byte	93
 2861 0733 90       		.byte	-112
 2862 0734 5F       		.byte	95
 2863 0735 01       		.byte	1
 2864 0736 80       		.byte	-128
 2865 0737 7F       		.byte	127
 2866 0738 84       		.byte	-124
 2867 0739 18       		.byte	24
 2868 073a 85       		.byte	-123
 2869 073b 3F       		.byte	63
 2870 073c 88       		.byte	-120
 2871 073d 08       		.byte	8
 2872 073e 89       		.byte	-119
 2873 073f 3F       		.byte	63
 2874 0740 8C       		.byte	-116
 2875 0741 10       		.byte	16
 2876 0742 91       		.byte	-111
 2877 0743 01       		.byte	1
 2878 0744 92       		.byte	-110
 2879 0745 04       		.byte	4
 2880 0746 94       		.byte	-108
 2881 0747 04       		.byte	4
 2882 0748 96       		.byte	-106
 2883 0749 80       		.byte	-128
 2884 074a 98       		.byte	-104
 2885 074b 3C       		.byte	60
 2886 074c 99       		.byte	-103
 2887 074d 24       		.byte	36
 2888 074e 9A       		.byte	-102
ARM GAS  C:\Users\glenn\AppData\Local\Temp\cc934L16.s 			page 81


 2889 074f 42       		.byte	66
 2890 0750 9B       		.byte	-101
 2891 0751 0A       		.byte	10
 2892 0752 9C       		.byte	-100
 2893 0753 67       		.byte	103
 2894 0754 9D       		.byte	-99
 2895 0755 08       		.byte	8
 2896 0756 9E       		.byte	-98
 2897 0757 18       		.byte	24
 2898 0758 9F       		.byte	-97
 2899 0759 30       		.byte	48
 2900 075a A4       		.byte	-92
 2901 075b 3C       		.byte	60
 2902 075c A5       		.byte	-91
 2903 075d 12       		.byte	18
 2904 075e A6       		.byte	-90
 2905 075f 41       		.byte	65
 2906 0760 A7       		.byte	-89
 2907 0761 0C       		.byte	12
 2908 0762 AA       		.byte	-86
 2909 0763 03       		.byte	3
 2910 0764 B0       		.byte	-80
 2911 0765 80       		.byte	-128
 2912 0766 B1       		.byte	-79
 2913 0767 38       		.byte	56
 2914 0768 B2       		.byte	-78
 2915 0769 20       		.byte	32
 2916 076a B3       		.byte	-77
 2917 076b 01       		.byte	1
 2918 076c B4       		.byte	-76
 2919 076d 1F       		.byte	31
 2920 076e B5       		.byte	-75
 2921 076f 06       		.byte	6
 2922 0770 B6       		.byte	-74
 2923 0771 40       		.byte	64
 2924 0772 B8       		.byte	-72
 2925 0773 80       		.byte	-128
 2926 0774 BA       		.byte	-70
 2927 0775 20       		.byte	32
 2928 0776 BB       		.byte	-69
 2929 0777 80       		.byte	-128
 2930 0778 BE       		.byte	-66
 2931 0779 04       		.byte	4
 2932 077a D6       		.byte	-42
 2933 077b 02       		.byte	2
 2934 077c D7       		.byte	-41
 2935 077d 11       		.byte	17
 2936 077e D8       		.byte	-40
 2937 077f 04       		.byte	4
 2938 0780 D9       		.byte	-39
 2939 0781 04       		.byte	4
 2940 0782 DB       		.byte	-37
 2941 0783 04       		.byte	4
 2942 0784 DC       		.byte	-36
 2943 0785 22       		.byte	34
 2944 0786 DD       		.byte	-35
 2945 0787 20       		.byte	32
ARM GAS  C:\Users\glenn\AppData\Local\Temp\cc934L16.s 			page 82


 2946 0788 DF       		.byte	-33
 2947 0789 01       		.byte	1
 2948 078a 01       		.byte	1
 2949 078b 20       		.byte	32
 2950 078c 02       		.byte	2
 2951 078d 80       		.byte	-128
 2952 078e 04       		.byte	4
 2953 078f 02       		.byte	2
 2954 0790 05       		.byte	5
 2955 0791 04       		.byte	4
 2956 0792 06       		.byte	6
 2957 0793 02       		.byte	2
 2958 0794 07       		.byte	7
 2959 0795 08       		.byte	8
 2960 0796 08       		.byte	8
 2961 0797 22       		.byte	34
 2962 0798 09       		.byte	9
 2963 0799 41       		.byte	65
 2964 079a 0B       		.byte	11
 2965 079b 10       		.byte	16
 2966 079c 0C       		.byte	12
 2967 079d 10       		.byte	16
 2968 079e 0D       		.byte	13
 2969 079f A4       		.byte	-92
 2970 07a0 0E       		.byte	14
 2971 07a1 40       		.byte	64
 2972 07a2 10       		.byte	16
 2973 07a3 80       		.byte	-128
 2974 07a4 17       		.byte	23
 2975 07a5 24       		.byte	36
 2976 07a6 1D       		.byte	29
 2977 07a7 20       		.byte	32
 2978 07a8 1E       		.byte	30
 2979 07a9 61       		.byte	97
 2980 07aa 24       		.byte	36
 2981 07ab 0A       		.byte	10
 2982 07ac 25       		.byte	37
 2983 07ad 04       		.byte	4
 2984 07ae 26       		.byte	38
 2985 07af 20       		.byte	32
 2986 07b0 27       		.byte	39
 2987 07b1 60       		.byte	96
 2988 07b2 28       		.byte	40
 2989 07b3 62       		.byte	98
 2990 07b4 29       		.byte	41
 2991 07b5 20       		.byte	32
 2992 07b6 2D       		.byte	45
 2993 07b7 04       		.byte	4
 2994 07b8 30       		.byte	48
 2995 07b9 80       		.byte	-128
 2996 07ba 36       		.byte	54
 2997 07bb 20       		.byte	32
 2998 07bc 37       		.byte	55
 2999 07bd 41       		.byte	65
 3000 07be 3B       		.byte	59
 3001 07bf 14       		.byte	20
 3002 07c0 3E       		.byte	62
ARM GAS  C:\Users\glenn\AppData\Local\Temp\cc934L16.s 			page 83


 3003 07c1 14       		.byte	20
 3004 07c2 58       		.byte	88
 3005 07c3 80       		.byte	-128
 3006 07c4 5E       		.byte	94
 3007 07c5 20       		.byte	32
 3008 07c6 62       		.byte	98
 3009 07c7 40       		.byte	64
 3010 07c8 6E       		.byte	110
 3011 07c9 14       		.byte	20
 3012 07ca 6F       		.byte	111
 3013 07cb 01       		.byte	1
 3014 07cc 74       		.byte	116
 3015 07cd 40       		.byte	64
 3016 07ce 75       		.byte	117
 3017 07cf 04       		.byte	4
 3018 07d0 76       		.byte	118
 3019 07d1 02       		.byte	2
 3020 07d2 77       		.byte	119
 3021 07d3 08       		.byte	8
 3022 07d4 79       		.byte	121
 3023 07d5 0C       		.byte	12
 3024 07d6 8B       		.byte	-117
 3025 07d7 48       		.byte	72
 3026 07d8 8C       		.byte	-116
 3027 07d9 80       		.byte	-128
 3028 07da 91       		.byte	-111
 3029 07db 04       		.byte	4
 3030 07dc 93       		.byte	-109
 3031 07dd 14       		.byte	20
 3032 07de 94       		.byte	-108
 3033 07df 0A       		.byte	10
 3034 07e0 96       		.byte	-106
 3035 07e1 01       		.byte	1
 3036 07e2 97       		.byte	-105
 3037 07e3 80       		.byte	-128
 3038 07e4 98       		.byte	-104
 3039 07e5 60       		.byte	96
 3040 07e6 99       		.byte	-103
 3041 07e7 20       		.byte	32
 3042 07e8 9B       		.byte	-101
 3043 07e9 04       		.byte	4
 3044 07ea 9C       		.byte	-100
 3045 07eb 10       		.byte	16
 3046 07ec 9D       		.byte	-99
 3047 07ed 04       		.byte	4
 3048 07ee 9E       		.byte	-98
 3049 07ef 40       		.byte	64
 3050 07f0 9F       		.byte	-97
 3051 07f1 40       		.byte	64
 3052 07f2 A0       		.byte	-96
 3053 07f3 80       		.byte	-128
 3054 07f4 A1       		.byte	-95
 3055 07f5 C1       		.byte	-63
 3056 07f6 A2       		.byte	-94
 3057 07f7 80       		.byte	-128
 3058 07f8 A4       		.byte	-92
 3059 07f9 40       		.byte	64
ARM GAS  C:\Users\glenn\AppData\Local\Temp\cc934L16.s 			page 84


 3060 07fa A5       		.byte	-91
 3061 07fb 04       		.byte	4
 3062 07fc AA       		.byte	-86
 3063 07fd 50       		.byte	80
 3064 07fe AC       		.byte	-84
 3065 07ff 40       		.byte	64
 3066 0800 AD       		.byte	-83
 3067 0801 40       		.byte	64
 3068 0802 AE       		.byte	-82
 3069 0803 80       		.byte	-128
 3070 0804 AF       		.byte	-81
 3071 0805 04       		.byte	4
 3072 0806 B4       		.byte	-76
 3073 0807 20       		.byte	32
 3074 0808 B5       		.byte	-75
 3075 0809 28       		.byte	40
 3076 080a C0       		.byte	-64
 3077 080b FA       		.byte	-6
 3078 080c C2       		.byte	-62
 3079 080d FF       		.byte	-1
 3080 080e C4       		.byte	-60
 3081 080f 68       		.byte	104
 3082 0810 CA       		.byte	-54
 3083 0811 4F       		.byte	79
 3084 0812 CC       		.byte	-52
 3085 0813 B8       		.byte	-72
 3086 0814 CE       		.byte	-50
 3087 0815 66       		.byte	102
 3088 0816 D6       		.byte	-42
 3089 0817 28       		.byte	40
 3090 0818 D8       		.byte	-40
 3091 0819 08       		.byte	8
 3092 081a E0       		.byte	-32
 3093 081b 10       		.byte	16
 3094 081c E4       		.byte	-28
 3095 081d 10       		.byte	16
 3096 081e E8       		.byte	-24
 3097 081f 50       		.byte	80
 3098 0820 EC       		.byte	-20
 3099 0821 20       		.byte	32
 3100 0822 13       		.byte	19
 3101 0823 02       		.byte	2
 3102 0824 16       		.byte	22
 3103 0825 80       		.byte	-128
 3104 0826 30       		.byte	48
 3105 0827 08       		.byte	8
 3106 0828 33       		.byte	51
 3107 0829 20       		.byte	32
 3108 082a 34       		.byte	52
 3109 082b 04       		.byte	4
 3110 082c 37       		.byte	55
 3111 082d 80       		.byte	-128
 3112 082e 3B       		.byte	59
 3113 082f 82       		.byte	-126
 3114 0830 3E       		.byte	62
 3115 0831 80       		.byte	-128
 3116 0832 7F       		.byte	127
ARM GAS  C:\Users\glenn\AppData\Local\Temp\cc934L16.s 			page 85


 3117 0833 60       		.byte	96
 3118 0834 88       		.byte	-120
 3119 0835 20       		.byte	32
 3120 0836 8B       		.byte	-117
 3121 0837 80       		.byte	-128
 3122 0838 C4       		.byte	-60
 3123 0839 30       		.byte	48
 3124 083a CC       		.byte	-52
 3125 083b F0       		.byte	-16
 3126 083c CE       		.byte	-50
 3127 083d 70       		.byte	112
 3128 083e 30       		.byte	48
 3129 083f 20       		.byte	32
 3130 0840 32       		.byte	50
 3131 0841 08       		.byte	8
 3132 0842 35       		.byte	53
 3133 0843 80       		.byte	-128
 3134 0844 36       		.byte	54
 3135 0845 04       		.byte	4
 3136 0846 39       		.byte	57
 3137 0847 80       		.byte	-128
 3138 0848 97       		.byte	-105
 3139 0849 82       		.byte	-126
 3140 084a 9B       		.byte	-101
 3141 084b 02       		.byte	2
 3142 084c 9C       		.byte	-100
 3143 084d 04       		.byte	4
 3144 084e A0       		.byte	-96
 3145 084f 20       		.byte	32
 3146 0850 A4       		.byte	-92
 3147 0851 08       		.byte	8
 3148 0852 CC       		.byte	-52
 3149 0853 F0       		.byte	-16
 3150 0854 CE       		.byte	-50
 3151 0855 10       		.byte	16
 3152 0856 87       		.byte	-121
 3153 0857 40       		.byte	64
 3154 0858 95       		.byte	-107
 3155 0859 80       		.byte	-128
 3156 085a 97       		.byte	-105
 3157 085b 82       		.byte	-126
 3158 085c 9B       		.byte	-101
 3159 085d 02       		.byte	2
 3160 085e 9C       		.byte	-100
 3161 085f 04       		.byte	4
 3162 0860 9D       		.byte	-99
 3163 0861 80       		.byte	-128
 3164 0862 A4       		.byte	-92
 3165 0863 08       		.byte	8
 3166 0864 A6       		.byte	-90
 3167 0865 0C       		.byte	12
 3168 0866 E2       		.byte	-30
 3169 0867 10       		.byte	16
 3170 0868 26       		.byte	38
 3171 0869 08       		.byte	8
 3172 086a 2C       		.byte	44
 3173 086b 04       		.byte	4
ARM GAS  C:\Users\glenn\AppData\Local\Temp\cc934L16.s 			page 86


 3174 086c 5C       		.byte	92
 3175 086d 10       		.byte	16
 3176 086e 80       		.byte	-128
 3177 086f 10       		.byte	16
 3178 0870 88       		.byte	-120
 3179 0871 08       		.byte	8
 3180 0872 95       		.byte	-107
 3181 0873 80       		.byte	-128
 3182 0874 9B       		.byte	-101
 3183 0875 02       		.byte	2
 3184 0876 9C       		.byte	-100
 3185 0877 04       		.byte	4
 3186 0878 9D       		.byte	-99
 3187 0879 80       		.byte	-128
 3188 087a A4       		.byte	-92
 3189 087b 08       		.byte	8
 3190 087c A6       		.byte	-90
 3191 087d 0C       		.byte	12
 3192 087e AB       		.byte	-85
 3193 087f 01       		.byte	1
 3194 0880 C8       		.byte	-56
 3195 0881 80       		.byte	-128
 3196 0882 CA       		.byte	-54
 3197 0883 20       		.byte	32
 3198 0884 D6       		.byte	-42
 3199 0885 20       		.byte	32
 3200 0886 E6       		.byte	-26
 3201 0887 80       		.byte	-128
 3202 0888 EE       		.byte	-18
 3203 0889 20       		.byte	32
 3204 088a 7C       		.byte	124
 3205 088b 01       		.byte	1
 3206 088c DE       		.byte	-34
 3207 088d 01       		.byte	1
 3208 088e 00       		.byte	0
 3209 088f 28       		.byte	40
 3210 0890 52       		.byte	82
 3211 0891 20       		.byte	32
 3212 0892 80       		.byte	-128
 3213 0893 80       		.byte	-128
 3214 0894 94       		.byte	-108
 3215 0895 01       		.byte	1
 3216 0896 C0       		.byte	-64
 3217 0897 0A       		.byte	10
 3218 0898 D4       		.byte	-44
 3219 0899 04       		.byte	4
 3220 089a 1B       		.byte	27
 3221 089b 04       		.byte	4
 3222 089c 24       		.byte	36
 3223 089d 10       		.byte	16
 3224 089e 45       		.byte	69
 3225 089f 04       		.byte	4
 3226 08a0 50       		.byte	80
 3227 08a1 08       		.byte	8
 3228 08a2 88       		.byte	-120
 3229 08a3 01       		.byte	1
 3230 08a4 8C       		.byte	-116
ARM GAS  C:\Users\glenn\AppData\Local\Temp\cc934L16.s 			page 87


 3231 08a5 08       		.byte	8
 3232 08a6 8E       		.byte	-114
 3233 08a7 02       		.byte	2
 3234 08a8 94       		.byte	-108
 3235 08a9 01       		.byte	1
 3236 08aa 98       		.byte	-104
 3237 08ab 80       		.byte	-128
 3238 08ac AA       		.byte	-86
 3239 08ad 20       		.byte	32
 3240 08ae B0       		.byte	-80
 3241 08af 14       		.byte	20
 3242 08b0 C6       		.byte	-58
 3243 08b1 08       		.byte	8
 3244 08b2 C8       		.byte	-56
 3245 08b3 01       		.byte	1
 3246 08b4 D0       		.byte	-48
 3247 08b5 01       		.byte	1
 3248 08b6 D4       		.byte	-44
 3249 08b7 04       		.byte	4
 3250 08b8 E0       		.byte	-32
 3251 08b9 03       		.byte	3
 3252 08ba E4       		.byte	-28
 3253 08bb 08       		.byte	8
 3254 08bc EA       		.byte	-22
 3255 08bd 04       		.byte	4
 3256 08be EE       		.byte	-18
 3257 08bf 01       		.byte	1
 3258 08c0 44       		.byte	68
 3259 08c1 01       		.byte	1
 3260 08c2 54       		.byte	84
 3261 08c3 01       		.byte	1
 3262 08c4 8C       		.byte	-116
 3263 08c5 10       		.byte	16
 3264 08c6 90       		.byte	-112
 3265 08c7 10       		.byte	16
 3266 08c8 94       		.byte	-108
 3267 08c9 01       		.byte	1
 3268 08ca 97       		.byte	-105
 3269 08cb 20       		.byte	32
 3270 08cc 98       		.byte	-104
 3271 08cd 80       		.byte	-128
 3272 08ce 9A       		.byte	-102
 3273 08cf 02       		.byte	2
 3274 08d0 A0       		.byte	-96
 3275 08d1 01       		.byte	1
 3276 08d2 A5       		.byte	-91
 3277 08d3 04       		.byte	4
 3278 08d4 AB       		.byte	-85
 3279 08d5 04       		.byte	4
 3280 08d6 AF       		.byte	-81
 3281 08d7 10       		.byte	16
 3282 08d8 D0       		.byte	-48
 3283 08d9 04       		.byte	4
 3284 08da D6       		.byte	-42
 3285 08db 04       		.byte	4
 3286 08dc E2       		.byte	-30
 3287 08dd 08       		.byte	8
ARM GAS  C:\Users\glenn\AppData\Local\Temp\cc934L16.s 			page 88


 3288 08de 20       		.byte	32
 3289 08df 80       		.byte	-128
 3290 08e0 25       		.byte	37
 3291 08e1 20       		.byte	32
 3292 08e2 56       		.byte	86
 3293 08e3 10       		.byte	16
 3294 08e4 8A       		.byte	-118
 3295 08e5 10       		.byte	16
 3296 08e6 8D       		.byte	-115
 3297 08e7 20       		.byte	32
 3298 08e8 95       		.byte	-107
 3299 08e9 80       		.byte	-128
 3300 08ea 9B       		.byte	-101
 3301 08eb 02       		.byte	2
 3302 08ec 9D       		.byte	-99
 3303 08ed 80       		.byte	-128
 3304 08ee A6       		.byte	-90
 3305 08ef 04       		.byte	4
 3306 08f0 C8       		.byte	-56
 3307 08f1 60       		.byte	96
 3308 08f2 D4       		.byte	-44
 3309 08f3 40       		.byte	64
 3310 08f4 19       		.byte	25
 3311 08f5 80       		.byte	-128
 3312 08f6 1E       		.byte	30
 3313 08f7 08       		.byte	8
 3314 08f8 21       		.byte	33
 3315 08f9 40       		.byte	64
 3316 08fa 8F       		.byte	-113
 3317 08fb 02       		.byte	2
 3318 08fc 95       		.byte	-107
 3319 08fd 80       		.byte	-128
 3320 08fe 9B       		.byte	-101
 3321 08ff 02       		.byte	2
 3322 0900 9D       		.byte	-99
 3323 0901 80       		.byte	-128
 3324 0902 A6       		.byte	-90
 3325 0903 04       		.byte	4
 3326 0904 B0       		.byte	-80
 3327 0905 40       		.byte	64
 3328 0906 C6       		.byte	-58
 3329 0907 C0       		.byte	-64
 3330 0908 C8       		.byte	-56
 3331 0909 10       		.byte	16
 3332 090a 0B       		.byte	11
 3333 090b 20       		.byte	32
 3334 090c 0D       		.byte	13
 3335 090d 01       		.byte	1
 3336 090e 60       		.byte	96
 3337 090f 80       		.byte	-128
 3338 0910 66       		.byte	102
 3339 0911 02       		.byte	2
 3340 0912 89       		.byte	-119
 3341 0913 01       		.byte	1
 3342 0914 8D       		.byte	-115
 3343 0915 04       		.byte	4
 3344 0916 94       		.byte	-108
ARM GAS  C:\Users\glenn\AppData\Local\Temp\cc934L16.s 			page 89


 3345 0917 01       		.byte	1
 3346 0918 97       		.byte	-105
 3347 0919 20       		.byte	32
 3348 091a 98       		.byte	-104
 3349 091b 80       		.byte	-128
 3350 091c 9A       		.byte	-102
 3351 091d 02       		.byte	2
 3352 091e 9C       		.byte	-100
 3353 091f 01       		.byte	1
 3354 0920 A5       		.byte	-91
 3355 0921 04       		.byte	4
 3356 0922 C2       		.byte	-62
 3357 0923 0C       		.byte	12
 3358 0924 D8       		.byte	-40
 3359 0925 03       		.byte	3
 3360 0926 E2       		.byte	-30
 3361 0927 04       		.byte	4
 3362 0928 E4       		.byte	-28
 3363 0929 02       		.byte	2
 3364 092a 8C       		.byte	-116
 3365 092b 01       		.byte	1
 3366 092c 94       		.byte	-108
 3367 092d 01       		.byte	1
 3368 092e B0       		.byte	-80
 3369 092f 01       		.byte	1
 3370 0930 E4       		.byte	-28
 3371 0931 08       		.byte	8
 3372 0932 EC       		.byte	-20
 3373 0933 04       		.byte	4
 3374 0934 00       		.byte	0
 3375 0935 46       		.byte	70
 3376 0936 01       		.byte	1
 3377 0937 01       		.byte	1
 3378 0938 0A       		.byte	10
 3379 0939 02       		.byte	2
 3380 093a 0C       		.byte	12
 3381 093b 46       		.byte	70
 3382 093c 0D       		.byte	13
 3383 093d 01       		.byte	1
 3384 093e 0E       		.byte	14
 3385 093f 06       		.byte	6
 3386 0940 10       		.byte	16
 3387 0941 06       		.byte	6
 3388 0942 11       		.byte	17
 3389 0943 01       		.byte	1
 3390 0944 1A       		.byte	26
 3391 0945 02       		.byte	2
 3392 0946 1C       		.byte	28
 3393 0947 06       		.byte	6
 3394 0948 1D       		.byte	29
 3395 0949 01       		.byte	1
 3396 094a 00       		.byte	0
 3397 094b BF       		.byte	-65
 3398 094c 01       		.byte	1
 3399 094d BF       		.byte	-65
 3400 094e 02       		.byte	2
 3401 094f 0F       		.byte	15
ARM GAS  C:\Users\glenn\AppData\Local\Temp\cc934L16.s 			page 90


 3402 0950 10       		.byte	16
 3403 0951 0A       		.byte	10
 3404 0952 0000     		.align	2
 3405              		.type	BS_PHUB_CFGMEM1_VAL.4920, %object
 3406              		.size	BS_PHUB_CFGMEM1_VAL.4920, 4
 3407              	BS_PHUB_CFGMEM1_VAL.4920:
 3408 0954 00       		.byte	0
 3409 0955 01       		.byte	1
 3410 0956 00       		.byte	0
 3411 0957 00       		.byte	0
 3412              		.align	2
 3413              		.type	BS_IOPINS0_0_VAL.4915, %object
 3414              		.size	BS_IOPINS0_0_VAL.4915, 8
 3415              	BS_IOPINS0_0_VAL.4915:
 3416 0958 00       		.byte	0
 3417 0959 00       		.byte	0
 3418 095a 00       		.byte	0
 3419 095b 00       		.byte	0
 3420 095c 00       		.byte	0
 3421 095d 00       		.byte	0
 3422 095e FF       		.byte	-1
 3423 095f 00       		.byte	0
 3424              		.align	2
 3425              		.type	BS_IOPINS0_8_VAL.4916, %object
 3426              		.size	BS_IOPINS0_8_VAL.4916, 8
 3427              	BS_IOPINS0_8_VAL.4916:
 3428 0960 00       		.byte	0
 3429 0961 12       		.byte	18
 3430 0962 12       		.byte	18
 3431 0963 00       		.byte	0
 3432 0964 12       		.byte	18
 3433 0965 12       		.byte	18
 3434 0966 00       		.byte	0
 3435 0967 00       		.byte	0
 3436              		.align	2
 3437              		.type	BS_IOPINS0_1_VAL.4917, %object
 3438              		.size	BS_IOPINS0_1_VAL.4917, 10
 3439              	BS_IOPINS0_1_VAL.4917:
 3440 0968 00       		.byte	0
 3441 0969 00       		.byte	0
 3442 096a 30       		.byte	48
 3443 096b D4       		.byte	-44
 3444 096c C0       		.byte	-64
 3445 096d 00       		.byte	0
 3446 096e C0       		.byte	-64
 3447 096f 00       		.byte	0
 3448 0970 00       		.byte	0
 3449 0971 00       		.byte	0
 3450 0972 0000     		.align	2
 3451              		.type	BS_IOPINS0_2_VAL.4918, %object
 3452              		.size	BS_IOPINS0_2_VAL.4918, 10
 3453              	BS_IOPINS0_2_VAL.4918:
 3454 0974 07       		.byte	7
 3455 0975 00       		.byte	0
 3456 0976 00       		.byte	0
 3457 0977 07       		.byte	7
 3458 0978 02       		.byte	2
ARM GAS  C:\Users\glenn\AppData\Local\Temp\cc934L16.s 			page 91


 3459 0979 00       		.byte	0
 3460 097a 00       		.byte	0
 3461 097b 08       		.byte	8
 3462 097c 08       		.byte	8
 3463 097d 00       		.byte	0
 3464 097e 0000     		.align	2
 3465              		.type	BS_IOPINS0_3_VAL.4919, %object
 3466              		.size	BS_IOPINS0_3_VAL.4919, 8
 3467              	BS_IOPINS0_3_VAL.4919:
 3468 0980 00       		.byte	0
 3469 0981 00       		.byte	0
 3470 0982 00       		.byte	0
 3471 0983 00       		.byte	0
 3472 0984 00       		.byte	0
 3473 0985 00       		.byte	0
 3474 0986 FF       		.byte	-1
 3475 0987 00       		.byte	0
 3476              		.text
 3477              	.Letext0:
 3478              		.file 2 "c:\\program files (x86)\\cypress\\psoc creator\\3.3\\psoc creator\\import\\gnu\\arm\\4.9.
 3479              		.file 3 ".\\Generated_Source\\PSoC5\\cytypes.h"
 3480              		.section	.debug_info,"",%progbits
 3481              	.Ldebug_info0:
 3482 0000 18060000 		.4byte	0x618
 3483 0004 0400     		.2byte	0x4
 3484 0006 00000000 		.4byte	.Ldebug_abbrev0
 3485 000a 04       		.byte	0x4
 3486 000b 01       		.uleb128 0x1
 3487 000c 5E020000 		.4byte	.LASF65
 3488 0010 01       		.byte	0x1
 3489 0011 67010000 		.4byte	.LASF66
 3490 0015 E8010000 		.4byte	.LASF67
 3491 0019 00000000 		.4byte	.Ldebug_ranges0+0
 3492 001d 00000000 		.4byte	0
 3493 0021 00000000 		.4byte	.Ldebug_line0
 3494 0025 02       		.uleb128 0x2
 3495 0026 04       		.byte	0x4
 3496 0027 05       		.byte	0x5
 3497 0028 696E7400 		.ascii	"int\000"
 3498 002c 03       		.uleb128 0x3
 3499 002d 28000000 		.4byte	.LASF11
 3500 0031 02       		.byte	0x2
 3501 0032 D4       		.byte	0xd4
 3502 0033 37000000 		.4byte	0x37
 3503 0037 04       		.uleb128 0x4
 3504 0038 04       		.byte	0x4
 3505 0039 07       		.byte	0x7
 3506 003a 5A010000 		.4byte	.LASF0
 3507 003e 04       		.uleb128 0x4
 3508 003f 01       		.byte	0x1
 3509 0040 06       		.byte	0x6
 3510 0041 DB000000 		.4byte	.LASF1
 3511 0045 04       		.uleb128 0x4
 3512 0046 01       		.byte	0x1
 3513 0047 08       		.byte	0x8
 3514 0048 1D030000 		.4byte	.LASF2
 3515 004c 04       		.uleb128 0x4
ARM GAS  C:\Users\glenn\AppData\Local\Temp\cc934L16.s 			page 92


 3516 004d 02       		.byte	0x2
 3517 004e 05       		.byte	0x5
 3518 004f 2B030000 		.4byte	.LASF3
 3519 0053 04       		.uleb128 0x4
 3520 0054 02       		.byte	0x2
 3521 0055 07       		.byte	0x7
 3522 0056 C0010000 		.4byte	.LASF4
 3523 005a 04       		.uleb128 0x4
 3524 005b 04       		.byte	0x4
 3525 005c 05       		.byte	0x5
 3526 005d 18010000 		.4byte	.LASF5
 3527 0061 04       		.uleb128 0x4
 3528 0062 04       		.byte	0x4
 3529 0063 07       		.byte	0x7
 3530 0064 8F010000 		.4byte	.LASF6
 3531 0068 04       		.uleb128 0x4
 3532 0069 08       		.byte	0x8
 3533 006a 05       		.byte	0x5
 3534 006b CD000000 		.4byte	.LASF7
 3535 006f 04       		.uleb128 0x4
 3536 0070 08       		.byte	0x8
 3537 0071 07       		.byte	0x7
 3538 0072 68000000 		.4byte	.LASF8
 3539 0076 04       		.uleb128 0x4
 3540 0077 04       		.byte	0x4
 3541 0078 07       		.byte	0x7
 3542 0079 36020000 		.4byte	.LASF9
 3543 007d 05       		.uleb128 0x5
 3544 007e 04       		.byte	0x4
 3545 007f 04       		.uleb128 0x4
 3546 0080 01       		.byte	0x1
 3547 0081 08       		.byte	0x8
 3548 0082 8E030000 		.4byte	.LASF10
 3549 0086 06       		.uleb128 0x6
 3550 0087 27010000 		.4byte	.LASF12
 3551 008b 03       		.byte	0x3
 3552 008c 9201     		.2byte	0x192
 3553 008e 45000000 		.4byte	0x45
 3554 0092 06       		.uleb128 0x6
 3555 0093 00000000 		.4byte	.LASF13
 3556 0097 03       		.byte	0x3
 3557 0098 9301     		.2byte	0x193
 3558 009a 53000000 		.4byte	0x53
 3559 009e 06       		.uleb128 0x6
 3560 009f 34010000 		.4byte	.LASF14
 3561 00a3 03       		.byte	0x3
 3562 00a4 9401     		.2byte	0x194
 3563 00a6 61000000 		.4byte	0x61
 3564 00aa 04       		.uleb128 0x4
 3565 00ab 04       		.byte	0x4
 3566 00ac 04       		.byte	0x4
 3567 00ad 12030000 		.4byte	.LASF15
 3568 00b1 04       		.uleb128 0x4
 3569 00b2 08       		.byte	0x8
 3570 00b3 04       		.byte	0x4
 3571 00b4 2D010000 		.4byte	.LASF16
 3572 00b8 06       		.uleb128 0x6
ARM GAS  C:\Users\glenn\AppData\Local\Temp\cc934L16.s 			page 93


 3573 00b9 18030000 		.4byte	.LASF17
 3574 00bd 03       		.byte	0x3
 3575 00be 3C02     		.2byte	0x23c
 3576 00c0 C4000000 		.4byte	0xc4
 3577 00c4 07       		.uleb128 0x7
 3578 00c5 86000000 		.4byte	0x86
 3579 00c9 06       		.uleb128 0x6
 3580 00ca 21010000 		.4byte	.LASF18
 3581 00ce 03       		.byte	0x3
 3582 00cf 3D02     		.2byte	0x23d
 3583 00d1 D5000000 		.4byte	0xd5
 3584 00d5 07       		.uleb128 0x7
 3585 00d6 92000000 		.4byte	0x92
 3586 00da 08       		.uleb128 0x8
 3587 00db 02       		.byte	0x2
 3588 00dc 01       		.byte	0x1
 3589 00dd 80       		.byte	0x80
 3590 00de FB000000 		.4byte	0xfb
 3591 00e2 09       		.uleb128 0x9
 3592 00e3 E7030000 		.4byte	.LASF19
 3593 00e7 01       		.byte	0x1
 3594 00e8 82       		.byte	0x82
 3595 00e9 86000000 		.4byte	0x86
 3596 00ed 00       		.byte	0
 3597 00ee 09       		.uleb128 0x9
 3598 00ef 54010000 		.4byte	.LASF20
 3599 00f3 01       		.byte	0x1
 3600 00f4 83       		.byte	0x83
 3601 00f5 86000000 		.4byte	0x86
 3602 00f9 01       		.byte	0x1
 3603 00fa 00       		.byte	0
 3604 00fb 03       		.uleb128 0x3
 3605 00fc 67030000 		.4byte	.LASF21
 3606 0100 01       		.byte	0x1
 3607 0101 84       		.byte	0x84
 3608 0102 DA000000 		.4byte	0xda
 3609 0106 0A       		.uleb128 0xa
 3610 0107 F9000000 		.4byte	.LASF22
 3611 010b 01       		.byte	0x1
 3612 010c 3E       		.byte	0x3e
 3613 010d 00000000 		.4byte	.LFB0
 3614 0111 1A000000 		.4byte	.LFE0-.LFB0
 3615 0115 01       		.uleb128 0x1
 3616 0116 9C       		.byte	0x9c
 3617 0117 34010000 		.4byte	0x134
 3618 011b 0B       		.uleb128 0xb
 3619 011c 7300     		.ascii	"s\000"
 3620 011e 01       		.byte	0x1
 3621 011f 3E       		.byte	0x3e
 3622 0120 7D000000 		.4byte	0x7d
 3623 0124 02       		.uleb128 0x2
 3624 0125 91       		.byte	0x91
 3625 0126 74       		.sleb128 -12
 3626 0127 0B       		.uleb128 0xb
 3627 0128 6E00     		.ascii	"n\000"
 3628 012a 01       		.byte	0x1
 3629 012b 3E       		.byte	0x3e
ARM GAS  C:\Users\glenn\AppData\Local\Temp\cc934L16.s 			page 94


 3630 012c 2C000000 		.4byte	0x2c
 3631 0130 02       		.uleb128 0x2
 3632 0131 91       		.byte	0x91
 3633 0132 70       		.sleb128 -16
 3634 0133 00       		.byte	0
 3635 0134 0A       		.uleb128 0xa
 3636 0135 46040000 		.4byte	.LASF23
 3637 0139 01       		.byte	0x1
 3638 013a 45       		.byte	0x45
 3639 013b 00000000 		.4byte	.LFB1
 3640 013f 1C000000 		.4byte	.LFE1-.LFB1
 3641 0143 01       		.uleb128 0x1
 3642 0144 9C       		.byte	0x9c
 3643 0145 72010000 		.4byte	0x172
 3644 0149 0C       		.uleb128 0xc
 3645 014a 0D030000 		.4byte	.LASF24
 3646 014e 01       		.byte	0x1
 3647 014f 45       		.byte	0x45
 3648 0150 7D000000 		.4byte	0x7d
 3649 0154 02       		.uleb128 0x2
 3650 0155 91       		.byte	0x91
 3651 0156 74       		.sleb128 -12
 3652 0157 0B       		.uleb128 0xb
 3653 0158 73726300 		.ascii	"src\000"
 3654 015c 01       		.byte	0x1
 3655 015d 45       		.byte	0x45
 3656 015e 72010000 		.4byte	0x172
 3657 0162 02       		.uleb128 0x2
 3658 0163 91       		.byte	0x91
 3659 0164 70       		.sleb128 -16
 3660 0165 0B       		.uleb128 0xb
 3661 0166 6E00     		.ascii	"n\000"
 3662 0168 01       		.byte	0x1
 3663 0169 45       		.byte	0x45
 3664 016a 2C000000 		.4byte	0x2c
 3665 016e 02       		.uleb128 0x2
 3666 016f 91       		.byte	0x91
 3667 0170 6C       		.sleb128 -20
 3668 0171 00       		.byte	0
 3669 0172 0D       		.uleb128 0xd
 3670 0173 04       		.byte	0x4
 3671 0174 78010000 		.4byte	0x178
 3672 0178 0E       		.uleb128 0xe
 3673 0179 0A       		.uleb128 0xa
 3674 017a 26020000 		.4byte	.LASF25
 3675 017e 01       		.byte	0x1
 3676 017f 4C       		.byte	0x4c
 3677 0180 00000000 		.4byte	.LFB2
 3678 0184 1C000000 		.4byte	.LFE2-.LFB2
 3679 0188 01       		.uleb128 0x1
 3680 0189 9C       		.byte	0x9c
 3681 018a B7010000 		.4byte	0x1b7
 3682 018e 0C       		.uleb128 0xc
 3683 018f 0D030000 		.4byte	.LASF24
 3684 0193 01       		.byte	0x1
 3685 0194 4C       		.byte	0x4c
 3686 0195 7D000000 		.4byte	0x7d
ARM GAS  C:\Users\glenn\AppData\Local\Temp\cc934L16.s 			page 95


 3687 0199 02       		.uleb128 0x2
 3688 019a 91       		.byte	0x91
 3689 019b 74       		.sleb128 -12
 3690 019c 0B       		.uleb128 0xb
 3691 019d 73726300 		.ascii	"src\000"
 3692 01a1 01       		.byte	0x1
 3693 01a2 4C       		.byte	0x4c
 3694 01a3 72010000 		.4byte	0x172
 3695 01a7 02       		.uleb128 0x2
 3696 01a8 91       		.byte	0x91
 3697 01a9 70       		.sleb128 -16
 3698 01aa 0B       		.uleb128 0xb
 3699 01ab 6E00     		.ascii	"n\000"
 3700 01ad 01       		.byte	0x1
 3701 01ae 4C       		.byte	0x4c
 3702 01af 2C000000 		.4byte	0x2c
 3703 01b3 02       		.uleb128 0x2
 3704 01b4 91       		.byte	0x91
 3705 01b5 6C       		.sleb128 -20
 3706 01b6 00       		.byte	0
 3707 01b7 0F       		.uleb128 0xf
 3708 01b8 2F000000 		.4byte	.LASF26
 3709 01bc 01       		.byte	0x1
 3710 01bd 6C       		.byte	0x6c
 3711 01be 00000000 		.4byte	.LFB3
 3712 01c2 0C000000 		.4byte	.LFE3-.LFB3
 3713 01c6 01       		.uleb128 0x1
 3714 01c7 9C       		.byte	0x9c
 3715 01c8 DB010000 		.4byte	0x1db
 3716 01cc 0C       		.uleb128 0xc
 3717 01cd 0E010000 		.4byte	.LASF27
 3718 01d1 01       		.byte	0x1
 3719 01d2 6C       		.byte	0x6c
 3720 01d3 86000000 		.4byte	0x86
 3721 01d7 02       		.uleb128 0x2
 3722 01d8 91       		.byte	0x91
 3723 01d9 77       		.sleb128 -9
 3724 01da 00       		.byte	0
 3725 01db 0F       		.uleb128 0xf
 3726 01dc A9010000 		.4byte	.LASF28
 3727 01e0 01       		.byte	0x1
 3728 01e1 97       		.byte	0x97
 3729 01e2 00000000 		.4byte	.LFB4
 3730 01e6 74000000 		.4byte	.LFE4-.LFB4
 3731 01ea 01       		.uleb128 0x1
 3732 01eb 9C       		.byte	0x9c
 3733 01ec 4B020000 		.4byte	0x24b
 3734 01f0 0C       		.uleb128 0xc
 3735 01f1 7F000000 		.4byte	.LASF29
 3736 01f5 01       		.byte	0x1
 3737 01f6 97       		.byte	0x97
 3738 01f7 4B020000 		.4byte	0x24b
 3739 01fb 02       		.uleb128 0x2
 3740 01fc 91       		.byte	0x91
 3741 01fd 64       		.sleb128 -28
 3742 01fe 0C       		.uleb128 0xc
 3743 01ff 5D000000 		.4byte	.LASF30
ARM GAS  C:\Users\glenn\AppData\Local\Temp\cc934L16.s 			page 96


 3744 0203 01       		.byte	0x1
 3745 0204 97       		.byte	0x97
 3746 0205 56020000 		.4byte	0x256
 3747 0209 02       		.uleb128 0x2
 3748 020a 91       		.byte	0x91
 3749 020b 60       		.sleb128 -32
 3750 020c 10       		.uleb128 0x10
 3751 020d 6900     		.ascii	"i\000"
 3752 020f 01       		.byte	0x1
 3753 0210 9A       		.byte	0x9a
 3754 0211 9E000000 		.4byte	0x9e
 3755 0215 02       		.uleb128 0x2
 3756 0216 91       		.byte	0x91
 3757 0217 74       		.sleb128 -12
 3758 0218 10       		.uleb128 0x10
 3759 0219 6A00     		.ascii	"j\000"
 3760 021b 01       		.byte	0x1
 3761 021c 9A       		.byte	0x9a
 3762 021d 9E000000 		.4byte	0x9e
 3763 0221 02       		.uleb128 0x2
 3764 0222 91       		.byte	0x91
 3765 0223 70       		.sleb128 -16
 3766 0224 11       		.uleb128 0x11
 3767 0225 14000000 		.4byte	.LBB2
 3768 0229 4A000000 		.4byte	.LBE2-.LBB2
 3769 022d 12       		.uleb128 0x12
 3770 022e 1F000000 		.4byte	.LASF31
 3771 0232 01       		.byte	0x1
 3772 0233 9D       		.byte	0x9d
 3773 0234 9E000000 		.4byte	0x9e
 3774 0238 02       		.uleb128 0x2
 3775 0239 91       		.byte	0x91
 3776 023a 68       		.sleb128 -24
 3777 023b 12       		.uleb128 0x12
 3778 023c 3B010000 		.4byte	.LASF32
 3779 0240 01       		.byte	0x1
 3780 0241 9E       		.byte	0x9e
 3781 0242 86000000 		.4byte	0x86
 3782 0246 02       		.uleb128 0x2
 3783 0247 91       		.byte	0x91
 3784 0248 6F       		.sleb128 -17
 3785 0249 00       		.byte	0
 3786 024a 00       		.byte	0
 3787 024b 0D       		.uleb128 0xd
 3788 024c 04       		.byte	0x4
 3789 024d 51020000 		.4byte	0x251
 3790 0251 13       		.uleb128 0x13
 3791 0252 9E000000 		.4byte	0x9e
 3792 0256 0D       		.uleb128 0xd
 3793 0257 04       		.byte	0x4
 3794 0258 5C020000 		.4byte	0x25c
 3795 025c 13       		.uleb128 0x13
 3796 025d FB000000 		.4byte	0xfb
 3797 0261 0A       		.uleb128 0xa
 3798 0262 03010000 		.4byte	.LASF33
 3799 0266 01       		.byte	0x1
 3800 0267 BA       		.byte	0xba
ARM GAS  C:\Users\glenn\AppData\Local\Temp\cc934L16.s 			page 97


 3801 0268 00000000 		.4byte	.LFB5
 3802 026c 28020000 		.4byte	.LFE5-.LFB5
 3803 0270 01       		.uleb128 0x1
 3804 0271 9C       		.byte	0x9c
 3805 0272 B2020000 		.4byte	0x2b2
 3806 0276 12       		.uleb128 0x12
 3807 0277 9C000000 		.4byte	.LASF34
 3808 027b 01       		.byte	0x1
 3809 027c BD       		.byte	0xbd
 3810 027d C2020000 		.4byte	0x2c2
 3811 0281 05       		.uleb128 0x5
 3812 0282 03       		.byte	0x3
 3813 0283 B8000000 		.4byte	BS_CYDEV_CLKDIST_ACFG0_CFG0_VAL.4874
 3814 0287 12       		.uleb128 0x12
 3815 0288 4A010000 		.4byte	.LASF35
 3816 028c 01       		.byte	0x1
 3817 028d C0       		.byte	0xc0
 3818 028e 86000000 		.4byte	0x86
 3819 0292 02       		.uleb128 0x2
 3820 0293 91       		.byte	0x91
 3821 0294 72       		.sleb128 -14
 3822 0295 12       		.uleb128 0x12
 3823 0296 A1010000 		.4byte	.LASF36
 3824 029a 01       		.byte	0x1
 3825 029b C1       		.byte	0xc1
 3826 029c 9E000000 		.4byte	0x9e
 3827 02a0 02       		.uleb128 0x2
 3828 02a1 91       		.byte	0x91
 3829 02a2 74       		.sleb128 -12
 3830 02a3 12       		.uleb128 0x12
 3831 02a4 46030000 		.4byte	.LASF37
 3832 02a8 01       		.byte	0x1
 3833 02a9 C2       		.byte	0xc2
 3834 02aa 86000000 		.4byte	0x86
 3835 02ae 02       		.uleb128 0x2
 3836 02af 91       		.byte	0x91
 3837 02b0 73       		.sleb128 -13
 3838 02b1 00       		.byte	0
 3839 02b2 14       		.uleb128 0x14
 3840 02b3 86000000 		.4byte	0x86
 3841 02b7 C2020000 		.4byte	0x2c2
 3842 02bb 15       		.uleb128 0x15
 3843 02bc 76000000 		.4byte	0x76
 3844 02c0 03       		.byte	0x3
 3845 02c1 00       		.byte	0
 3846 02c2 13       		.uleb128 0x13
 3847 02c3 B2020000 		.4byte	0x2b2
 3848 02c7 16       		.uleb128 0x16
 3849 02c8 BC000000 		.4byte	.LASF38
 3850 02cc 01       		.byte	0x1
 3851 02cd 2201     		.2byte	0x122
 3852 02cf 00000000 		.4byte	.LFB6
 3853 02d3 B8000000 		.4byte	.LFE6-.LFB6
 3854 02d7 01       		.uleb128 0x1
 3855 02d8 9C       		.byte	0x9c
 3856 02d9 0B030000 		.4byte	0x30b
 3857 02dd 17       		.uleb128 0x17
ARM GAS  C:\Users\glenn\AppData\Local\Temp\cc934L16.s 			page 98


 3858 02de 3F020000 		.4byte	.LASF39
 3859 02e2 01       		.byte	0x1
 3860 02e3 2401     		.2byte	0x124
 3861 02e5 86000000 		.4byte	0x86
 3862 02e9 02       		.uleb128 0x2
 3863 02ea 91       		.byte	0x91
 3864 02eb 77       		.sleb128 -9
 3865 02ec 18       		.uleb128 0x18
 3866 02ed 63723400 		.ascii	"cr4\000"
 3867 02f1 01       		.byte	0x1
 3868 02f2 2501     		.2byte	0x125
 3869 02f4 86000000 		.4byte	0x86
 3870 02f8 02       		.uleb128 0x2
 3871 02f9 91       		.byte	0x91
 3872 02fa 76       		.sleb128 -10
 3873 02fb 18       		.uleb128 0x18
 3874 02fc 63723500 		.ascii	"cr5\000"
 3875 0300 01       		.byte	0x1
 3876 0301 2601     		.2byte	0x126
 3877 0303 86000000 		.4byte	0x86
 3878 0307 02       		.uleb128 0x2
 3879 0308 91       		.byte	0x91
 3880 0309 75       		.sleb128 -11
 3881 030a 00       		.byte	0
 3882 030b 19       		.uleb128 0x19
 3883 030c B7030000 		.4byte	.LASF42
 3884 0310 01       		.byte	0x1
 3885 0311 4A01     		.2byte	0x14a
 3886 0313 00000000 		.4byte	.LFB7
 3887 0317 3C000000 		.4byte	.LFE7-.LFB7
 3888 031b 01       		.uleb128 0x1
 3889 031c 9C       		.byte	0x9c
 3890 031d 40030000 		.4byte	0x340
 3891 0321 1A       		.uleb128 0x1a
 3892 0322 0B040000 		.4byte	.LASF40
 3893 0326 01       		.byte	0x1
 3894 0327 4A01     		.2byte	0x14a
 3895 0329 86000000 		.4byte	0x86
 3896 032d 02       		.uleb128 0x2
 3897 032e 91       		.byte	0x91
 3898 032f 6F       		.sleb128 -17
 3899 0330 17       		.uleb128 0x17
 3900 0331 41010000 		.4byte	.LASF41
 3901 0335 01       		.byte	0x1
 3902 0336 4C01     		.2byte	0x14c
 3903 0338 86000000 		.4byte	0x86
 3904 033c 02       		.uleb128 0x2
 3905 033d 91       		.byte	0x91
 3906 033e 77       		.sleb128 -9
 3907 033f 00       		.byte	0
 3908 0340 19       		.uleb128 0x19
 3909 0341 13040000 		.4byte	.LASF43
 3910 0345 01       		.byte	0x1
 3911 0346 9201     		.2byte	0x192
 3912 0348 00000000 		.4byte	.LFB8
 3913 034c 6C000000 		.4byte	.LFE8-.LFB8
 3914 0350 01       		.uleb128 0x1
ARM GAS  C:\Users\glenn\AppData\Local\Temp\cc934L16.s 			page 99


 3915 0351 9C       		.byte	0x9c
 3916 0352 66030000 		.4byte	0x366
 3917 0356 1A       		.uleb128 0x1a
 3918 0357 5F030000 		.4byte	.LASF44
 3919 035b 01       		.byte	0x1
 3920 035c 9201     		.2byte	0x192
 3921 035e 86000000 		.4byte	0x86
 3922 0362 02       		.uleb128 0x2
 3923 0363 91       		.byte	0x91
 3924 0364 77       		.sleb128 -9
 3925 0365 00       		.byte	0
 3926 0366 19       		.uleb128 0x19
 3927 0367 07000000 		.4byte	.LASF45
 3928 036b 01       		.byte	0x1
 3929 036c AB01     		.2byte	0x1ab
 3930 036e 00000000 		.4byte	.LFB9
 3931 0372 74000000 		.4byte	.LFE9-.LFB9
 3932 0376 01       		.uleb128 0x1
 3933 0377 9C       		.byte	0x9c
 3934 0378 8C030000 		.4byte	0x38c
 3935 037c 1A       		.uleb128 0x1a
 3936 037d 5F030000 		.4byte	.LASF44
 3937 0381 01       		.byte	0x1
 3938 0382 AB01     		.2byte	0x1ab
 3939 0384 86000000 		.4byte	0x86
 3940 0388 02       		.uleb128 0x2
 3941 0389 91       		.byte	0x91
 3942 038a 77       		.sleb128 -9
 3943 038b 00       		.byte	0
 3944 038c 19       		.uleb128 0x19
 3945 038d A4030000 		.4byte	.LASF46
 3946 0391 01       		.byte	0x1
 3947 0392 D101     		.2byte	0x1d1
 3948 0394 00000000 		.4byte	.LFB10
 3949 0398 40000000 		.4byte	.LFE10-.LFB10
 3950 039c 01       		.uleb128 0x1
 3951 039d 9C       		.byte	0x9c
 3952 039e B2030000 		.4byte	0x3b2
 3953 03a2 1A       		.uleb128 0x1a
 3954 03a3 5F030000 		.4byte	.LASF44
 3955 03a7 01       		.byte	0x1
 3956 03a8 D101     		.2byte	0x1d1
 3957 03aa 86000000 		.4byte	0x86
 3958 03ae 02       		.uleb128 0x2
 3959 03af 91       		.byte	0x91
 3960 03b0 77       		.sleb128 -9
 3961 03b1 00       		.byte	0
 3962 03b2 19       		.uleb128 0x19
 3963 03b3 D3010000 		.4byte	.LASF47
 3964 03b7 01       		.byte	0x1
 3965 03b8 E701     		.2byte	0x1e7
 3966 03ba 00000000 		.4byte	.LFB11
 3967 03be 44000000 		.4byte	.LFE11-.LFB11
 3968 03c2 01       		.uleb128 0x1
 3969 03c3 9C       		.byte	0x9c
 3970 03c4 D8030000 		.4byte	0x3d8
 3971 03c8 1A       		.uleb128 0x1a
ARM GAS  C:\Users\glenn\AppData\Local\Temp\cc934L16.s 			page 100


 3972 03c9 5F030000 		.4byte	.LASF44
 3973 03cd 01       		.byte	0x1
 3974 03ce E701     		.2byte	0x1e7
 3975 03d0 86000000 		.4byte	0x86
 3976 03d4 02       		.uleb128 0x2
 3977 03d5 91       		.byte	0x91
 3978 03d6 77       		.sleb128 -9
 3979 03d7 00       		.byte	0
 3980 03d8 1B       		.uleb128 0x1b
 3981 03d9 6B040000 		.4byte	.LASF48
 3982 03dd 01       		.byte	0x1
 3983 03de 0202     		.2byte	0x202
 3984 03e0 00000000 		.4byte	.LFB12
 3985 03e4 7C010000 		.4byte	.LFE12-.LFB12
 3986 03e8 01       		.uleb128 0x1
 3987 03e9 9C       		.byte	0x9c
 3988 03ea 10050000 		.4byte	0x510
 3989 03ee 17       		.uleb128 0x17
 3990 03ef 35030000 		.4byte	.LASF49
 3991 03f3 01       		.byte	0x1
 3992 03f4 0502     		.2byte	0x205
 3993 03f6 20050000 		.4byte	0x520
 3994 03fa 05       		.uleb128 0x5
 3995 03fb 03       		.byte	0x3
 3996 03fc 58090000 		.4byte	BS_IOPINS0_0_VAL.4915
 3997 0400 17       		.uleb128 0x17
 3998 0401 4E030000 		.4byte	.LASF50
 3999 0405 01       		.byte	0x1
 4000 0406 0902     		.2byte	0x209
 4001 0408 25050000 		.4byte	0x525
 4002 040c 05       		.uleb128 0x5
 4003 040d 03       		.byte	0x3
 4004 040e 60090000 		.4byte	BS_IOPINS0_8_VAL.4916
 4005 0412 17       		.uleb128 0x17
 4006 0413 93030000 		.4byte	.LASF51
 4007 0417 01       		.byte	0x1
 4008 0418 0D02     		.2byte	0x20d
 4009 041a 3A050000 		.4byte	0x53a
 4010 041e 05       		.uleb128 0x5
 4011 041f 03       		.byte	0x3
 4012 0420 68090000 		.4byte	BS_IOPINS0_1_VAL.4917
 4013 0424 17       		.uleb128 0x17
 4014 0425 5A040000 		.4byte	.LASF52
 4015 0429 01       		.byte	0x1
 4016 042a 1102     		.2byte	0x211
 4017 042c 3F050000 		.4byte	0x53f
 4018 0430 05       		.uleb128 0x5
 4019 0431 03       		.byte	0x3
 4020 0432 74090000 		.4byte	BS_IOPINS0_2_VAL.4918
 4021 0436 17       		.uleb128 0x17
 4022 0437 FC020000 		.4byte	.LASF53
 4023 043b 01       		.byte	0x1
 4024 043c 1502     		.2byte	0x215
 4025 043e 44050000 		.4byte	0x544
 4026 0442 05       		.uleb128 0x5
 4027 0443 03       		.byte	0x3
 4028 0444 80090000 		.4byte	BS_IOPINS0_3_VAL.4919
ARM GAS  C:\Users\glenn\AppData\Local\Temp\cc934L16.s 			page 101


 4029 0448 17       		.uleb128 0x17
 4030 0449 7A030000 		.4byte	.LASF54
 4031 044d 01       		.byte	0x1
 4032 044e 1902     		.2byte	0x219
 4033 0450 49050000 		.4byte	0x549
 4034 0454 05       		.uleb128 0x5
 4035 0455 03       		.byte	0x3
 4036 0456 54090000 		.4byte	BS_PHUB_CFGMEM1_VAL.4920
 4037 045a 11       		.uleb128 0x11
 4038 045b 18000000 		.4byte	.LBB3
 4039 045f 94000000 		.4byte	.LBE3-.LBB3
 4040 0463 17       		.uleb128 0x17
 4041 0464 E7000000 		.4byte	.LASF55
 4042 0468 01       		.byte	0x1
 4043 0469 2502     		.2byte	0x225
 4044 046b 5E050000 		.4byte	0x55e
 4045 046f 05       		.uleb128 0x5
 4046 0470 03       		.byte	0x3
 4047 0471 E8000000 		.4byte	cy_cfg_addr_table.4921
 4048 0475 17       		.uleb128 0x17
 4049 0476 8A000000 		.4byte	.LASF56
 4050 047a 01       		.byte	0x1
 4051 047b 4E02     		.2byte	0x24e
 4052 047d 74050000 		.4byte	0x574
 4053 0481 05       		.uleb128 0x5
 4054 0482 03       		.byte	0x3
 4055 0483 80010000 		.4byte	cy_cfg_data_table.4922
 4056 0487 1C       		.uleb128 0x1c
 4057 0488 06       		.byte	0x6
 4058 0489 01       		.byte	0x1
 4059 048a 3C06     		.2byte	0x63c
 4060 048c AB040000 		.4byte	0x4ab
 4061 0490 1D       		.uleb128 0x1d
 4062 0491 52040000 		.4byte	.LASF57
 4063 0495 01       		.byte	0x1
 4064 0496 3D06     		.2byte	0x63d
 4065 0498 7D000000 		.4byte	0x7d
 4066 049c 00       		.byte	0
 4067 049d 1D       		.uleb128 0x1d
 4068 049e BB010000 		.4byte	.LASF58
 4069 04a2 01       		.byte	0x1
 4070 04a3 3E06     		.2byte	0x63e
 4071 04a5 92000000 		.4byte	0x92
 4072 04a9 04       		.byte	0x4
 4073 04aa 00       		.byte	0
 4074 04ab 06       		.uleb128 0x6
 4075 04ac 51020000 		.4byte	.LASF59
 4076 04b0 01       		.byte	0x1
 4077 04b1 3F06     		.2byte	0x63f
 4078 04b3 87040000 		.4byte	0x487
 4079 04b7 14       		.uleb128 0x14
 4080 04b8 AB040000 		.4byte	0x4ab
 4081 04bc C7040000 		.4byte	0x4c7
 4082 04c0 15       		.uleb128 0x15
 4083 04c1 76000000 		.4byte	0x76
 4084 04c5 06       		.byte	0x6
 4085 04c6 00       		.byte	0
ARM GAS  C:\Users\glenn\AppData\Local\Temp\cc934L16.s 			page 102


 4086 04c7 17       		.uleb128 0x17
 4087 04c8 EC020000 		.4byte	.LASF60
 4088 04cc 01       		.byte	0x1
 4089 04cd 4106     		.2byte	0x641
 4090 04cf D9040000 		.4byte	0x4d9
 4091 04d3 05       		.uleb128 0x5
 4092 04d4 03       		.byte	0x3
 4093 04d5 BC000000 		.4byte	cfg_memset_list.4927
 4094 04d9 13       		.uleb128 0x13
 4095 04da B7040000 		.4byte	0x4b7
 4096 04de 18       		.uleb128 0x18
 4097 04df 6900     		.ascii	"i\000"
 4098 04e1 01       		.byte	0x1
 4099 04e2 4C06     		.2byte	0x64c
 4100 04e4 86000000 		.4byte	0x86
 4101 04e8 02       		.uleb128 0x2
 4102 04e9 91       		.byte	0x91
 4103 04ea 77       		.sleb128 -9
 4104 04eb 11       		.uleb128 0x11
 4105 04ec 1E000000 		.4byte	.LBB4
 4106 04f0 22000000 		.4byte	.LBE4-.LBB4
 4107 04f4 18       		.uleb128 0x18
 4108 04f5 6D7300   		.ascii	"ms\000"
 4109 04f8 01       		.byte	0x1
 4110 04f9 5106     		.2byte	0x651
 4111 04fb 02050000 		.4byte	0x502
 4112 04ff 02       		.uleb128 0x2
 4113 0500 91       		.byte	0x91
 4114 0501 70       		.sleb128 -16
 4115 0502 0D       		.uleb128 0xd
 4116 0503 04       		.byte	0x4
 4117 0504 08050000 		.4byte	0x508
 4118 0508 13       		.uleb128 0x13
 4119 0509 AB040000 		.4byte	0x4ab
 4120 050d 00       		.byte	0
 4121 050e 00       		.byte	0
 4122 050f 00       		.byte	0
 4123 0510 14       		.uleb128 0x14
 4124 0511 86000000 		.4byte	0x86
 4125 0515 20050000 		.4byte	0x520
 4126 0519 15       		.uleb128 0x15
 4127 051a 76000000 		.4byte	0x76
 4128 051e 07       		.byte	0x7
 4129 051f 00       		.byte	0
 4130 0520 13       		.uleb128 0x13
 4131 0521 10050000 		.4byte	0x510
 4132 0525 13       		.uleb128 0x13
 4133 0526 10050000 		.4byte	0x510
 4134 052a 14       		.uleb128 0x14
 4135 052b 86000000 		.4byte	0x86
 4136 052f 3A050000 		.4byte	0x53a
 4137 0533 15       		.uleb128 0x15
 4138 0534 76000000 		.4byte	0x76
 4139 0538 09       		.byte	0x9
 4140 0539 00       		.byte	0
 4141 053a 13       		.uleb128 0x13
 4142 053b 2A050000 		.4byte	0x52a
ARM GAS  C:\Users\glenn\AppData\Local\Temp\cc934L16.s 			page 103


 4143 053f 13       		.uleb128 0x13
 4144 0540 2A050000 		.4byte	0x52a
 4145 0544 13       		.uleb128 0x13
 4146 0545 10050000 		.4byte	0x510
 4147 0549 13       		.uleb128 0x13
 4148 054a B2020000 		.4byte	0x2b2
 4149 054e 14       		.uleb128 0x14
 4150 054f 9E000000 		.4byte	0x9e
 4151 0553 5E050000 		.4byte	0x55e
 4152 0557 15       		.uleb128 0x15
 4153 0558 76000000 		.4byte	0x76
 4154 055c 25       		.byte	0x25
 4155 055d 00       		.byte	0
 4156 055e 13       		.uleb128 0x13
 4157 055f 4E050000 		.4byte	0x54e
 4158 0563 14       		.uleb128 0x14
 4159 0564 FB000000 		.4byte	0xfb
 4160 0568 74050000 		.4byte	0x574
 4161 056c 1E       		.uleb128 0x1e
 4162 056d 76000000 		.4byte	0x76
 4163 0571 E803     		.2byte	0x3e8
 4164 0573 00       		.byte	0
 4165 0574 13       		.uleb128 0x13
 4166 0575 63050000 		.4byte	0x563
 4167 0579 14       		.uleb128 0x14
 4168 057a 89050000 		.4byte	0x589
 4169 057e 89050000 		.4byte	0x589
 4170 0582 15       		.uleb128 0x15
 4171 0583 76000000 		.4byte	0x76
 4172 0587 21       		.byte	0x21
 4173 0588 00       		.byte	0
 4174 0589 0D       		.uleb128 0xd
 4175 058a 04       		.byte	0x4
 4176 058b 86000000 		.4byte	0x86
 4177 058f 1F       		.uleb128 0x1f
 4178 0590 29040000 		.4byte	.LASF61
 4179 0594 01       		.byte	0x1
 4180 0595 5B01     		.2byte	0x15b
 4181 0597 A1050000 		.4byte	0x5a1
 4182 059b 05       		.uleb128 0x5
 4183 059c 03       		.byte	0x3
 4184 059d 00000000 		.4byte	Sink_Source_Setup__addrTable
 4185 05a1 13       		.uleb128 0x13
 4186 05a2 79050000 		.4byte	0x579
 4187 05a6 14       		.uleb128 0x14
 4188 05a7 86000000 		.4byte	0x86
 4189 05ab B6050000 		.4byte	0x5b6
 4190 05af 15       		.uleb128 0x15
 4191 05b0 76000000 		.4byte	0x76
 4192 05b4 21       		.byte	0x21
 4193 05b5 00       		.byte	0
 4194 05b6 1F       		.uleb128 0x1f
 4195 05b7 EE030000 		.4byte	.LASF62
 4196 05bb 01       		.byte	0x1
 4197 05bc 7101     		.2byte	0x171
 4198 05be C8050000 		.4byte	0x5c8
 4199 05c2 05       		.uleb128 0x5
ARM GAS  C:\Users\glenn\AppData\Local\Temp\cc934L16.s 			page 104


 4200 05c3 03       		.byte	0x3
 4201 05c4 00000000 		.4byte	Sink_Source_Setup__maskTable
 4202 05c8 13       		.uleb128 0x13
 4203 05c9 A6050000 		.4byte	0x5a6
 4204 05cd 14       		.uleb128 0x14
 4205 05ce 89050000 		.4byte	0x589
 4206 05d2 DD050000 		.4byte	0x5dd
 4207 05d6 15       		.uleb128 0x15
 4208 05d7 76000000 		.4byte	0x76
 4209 05db 01       		.byte	0x1
 4210 05dc 00       		.byte	0
 4211 05dd 1F       		.uleb128 0x1f
 4212 05de CD030000 		.4byte	.LASF63
 4213 05e2 01       		.byte	0x1
 4214 05e3 B801     		.2byte	0x1b8
 4215 05e5 EF050000 		.4byte	0x5ef
 4216 05e9 05       		.uleb128 0x5
 4217 05ea 03       		.byte	0x3
 4218 05eb 00000000 		.4byte	SIGMA_A_D_AMux__addrTable
 4219 05ef 13       		.uleb128 0x13
 4220 05f0 CD050000 		.4byte	0x5cd
 4221 05f4 14       		.uleb128 0x14
 4222 05f5 86000000 		.4byte	0x86
 4223 05f9 04060000 		.4byte	0x604
 4224 05fd 15       		.uleb128 0x15
 4225 05fe 76000000 		.4byte	0x76
 4226 0602 01       		.byte	0x1
 4227 0603 00       		.byte	0
 4228 0604 1F       		.uleb128 0x1f
 4229 0605 43000000 		.4byte	.LASF64
 4230 0609 01       		.byte	0x1
 4231 060a BF01     		.2byte	0x1bf
 4232 060c 16060000 		.4byte	0x616
 4233 0610 05       		.uleb128 0x5
 4234 0611 03       		.byte	0x3
 4235 0612 00000000 		.4byte	SIGMA_A_D_AMux__maskTable
 4236 0616 13       		.uleb128 0x13
 4237 0617 F4050000 		.4byte	0x5f4
 4238 061b 00       		.byte	0
 4239              		.section	.debug_abbrev,"",%progbits
 4240              	.Ldebug_abbrev0:
 4241 0000 01       		.uleb128 0x1
 4242 0001 11       		.uleb128 0x11
 4243 0002 01       		.byte	0x1
 4244 0003 25       		.uleb128 0x25
 4245 0004 0E       		.uleb128 0xe
 4246 0005 13       		.uleb128 0x13
 4247 0006 0B       		.uleb128 0xb
 4248 0007 03       		.uleb128 0x3
 4249 0008 0E       		.uleb128 0xe
 4250 0009 1B       		.uleb128 0x1b
 4251 000a 0E       		.uleb128 0xe
 4252 000b 55       		.uleb128 0x55
 4253 000c 17       		.uleb128 0x17
 4254 000d 11       		.uleb128 0x11
 4255 000e 01       		.uleb128 0x1
 4256 000f 10       		.uleb128 0x10
ARM GAS  C:\Users\glenn\AppData\Local\Temp\cc934L16.s 			page 105


 4257 0010 17       		.uleb128 0x17
 4258 0011 00       		.byte	0
 4259 0012 00       		.byte	0
 4260 0013 02       		.uleb128 0x2
 4261 0014 24       		.uleb128 0x24
 4262 0015 00       		.byte	0
 4263 0016 0B       		.uleb128 0xb
 4264 0017 0B       		.uleb128 0xb
 4265 0018 3E       		.uleb128 0x3e
 4266 0019 0B       		.uleb128 0xb
 4267 001a 03       		.uleb128 0x3
 4268 001b 08       		.uleb128 0x8
 4269 001c 00       		.byte	0
 4270 001d 00       		.byte	0
 4271 001e 03       		.uleb128 0x3
 4272 001f 16       		.uleb128 0x16
 4273 0020 00       		.byte	0
 4274 0021 03       		.uleb128 0x3
 4275 0022 0E       		.uleb128 0xe
 4276 0023 3A       		.uleb128 0x3a
 4277 0024 0B       		.uleb128 0xb
 4278 0025 3B       		.uleb128 0x3b
 4279 0026 0B       		.uleb128 0xb
 4280 0027 49       		.uleb128 0x49
 4281 0028 13       		.uleb128 0x13
 4282 0029 00       		.byte	0
 4283 002a 00       		.byte	0
 4284 002b 04       		.uleb128 0x4
 4285 002c 24       		.uleb128 0x24
 4286 002d 00       		.byte	0
 4287 002e 0B       		.uleb128 0xb
 4288 002f 0B       		.uleb128 0xb
 4289 0030 3E       		.uleb128 0x3e
 4290 0031 0B       		.uleb128 0xb
 4291 0032 03       		.uleb128 0x3
 4292 0033 0E       		.uleb128 0xe
 4293 0034 00       		.byte	0
 4294 0035 00       		.byte	0
 4295 0036 05       		.uleb128 0x5
 4296 0037 0F       		.uleb128 0xf
 4297 0038 00       		.byte	0
 4298 0039 0B       		.uleb128 0xb
 4299 003a 0B       		.uleb128 0xb
 4300 003b 00       		.byte	0
 4301 003c 00       		.byte	0
 4302 003d 06       		.uleb128 0x6
 4303 003e 16       		.uleb128 0x16
 4304 003f 00       		.byte	0
 4305 0040 03       		.uleb128 0x3
 4306 0041 0E       		.uleb128 0xe
 4307 0042 3A       		.uleb128 0x3a
 4308 0043 0B       		.uleb128 0xb
 4309 0044 3B       		.uleb128 0x3b
 4310 0045 05       		.uleb128 0x5
 4311 0046 49       		.uleb128 0x49
 4312 0047 13       		.uleb128 0x13
 4313 0048 00       		.byte	0
ARM GAS  C:\Users\glenn\AppData\Local\Temp\cc934L16.s 			page 106


 4314 0049 00       		.byte	0
 4315 004a 07       		.uleb128 0x7
 4316 004b 35       		.uleb128 0x35
 4317 004c 00       		.byte	0
 4318 004d 49       		.uleb128 0x49
 4319 004e 13       		.uleb128 0x13
 4320 004f 00       		.byte	0
 4321 0050 00       		.byte	0
 4322 0051 08       		.uleb128 0x8
 4323 0052 13       		.uleb128 0x13
 4324 0053 01       		.byte	0x1
 4325 0054 0B       		.uleb128 0xb
 4326 0055 0B       		.uleb128 0xb
 4327 0056 3A       		.uleb128 0x3a
 4328 0057 0B       		.uleb128 0xb
 4329 0058 3B       		.uleb128 0x3b
 4330 0059 0B       		.uleb128 0xb
 4331 005a 01       		.uleb128 0x1
 4332 005b 13       		.uleb128 0x13
 4333 005c 00       		.byte	0
 4334 005d 00       		.byte	0
 4335 005e 09       		.uleb128 0x9
 4336 005f 0D       		.uleb128 0xd
 4337 0060 00       		.byte	0
 4338 0061 03       		.uleb128 0x3
 4339 0062 0E       		.uleb128 0xe
 4340 0063 3A       		.uleb128 0x3a
 4341 0064 0B       		.uleb128 0xb
 4342 0065 3B       		.uleb128 0x3b
 4343 0066 0B       		.uleb128 0xb
 4344 0067 49       		.uleb128 0x49
 4345 0068 13       		.uleb128 0x13
 4346 0069 38       		.uleb128 0x38
 4347 006a 0B       		.uleb128 0xb
 4348 006b 00       		.byte	0
 4349 006c 00       		.byte	0
 4350 006d 0A       		.uleb128 0xa
 4351 006e 2E       		.uleb128 0x2e
 4352 006f 01       		.byte	0x1
 4353 0070 03       		.uleb128 0x3
 4354 0071 0E       		.uleb128 0xe
 4355 0072 3A       		.uleb128 0x3a
 4356 0073 0B       		.uleb128 0xb
 4357 0074 3B       		.uleb128 0x3b
 4358 0075 0B       		.uleb128 0xb
 4359 0076 27       		.uleb128 0x27
 4360 0077 19       		.uleb128 0x19
 4361 0078 11       		.uleb128 0x11
 4362 0079 01       		.uleb128 0x1
 4363 007a 12       		.uleb128 0x12
 4364 007b 06       		.uleb128 0x6
 4365 007c 40       		.uleb128 0x40
 4366 007d 18       		.uleb128 0x18
 4367 007e 9642     		.uleb128 0x2116
 4368 0080 19       		.uleb128 0x19
 4369 0081 01       		.uleb128 0x1
 4370 0082 13       		.uleb128 0x13
ARM GAS  C:\Users\glenn\AppData\Local\Temp\cc934L16.s 			page 107


 4371 0083 00       		.byte	0
 4372 0084 00       		.byte	0
 4373 0085 0B       		.uleb128 0xb
 4374 0086 05       		.uleb128 0x5
 4375 0087 00       		.byte	0
 4376 0088 03       		.uleb128 0x3
 4377 0089 08       		.uleb128 0x8
 4378 008a 3A       		.uleb128 0x3a
 4379 008b 0B       		.uleb128 0xb
 4380 008c 3B       		.uleb128 0x3b
 4381 008d 0B       		.uleb128 0xb
 4382 008e 49       		.uleb128 0x49
 4383 008f 13       		.uleb128 0x13
 4384 0090 02       		.uleb128 0x2
 4385 0091 18       		.uleb128 0x18
 4386 0092 00       		.byte	0
 4387 0093 00       		.byte	0
 4388 0094 0C       		.uleb128 0xc
 4389 0095 05       		.uleb128 0x5
 4390 0096 00       		.byte	0
 4391 0097 03       		.uleb128 0x3
 4392 0098 0E       		.uleb128 0xe
 4393 0099 3A       		.uleb128 0x3a
 4394 009a 0B       		.uleb128 0xb
 4395 009b 3B       		.uleb128 0x3b
 4396 009c 0B       		.uleb128 0xb
 4397 009d 49       		.uleb128 0x49
 4398 009e 13       		.uleb128 0x13
 4399 009f 02       		.uleb128 0x2
 4400 00a0 18       		.uleb128 0x18
 4401 00a1 00       		.byte	0
 4402 00a2 00       		.byte	0
 4403 00a3 0D       		.uleb128 0xd
 4404 00a4 0F       		.uleb128 0xf
 4405 00a5 00       		.byte	0
 4406 00a6 0B       		.uleb128 0xb
 4407 00a7 0B       		.uleb128 0xb
 4408 00a8 49       		.uleb128 0x49
 4409 00a9 13       		.uleb128 0x13
 4410 00aa 00       		.byte	0
 4411 00ab 00       		.byte	0
 4412 00ac 0E       		.uleb128 0xe
 4413 00ad 26       		.uleb128 0x26
 4414 00ae 00       		.byte	0
 4415 00af 00       		.byte	0
 4416 00b0 00       		.byte	0
 4417 00b1 0F       		.uleb128 0xf
 4418 00b2 2E       		.uleb128 0x2e
 4419 00b3 01       		.byte	0x1
 4420 00b4 03       		.uleb128 0x3
 4421 00b5 0E       		.uleb128 0xe
 4422 00b6 3A       		.uleb128 0x3a
 4423 00b7 0B       		.uleb128 0xb
 4424 00b8 3B       		.uleb128 0x3b
 4425 00b9 0B       		.uleb128 0xb
 4426 00ba 27       		.uleb128 0x27
 4427 00bb 19       		.uleb128 0x19
ARM GAS  C:\Users\glenn\AppData\Local\Temp\cc934L16.s 			page 108


 4428 00bc 11       		.uleb128 0x11
 4429 00bd 01       		.uleb128 0x1
 4430 00be 12       		.uleb128 0x12
 4431 00bf 06       		.uleb128 0x6
 4432 00c0 40       		.uleb128 0x40
 4433 00c1 18       		.uleb128 0x18
 4434 00c2 9742     		.uleb128 0x2117
 4435 00c4 19       		.uleb128 0x19
 4436 00c5 01       		.uleb128 0x1
 4437 00c6 13       		.uleb128 0x13
 4438 00c7 00       		.byte	0
 4439 00c8 00       		.byte	0
 4440 00c9 10       		.uleb128 0x10
 4441 00ca 34       		.uleb128 0x34
 4442 00cb 00       		.byte	0
 4443 00cc 03       		.uleb128 0x3
 4444 00cd 08       		.uleb128 0x8
 4445 00ce 3A       		.uleb128 0x3a
 4446 00cf 0B       		.uleb128 0xb
 4447 00d0 3B       		.uleb128 0x3b
 4448 00d1 0B       		.uleb128 0xb
 4449 00d2 49       		.uleb128 0x49
 4450 00d3 13       		.uleb128 0x13
 4451 00d4 02       		.uleb128 0x2
 4452 00d5 18       		.uleb128 0x18
 4453 00d6 00       		.byte	0
 4454 00d7 00       		.byte	0
 4455 00d8 11       		.uleb128 0x11
 4456 00d9 0B       		.uleb128 0xb
 4457 00da 01       		.byte	0x1
 4458 00db 11       		.uleb128 0x11
 4459 00dc 01       		.uleb128 0x1
 4460 00dd 12       		.uleb128 0x12
 4461 00de 06       		.uleb128 0x6
 4462 00df 00       		.byte	0
 4463 00e0 00       		.byte	0
 4464 00e1 12       		.uleb128 0x12
 4465 00e2 34       		.uleb128 0x34
 4466 00e3 00       		.byte	0
 4467 00e4 03       		.uleb128 0x3
 4468 00e5 0E       		.uleb128 0xe
 4469 00e6 3A       		.uleb128 0x3a
 4470 00e7 0B       		.uleb128 0xb
 4471 00e8 3B       		.uleb128 0x3b
 4472 00e9 0B       		.uleb128 0xb
 4473 00ea 49       		.uleb128 0x49
 4474 00eb 13       		.uleb128 0x13
 4475 00ec 02       		.uleb128 0x2
 4476 00ed 18       		.uleb128 0x18
 4477 00ee 00       		.byte	0
 4478 00ef 00       		.byte	0
 4479 00f0 13       		.uleb128 0x13
 4480 00f1 26       		.uleb128 0x26
 4481 00f2 00       		.byte	0
 4482 00f3 49       		.uleb128 0x49
 4483 00f4 13       		.uleb128 0x13
 4484 00f5 00       		.byte	0
ARM GAS  C:\Users\glenn\AppData\Local\Temp\cc934L16.s 			page 109


 4485 00f6 00       		.byte	0
 4486 00f7 14       		.uleb128 0x14
 4487 00f8 01       		.uleb128 0x1
 4488 00f9 01       		.byte	0x1
 4489 00fa 49       		.uleb128 0x49
 4490 00fb 13       		.uleb128 0x13
 4491 00fc 01       		.uleb128 0x1
 4492 00fd 13       		.uleb128 0x13
 4493 00fe 00       		.byte	0
 4494 00ff 00       		.byte	0
 4495 0100 15       		.uleb128 0x15
 4496 0101 21       		.uleb128 0x21
 4497 0102 00       		.byte	0
 4498 0103 49       		.uleb128 0x49
 4499 0104 13       		.uleb128 0x13
 4500 0105 2F       		.uleb128 0x2f
 4501 0106 0B       		.uleb128 0xb
 4502 0107 00       		.byte	0
 4503 0108 00       		.byte	0
 4504 0109 16       		.uleb128 0x16
 4505 010a 2E       		.uleb128 0x2e
 4506 010b 01       		.byte	0x1
 4507 010c 03       		.uleb128 0x3
 4508 010d 0E       		.uleb128 0xe
 4509 010e 3A       		.uleb128 0x3a
 4510 010f 0B       		.uleb128 0xb
 4511 0110 3B       		.uleb128 0x3b
 4512 0111 05       		.uleb128 0x5
 4513 0112 27       		.uleb128 0x27
 4514 0113 19       		.uleb128 0x19
 4515 0114 11       		.uleb128 0x11
 4516 0115 01       		.uleb128 0x1
 4517 0116 12       		.uleb128 0x12
 4518 0117 06       		.uleb128 0x6
 4519 0118 40       		.uleb128 0x40
 4520 0119 18       		.uleb128 0x18
 4521 011a 9642     		.uleb128 0x2116
 4522 011c 19       		.uleb128 0x19
 4523 011d 01       		.uleb128 0x1
 4524 011e 13       		.uleb128 0x13
 4525 011f 00       		.byte	0
 4526 0120 00       		.byte	0
 4527 0121 17       		.uleb128 0x17
 4528 0122 34       		.uleb128 0x34
 4529 0123 00       		.byte	0
 4530 0124 03       		.uleb128 0x3
 4531 0125 0E       		.uleb128 0xe
 4532 0126 3A       		.uleb128 0x3a
 4533 0127 0B       		.uleb128 0xb
 4534 0128 3B       		.uleb128 0x3b
 4535 0129 05       		.uleb128 0x5
 4536 012a 49       		.uleb128 0x49
 4537 012b 13       		.uleb128 0x13
 4538 012c 02       		.uleb128 0x2
 4539 012d 18       		.uleb128 0x18
 4540 012e 00       		.byte	0
 4541 012f 00       		.byte	0
ARM GAS  C:\Users\glenn\AppData\Local\Temp\cc934L16.s 			page 110


 4542 0130 18       		.uleb128 0x18
 4543 0131 34       		.uleb128 0x34
 4544 0132 00       		.byte	0
 4545 0133 03       		.uleb128 0x3
 4546 0134 08       		.uleb128 0x8
 4547 0135 3A       		.uleb128 0x3a
 4548 0136 0B       		.uleb128 0xb
 4549 0137 3B       		.uleb128 0x3b
 4550 0138 05       		.uleb128 0x5
 4551 0139 49       		.uleb128 0x49
 4552 013a 13       		.uleb128 0x13
 4553 013b 02       		.uleb128 0x2
 4554 013c 18       		.uleb128 0x18
 4555 013d 00       		.byte	0
 4556 013e 00       		.byte	0
 4557 013f 19       		.uleb128 0x19
 4558 0140 2E       		.uleb128 0x2e
 4559 0141 01       		.byte	0x1
 4560 0142 3F       		.uleb128 0x3f
 4561 0143 19       		.uleb128 0x19
 4562 0144 03       		.uleb128 0x3
 4563 0145 0E       		.uleb128 0xe
 4564 0146 3A       		.uleb128 0x3a
 4565 0147 0B       		.uleb128 0xb
 4566 0148 3B       		.uleb128 0x3b
 4567 0149 05       		.uleb128 0x5
 4568 014a 27       		.uleb128 0x27
 4569 014b 19       		.uleb128 0x19
 4570 014c 11       		.uleb128 0x11
 4571 014d 01       		.uleb128 0x1
 4572 014e 12       		.uleb128 0x12
 4573 014f 06       		.uleb128 0x6
 4574 0150 40       		.uleb128 0x40
 4575 0151 18       		.uleb128 0x18
 4576 0152 9742     		.uleb128 0x2117
 4577 0154 19       		.uleb128 0x19
 4578 0155 01       		.uleb128 0x1
 4579 0156 13       		.uleb128 0x13
 4580 0157 00       		.byte	0
 4581 0158 00       		.byte	0
 4582 0159 1A       		.uleb128 0x1a
 4583 015a 05       		.uleb128 0x5
 4584 015b 00       		.byte	0
 4585 015c 03       		.uleb128 0x3
 4586 015d 0E       		.uleb128 0xe
 4587 015e 3A       		.uleb128 0x3a
 4588 015f 0B       		.uleb128 0xb
 4589 0160 3B       		.uleb128 0x3b
 4590 0161 05       		.uleb128 0x5
 4591 0162 49       		.uleb128 0x49
 4592 0163 13       		.uleb128 0x13
 4593 0164 02       		.uleb128 0x2
 4594 0165 18       		.uleb128 0x18
 4595 0166 00       		.byte	0
 4596 0167 00       		.byte	0
 4597 0168 1B       		.uleb128 0x1b
 4598 0169 2E       		.uleb128 0x2e
ARM GAS  C:\Users\glenn\AppData\Local\Temp\cc934L16.s 			page 111


 4599 016a 01       		.byte	0x1
 4600 016b 3F       		.uleb128 0x3f
 4601 016c 19       		.uleb128 0x19
 4602 016d 03       		.uleb128 0x3
 4603 016e 0E       		.uleb128 0xe
 4604 016f 3A       		.uleb128 0x3a
 4605 0170 0B       		.uleb128 0xb
 4606 0171 3B       		.uleb128 0x3b
 4607 0172 05       		.uleb128 0x5
 4608 0173 27       		.uleb128 0x27
 4609 0174 19       		.uleb128 0x19
 4610 0175 11       		.uleb128 0x11
 4611 0176 01       		.uleb128 0x1
 4612 0177 12       		.uleb128 0x12
 4613 0178 06       		.uleb128 0x6
 4614 0179 40       		.uleb128 0x40
 4615 017a 18       		.uleb128 0x18
 4616 017b 9642     		.uleb128 0x2116
 4617 017d 19       		.uleb128 0x19
 4618 017e 01       		.uleb128 0x1
 4619 017f 13       		.uleb128 0x13
 4620 0180 00       		.byte	0
 4621 0181 00       		.byte	0
 4622 0182 1C       		.uleb128 0x1c
 4623 0183 13       		.uleb128 0x13
 4624 0184 01       		.byte	0x1
 4625 0185 0B       		.uleb128 0xb
 4626 0186 0B       		.uleb128 0xb
 4627 0187 3A       		.uleb128 0x3a
 4628 0188 0B       		.uleb128 0xb
 4629 0189 3B       		.uleb128 0x3b
 4630 018a 05       		.uleb128 0x5
 4631 018b 01       		.uleb128 0x1
 4632 018c 13       		.uleb128 0x13
 4633 018d 00       		.byte	0
 4634 018e 00       		.byte	0
 4635 018f 1D       		.uleb128 0x1d
 4636 0190 0D       		.uleb128 0xd
 4637 0191 00       		.byte	0
 4638 0192 03       		.uleb128 0x3
 4639 0193 0E       		.uleb128 0xe
 4640 0194 3A       		.uleb128 0x3a
 4641 0195 0B       		.uleb128 0xb
 4642 0196 3B       		.uleb128 0x3b
 4643 0197 05       		.uleb128 0x5
 4644 0198 49       		.uleb128 0x49
 4645 0199 13       		.uleb128 0x13
 4646 019a 38       		.uleb128 0x38
 4647 019b 0B       		.uleb128 0xb
 4648 019c 00       		.byte	0
 4649 019d 00       		.byte	0
 4650 019e 1E       		.uleb128 0x1e
 4651 019f 21       		.uleb128 0x21
 4652 01a0 00       		.byte	0
 4653 01a1 49       		.uleb128 0x49
 4654 01a2 13       		.uleb128 0x13
 4655 01a3 2F       		.uleb128 0x2f
ARM GAS  C:\Users\glenn\AppData\Local\Temp\cc934L16.s 			page 112


 4656 01a4 05       		.uleb128 0x5
 4657 01a5 00       		.byte	0
 4658 01a6 00       		.byte	0
 4659 01a7 1F       		.uleb128 0x1f
 4660 01a8 34       		.uleb128 0x34
 4661 01a9 00       		.byte	0
 4662 01aa 03       		.uleb128 0x3
 4663 01ab 0E       		.uleb128 0xe
 4664 01ac 3A       		.uleb128 0x3a
 4665 01ad 0B       		.uleb128 0xb
 4666 01ae 3B       		.uleb128 0x3b
 4667 01af 05       		.uleb128 0x5
 4668 01b0 49       		.uleb128 0x49
 4669 01b1 13       		.uleb128 0x13
 4670 01b2 3F       		.uleb128 0x3f
 4671 01b3 19       		.uleb128 0x19
 4672 01b4 02       		.uleb128 0x2
 4673 01b5 18       		.uleb128 0x18
 4674 01b6 00       		.byte	0
 4675 01b7 00       		.byte	0
 4676 01b8 00       		.byte	0
 4677              		.section	.debug_aranges,"",%progbits
 4678 0000 7C000000 		.4byte	0x7c
 4679 0004 0200     		.2byte	0x2
 4680 0006 00000000 		.4byte	.Ldebug_info0
 4681 000a 04       		.byte	0x4
 4682 000b 00       		.byte	0
 4683 000c 0000     		.2byte	0
 4684 000e 0000     		.2byte	0
 4685 0010 00000000 		.4byte	.LFB0
 4686 0014 1A000000 		.4byte	.LFE0-.LFB0
 4687 0018 00000000 		.4byte	.LFB1
 4688 001c 1C000000 		.4byte	.LFE1-.LFB1
 4689 0020 00000000 		.4byte	.LFB2
 4690 0024 1C000000 		.4byte	.LFE2-.LFB2
 4691 0028 00000000 		.4byte	.LFB3
 4692 002c 0C000000 		.4byte	.LFE3-.LFB3
 4693 0030 00000000 		.4byte	.LFB4
 4694 0034 74000000 		.4byte	.LFE4-.LFB4
 4695 0038 00000000 		.4byte	.LFB5
 4696 003c 28020000 		.4byte	.LFE5-.LFB5
 4697 0040 00000000 		.4byte	.LFB6
 4698 0044 B8000000 		.4byte	.LFE6-.LFB6
 4699 0048 00000000 		.4byte	.LFB7
 4700 004c 3C000000 		.4byte	.LFE7-.LFB7
 4701 0050 00000000 		.4byte	.LFB8
 4702 0054 6C000000 		.4byte	.LFE8-.LFB8
 4703 0058 00000000 		.4byte	.LFB9
 4704 005c 74000000 		.4byte	.LFE9-.LFB9
 4705 0060 00000000 		.4byte	.LFB10
 4706 0064 40000000 		.4byte	.LFE10-.LFB10
 4707 0068 00000000 		.4byte	.LFB11
 4708 006c 44000000 		.4byte	.LFE11-.LFB11
 4709 0070 00000000 		.4byte	.LFB12
 4710 0074 7C010000 		.4byte	.LFE12-.LFB12
 4711 0078 00000000 		.4byte	0
 4712 007c 00000000 		.4byte	0
ARM GAS  C:\Users\glenn\AppData\Local\Temp\cc934L16.s 			page 113


 4713              		.section	.debug_ranges,"",%progbits
 4714              	.Ldebug_ranges0:
 4715 0000 00000000 		.4byte	.LFB0
 4716 0004 1A000000 		.4byte	.LFE0
 4717 0008 00000000 		.4byte	.LFB1
 4718 000c 1C000000 		.4byte	.LFE1
 4719 0010 00000000 		.4byte	.LFB2
 4720 0014 1C000000 		.4byte	.LFE2
 4721 0018 00000000 		.4byte	.LFB3
 4722 001c 0C000000 		.4byte	.LFE3
 4723 0020 00000000 		.4byte	.LFB4
 4724 0024 74000000 		.4byte	.LFE4
 4725 0028 00000000 		.4byte	.LFB5
 4726 002c 28020000 		.4byte	.LFE5
 4727 0030 00000000 		.4byte	.LFB6
 4728 0034 B8000000 		.4byte	.LFE6
 4729 0038 00000000 		.4byte	.LFB7
 4730 003c 3C000000 		.4byte	.LFE7
 4731 0040 00000000 		.4byte	.LFB8
 4732 0044 6C000000 		.4byte	.LFE8
 4733 0048 00000000 		.4byte	.LFB9
 4734 004c 74000000 		.4byte	.LFE9
 4735 0050 00000000 		.4byte	.LFB10
 4736 0054 40000000 		.4byte	.LFE10
 4737 0058 00000000 		.4byte	.LFB11
 4738 005c 44000000 		.4byte	.LFE11
 4739 0060 00000000 		.4byte	.LFB12
 4740 0064 7C010000 		.4byte	.LFE12
 4741 0068 00000000 		.4byte	0
 4742 006c 00000000 		.4byte	0
 4743              		.section	.debug_line,"",%progbits
 4744              	.Ldebug_line0:
 4745 0000 86020000 		.section	.debug_str,"MS",%progbits,1
 4745      0200CD00 
 4745      00000201 
 4745      FB0E0D00 
 4745      01010101 
 4746              	.LASF13:
 4747 0000 75696E74 		.ascii	"uint16\000"
 4747      313600
 4748              	.LASF45:
 4749 0007 53696E6B 		.ascii	"Sink_Source_Setup_Unset\000"
 4749      5F536F75 
 4749      7263655F 
 4749      53657475 
 4749      705F556E 
 4750              	.LASF31:
 4751 001f 62617365 		.ascii	"baseAddr\000"
 4751      41646472 
 4751      00
 4752              	.LASF11:
 4753 0028 73697A65 		.ascii	"size_t\000"
 4753      5F7400
 4754              	.LASF26:
 4755 002f 4379436C 		.ascii	"CyClockStartupError\000"
 4755      6F636B53 
 4755      74617274 
ARM GAS  C:\Users\glenn\AppData\Local\Temp\cc934L16.s 			page 114


 4755      75704572 
 4755      726F7200 
 4756              	.LASF64:
 4757 0043 5349474D 		.ascii	"SIGMA_A_D_AMux__maskTable\000"
 4757      415F415F 
 4757      445F414D 
 4757      75785F5F 
 4757      6D61736B 
 4758              	.LASF30:
 4759 005d 64617461 		.ascii	"data_table\000"
 4759      5F746162 
 4759      6C6500
 4760              	.LASF8:
 4761 0068 6C6F6E67 		.ascii	"long long unsigned int\000"
 4761      206C6F6E 
 4761      6720756E 
 4761      7369676E 
 4761      65642069 
 4762              	.LASF29:
 4763 007f 61646472 		.ascii	"addr_table\000"
 4763      5F746162 
 4763      6C6500
 4764              	.LASF56:
 4765 008a 63795F63 		.ascii	"cy_cfg_data_table\000"
 4765      66675F64 
 4765      6174615F 
 4765      7461626C 
 4765      6500
 4766              	.LASF34:
 4767 009c 42535F43 		.ascii	"BS_CYDEV_CLKDIST_ACFG0_CFG0_VAL\000"
 4767      59444556 
 4767      5F434C4B 
 4767      44495354 
 4767      5F414346 
 4768              	.LASF38:
 4769 00bc 416E616C 		.ascii	"AnalogSetDefault\000"
 4769      6F675365 
 4769      74446566 
 4769      61756C74 
 4769      00
 4770              	.LASF7:
 4771 00cd 6C6F6E67 		.ascii	"long long int\000"
 4771      206C6F6E 
 4771      6720696E 
 4771      7400
 4772              	.LASF1:
 4773 00db 7369676E 		.ascii	"signed char\000"
 4773      65642063 
 4773      68617200 
 4774              	.LASF55:
 4775 00e7 63795F63 		.ascii	"cy_cfg_addr_table\000"
 4775      66675F61 
 4775      6464725F 
 4775      7461626C 
 4775      6500
 4776              	.LASF22:
 4777 00f9 43594D45 		.ascii	"CYMEMZERO\000"
ARM GAS  C:\Users\glenn\AppData\Local\Temp\cc934L16.s 			page 115


 4777      4D5A4552 
 4777      4F00
 4778              	.LASF33:
 4779 0103 436C6F63 		.ascii	"ClockSetup\000"
 4779      6B536574 
 4779      757000
 4780              	.LASF27:
 4781 010e 6572726F 		.ascii	"errorCode\000"
 4781      72436F64 
 4781      6500
 4782              	.LASF5:
 4783 0118 6C6F6E67 		.ascii	"long int\000"
 4783      20696E74 
 4783      00
 4784              	.LASF18:
 4785 0121 72656731 		.ascii	"reg16\000"
 4785      3600
 4786              	.LASF12:
 4787 0127 75696E74 		.ascii	"uint8\000"
 4787      3800
 4788              	.LASF16:
 4789 012d 646F7562 		.ascii	"double\000"
 4789      6C6500
 4790              	.LASF14:
 4791 0134 75696E74 		.ascii	"uint32\000"
 4791      333200
 4792              	.LASF32:
 4793 013b 636F756E 		.ascii	"count\000"
 4793      7400
 4794              	.LASF41:
 4795 0141 72656756 		.ascii	"regValue\000"
 4795      616C7565 
 4795      00
 4796              	.LASF35:
 4797 014a 78333254 		.ascii	"x32TrHold\000"
 4797      72486F6C 
 4797      6400
 4798              	.LASF20:
 4799 0154 76616C75 		.ascii	"value\000"
 4799      6500
 4800              	.LASF0:
 4801 015a 756E7369 		.ascii	"unsigned int\000"
 4801      676E6564 
 4801      20696E74 
 4801      00
 4802              	.LASF66:
 4803 0167 2E5C4765 		.ascii	".\\Generated_Source\\PSoC5\\cyfitter_cfg.c\000"
 4803      6E657261 
 4803      7465645F 
 4803      536F7572 
 4803      63655C50 
 4804              	.LASF6:
 4805 018f 6C6F6E67 		.ascii	"long unsigned int\000"
 4805      20756E73 
 4805      69676E65 
 4805      6420696E 
 4805      7400
ARM GAS  C:\Users\glenn\AppData\Local\Temp\cc934L16.s 			page 116


 4806              	.LASF36:
 4807 01a1 74696D65 		.ascii	"timeout\000"
 4807      6F757400 
 4808              	.LASF28:
 4809 01a9 6366675F 		.ascii	"cfg_write_bytes32\000"
 4809      77726974 
 4809      655F6279 
 4809      74657333 
 4809      3200
 4810              	.LASF58:
 4811 01bb 73697A65 		.ascii	"size\000"
 4811      00
 4812              	.LASF4:
 4813 01c0 73686F72 		.ascii	"short unsigned int\000"
 4813      7420756E 
 4813      7369676E 
 4813      65642069 
 4813      6E7400
 4814              	.LASF47:
 4815 01d3 5349474D 		.ascii	"SIGMA_A_D_AMux_Unset\000"
 4815      415F415F 
 4815      445F414D 
 4815      75785F55 
 4815      6E736574 
 4816              	.LASF67:
 4817 01e8 433A5C55 		.ascii	"C:\\Users\\glenn\\OneDrive\\PSOC\\moisture_sensor\\"
 4817      73657273 
 4817      5C676C65 
 4817      6E6E5C4F 
 4817      6E654472 
 4818 0215 5553425F 		.ascii	"USB_UART01.cydsn\000"
 4818      55415254 
 4818      30312E63 
 4818      7964736E 
 4818      00
 4819              	.LASF25:
 4820 0226 4359434F 		.ascii	"CYCONFIGCPYCODE\000"
 4820      4E464947 
 4820      43505943 
 4820      4F444500 
 4821              	.LASF9:
 4822 0236 73697A65 		.ascii	"sizetype\000"
 4822      74797065 
 4822      00
 4823              	.LASF39:
 4824 023f 62675F78 		.ascii	"bg_xover_inl_trim\000"
 4824      6F766572 
 4824      5F696E6C 
 4824      5F747269 
 4824      6D00
 4825              	.LASF59:
 4826 0251 6366675F 		.ascii	"cfg_memset_t\000"
 4826      6D656D73 
 4826      65745F74 
 4826      00
 4827              	.LASF65:
 4828 025e 474E5520 		.ascii	"GNU C 4.9.3 20150303 (release) [ARM/embedded-4_9-br"
ARM GAS  C:\Users\glenn\AppData\Local\Temp\cc934L16.s 			page 117


 4828      4320342E 
 4828      392E3320 
 4828      32303135 
 4828      30333033 
 4829 0291 616E6368 		.ascii	"anch revision 221220] -mcpu=cortex-m3 -mthumb -g -O"
 4829      20726576 
 4829      6973696F 
 4829      6E203232 
 4829      31323230 
 4830 02c4 30202D66 		.ascii	"0 -ffunction-sections -ffat-lto-objects\000"
 4830      66756E63 
 4830      74696F6E 
 4830      2D736563 
 4830      74696F6E 
 4831              	.LASF60:
 4832 02ec 6366675F 		.ascii	"cfg_memset_list\000"
 4832      6D656D73 
 4832      65745F6C 
 4832      69737400 
 4833              	.LASF53:
 4834 02fc 42535F49 		.ascii	"BS_IOPINS0_3_VAL\000"
 4834      4F50494E 
 4834      53305F33 
 4834      5F56414C 
 4834      00
 4835              	.LASF24:
 4836 030d 64657374 		.ascii	"dest\000"
 4836      00
 4837              	.LASF15:
 4838 0312 666C6F61 		.ascii	"float\000"
 4838      7400
 4839              	.LASF17:
 4840 0318 72656738 		.ascii	"reg8\000"
 4840      00
 4841              	.LASF2:
 4842 031d 756E7369 		.ascii	"unsigned char\000"
 4842      676E6564 
 4842      20636861 
 4842      7200
 4843              	.LASF3:
 4844 032b 73686F72 		.ascii	"short int\000"
 4844      7420696E 
 4844      7400
 4845              	.LASF49:
 4846 0335 42535F49 		.ascii	"BS_IOPINS0_0_VAL\000"
 4846      4F50494E 
 4846      53305F30 
 4846      5F56414C 
 4846      00
 4847              	.LASF37:
 4848 0346 706C6C4C 		.ascii	"pllLock\000"
 4848      6F636B00 
 4849              	.LASF50:
 4850 034e 42535F49 		.ascii	"BS_IOPINS0_8_VAL\000"
 4850      4F50494E 
 4850      53305F38 
 4850      5F56414C 
ARM GAS  C:\Users\glenn\AppData\Local\Temp\cc934L16.s 			page 118


 4850      00
 4851              	.LASF44:
 4852 035f 6368616E 		.ascii	"channel\000"
 4852      6E656C00 
 4853              	.LASF21:
 4854 0367 63795F63 		.ascii	"cy_cfg_addrvalue_t\000"
 4854      66675F61 
 4854      64647276 
 4854      616C7565 
 4854      5F7400
 4855              	.LASF54:
 4856 037a 42535F50 		.ascii	"BS_PHUB_CFGMEM1_VAL\000"
 4856      4855425F 
 4856      4346474D 
 4856      454D315F 
 4856      56414C00 
 4857              	.LASF10:
 4858 038e 63686172 		.ascii	"char\000"
 4858      00
 4859              	.LASF51:
 4860 0393 42535F49 		.ascii	"BS_IOPINS0_1_VAL\000"
 4860      4F50494E 
 4860      53305F31 
 4860      5F56414C 
 4860      00
 4861              	.LASF46:
 4862 03a4 5349474D 		.ascii	"SIGMA_A_D_AMux_Set\000"
 4862      415F415F 
 4862      445F414D 
 4862      75785F53 
 4862      657400
 4863              	.LASF42:
 4864 03b7 53657441 		.ascii	"SetAnalogRoutingPumps\000"
 4864      6E616C6F 
 4864      67526F75 
 4864      74696E67 
 4864      50756D70 
 4865              	.LASF63:
 4866 03cd 5349474D 		.ascii	"SIGMA_A_D_AMux__addrTable\000"
 4866      415F415F 
 4866      445F414D 
 4866      75785F5F 
 4866      61646472 
 4867              	.LASF19:
 4868 03e7 6F666673 		.ascii	"offset\000"
 4868      657400
 4869              	.LASF62:
 4870 03ee 53696E6B 		.ascii	"Sink_Source_Setup__maskTable\000"
 4870      5F536F75 
 4870      7263655F 
 4870      53657475 
 4870      705F5F6D 
 4871              	.LASF40:
 4872 040b 656E6162 		.ascii	"enabled\000"
 4872      6C656400 
 4873              	.LASF43:
 4874 0413 53696E6B 		.ascii	"Sink_Source_Setup_Set\000"
ARM GAS  C:\Users\glenn\AppData\Local\Temp\cc934L16.s 			page 119


 4874      5F536F75 
 4874      7263655F 
 4874      53657475 
 4874      705F5365 
 4875              	.LASF61:
 4876 0429 53696E6B 		.ascii	"Sink_Source_Setup__addrTable\000"
 4876      5F536F75 
 4876      7263655F 
 4876      53657475 
 4876      705F5F61 
 4877              	.LASF23:
 4878 0446 4359434F 		.ascii	"CYCONFIGCPY\000"
 4878      4E464947 
 4878      43505900 
 4879              	.LASF57:
 4880 0452 61646472 		.ascii	"address\000"
 4880      65737300 
 4881              	.LASF52:
 4882 045a 42535F49 		.ascii	"BS_IOPINS0_2_VAL\000"
 4882      4F50494E 
 4882      53305F32 
 4882      5F56414C 
 4882      00
 4883              	.LASF48:
 4884 046b 63796669 		.ascii	"cyfitter_cfg\000"
 4884      74746572 
 4884      5F636667 
 4884      00
 4885              		.ident	"GCC: (GNU Tools for ARM Embedded Processors) 4.9.3 20150303 (release) [ARM/embedded-4_9-br
