ARM GAS  C:\Users\glenn\AppData\Local\Temp\cc3aCocM.s 			page 1


   1              		.syntax unified
   2              		.cpu cortex-m3
   3              		.fpu softvfp
   4              		.eabi_attribute 20, 1
   5              		.eabi_attribute 21, 1
   6              		.eabi_attribute 23, 3
   7              		.eabi_attribute 24, 1
   8              		.eabi_attribute 25, 1
   9              		.eabi_attribute 26, 1
  10              		.eabi_attribute 30, 6
  11              		.eabi_attribute 34, 1
  12              		.eabi_attribute 18, 4
  13              		.thumb
  14              		.file	"digitial_io.c"
  15              		.text
  16              	.Ltext0:
  17              		.cfi_sections	.debug_frame
  18              		.section	.text.read_board_switch,"ax",%progbits
  19              		.align	2
  20              		.global	read_board_switch
  21              		.thumb
  22              		.thumb_func
  23              		.type	read_board_switch, %function
  24              	read_board_switch:
  25              	.LFB63:
  26              		.file 1 ".\\utilities\\digitial_io.c"
   1:.\utilities/digitial_io.c **** /*
   2:.\utilities/digitial_io.c **** File: digital_io.c
   3:.\utilities/digitial_io.c **** 
   4:.\utilities/digitial_io.c **** Digital functions
   5:.\utilities/digitial_io.c **** 
   6:.\utilities/digitial_io.c **** */
   7:.\utilities/digitial_io.c **** 
   8:.\utilities/digitial_io.c ****     
   9:.\utilities/digitial_io.c **** #include <device.h>
  10:.\utilities/digitial_io.c ****  
  11:.\utilities/digitial_io.c **** // Masks for debounced pins
  12:.\utilities/digitial_io.c **** #define LOG_PIN    1
  13:.\utilities/digitial_io.c **** #define BOARD_PIN  2
  14:.\utilities/digitial_io.c **** #define ACTIVE_PIN 4
  15:.\utilities/digitial_io.c **** 
  16:.\utilities/digitial_io.c **** 
  17:.\utilities/digitial_io.c **** 
  18:.\utilities/digitial_io.c **** uint32 read_board_switch( void )
  19:.\utilities/digitial_io.c **** {
  27              		.loc 1 19 0
  28              		.cfi_startproc
  29              		@ args = 0, pretend = 0, frame = 0
  30              		@ frame_needed = 1, uses_anonymous_args = 0
  31 0000 80B5     		push	{r7, lr}
  32              		.cfi_def_cfa_offset 8
  33              		.cfi_offset 7, -8
  34              		.cfi_offset 14, -4
  35 0002 00AF     		add	r7, sp, #0
  36              		.cfi_def_cfa_register 7
  20:.\utilities/digitial_io.c ****    return Status_Reg_1_Read()&BOARD_PIN; 
  37              		.loc 1 20 0
ARM GAS  C:\Users\glenn\AppData\Local\Temp\cc3aCocM.s 			page 2


  38 0004 FFF7FEFF 		bl	Status_Reg_1_Read
  39 0008 0346     		mov	r3, r0
  40 000a 03F00203 		and	r3, r3, #2
  21:.\utilities/digitial_io.c **** }
  41              		.loc 1 21 0
  42 000e 1846     		mov	r0, r3
  43 0010 80BD     		pop	{r7, pc}
  44              		.cfi_endproc
  45              	.LFE63:
  46              		.size	read_board_switch, .-read_board_switch
  47 0012 00BF     		.section	.text.read_log_pin,"ax",%progbits
  48              		.align	2
  49              		.global	read_log_pin
  50              		.thumb
  51              		.thumb_func
  52              		.type	read_log_pin, %function
  53              	read_log_pin:
  54              	.LFB64:
  22:.\utilities/digitial_io.c **** 
  23:.\utilities/digitial_io.c **** uint32 read_log_pin( void )
  24:.\utilities/digitial_io.c **** {
  55              		.loc 1 24 0
  56              		.cfi_startproc
  57              		@ args = 0, pretend = 0, frame = 0
  58              		@ frame_needed = 1, uses_anonymous_args = 0
  59 0000 80B5     		push	{r7, lr}
  60              		.cfi_def_cfa_offset 8
  61              		.cfi_offset 7, -8
  62              		.cfi_offset 14, -4
  63 0002 00AF     		add	r7, sp, #0
  64              		.cfi_def_cfa_register 7
  25:.\utilities/digitial_io.c ****     return Status_Reg_1_Read()&LOG_PIN;
  65              		.loc 1 25 0
  66 0004 FFF7FEFF 		bl	Status_Reg_1_Read
  67 0008 0346     		mov	r3, r0
  68 000a 03F00103 		and	r3, r3, #1
  26:.\utilities/digitial_io.c **** }
  69              		.loc 1 26 0
  70 000e 1846     		mov	r0, r3
  71 0010 80BD     		pop	{r7, pc}
  72              		.cfi_endproc
  73              	.LFE64:
  74              		.size	read_log_pin, .-read_log_pin
  75 0012 00BF     		.section	.text.read_active_pin,"ax",%progbits
  76              		.align	2
  77              		.global	read_active_pin
  78              		.thumb
  79              		.thumb_func
  80              		.type	read_active_pin, %function
  81              	read_active_pin:
  82              	.LFB65:
  27:.\utilities/digitial_io.c **** 
  28:.\utilities/digitial_io.c **** 
  29:.\utilities/digitial_io.c **** uint32 read_active_pin( void )
  30:.\utilities/digitial_io.c **** {
  83              		.loc 1 30 0
  84              		.cfi_startproc
ARM GAS  C:\Users\glenn\AppData\Local\Temp\cc3aCocM.s 			page 3


  85              		@ args = 0, pretend = 0, frame = 0
  86              		@ frame_needed = 1, uses_anonymous_args = 0
  87 0000 80B5     		push	{r7, lr}
  88              		.cfi_def_cfa_offset 8
  89              		.cfi_offset 7, -8
  90              		.cfi_offset 14, -4
  91 0002 00AF     		add	r7, sp, #0
  92              		.cfi_def_cfa_register 7
  31:.\utilities/digitial_io.c ****     return Status_Reg_1_Read()&ACTIVE_PIN;
  93              		.loc 1 31 0
  94 0004 FFF7FEFF 		bl	Status_Reg_1_Read
  95 0008 0346     		mov	r3, r0
  96 000a 03F00403 		and	r3, r3, #4
  32:.\utilities/digitial_io.c **** }
  97              		.loc 1 32 0
  98 000e 1846     		mov	r0, r3
  99 0010 80BD     		pop	{r7, pc}
 100              		.cfi_endproc
 101              	.LFE65:
 102              		.size	read_active_pin, .-read_active_pin
 103 0012 00BF     		.text
 104              	.Letext0:
 105              		.file 2 "c:\\program files (x86)\\cypress\\psoc creator\\3.3\\psoc creator\\import\\gnu\\arm\\4.9.
 106              		.file 3 "c:\\program files (x86)\\cypress\\psoc creator\\3.3\\psoc creator\\import\\gnu\\arm\\4.9.
 107              		.file 4 "Generated_Source\\PSoC5/cytypes.h"
 108              		.file 5 "Generated_Source\\PSoC5/core_cm3.h"