ARM GAS  C:\Users\glenn\AppData\Local\Temp\cckwlxf3.s 			page 1


   1              		.syntax unified
   2              		.cpu cortex-m3
   3              		.fpu softvfp
   4              		.eabi_attribute 20, 1
   5              		.eabi_attribute 21, 1
   6              		.eabi_attribute 23, 3
   7              		.eabi_attribute 24, 1
   8              		.eabi_attribute 25, 1
   9              		.eabi_attribute 26, 1
  10              		.eabi_attribute 30, 6
  11              		.eabi_attribute 34, 1
  12              		.eabi_attribute 18, 4
  13              		.thumb
  14              		.file	"event_fifo.c"
  15              		.text
  16              	.Ltext0:
  17              		.cfi_sections	.debug_frame
  18              		.comm	queue_structure,76,4
  19              		.section	.text.EF_initialize,"ax",%progbits
  20              		.align	2
  21              		.global	EF_initialize
  22              		.thumb
  23              		.thumb_func
  24              		.type	EF_initialize, %function
  25              	EF_initialize:
  26              	.LFB63:
  27              		.file 1 ".\\event_fifo\\event_fifo.c"
   1:.\event_fifo/event_fifo.c **** /*
   2:.\event_fifo/event_fifo.c **** **
   3:.\event_fifo/event_fifo.c **** **
   4:.\event_fifo/event_fifo.c **** ** File: event_fifo.c
   5:.\event_fifo/event_fifo.c **** **
   6:.\event_fifo/event_fifo.c **** **
   7:.\event_fifo/event_fifo.c **** **
   8:.\event_fifo/event_fifo.c **** **
   9:.\event_fifo/event_fifo.c **** */
  10:.\event_fifo/event_fifo.c **** 
  11:.\event_fifo/event_fifo.c **** #include <assert.h>
  12:.\event_fifo/event_fifo.c **** #include <device.h>
  13:.\event_fifo/event_fifo.c **** #include "sigma_mux.h"
  14:.\event_fifo/event_fifo.c **** 
  15:.\event_fifo/event_fifo.c **** #include "event_fifo.h"
  16:.\event_fifo/event_fifo.c **** 
  17:.\event_fifo/event_fifo.c **** 
  18:.\event_fifo/event_fifo.c **** #define NUMBER_OF_QUEUES  1
  19:.\event_fifo/event_fifo.c **** // QUEUE number must be a multiple of 2
  20:.\event_fifo/event_fifo.c **** #define QUEUE_NUMBER 16  
  21:.\event_fifo/event_fifo.c **** #define QUEUE_MASK   15
  22:.\event_fifo/event_fifo.c **** 
  23:.\event_fifo/event_fifo.c **** typedef struct
  24:.\event_fifo/event_fifo.c **** {
  25:.\event_fifo/event_fifo.c ****     uint16 event;
  26:.\event_fifo/event_fifo.c ****     uint16 data;
  27:.\event_fifo/event_fifo.c ****     
  28:.\event_fifo/event_fifo.c **** }QUEUE_DATA;
  29:.\event_fifo/event_fifo.c **** 
  30:.\event_fifo/event_fifo.c **** typedef struct
ARM GAS  C:\Users\glenn\AppData\Local\Temp\cckwlxf3.s 			page 2


  31:.\event_fifo/event_fifo.c **** {
  32:.\event_fifo/event_fifo.c ****     int number;
  33:.\event_fifo/event_fifo.c ****     int read_index;
  34:.\event_fifo/event_fifo.c ****     int write_index;
  35:.\event_fifo/event_fifo.c ****     QUEUE_DATA queue_data[ QUEUE_NUMBER ];
  36:.\event_fifo/event_fifo.c **** }QUEUE_STRUCTURE;
  37:.\event_fifo/event_fifo.c **** 
  38:.\event_fifo/event_fifo.c **** QUEUE_STRUCTURE queue_structure[NUMBER_OF_QUEUES];
  39:.\event_fifo/event_fifo.c **** 
  40:.\event_fifo/event_fifo.c **** void EF_initialize( void )
  41:.\event_fifo/event_fifo.c **** {
  28              		.loc 1 41 0
  29              		.cfi_startproc
  30              		@ args = 0, pretend = 0, frame = 0
  31              		@ frame_needed = 1, uses_anonymous_args = 0
  32 0000 80B5     		push	{r7, lr}
  33              		.cfi_def_cfa_offset 8
  34              		.cfi_offset 7, -8
  35              		.cfi_offset 14, -4
  36 0002 00AF     		add	r7, sp, #0
  37              		.cfi_def_cfa_register 7
  42:.\event_fifo/event_fifo.c ****     memset( queue_structure, 0, sizeof(queue_structure ));
  38              		.loc 1 42 0
  39 0004 0548     		ldr	r0, .L2
  40 0006 0021     		movs	r1, #0
  41 0008 4C22     		movs	r2, #76
  42 000a FFF7FEFF 		bl	memset
  43:.\event_fifo/event_fifo.c ****     // add in start up event
  44:.\event_fifo/event_fifo.c ****     EF_enqueue_elemement( 0, EVENTS_SYSTEM_REBOOT, 0 );
  43              		.loc 1 44 0
  44 000e 0020     		movs	r0, #0
  45 0010 0021     		movs	r1, #0
  46 0012 0022     		movs	r2, #0
  47 0014 FFF7FEFF 		bl	EF_enqueue_elemement
  45:.\event_fifo/event_fifo.c **** }
  48              		.loc 1 45 0
  49 0018 80BD     		pop	{r7, pc}
  50              	.L3:
  51 001a 00BF     		.align	2
  52              	.L2:
  53 001c 00000000 		.word	queue_structure
  54              		.cfi_endproc
  55              	.LFE63:
  56              		.size	EF_initialize, .-EF_initialize
  57              		.section	.text.EF_number_of_queues,"ax",%progbits
  58              		.align	2
  59              		.global	EF_number_of_queues
  60              		.thumb
  61              		.thumb_func
  62              		.type	EF_number_of_queues, %function
  63              	EF_number_of_queues:
  64              	.LFB64:
  46:.\event_fifo/event_fifo.c **** 
  47:.\event_fifo/event_fifo.c **** unsigned EF_number_of_queues( void )
  48:.\event_fifo/event_fifo.c **** {
  65              		.loc 1 48 0
  66              		.cfi_startproc
ARM GAS  C:\Users\glenn\AppData\Local\Temp\cckwlxf3.s 			page 3


  67              		@ args = 0, pretend = 0, frame = 0
  68              		@ frame_needed = 1, uses_anonymous_args = 0
  69              		@ link register save eliminated.
  70 0000 80B4     		push	{r7}
  71              		.cfi_def_cfa_offset 4
  72              		.cfi_offset 7, -4
  73 0002 00AF     		add	r7, sp, #0
  74              		.cfi_def_cfa_register 7
  49:.\event_fifo/event_fifo.c ****     return NUMBER_OF_QUEUES;
  75              		.loc 1 49 0
  76 0004 0123     		movs	r3, #1
  50:.\event_fifo/event_fifo.c **** }
  77              		.loc 1 50 0
  78 0006 1846     		mov	r0, r3
  79 0008 BD46     		mov	sp, r7
  80              		.cfi_def_cfa_register 13
  81              		@ sp needed
  82 000a 5DF8047B 		ldr	r7, [sp], #4
  83              		.cfi_restore 7
  84              		.cfi_def_cfa_offset 0
  85 000e 7047     		bx	lr
  86              		.cfi_endproc
  87              	.LFE64:
  88              		.size	EF_number_of_queues, .-EF_number_of_queues
  89              		.section	.text.EF_elements_in_queue,"ax",%progbits
  90              		.align	2
  91              		.global	EF_elements_in_queue
  92              		.thumb
  93              		.thumb_func
  94              		.type	EF_elements_in_queue, %function
  95              	EF_elements_in_queue:
  96              	.LFB65:
  51:.\event_fifo/event_fifo.c **** 
  52:.\event_fifo/event_fifo.c **** int EF_elements_in_queue( unsigned queue_id )
  53:.\event_fifo/event_fifo.c **** {
  97              		.loc 1 53 0
  98              		.cfi_startproc
  99              		@ args = 0, pretend = 0, frame = 8
 100              		@ frame_needed = 1, uses_anonymous_args = 0
 101              		@ link register save eliminated.
 102 0000 80B4     		push	{r7}
 103              		.cfi_def_cfa_offset 4
 104              		.cfi_offset 7, -4
 105 0002 83B0     		sub	sp, sp, #12
 106              		.cfi_def_cfa_offset 16
 107 0004 00AF     		add	r7, sp, #0
 108              		.cfi_def_cfa_register 7
 109 0006 7860     		str	r0, [r7, #4]
  54:.\event_fifo/event_fifo.c ****     if( queue_id < NUMBER_OF_QUEUES )
 110              		.loc 1 54 0
 111 0008 7B68     		ldr	r3, [r7, #4]
 112 000a 002B     		cmp	r3, #0
 113 000c 07D1     		bne	.L7
  55:.\event_fifo/event_fifo.c ****     {
  56:.\event_fifo/event_fifo.c ****         return queue_structure[queue_id].number;
 114              		.loc 1 56 0
 115 000e 084A     		ldr	r2, .L9
ARM GAS  C:\Users\glenn\AppData\Local\Temp\cckwlxf3.s 			page 4


 116 0010 7B68     		ldr	r3, [r7, #4]
 117 0012 4C21     		movs	r1, #76
 118 0014 01FB03F3 		mul	r3, r1, r3
 119 0018 1344     		add	r3, r3, r2
 120 001a 1B68     		ldr	r3, [r3]
 121 001c 01E0     		b	.L8
 122              	.L7:
  57:.\event_fifo/event_fifo.c ****     }
  58:.\event_fifo/event_fifo.c ****     return -1;  
 123              		.loc 1 58 0
 124 001e 4FF0FF33 		mov	r3, #-1
 125              	.L8:
  59:.\event_fifo/event_fifo.c **** }
 126              		.loc 1 59 0
 127 0022 1846     		mov	r0, r3
 128 0024 0C37     		adds	r7, r7, #12
 129              		.cfi_def_cfa_offset 4
 130 0026 BD46     		mov	sp, r7
 131              		.cfi_def_cfa_register 13
 132              		@ sp needed
 133 0028 5DF8047B 		ldr	r7, [sp], #4
 134              		.cfi_restore 7
 135              		.cfi_def_cfa_offset 0
 136 002c 7047     		bx	lr
 137              	.L10:
 138 002e 00BF     		.align	2
 139              	.L9:
 140 0030 00000000 		.word	queue_structure
 141              		.cfi_endproc
 142              	.LFE65:
 143              		.size	EF_elements_in_queue, .-EF_elements_in_queue
 144              		.section	.text.EF_enqueue_elemement,"ax",%progbits
 145              		.align	2
 146              		.global	EF_enqueue_elemement
 147              		.thumb
 148              		.thumb_func
 149              		.type	EF_enqueue_elemement, %function
 150              	EF_enqueue_elemement:
 151              	.LFB66:
  60:.\event_fifo/event_fifo.c ****     
  61:.\event_fifo/event_fifo.c **** // returns number of elements in queue -1 means bad queue_id
  62:.\event_fifo/event_fifo.c **** int  EF_enqueue_elemement( unsigned queue_id, uint16 event_id, uint16 event_data )
  63:.\event_fifo/event_fifo.c **** {
 152              		.loc 1 63 0
 153              		.cfi_startproc
 154              		@ args = 0, pretend = 0, frame = 16
 155              		@ frame_needed = 1, uses_anonymous_args = 0
 156              		@ link register save eliminated.
 157 0000 80B4     		push	{r7}
 158              		.cfi_def_cfa_offset 4
 159              		.cfi_offset 7, -4
 160 0002 85B0     		sub	sp, sp, #20
 161              		.cfi_def_cfa_offset 24
 162 0004 00AF     		add	r7, sp, #0
 163              		.cfi_def_cfa_register 7
 164 0006 7860     		str	r0, [r7, #4]
 165 0008 0B46     		mov	r3, r1
ARM GAS  C:\Users\glenn\AppData\Local\Temp\cckwlxf3.s 			page 5


 166 000a 7B80     		strh	r3, [r7, #2]	@ movhi
 167 000c 1346     		mov	r3, r2	@ movhi
 168 000e 3B80     		strh	r3, [r7]	@ movhi
  64:.\event_fifo/event_fifo.c ****     QUEUE_STRUCTURE *queue_str;
  65:.\event_fifo/event_fifo.c ****     if( queue_id > NUMBER_OF_QUEUES )
 169              		.loc 1 65 0
 170 0010 7B68     		ldr	r3, [r7, #4]
 171 0012 012B     		cmp	r3, #1
 172 0014 02D9     		bls	.L12
  66:.\event_fifo/event_fifo.c ****     {
  67:.\event_fifo/event_fifo.c ****         return -1;
 173              		.loc 1 67 0
 174 0016 4FF0FF33 		mov	r3, #-1
 175 001a 38E0     		b	.L13
 176              	.L12:
  68:.\event_fifo/event_fifo.c ****     }
  69:.\event_fifo/event_fifo.c ****     queue_str = &queue_structure[ queue_id ];
 177              		.loc 1 69 0
 178 001c 7B68     		ldr	r3, [r7, #4]
 179 001e 4C22     		movs	r2, #76
 180 0020 02FB03F3 		mul	r3, r2, r3
 181 0024 1D4A     		ldr	r2, .L16
 182 0026 1344     		add	r3, r3, r2
 183 0028 FB60     		str	r3, [r7, #12]
  70:.\event_fifo/event_fifo.c **** 
  71:.\event_fifo/event_fifo.c ****     queue_str->queue_data[queue_str->write_index].event = event_id;
 184              		.loc 1 71 0
 185 002a FB68     		ldr	r3, [r7, #12]
 186 002c 9B68     		ldr	r3, [r3, #8]
 187 002e FA68     		ldr	r2, [r7, #12]
 188 0030 0233     		adds	r3, r3, #2
 189 0032 9B00     		lsls	r3, r3, #2
 190 0034 1344     		add	r3, r3, r2
 191 0036 7A88     		ldrh	r2, [r7, #2]	@ movhi
 192 0038 9A80     		strh	r2, [r3, #4]	@ movhi
  72:.\event_fifo/event_fifo.c ****     queue_str->queue_data[queue_str->write_index].data = event_data;
 193              		.loc 1 72 0
 194 003a FB68     		ldr	r3, [r7, #12]
 195 003c 9B68     		ldr	r3, [r3, #8]
 196 003e FA68     		ldr	r2, [r7, #12]
 197 0040 0233     		adds	r3, r3, #2
 198 0042 9B00     		lsls	r3, r3, #2
 199 0044 1344     		add	r3, r3, r2
 200 0046 3A88     		ldrh	r2, [r7]	@ movhi
 201 0048 DA80     		strh	r2, [r3, #6]	@ movhi
  73:.\event_fifo/event_fifo.c ****     
  74:.\event_fifo/event_fifo.c ****     queue_str->write_index +=1;
 202              		.loc 1 74 0
 203 004a FB68     		ldr	r3, [r7, #12]
 204 004c 9B68     		ldr	r3, [r3, #8]
 205 004e 5A1C     		adds	r2, r3, #1
 206 0050 FB68     		ldr	r3, [r7, #12]
 207 0052 9A60     		str	r2, [r3, #8]
  75:.\event_fifo/event_fifo.c ****     queue_str->write_index &= QUEUE_MASK;
 208              		.loc 1 75 0
 209 0054 FB68     		ldr	r3, [r7, #12]
 210 0056 9B68     		ldr	r3, [r3, #8]
ARM GAS  C:\Users\glenn\AppData\Local\Temp\cckwlxf3.s 			page 6


 211 0058 03F00F02 		and	r2, r3, #15
 212 005c FB68     		ldr	r3, [r7, #12]
 213 005e 9A60     		str	r2, [r3, #8]
  76:.\event_fifo/event_fifo.c ****     
  77:.\event_fifo/event_fifo.c ****     if( queue_str->number >= QUEUE_NUMBER)
 214              		.loc 1 77 0
 215 0060 FB68     		ldr	r3, [r7, #12]
 216 0062 1B68     		ldr	r3, [r3]
 217 0064 0F2B     		cmp	r3, #15
 218 0066 0BDD     		ble	.L14
  78:.\event_fifo/event_fifo.c ****     {
  79:.\event_fifo/event_fifo.c ****          
  80:.\event_fifo/event_fifo.c ****          queue_str->read_index +=1;
 219              		.loc 1 80 0
 220 0068 FB68     		ldr	r3, [r7, #12]
 221 006a 5B68     		ldr	r3, [r3, #4]
 222 006c 5A1C     		adds	r2, r3, #1
 223 006e FB68     		ldr	r3, [r7, #12]
 224 0070 5A60     		str	r2, [r3, #4]
  81:.\event_fifo/event_fifo.c ****          queue_str->read_index &= QUEUE_MASK;
 225              		.loc 1 81 0
 226 0072 FB68     		ldr	r3, [r7, #12]
 227 0074 5B68     		ldr	r3, [r3, #4]
 228 0076 03F00F02 		and	r2, r3, #15
 229 007a FB68     		ldr	r3, [r7, #12]
 230 007c 5A60     		str	r2, [r3, #4]
 231 007e 04E0     		b	.L15
 232              	.L14:
  82:.\event_fifo/event_fifo.c ****     }
  83:.\event_fifo/event_fifo.c ****     else
  84:.\event_fifo/event_fifo.c ****     {
  85:.\event_fifo/event_fifo.c ****         queue_str->number += 1;
 233              		.loc 1 85 0
 234 0080 FB68     		ldr	r3, [r7, #12]
 235 0082 1B68     		ldr	r3, [r3]
 236 0084 5A1C     		adds	r2, r3, #1
 237 0086 FB68     		ldr	r3, [r7, #12]
 238 0088 1A60     		str	r2, [r3]
 239              	.L15:
  86:.\event_fifo/event_fifo.c ****     }
  87:.\event_fifo/event_fifo.c ****     return queue_str->number;
 240              		.loc 1 87 0
 241 008a FB68     		ldr	r3, [r7, #12]
 242 008c 1B68     		ldr	r3, [r3]
 243              	.L13:
  88:.\event_fifo/event_fifo.c **** }
 244              		.loc 1 88 0
 245 008e 1846     		mov	r0, r3
 246 0090 1437     		adds	r7, r7, #20
 247              		.cfi_def_cfa_offset 4
 248 0092 BD46     		mov	sp, r7
 249              		.cfi_def_cfa_register 13
 250              		@ sp needed
 251 0094 5DF8047B 		ldr	r7, [sp], #4
 252              		.cfi_restore 7
 253              		.cfi_def_cfa_offset 0
 254 0098 7047     		bx	lr
ARM GAS  C:\Users\glenn\AppData\Local\Temp\cckwlxf3.s 			page 7


 255              	.L17:
 256 009a 00BF     		.align	2
 257              	.L16:
 258 009c 00000000 		.word	queue_structure
 259              		.cfi_endproc
 260              	.LFE66:
 261              		.size	EF_enqueue_elemement, .-EF_enqueue_elemement
 262              		.section	.text.EF_dequeue_element,"ax",%progbits
 263              		.align	2
 264              		.global	EF_dequeue_element
 265              		.thumb
 266              		.thumb_func
 267              		.type	EF_dequeue_element, %function
 268              	EF_dequeue_element:
 269              	.LFB67:
  89:.\event_fifo/event_fifo.c ****        
  90:.\event_fifo/event_fifo.c **** 
  91:.\event_fifo/event_fifo.c **** // return number left in queue after dequeue -- return -1 if attempt was made on empty queue
  92:.\event_fifo/event_fifo.c **** int  EF_dequeue_element( unsigned queue_id, uint16 *event_id, uint16 *event_data )
  93:.\event_fifo/event_fifo.c **** {
 270              		.loc 1 93 0
 271              		.cfi_startproc
 272              		@ args = 0, pretend = 0, frame = 24
 273              		@ frame_needed = 1, uses_anonymous_args = 0
 274              		@ link register save eliminated.
 275 0000 80B4     		push	{r7}
 276              		.cfi_def_cfa_offset 4
 277              		.cfi_offset 7, -4
 278 0002 87B0     		sub	sp, sp, #28
 279              		.cfi_def_cfa_offset 32
 280 0004 00AF     		add	r7, sp, #0
 281              		.cfi_def_cfa_register 7
 282 0006 F860     		str	r0, [r7, #12]
 283 0008 B960     		str	r1, [r7, #8]
 284 000a 7A60     		str	r2, [r7, #4]
  94:.\event_fifo/event_fifo.c ****     QUEUE_STRUCTURE *queue_str;
  95:.\event_fifo/event_fifo.c ****     if( queue_id > NUMBER_OF_QUEUES )
 285              		.loc 1 95 0
 286 000c FB68     		ldr	r3, [r7, #12]
 287 000e 012B     		cmp	r3, #1
 288 0010 02D9     		bls	.L19
  96:.\event_fifo/event_fifo.c ****     {
  97:.\event_fifo/event_fifo.c ****         return -1;
 289              		.loc 1 97 0
 290 0012 4FF0FF33 		mov	r3, #-1
 291 0016 31E0     		b	.L20
 292              	.L19:
  98:.\event_fifo/event_fifo.c ****     }
  99:.\event_fifo/event_fifo.c ****     
 100:.\event_fifo/event_fifo.c ****     queue_str = &queue_structure[ queue_id ];
 293              		.loc 1 100 0
 294 0018 FB68     		ldr	r3, [r7, #12]
 295 001a 4C22     		movs	r2, #76
 296 001c 02FB03F3 		mul	r3, r2, r3
 297 0020 194A     		ldr	r2, .L22
 298 0022 1344     		add	r3, r3, r2
 299 0024 7B61     		str	r3, [r7, #20]
ARM GAS  C:\Users\glenn\AppData\Local\Temp\cckwlxf3.s 			page 8


 101:.\event_fifo/event_fifo.c ****     if( queue_str->number == 0 )
 300              		.loc 1 101 0
 301 0026 7B69     		ldr	r3, [r7, #20]
 302 0028 1B68     		ldr	r3, [r3]
 303 002a 002B     		cmp	r3, #0
 304 002c 02D1     		bne	.L21
 102:.\event_fifo/event_fifo.c ****     {
 103:.\event_fifo/event_fifo.c ****         return -1;
 305              		.loc 1 103 0
 306 002e 4FF0FF33 		mov	r3, #-1
 307 0032 23E0     		b	.L20
 308              	.L21:
 104:.\event_fifo/event_fifo.c ****     }
 105:.\event_fifo/event_fifo.c ****    
 106:.\event_fifo/event_fifo.c **** 
 107:.\event_fifo/event_fifo.c ****     *event_id   = queue_str->queue_data[queue_str->read_index].event;
 309              		.loc 1 107 0
 310 0034 7B69     		ldr	r3, [r7, #20]
 311 0036 5B68     		ldr	r3, [r3, #4]
 312 0038 7A69     		ldr	r2, [r7, #20]
 313 003a 0233     		adds	r3, r3, #2
 314 003c 9B00     		lsls	r3, r3, #2
 315 003e 1344     		add	r3, r3, r2
 316 0040 9A88     		ldrh	r2, [r3, #4]
 317 0042 BB68     		ldr	r3, [r7, #8]
 318 0044 1A80     		strh	r2, [r3]	@ movhi
 108:.\event_fifo/event_fifo.c ****     *event_data = queue_str->queue_data[queue_str->read_index].data;
 319              		.loc 1 108 0
 320 0046 7B69     		ldr	r3, [r7, #20]
 321 0048 5B68     		ldr	r3, [r3, #4]
 322 004a 7A69     		ldr	r2, [r7, #20]
 323 004c 0233     		adds	r3, r3, #2
 324 004e 9B00     		lsls	r3, r3, #2
 325 0050 1344     		add	r3, r3, r2
 326 0052 DA88     		ldrh	r2, [r3, #6]
 327 0054 7B68     		ldr	r3, [r7, #4]
 328 0056 1A80     		strh	r2, [r3]	@ movhi
 109:.\event_fifo/event_fifo.c ****     
 110:.\event_fifo/event_fifo.c ****     queue_str->read_index +=1;
 329              		.loc 1 110 0
 330 0058 7B69     		ldr	r3, [r7, #20]
 331 005a 5B68     		ldr	r3, [r3, #4]
 332 005c 5A1C     		adds	r2, r3, #1
 333 005e 7B69     		ldr	r3, [r7, #20]
 334 0060 5A60     		str	r2, [r3, #4]
 111:.\event_fifo/event_fifo.c ****     queue_str->read_index &= QUEUE_MASK;
 335              		.loc 1 111 0
 336 0062 7B69     		ldr	r3, [r7, #20]
 337 0064 5B68     		ldr	r3, [r3, #4]
 338 0066 03F00F02 		and	r2, r3, #15
 339 006a 7B69     		ldr	r3, [r7, #20]
 340 006c 5A60     		str	r2, [r3, #4]
 112:.\event_fifo/event_fifo.c ****     queue_str->number -= 1;
 341              		.loc 1 112 0
 342 006e 7B69     		ldr	r3, [r7, #20]
 343 0070 1B68     		ldr	r3, [r3]
 344 0072 5A1E     		subs	r2, r3, #1
ARM GAS  C:\Users\glenn\AppData\Local\Temp\cckwlxf3.s 			page 9


 345 0074 7B69     		ldr	r3, [r7, #20]
 346 0076 1A60     		str	r2, [r3]
 113:.\event_fifo/event_fifo.c ****   
 114:.\event_fifo/event_fifo.c ****     return queue_str->number;
 347              		.loc 1 114 0
 348 0078 7B69     		ldr	r3, [r7, #20]
 349 007a 1B68     		ldr	r3, [r3]
 350              	.L20:
 115:.\event_fifo/event_fifo.c **** }
 351              		.loc 1 115 0
 352 007c 1846     		mov	r0, r3
 353 007e 1C37     		adds	r7, r7, #28
 354              		.cfi_def_cfa_offset 4
 355 0080 BD46     		mov	sp, r7
 356              		.cfi_def_cfa_register 13
 357              		@ sp needed
 358 0082 5DF8047B 		ldr	r7, [sp], #4
 359              		.cfi_restore 7
 360              		.cfi_def_cfa_offset 0
 361 0086 7047     		bx	lr
 362              	.L23:
 363              		.align	2
 364              	.L22:
 365 0088 00000000 		.word	queue_structure
 366              		.cfi_endproc
 367              	.LFE67:
 368              		.size	EF_dequeue_element, .-EF_dequeue_element
 369              		.text
 370              	.Letext0:
 371              		.file 2 "c:\\program files (x86)\\cypress\\psoc creator\\3.3\\psoc creator\\import\\gnu\\arm\\4.9.
 372              		.file 3 "c:\\program files (x86)\\cypress\\psoc creator\\3.3\\psoc creator\\import\\gnu\\arm\\4.9.
 373              		.file 4 "Generated_Source\\PSoC5/cytypes.h"
 374              		.file 5 "Generated_Source\\PSoC5/core_cm3.h"