ARM GAS  C:\Users\Glenn\AppData\Local\Temp\ccJ5BPaa.s 			page 1


   1              		.syntax unified
   2              		.cpu cortex-m3
   3              		.fpu softvfp
   4              		.eabi_attribute 20, 1
   5              		.eabi_attribute 21, 1
   6              		.eabi_attribute 23, 3
   7              		.eabi_attribute 24, 1
   8              		.eabi_attribute 25, 1
   9              		.eabi_attribute 26, 1
  10              		.eabi_attribute 30, 6
  11              		.eabi_attribute 34, 1
  12              		.eabi_attribute 18, 4
  13              		.thumb
  14              		.file	"heart_beat.c"
  15              		.text
  16              	.Ltext0:
  17              		.cfi_sections	.debug_frame
  18              		.bss
  19              		.align	2
  20              	ref_count:
  21 0000 00000000 		.space	4
  22              		.align	2
  23              	ref_interval:
  24 0004 00000000 		.space	4
  25              		.align	2
  26              	read_pin:
  27 0008 00000000 		.space	4
  28              		.section	.text.initialize_heart_beat,"ax",%progbits
  29              		.align	2
  30              		.global	initialize_heart_beat
  31              		.thumb
  32              		.thumb_func
  33              		.type	initialize_heart_beat, %function
  34              	initialize_heart_beat:
  35              	.LFB63:
  36              		.file 1 ".\\heart_beat.c"
   1:.\heart_beat.c **** /* ========================================
   2:.\heart_beat.c ****  *
   3:.\heart_beat.c ****  * Copyright YOUR COMPANY, THE YEAR
   4:.\heart_beat.c ****  * All Rights Reserved
   5:.\heart_beat.c ****  * UNPUBLISHED, LICENSED SOFTWARE.
   6:.\heart_beat.c ****  *
   7:.\heart_beat.c ****  * CONFIDENTIAL AND PROPRIETARY INFORMATION
   8:.\heart_beat.c ****  * WHICH IS THE PROPERTY OF your company.
   9:.\heart_beat.c ****  *
  10:.\heart_beat.c ****  * ========================================
  11:.\heart_beat.c **** */
  12:.\heart_beat.c **** #include <device.h>
  13:.\heart_beat.c **** #include "stdio.h"
  14:.\heart_beat.c **** 
  15:.\heart_beat.c **** 
  16:.\heart_beat.c **** static int ref_count;
  17:.\heart_beat.c **** static int ref_interval;
  18:.\heart_beat.c **** static volatile int read_pin;
  19:.\heart_beat.c **** 
  20:.\heart_beat.c **** void initialize_heart_beat( int interval_ms )
  21:.\heart_beat.c **** {
ARM GAS  C:\Users\Glenn\AppData\Local\Temp\ccJ5BPaa.s 			page 2


  37              		.loc 1 21 0
  38              		.cfi_startproc
  39              		@ args = 0, pretend = 0, frame = 8
  40              		@ frame_needed = 1, uses_anonymous_args = 0
  41 0000 80B5     		push	{r7, lr}
  42              		.cfi_def_cfa_offset 8
  43              		.cfi_offset 7, -8
  44              		.cfi_offset 14, -4
  45 0002 82B0     		sub	sp, sp, #8
  46              		.cfi_def_cfa_offset 16
  47 0004 00AF     		add	r7, sp, #0
  48              		.cfi_def_cfa_register 7
  49 0006 7860     		str	r0, [r7, #4]
  22:.\heart_beat.c ****     ref_interval = interval_ms;
  50              		.loc 1 22 0
  51 0008 054A     		ldr	r2, .L2
  52 000a 7B68     		ldr	r3, [r7, #4]
  53 000c 1360     		str	r3, [r2]
  23:.\heart_beat.c ****     ref_count    = 0;
  54              		.loc 1 23 0
  55 000e 054B     		ldr	r3, .L2+4
  56 0010 0022     		movs	r2, #0
  57 0012 1A60     		str	r2, [r3]
  24:.\heart_beat.c ****     heart_beat_pin_Write(1);
  58              		.loc 1 24 0
  59 0014 0120     		movs	r0, #1
  60 0016 FFF7FEFF 		bl	heart_beat_pin_Write
  25:.\heart_beat.c **** }
  61              		.loc 1 25 0
  62 001a 0837     		adds	r7, r7, #8
  63              		.cfi_def_cfa_offset 8
  64 001c BD46     		mov	sp, r7
  65              		.cfi_def_cfa_register 13
  66              		@ sp needed
  67 001e 80BD     		pop	{r7, pc}
  68              	.L3:
  69              		.align	2
  70              	.L2:
  71 0020 04000000 		.word	ref_interval
  72 0024 00000000 		.word	ref_count
  73              		.cfi_endproc
  74              	.LFE63:
  75              		.size	initialize_heart_beat, .-initialize_heart_beat
  76              		.section	.text.feed_heart_beat,"ax",%progbits
  77              		.align	2
  78              		.global	feed_heart_beat
  79              		.thumb
  80              		.thumb_func
  81              		.type	feed_heart_beat, %function
  82              	feed_heart_beat:
  83              	.LFB64:
  26:.\heart_beat.c **** 
  27:.\heart_beat.c **** void feed_heart_beat( int input_event, int tick_ms )
  28:.\heart_beat.c **** {
  84              		.loc 1 28 0
  85              		.cfi_startproc
  86              		@ args = 0, pretend = 0, frame = 8
ARM GAS  C:\Users\Glenn\AppData\Local\Temp\ccJ5BPaa.s 			page 3


  87              		@ frame_needed = 1, uses_anonymous_args = 0
  88 0000 80B5     		push	{r7, lr}
  89              		.cfi_def_cfa_offset 8
  90              		.cfi_offset 7, -8
  91              		.cfi_offset 14, -4
  92 0002 82B0     		sub	sp, sp, #8
  93              		.cfi_def_cfa_offset 16
  94 0004 00AF     		add	r7, sp, #0
  95              		.cfi_def_cfa_register 7
  96 0006 7860     		str	r0, [r7, #4]
  97 0008 3960     		str	r1, [r7]
  29:.\heart_beat.c ****         ref_count += tick_ms;
  98              		.loc 1 29 0
  99 000a 134B     		ldr	r3, .L6
 100 000c 1A68     		ldr	r2, [r3]
 101 000e 3B68     		ldr	r3, [r7]
 102 0010 1344     		add	r3, r3, r2
 103 0012 114A     		ldr	r2, .L6
 104 0014 1360     		str	r3, [r2]
  30:.\heart_beat.c ****         if( ref_count > ref_interval)
 105              		.loc 1 30 0
 106 0016 104B     		ldr	r3, .L6
 107 0018 1A68     		ldr	r2, [r3]
 108 001a 104B     		ldr	r3, .L6+4
 109 001c 1B68     		ldr	r3, [r3]
 110 001e 9A42     		cmp	r2, r3
 111 0020 17DD     		ble	.L4
  31:.\heart_beat.c ****         {
  32:.\heart_beat.c ****            read_pin = heart_beat_pin_Read();
 112              		.loc 1 32 0
 113 0022 FFF7FEFF 		bl	heart_beat_pin_Read
 114 0026 0346     		mov	r3, r0
 115 0028 1A46     		mov	r2, r3
 116 002a 0D4B     		ldr	r3, .L6+8
 117 002c 1A60     		str	r2, [r3]
  33:.\heart_beat.c ****            heart_beat_pin_Write( !heart_beat_pin_Read() );
 118              		.loc 1 33 0
 119 002e FFF7FEFF 		bl	heart_beat_pin_Read
 120 0032 0346     		mov	r3, r0
 121 0034 002B     		cmp	r3, #0
 122 0036 0CBF     		ite	eq
 123 0038 0123     		moveq	r3, #1
 124 003a 0023     		movne	r3, #0
 125 003c DBB2     		uxtb	r3, r3
 126 003e 1846     		mov	r0, r3
 127 0040 FFF7FEFF 		bl	heart_beat_pin_Write
  34:.\heart_beat.c ****            ref_count -= ref_interval;
 128              		.loc 1 34 0
 129 0044 044B     		ldr	r3, .L6
 130 0046 1A68     		ldr	r2, [r3]
 131 0048 044B     		ldr	r3, .L6+4
 132 004a 1B68     		ldr	r3, [r3]
 133 004c D31A     		subs	r3, r2, r3
 134 004e 024A     		ldr	r2, .L6
 135 0050 1360     		str	r3, [r2]
 136              	.L4:
  35:.\heart_beat.c ****         }
ARM GAS  C:\Users\Glenn\AppData\Local\Temp\ccJ5BPaa.s 			page 4


  36:.\heart_beat.c ****     
  37:.\heart_beat.c **** }
 137              		.loc 1 37 0
 138 0052 0837     		adds	r7, r7, #8
 139              		.cfi_def_cfa_offset 8
 140 0054 BD46     		mov	sp, r7
 141              		.cfi_def_cfa_register 13
 142              		@ sp needed
 143 0056 80BD     		pop	{r7, pc}
 144              	.L7:
 145              		.align	2
 146              	.L6:
 147 0058 00000000 		.word	ref_count
 148 005c 04000000 		.word	ref_interval
 149 0060 08000000 		.word	read_pin
 150              		.cfi_endproc
 151              	.LFE64:
 152              		.size	feed_heart_beat, .-feed_heart_beat
 153              		.text
 154              	.Letext0:
 155              		.file 2 "c:\\program files (x86)\\cypress\\psoc creator\\3.3\\psoc creator\\import\\gnu\\arm\\4.9.
 156              		.file 3 "c:\\program files (x86)\\cypress\\psoc creator\\3.3\\psoc creator\\import\\gnu\\arm\\4.9.
 157              		.file 4 "Generated_Source\\PSoC5/core_cm3.h"