ARM GAS  C:\Users\glenn\AppData\Local\Temp\cclr97S8.s 			page 1


   1              		.syntax unified
   2              		.cpu cortex-m3
   3              		.fpu softvfp
   4              		.eabi_attribute 20, 1
   5              		.eabi_attribute 21, 1
   6              		.eabi_attribute 23, 3
   7              		.eabi_attribute 24, 1
   8              		.eabi_attribute 25, 1
   9              		.eabi_attribute 26, 1
  10              		.eabi_attribute 30, 6
  11              		.eabi_attribute 34, 1
  12              		.eabi_attribute 18, 4
  13              		.thumb
  14              		.file	"main.c"
  15              		.text
  16              	.Ltext0:
  17              		.cfi_sections	.debug_frame
  18              		.global _printf_float
  19              		.thumb
  20              		.section	.text.process_status_data,"ax",%progbits
  21              		.align	2
  22              		.thumb
  23              		.thumb_func
  24              		.type	process_status_data, %function
  25              	process_status_data:
  26              	.LFB63:
  27              		.file 1 ".\\main.c"
   1:.\main.c      **** /*******************************************************************************
   2:.\main.c      **** * File Name: main.c
   3:.\main.c      **** *
   4:.\main.c      **** * Version: 1.0
   5:.\main.c      **** *
   6:.\main.c      **** * Description:
   7:.\main.c      **** *   Enumerates as a Virtual Com port.  Receives data from hyper terminal, then 
   8:.\main.c      **** *   send received data backward. LCD shows the Line settings.
   9:.\main.c      **** *   
  10:.\main.c      **** *  To test project:
  11:.\main.c      **** *   1. Build the project and program the hex file on to the target device.
  12:.\main.c      **** *   2. Select 3.3V in SW3 and plug-in power to the CY8CKIT-001
  13:.\main.c      **** *   3. Connect USB cable from the computer to the CY8CKIT-001.
  14:.\main.c      **** *   4. Select the USB_UART.inf file from the project directory, as the driver 
  15:.\main.c      **** *      for this example once Windows asks for it.
  16:.\main.c      **** *   5. Open "Device Manager" and note the COM port number for "Example Project"
  17:.\main.c      **** *      device.
  18:.\main.c      **** *   6. Open "HyperTerminal" application and make new connection to noted COM port
  19:.\main.c      **** *   7. Type the message, observe echo data received.
  20:.\main.c      **** *
  21:.\main.c      **** * Related Document:
  22:.\main.c      **** *  Universal Serial Bus Specification Revision 2.0 
  23:.\main.c      **** *  Universal Serial Bus Class Definitions for Communications Devices 
  24:.\main.c      **** *  Revision 1.2
  25:.\main.c      **** *
  26:.\main.c      **** ********************************************************************************
  27:.\main.c      **** * Copyright 2012, Cypress Semiconductor Corporation. All rights reserved.
  28:.\main.c      **** * This software is owned by Cypress Semiconductor Corporation and is protected
  29:.\main.c      **** * by and subject to worldwide patent and copyright laws and treaties.
  30:.\main.c      **** * Therefore, you may use this software only as provided in the license agreement
ARM GAS  C:\Users\glenn\AppData\Local\Temp\cclr97S8.s 			page 2


  31:.\main.c      **** * accompanying the software package from which you obtained this software.
  32:.\main.c      **** * CYPRESS AND ITS SUPPLIERS MAKE NO WARRANTY OF ANY KIND, EXPRESS OR IMPLIED,
  33:.\main.c      **** * WITH REGARD TO THIS SOFTWARE, INCLUDING, BUT NOT LIMITED TO, NONINFRINGEMENT,
  34:.\main.c      **** * IMPLIED WARRANTIES OF MERCHANTABILITY AND FITNESS FOR A PARTICULAR PURPOSE.
  35:.\main.c      **** *******************************************************************************/
  36:.\main.c      **** 
  37:.\main.c      **** #include <device.h>
  38:.\main.c      **** #include "stdio.h"
  39:.\main.c      **** 
  40:.\main.c      **** // software reset
  41:.\main.c      **** // CySoftwareReset();
  42:.\main.c      **** 
  43:.\main.c      **** 
  44:.\main.c      **** #include "cf_chain_flow_support.h"
  45:.\main.c      **** #include "a_to_d_functions.h"
  46:.\main.c      **** #include "cf_events.h"
  47:.\main.c      **** #include "sigma_mux.h"
  48:.\main.c      **** #include "cf_status_bit.h"
  49:.\main.c      **** #include "modbus_serial_ctrl.h"
  50:.\main.c      **** 
  51:.\main.c      **** #if defined (__GNUC__)
  52:.\main.c      ****     /* Add an explicit reference to the floating point printf library */
  53:.\main.c      ****     /* to allow the usage of floating point conversion specifiers. */
  54:.\main.c      ****     /* This is not linked in by default with the newlib-nano library. */
  55:.\main.c      ****     asm (".global _printf_float");
  56:.\main.c      **** #endif
  57:.\main.c      **** 
  58:.\main.c      **** #define HEART_BEAT_INTERVAL 500
  59:.\main.c      **** 
  60:.\main.c      **** 
  61:.\main.c      **** 
  62:.\main.c      **** 
  63:.\main.c      **** 
  64:.\main.c      **** 
  65:.\main.c      **** 
  66:.\main.c      **** static inline void  process_status_data( unsigned status_data)
  67:.\main.c      **** {
  28              		.loc 1 67 0
  29              		.cfi_startproc
  30              		@ args = 0, pretend = 0, frame = 8
  31              		@ frame_needed = 1, uses_anonymous_args = 0
  32 0000 80B5     		push	{r7, lr}
  33              		.cfi_def_cfa_offset 8
  34              		.cfi_offset 7, -8
  35              		.cfi_offset 14, -4
  36 0002 82B0     		sub	sp, sp, #8
  37              		.cfi_def_cfa_offset 16
  38 0004 00AF     		add	r7, sp, #0
  39              		.cfi_def_cfa_register 7
  40 0006 7860     		str	r0, [r7, #4]
  68:.\main.c      **** 
  69:.\main.c      ****     
  70:.\main.c      ****     if( status_data & CF_PROCESS_AD_RESULTS )
  41              		.loc 1 70 0
  42 0008 7B68     		ldr	r3, [r7, #4]
  43 000a 03F00103 		and	r3, r3, #1
  44 000e 002B     		cmp	r3, #0
ARM GAS  C:\Users\glenn\AppData\Local\Temp\cclr97S8.s 			page 3


  45 0010 01D0     		beq	.L2
  71:.\main.c      ****     {
  72:.\main.c      ****         ad_process_se();
  46              		.loc 1 72 0
  47 0012 FFF7FEFF 		bl	ad_process_se
  48              	.L2:
  73:.\main.c      ****     }
  74:.\main.c      ****     if( status_data & CF_PROCESS_MODBUS )
  49              		.loc 1 74 0
  50 0016 7B68     		ldr	r3, [r7, #4]
  51 0018 03F00203 		and	r3, r3, #2
  52 001c 002B     		cmp	r3, #0
  53 001e 01D0     		beq	.L1
  75:.\main.c      ****     {
  76:.\main.c      ****       process_rx_modbus_rtu_message( );
  54              		.loc 1 76 0
  55 0020 FFF7FEFF 		bl	process_rx_modbus_rtu_message
  56              	.L1:
  77:.\main.c      ****     }
  78:.\main.c      ****     
  79:.\main.c      **** }
  57              		.loc 1 79 0
  58 0024 0837     		adds	r7, r7, #8
  59              		.cfi_def_cfa_offset 8
  60 0026 BD46     		mov	sp, r7
  61              		.cfi_def_cfa_register 13
  62              		@ sp needed
  63 0028 80BD     		pop	{r7, pc}
  64              		.cfi_endproc
  65              	.LFE63:
  66              		.size	process_status_data, .-process_status_data
  67 002a 00BF     		.bss
  68              		.align	2
  69              	event_number:
  70 0000 00000000 		.space	4
  71              		.align	2
  72              	event_id:
  73 0004 00000000 		.space	4
  74              		.align	2
  75              	event_data:
  76 0008 00000000 		.space	4
  77              		.align	2
  78              	status_data:
  79 000c 00000000 		.space	4
  80              		.section	.text.main,"ax",%progbits
  81              		.align	2
  82              		.global	main
  83              		.thumb
  84              		.thumb_func
  85              		.type	main, %function
  86              	main:
  87              	.LFB64:
  80:.\main.c      **** 
  81:.\main.c      **** // static varibles to save stack space
  82:.\main.c      **** static int event_number;
  83:.\main.c      **** static unsigned event_id;
  84:.\main.c      **** static unsigned event_data;
ARM GAS  C:\Users\glenn\AppData\Local\Temp\cclr97S8.s 			page 4


  85:.\main.c      **** static unsigned status_data;
  86:.\main.c      **** 
  87:.\main.c      **** int main()
  88:.\main.c      **** {
  88              		.loc 1 88 0
  89              		.cfi_startproc
  90              		@ args = 0, pretend = 0, frame = 0
  91              		@ frame_needed = 1, uses_anonymous_args = 0
  92 0000 80B5     		push	{r7, lr}
  93              		.cfi_def_cfa_offset 8
  94              		.cfi_offset 7, -8
  95              		.cfi_offset 14, -4
  96 0002 00AF     		add	r7, sp, #0
  97              		.cfi_def_cfa_register 7
  89:.\main.c      ****     cf_initialize_status_manager();             
  98              		.loc 1 89 0
  99 0004 FFF7FEFF 		bl	cf_initialize_status_manager
  90:.\main.c      ****     cf_initialize_event_manager();
 100              		.loc 1 90 0
 101 0008 FFF7FEFF 		bl	cf_initialize_event_manager
  91:.\main.c      ****     initialize_cf_system(  );
 102              		.loc 1 91 0
 103 000c FFF7FEFF 		bl	initialize_cf_system
  92:.\main.c      ****     CyGlobalIntDisable;  // Chain Global Interrupts  initialization chain will enable interrupts 
 104              		.loc 1 92 0
 105              	@ 92 ".\main.c" 1
 106 0010 72B6     		CPSID   i
 107              	@ 0 "" 2
  93:.\main.c      ****     
  94:.\main.c      ****     
  95:.\main.c      ****     
  96:.\main.c      ****     
  97:.\main.c      ****     
  98:.\main.c      ****     
  99:.\main.c      ****     cf_process_cf_event( CF_SYSTEM_INIT , 0);
 108              		.loc 1 99 0
 109              		.thumb
 110 0012 0020     		movs	r0, #0
 111 0014 0021     		movs	r1, #0
 112 0016 FFF7FEFF 		bl	cf_process_cf_event
 113              	.L7:
 100:.\main.c      ****     for(;;)
 101:.\main.c      ****     {
 102:.\main.c      ****         status_data = cf_get_status();
 114              		.loc 1 102 0
 115 001a FFF7FEFF 		bl	cf_get_status
 116 001e 0246     		mov	r2, r0
 117 0020 0F4B     		ldr	r3, .L8
 118 0022 1A60     		str	r2, [r3]
 103:.\main.c      ****         if( status_data != 0 )
 119              		.loc 1 103 0
 120 0024 0E4B     		ldr	r3, .L8
 121 0026 1B68     		ldr	r3, [r3]
 122 0028 002B     		cmp	r3, #0
 123 002a 05D0     		beq	.L5
 104:.\main.c      ****         {
 105:.\main.c      ****             process_status_data( status_data);
ARM GAS  C:\Users\glenn\AppData\Local\Temp\cclr97S8.s 			page 5


 124              		.loc 1 105 0
 125 002c 0C4B     		ldr	r3, .L8
 126 002e 1B68     		ldr	r3, [r3]
 127 0030 1846     		mov	r0, r3
 128 0032 FFF7FEFF 		bl	process_status_data
 129 0036 12E0     		b	.L6
 130              	.L5:
 106:.\main.c      ****         }
 107:.\main.c      ****         else
 108:.\main.c      ****         {
 109:.\main.c      ****            event_number = cf_rx_event( &event_id, &event_data );
 131              		.loc 1 109 0
 132 0038 0A48     		ldr	r0, .L8+4
 133 003a 0B49     		ldr	r1, .L8+8
 134 003c FFF7FEFF 		bl	cf_rx_event
 135 0040 0246     		mov	r2, r0
 136 0042 0A4B     		ldr	r3, .L8+12
 137 0044 1A60     		str	r2, [r3]
 110:.\main.c      ****            if( event_number > 0 )
 138              		.loc 1 110 0
 139 0046 094B     		ldr	r3, .L8+12
 140 0048 1B68     		ldr	r3, [r3]
 141 004a 002B     		cmp	r3, #0
 142 004c 07DD     		ble	.L6
 111:.\main.c      ****            {
 112:.\main.c      ****               cf_process_cf_event( event_id, event_data);
 143              		.loc 1 112 0
 144 004e 054B     		ldr	r3, .L8+4
 145 0050 1A68     		ldr	r2, [r3]
 146 0052 054B     		ldr	r3, .L8+8
 147 0054 1B68     		ldr	r3, [r3]
 148 0056 1046     		mov	r0, r2
 149 0058 1946     		mov	r1, r3
 150 005a FFF7FEFF 		bl	cf_process_cf_event
 151              	.L6:
 113:.\main.c      ****            }
 114:.\main.c      ****            else
 115:.\main.c      ****            {
 116:.\main.c      ****              ; // add sleep for low power apps
 117:.\main.c      ****            }
 118:.\main.c      ****         }  
 119:.\main.c      ****     }   
 152              		.loc 1 119 0
 153 005e DCE7     		b	.L7
 154              	.L9:
 155              		.align	2
 156              	.L8:
 157 0060 0C000000 		.word	status_data
 158 0064 04000000 		.word	event_id
 159 0068 08000000 		.word	event_data
 160 006c 00000000 		.word	event_number
 161              		.cfi_endproc
 162              	.LFE64:
 163              		.size	main, .-main
 164              		.text
 165              	.Letext0:
 166              		.file 2 "c:\\program files (x86)\\cypress\\psoc creator\\3.3\\psoc creator\\import\\gnu\\arm\\4.9.
ARM GAS  C:\Users\glenn\AppData\Local\Temp\cclr97S8.s 			page 6


 167              		.file 3 "c:\\program files (x86)\\cypress\\psoc creator\\3.3\\psoc creator\\import\\gnu\\arm\\4.9.
 168              		.file 4 "Generated_Source\\PSoC5/core_cm3.h"