ARM GAS  C:\Users\glenn\AppData\Local\Temp\ccg37PN7.s 			page 1


   1              		.syntax unified
   2              		.cpu cortex-m3
   3              		.fpu softvfp
   4              		.eabi_attribute 20, 1
   5              		.eabi_attribute 21, 1
   6              		.eabi_attribute 23, 3
   7              		.eabi_attribute 24, 1
   8              		.eabi_attribute 25, 1
   9              		.eabi_attribute 26, 1
  10              		.eabi_attribute 30, 6
  11              		.eabi_attribute 34, 1
  12              		.eabi_attribute 18, 4
  13              		.thumb
  14              		.file	"modbus_interface_functions.c"
  15              		.text
  16              	.Ltext0:
  17              		.cfi_sections	.debug_frame
  18              		.section	.text.mod_access_read_temp,"ax",%progbits
  19              		.align	2
  20              		.global	mod_access_read_temp
  21              		.thumb
  22              		.thumb_func
  23              		.type	mod_access_read_temp, %function
  24              	mod_access_read_temp:
  25              	.LFB63:
  26              		.file 1 ".\\rtu_modbus\\modbus_interface_functions.c"
   1:.\rtu_modbus/modbus_interface_functions.c **** /*
   2:.\rtu_modbus/modbus_interface_functions.c **** **
   3:.\rtu_modbus/modbus_interface_functions.c **** ** File: modbus_interface_functions.c
   4:.\rtu_modbus/modbus_interface_functions.c **** **
   5:.\rtu_modbus/modbus_interface_functions.c **** **
   6:.\rtu_modbus/modbus_interface_functions.c **** **
   7:.\rtu_modbus/modbus_interface_functions.c **** **
   8:.\rtu_modbus/modbus_interface_functions.c **** */
   9:.\rtu_modbus/modbus_interface_functions.c **** #include <device.h>
  10:.\rtu_modbus/modbus_interface_functions.c **** #include "modbus_interface_functions.h"
  11:.\rtu_modbus/modbus_interface_functions.c **** #include "die_temp.h"
  12:.\rtu_modbus/modbus_interface_functions.c **** #include "sigma_mux.h"
  13:.\rtu_modbus/modbus_interface_functions.c **** #include "a_to_d_functions.h"
  14:.\rtu_modbus/modbus_interface_functions.c **** 
  15:.\rtu_modbus/modbus_interface_functions.c **** 
  16:.\rtu_modbus/modbus_interface_functions.c **** 
  17:.\rtu_modbus/modbus_interface_functions.c **** /*
  18:.\rtu_modbus/modbus_interface_functions.c **** **
  19:.\rtu_modbus/modbus_interface_functions.c **** **  Type 3 modbus messages
  20:.\rtu_modbus/modbus_interface_functions.c **** **
  21:.\rtu_modbus/modbus_interface_functions.c **** */
  22:.\rtu_modbus/modbus_interface_functions.c **** 
  23:.\rtu_modbus/modbus_interface_functions.c **** 
  24:.\rtu_modbus/modbus_interface_functions.c **** uint16  mod_access_read_temp( uint8 *buffer )
  25:.\rtu_modbus/modbus_interface_functions.c **** {
  27              		.loc 1 25 0
  28              		.cfi_startproc
  29              		@ args = 0, pretend = 0, frame = 16
  30              		@ frame_needed = 1, uses_anonymous_args = 0
  31 0000 80B5     		push	{r7, lr}
  32              		.cfi_def_cfa_offset 8
ARM GAS  C:\Users\glenn\AppData\Local\Temp\ccg37PN7.s 			page 2


  33              		.cfi_offset 7, -8
  34              		.cfi_offset 14, -4
  35 0002 84B0     		sub	sp, sp, #16
  36              		.cfi_def_cfa_offset 24
  37 0004 00AF     		add	r7, sp, #0
  38              		.cfi_def_cfa_register 7
  39 0006 7860     		str	r0, [r7, #4]
  26:.\rtu_modbus/modbus_interface_functions.c ****     uint16 *temp_ptr;
  27:.\rtu_modbus/modbus_interface_functions.c ****     temp_ptr = (uint16 *)buffer;
  40              		.loc 1 27 0
  41 0008 7B68     		ldr	r3, [r7, #4]
  42 000a FB60     		str	r3, [r7, #12]
  28:.\rtu_modbus/modbus_interface_functions.c ****     *temp_ptr = die_get_temperature();
  43              		.loc 1 28 0
  44 000c FFF7FEFF 		bl	die_get_temperature
  45 0010 0346     		mov	r3, r0
  46 0012 1A46     		mov	r2, r3
  47 0014 FB68     		ldr	r3, [r7, #12]
  48 0016 1A80     		strh	r2, [r3]	@ movhi
  29:.\rtu_modbus/modbus_interface_functions.c ****     
  30:.\rtu_modbus/modbus_interface_functions.c ****     return 2;
  49              		.loc 1 30 0
  50 0018 0223     		movs	r3, #2
  31:.\rtu_modbus/modbus_interface_functions.c **** }    
  51              		.loc 1 31 0
  52 001a 1846     		mov	r0, r3
  53 001c 1037     		adds	r7, r7, #16
  54              		.cfi_def_cfa_offset 8
  55 001e BD46     		mov	sp, r7
  56              		.cfi_def_cfa_register 13
  57              		@ sp needed
  58 0020 80BD     		pop	{r7, pc}
  59              		.cfi_endproc
  60              	.LFE63:
  61              		.size	mod_access_read_temp, .-mod_access_read_temp
  62 0022 00BF     		.section	.text.test_float_read,"ax",%progbits
  63              		.align	2
  64              		.global	test_float_read
  65              		.thumb
  66              		.thumb_func
  67              		.type	test_float_read, %function
  68              	test_float_read:
  69              	.LFB64:
  32:.\rtu_modbus/modbus_interface_functions.c ****  
  33:.\rtu_modbus/modbus_interface_functions.c **** /*
  34:.\rtu_modbus/modbus_interface_functions.c **** **
  35:.\rtu_modbus/modbus_interface_functions.c **** ** This is test function only
  36:.\rtu_modbus/modbus_interface_functions.c **** **
  37:.\rtu_modbus/modbus_interface_functions.c **** **
  38:.\rtu_modbus/modbus_interface_functions.c **** */
  39:.\rtu_modbus/modbus_interface_functions.c **** uint16 test_float_read( uint8 *buffer )
  40:.\rtu_modbus/modbus_interface_functions.c **** {
  70              		.loc 1 40 0
  71              		.cfi_startproc
  72              		@ args = 0, pretend = 0, frame = 16
  73              		@ frame_needed = 1, uses_anonymous_args = 0
  74              		@ link register save eliminated.
ARM GAS  C:\Users\glenn\AppData\Local\Temp\ccg37PN7.s 			page 3


  75 0000 80B4     		push	{r7}
  76              		.cfi_def_cfa_offset 4
  77              		.cfi_offset 7, -4
  78 0002 85B0     		sub	sp, sp, #20
  79              		.cfi_def_cfa_offset 24
  80 0004 00AF     		add	r7, sp, #0
  81              		.cfi_def_cfa_register 7
  82 0006 7860     		str	r0, [r7, #4]
  41:.\rtu_modbus/modbus_interface_functions.c ****     float *temp_ptr;
  42:.\rtu_modbus/modbus_interface_functions.c ****     temp_ptr = (float *)buffer;
  83              		.loc 1 42 0
  84 0008 7B68     		ldr	r3, [r7, #4]
  85 000a FB60     		str	r3, [r7, #12]
  43:.\rtu_modbus/modbus_interface_functions.c ****     *temp_ptr++ = 4.5;
  86              		.loc 1 43 0
  87 000c FB68     		ldr	r3, [r7, #12]
  88 000e 1A1D     		adds	r2, r3, #4
  89 0010 FA60     		str	r2, [r7, #12]
  90 0012 074A     		ldr	r2, .L5
  91 0014 1A60     		str	r2, [r3]	@ float
  44:.\rtu_modbus/modbus_interface_functions.c ****     *temp_ptr++ = -4.5;
  92              		.loc 1 44 0
  93 0016 FB68     		ldr	r3, [r7, #12]
  94 0018 1A1D     		adds	r2, r3, #4
  95 001a FA60     		str	r2, [r7, #12]
  96 001c 054A     		ldr	r2, .L5+4
  97 001e 1A60     		str	r2, [r3]	@ float
  45:.\rtu_modbus/modbus_interface_functions.c ****     return 2 * sizeof(float);
  98              		.loc 1 45 0
  99 0020 0823     		movs	r3, #8
  46:.\rtu_modbus/modbus_interface_functions.c **** }
 100              		.loc 1 46 0
 101 0022 1846     		mov	r0, r3
 102 0024 1437     		adds	r7, r7, #20
 103              		.cfi_def_cfa_offset 4
 104 0026 BD46     		mov	sp, r7
 105              		.cfi_def_cfa_register 13
 106              		@ sp needed
 107 0028 5DF8047B 		ldr	r7, [sp], #4
 108              		.cfi_restore 7
 109              		.cfi_def_cfa_offset 0
 110 002c 7047     		bx	lr
 111              	.L6:
 112 002e 00BF     		.align	2
 113              	.L5:
 114 0030 00009040 		.word	1083179008
 115 0034 000090C0 		.word	-1064304640
 116              		.cfi_endproc
 117              	.LFE64:
 118              		.size	test_float_read, .-test_float_read
 119              		.section	.text.mod_read_current_time,"ax",%progbits
 120              		.align	2
 121              		.global	mod_read_current_time
 122              		.thumb
 123              		.thumb_func
 124              		.type	mod_read_current_time, %function
 125              	mod_read_current_time:
ARM GAS  C:\Users\glenn\AppData\Local\Temp\ccg37PN7.s 			page 4


 126              	.LFB65:
  47:.\rtu_modbus/modbus_interface_functions.c **** 
  48:.\rtu_modbus/modbus_interface_functions.c **** uint16 mod_read_current_time( uint8 *buffer )
  49:.\rtu_modbus/modbus_interface_functions.c **** {
 127              		.loc 1 49 0
 128              		.cfi_startproc
 129              		@ args = 0, pretend = 0, frame = 16
 130              		@ frame_needed = 1, uses_anonymous_args = 0
 131 0000 90B5     		push	{r4, r7, lr}
 132              		.cfi_def_cfa_offset 12
 133              		.cfi_offset 4, -12
 134              		.cfi_offset 7, -8
 135              		.cfi_offset 14, -4
 136 0002 85B0     		sub	sp, sp, #20
 137              		.cfi_def_cfa_offset 32
 138 0004 00AF     		add	r7, sp, #0
 139              		.cfi_def_cfa_register 7
 140 0006 7860     		str	r0, [r7, #4]
  50:.\rtu_modbus/modbus_interface_functions.c ****     uint16 *temp_ptr;
  51:.\rtu_modbus/modbus_interface_functions.c ****     
  52:.\rtu_modbus/modbus_interface_functions.c ****     
  53:.\rtu_modbus/modbus_interface_functions.c ****     *buffer++ =  RTC_1_ReadSecond();
 141              		.loc 1 53 0
 142 0008 7C68     		ldr	r4, [r7, #4]
 143 000a 631C     		adds	r3, r4, #1
 144 000c 7B60     		str	r3, [r7, #4]
 145 000e FFF7FEFF 		bl	RTC_1_ReadSecond
 146 0012 0346     		mov	r3, r0
 147 0014 2370     		strb	r3, [r4]
  54:.\rtu_modbus/modbus_interface_functions.c ****     *buffer++ =  RTC_1_ReadMinute();
 148              		.loc 1 54 0
 149 0016 7C68     		ldr	r4, [r7, #4]
 150 0018 631C     		adds	r3, r4, #1
 151 001a 7B60     		str	r3, [r7, #4]
 152 001c FFF7FEFF 		bl	RTC_1_ReadMinute
 153 0020 0346     		mov	r3, r0
 154 0022 2370     		strb	r3, [r4]
  55:.\rtu_modbus/modbus_interface_functions.c ****     *buffer++ =  RTC_1_ReadHour();
 155              		.loc 1 55 0
 156 0024 7C68     		ldr	r4, [r7, #4]
 157 0026 631C     		adds	r3, r4, #1
 158 0028 7B60     		str	r3, [r7, #4]
 159 002a FFF7FEFF 		bl	RTC_1_ReadHour
 160 002e 0346     		mov	r3, r0
 161 0030 2370     		strb	r3, [r4]
  56:.\rtu_modbus/modbus_interface_functions.c ****     *buffer++ =   RTC_1_ReadMonth();
 162              		.loc 1 56 0
 163 0032 7C68     		ldr	r4, [r7, #4]
 164 0034 631C     		adds	r3, r4, #1
 165 0036 7B60     		str	r3, [r7, #4]
 166 0038 FFF7FEFF 		bl	RTC_1_ReadMonth
 167 003c 0346     		mov	r3, r0
 168 003e 2370     		strb	r3, [r4]
  57:.\rtu_modbus/modbus_interface_functions.c ****     temp_ptr =     (uint16 *)buffer;
 169              		.loc 1 57 0
 170 0040 7B68     		ldr	r3, [r7, #4]
 171 0042 FB60     		str	r3, [r7, #12]
ARM GAS  C:\Users\glenn\AppData\Local\Temp\ccg37PN7.s 			page 5


  58:.\rtu_modbus/modbus_interface_functions.c ****     *temp_ptr = RTC_1_ReadYear();
 172              		.loc 1 58 0
 173 0044 FFF7FEFF 		bl	RTC_1_ReadYear
 174 0048 0346     		mov	r3, r0
 175 004a 1A46     		mov	r2, r3
 176 004c FB68     		ldr	r3, [r7, #12]
 177 004e 1A80     		strh	r2, [r3]	@ movhi
  59:.\rtu_modbus/modbus_interface_functions.c ****     return  6;
 178              		.loc 1 59 0
 179 0050 0623     		movs	r3, #6
  60:.\rtu_modbus/modbus_interface_functions.c **** }  
 180              		.loc 1 60 0
 181 0052 1846     		mov	r0, r3
 182 0054 1437     		adds	r7, r7, #20
 183              		.cfi_def_cfa_offset 12
 184 0056 BD46     		mov	sp, r7
 185              		.cfi_def_cfa_register 13
 186              		@ sp needed
 187 0058 90BD     		pop	{r4, r7, pc}
 188              		.cfi_endproc
 189              	.LFE65:
 190              		.size	mod_read_current_time, .-mod_read_current_time
 191 005a 00BF     		.section	.text.mod_store_current_time,"ax",%progbits
 192              		.align	2
 193              		.global	mod_store_current_time
 194              		.thumb
 195              		.thumb_func
 196              		.type	mod_store_current_time, %function
 197              	mod_store_current_time:
 198              	.LFB66:
  61:.\rtu_modbus/modbus_interface_functions.c **** 
  62:.\rtu_modbus/modbus_interface_functions.c **** 
  63:.\rtu_modbus/modbus_interface_functions.c **** /*
  64:.\rtu_modbus/modbus_interface_functions.c **** **
  65:.\rtu_modbus/modbus_interface_functions.c **** **  Type 16 messages
  66:.\rtu_modbus/modbus_interface_functions.c **** **
  67:.\rtu_modbus/modbus_interface_functions.c **** */
  68:.\rtu_modbus/modbus_interface_functions.c **** 
  69:.\rtu_modbus/modbus_interface_functions.c **** uint16  mod_store_current_time( uint8 *buffer )
  70:.\rtu_modbus/modbus_interface_functions.c **** {
 199              		.loc 1 70 0
 200              		.cfi_startproc
 201              		@ args = 0, pretend = 0, frame = 16
 202              		@ frame_needed = 1, uses_anonymous_args = 0
 203 0000 80B5     		push	{r7, lr}
 204              		.cfi_def_cfa_offset 8
 205              		.cfi_offset 7, -8
 206              		.cfi_offset 14, -4
 207 0002 84B0     		sub	sp, sp, #16
 208              		.cfi_def_cfa_offset 24
 209 0004 00AF     		add	r7, sp, #0
 210              		.cfi_def_cfa_register 7
 211 0006 7860     		str	r0, [r7, #4]
  71:.\rtu_modbus/modbus_interface_functions.c ****     uint16 *temp_ptr;
  72:.\rtu_modbus/modbus_interface_functions.c ****     
  73:.\rtu_modbus/modbus_interface_functions.c ****     RTC_1_WriteSecond(*buffer++);   
 212              		.loc 1 73 0
ARM GAS  C:\Users\glenn\AppData\Local\Temp\ccg37PN7.s 			page 6


 213 0008 7B68     		ldr	r3, [r7, #4]
 214 000a 5A1C     		adds	r2, r3, #1
 215 000c 7A60     		str	r2, [r7, #4]
 216 000e 1B78     		ldrb	r3, [r3]	@ zero_extendqisi2
 217 0010 1846     		mov	r0, r3
 218 0012 FFF7FEFF 		bl	RTC_1_WriteSecond
  74:.\rtu_modbus/modbus_interface_functions.c ****     RTC_1_WriteMinute(*buffer++);  
 219              		.loc 1 74 0
 220 0016 7B68     		ldr	r3, [r7, #4]
 221 0018 5A1C     		adds	r2, r3, #1
 222 001a 7A60     		str	r2, [r7, #4]
 223 001c 1B78     		ldrb	r3, [r3]	@ zero_extendqisi2
 224 001e 1846     		mov	r0, r3
 225 0020 FFF7FEFF 		bl	RTC_1_WriteMinute
  75:.\rtu_modbus/modbus_interface_functions.c ****     RTC_1_WriteHour( *buffer++ );
 226              		.loc 1 75 0
 227 0024 7B68     		ldr	r3, [r7, #4]
 228 0026 5A1C     		adds	r2, r3, #1
 229 0028 7A60     		str	r2, [r7, #4]
 230 002a 1B78     		ldrb	r3, [r3]	@ zero_extendqisi2
 231 002c 1846     		mov	r0, r3
 232 002e FFF7FEFF 		bl	RTC_1_WriteHour
  76:.\rtu_modbus/modbus_interface_functions.c ****     RTC_1_WriteMonth(*buffer++);
 233              		.loc 1 76 0
 234 0032 7B68     		ldr	r3, [r7, #4]
 235 0034 5A1C     		adds	r2, r3, #1
 236 0036 7A60     		str	r2, [r7, #4]
 237 0038 1B78     		ldrb	r3, [r3]	@ zero_extendqisi2
 238 003a 1846     		mov	r0, r3
 239 003c FFF7FEFF 		bl	RTC_1_WriteMonth
  77:.\rtu_modbus/modbus_interface_functions.c ****     temp_ptr =     (uint16 *)buffer;
 240              		.loc 1 77 0
 241 0040 7B68     		ldr	r3, [r7, #4]
 242 0042 FB60     		str	r3, [r7, #12]
  78:.\rtu_modbus/modbus_interface_functions.c ****     RTC_1_WriteYear( *temp_ptr );
 243              		.loc 1 78 0
 244 0044 FB68     		ldr	r3, [r7, #12]
 245 0046 1B88     		ldrh	r3, [r3]
 246 0048 1846     		mov	r0, r3
 247 004a FFF7FEFF 		bl	RTC_1_WriteYear
  79:.\rtu_modbus/modbus_interface_functions.c **** 
  80:.\rtu_modbus/modbus_interface_functions.c ****     return 0;
 248              		.loc 1 80 0
 249 004e 0023     		movs	r3, #0
  81:.\rtu_modbus/modbus_interface_functions.c **** }
 250              		.loc 1 81 0
 251 0050 1846     		mov	r0, r3
 252 0052 1037     		adds	r7, r7, #16
 253              		.cfi_def_cfa_offset 8
 254 0054 BD46     		mov	sp, r7
 255              		.cfi_def_cfa_register 13
 256              		@ sp needed
 257 0056 80BD     		pop	{r7, pc}
 258              		.cfi_endproc
 259              	.LFE66:
 260              		.size	mod_store_current_time, .-mod_store_current_time
 261              		.bss
ARM GAS  C:\Users\glenn\AppData\Local\Temp\ccg37PN7.s 			page 7


 262              		.align	2
 263              	long_store:
 264 0000 00000000 		.space	4
 265              		.align	2
 266              	float_store:
 267 0004 00000000 		.space	4
 268              		.section	.text.mod_store_long,"ax",%progbits
 269              		.align	2
 270              		.global	mod_store_long
 271              		.thumb
 272              		.thumb_func
 273              		.type	mod_store_long, %function
 274              	mod_store_long:
 275              	.LFB67:
  82:.\rtu_modbus/modbus_interface_functions.c **** 
  83:.\rtu_modbus/modbus_interface_functions.c **** /*
  84:.\rtu_modbus/modbus_interface_functions.c **** **
  85:.\rtu_modbus/modbus_interface_functions.c **** ** Store
  86:.\rtu_modbus/modbus_interface_functions.c **** **
  87:.\rtu_modbus/modbus_interface_functions.c **** */
  88:.\rtu_modbus/modbus_interface_functions.c **** 
  89:.\rtu_modbus/modbus_interface_functions.c **** 
  90:.\rtu_modbus/modbus_interface_functions.c **** static uint32 long_store;
  91:.\rtu_modbus/modbus_interface_functions.c **** static float float_store;
  92:.\rtu_modbus/modbus_interface_functions.c **** 
  93:.\rtu_modbus/modbus_interface_functions.c **** uint16 mod_store_long( uint8 *buffer )
  94:.\rtu_modbus/modbus_interface_functions.c **** {
 276              		.loc 1 94 0
 277              		.cfi_startproc
 278              		@ args = 0, pretend = 0, frame = 16
 279              		@ frame_needed = 1, uses_anonymous_args = 0
 280              		@ link register save eliminated.
 281 0000 80B4     		push	{r7}
 282              		.cfi_def_cfa_offset 4
 283              		.cfi_offset 7, -4
 284 0002 85B0     		sub	sp, sp, #20
 285              		.cfi_def_cfa_offset 24
 286 0004 00AF     		add	r7, sp, #0
 287              		.cfi_def_cfa_register 7
 288 0006 7860     		str	r0, [r7, #4]
  95:.\rtu_modbus/modbus_interface_functions.c ****    uint32 *temp_ptr;
  96:.\rtu_modbus/modbus_interface_functions.c ****    temp_ptr = (uint32 *)buffer;
 289              		.loc 1 96 0
 290 0008 7B68     		ldr	r3, [r7, #4]
 291 000a FB60     		str	r3, [r7, #12]
  97:.\rtu_modbus/modbus_interface_functions.c ****    long_store = *temp_ptr;
 292              		.loc 1 97 0
 293 000c FB68     		ldr	r3, [r7, #12]
 294 000e 1B68     		ldr	r3, [r3]
 295 0010 044A     		ldr	r2, .L13
 296 0012 1360     		str	r3, [r2]
  98:.\rtu_modbus/modbus_interface_functions.c ****    return 0;
 297              		.loc 1 98 0
 298 0014 0023     		movs	r3, #0
  99:.\rtu_modbus/modbus_interface_functions.c **** }
 299              		.loc 1 99 0
 300 0016 1846     		mov	r0, r3
ARM GAS  C:\Users\glenn\AppData\Local\Temp\ccg37PN7.s 			page 8


 301 0018 1437     		adds	r7, r7, #20
 302              		.cfi_def_cfa_offset 4
 303 001a BD46     		mov	sp, r7
 304              		.cfi_def_cfa_register 13
 305              		@ sp needed
 306 001c 5DF8047B 		ldr	r7, [sp], #4
 307              		.cfi_restore 7
 308              		.cfi_def_cfa_offset 0
 309 0020 7047     		bx	lr
 310              	.L14:
 311 0022 00BF     		.align	2
 312              	.L13:
 313 0024 00000000 		.word	long_store
 314              		.cfi_endproc
 315              	.LFE67:
 316              		.size	mod_store_long, .-mod_store_long
 317              		.section	.text.mod_store_float,"ax",%progbits
 318              		.align	2
 319              		.global	mod_store_float
 320              		.thumb
 321              		.thumb_func
 322              		.type	mod_store_float, %function
 323              	mod_store_float:
 324              	.LFB68:
 100:.\rtu_modbus/modbus_interface_functions.c **** 
 101:.\rtu_modbus/modbus_interface_functions.c **** 
 102:.\rtu_modbus/modbus_interface_functions.c **** uint16 mod_store_float( uint8 *buffer )
 103:.\rtu_modbus/modbus_interface_functions.c **** {
 325              		.loc 1 103 0
 326              		.cfi_startproc
 327              		@ args = 0, pretend = 0, frame = 16
 328              		@ frame_needed = 1, uses_anonymous_args = 0
 329              		@ link register save eliminated.
 330 0000 80B4     		push	{r7}
 331              		.cfi_def_cfa_offset 4
 332              		.cfi_offset 7, -4
 333 0002 85B0     		sub	sp, sp, #20
 334              		.cfi_def_cfa_offset 24
 335 0004 00AF     		add	r7, sp, #0
 336              		.cfi_def_cfa_register 7
 337 0006 7860     		str	r0, [r7, #4]
 104:.\rtu_modbus/modbus_interface_functions.c ****     float *temp_ptr;
 105:.\rtu_modbus/modbus_interface_functions.c ****     temp_ptr = (float *)buffer;
 338              		.loc 1 105 0
 339 0008 7B68     		ldr	r3, [r7, #4]
 340 000a FB60     		str	r3, [r7, #12]
 106:.\rtu_modbus/modbus_interface_functions.c ****     float_store = *temp_ptr;
 341              		.loc 1 106 0
 342 000c FB68     		ldr	r3, [r7, #12]
 343 000e 1B68     		ldr	r3, [r3]	@ float
 344 0010 044A     		ldr	r2, .L17
 345 0012 1360     		str	r3, [r2]	@ float
 107:.\rtu_modbus/modbus_interface_functions.c ****     return 0;
 346              		.loc 1 107 0
 347 0014 0023     		movs	r3, #0
 108:.\rtu_modbus/modbus_interface_functions.c **** }
 348              		.loc 1 108 0
ARM GAS  C:\Users\glenn\AppData\Local\Temp\ccg37PN7.s 			page 9


 349 0016 1846     		mov	r0, r3
 350 0018 1437     		adds	r7, r7, #20
 351              		.cfi_def_cfa_offset 4
 352 001a BD46     		mov	sp, r7
 353              		.cfi_def_cfa_register 13
 354              		@ sp needed
 355 001c 5DF8047B 		ldr	r7, [sp], #4
 356              		.cfi_restore 7
 357              		.cfi_def_cfa_offset 0
 358 0020 7047     		bx	lr
 359              	.L18:
 360 0022 00BF     		.align	2
 361              	.L17:
 362 0024 04000000 		.word	float_store
 363              		.cfi_endproc
 364              	.LFE68:
 365              		.size	mod_store_float, .-mod_store_float
 366              		.text
 367              	.Letext0:
 368              		.file 2 "c:\\program files (x86)\\cypress\\psoc creator\\3.3\\psoc creator\\import\\gnu\\arm\\4.9.
 369              		.file 3 "c:\\program files (x86)\\cypress\\psoc creator\\3.3\\psoc creator\\import\\gnu\\arm\\4.9.
 370              		.file 4 "Generated_Source\\PSoC5/cytypes.h"
 371              		.file 5 "Generated_Source\\PSoC5/core_cm3.h"