ARM GAS  C:\Users\glenn\AppData\Local\Temp\cc0I1j3r.s 			page 1


   1              		.syntax unified
   2              		.cpu cortex-m3
   3              		.fpu softvfp
   4              		.eabi_attribute 20, 1
   5              		.eabi_attribute 21, 1
   6              		.eabi_attribute 23, 3
   7              		.eabi_attribute 24, 1
   8              		.eabi_attribute 25, 1
   9              		.eabi_attribute 26, 1
  10              		.eabi_attribute 30, 6
  11              		.eabi_attribute 34, 1
  12              		.eabi_attribute 18, 4
  13              		.thumb
  14              		.file	"modbus_serial_ctrl.c"
  15              		.text
  16              	.Ltext0:
  17              		.cfi_sections	.debug_frame
  18              		.section	.text.get_modbus_address,"ax",%progbits
  19              		.align	2
  20              		.thumb
  21              		.thumb_func
  22              		.type	get_modbus_address, %function
  23              	get_modbus_address:
  24              	.LFB63:
  25              		.file 1 ".\\rtu_modbus\\process_modbus_message.h"
   1:.\rtu_modbus/process_modbus_message.h **** 
   2:.\rtu_modbus/process_modbus_message.h **** /*
   3:.\rtu_modbus/process_modbus_message.h **** **
   4:.\rtu_modbus/process_modbus_message.h **** ** File: process_modbus_message.h
   5:.\rtu_modbus/process_modbus_message.h **** **
   6:.\rtu_modbus/process_modbus_message.h **** **/
   7:.\rtu_modbus/process_modbus_message.h **** 
   8:.\rtu_modbus/process_modbus_message.h **** #ifndef _PROCESS_MODBUS_MESSAGE_H_
   9:.\rtu_modbus/process_modbus_message.h **** #define _PROCESS_MODBUS_MESSAGE_H_
  10:.\rtu_modbus/process_modbus_message.h ****     
  11:.\rtu_modbus/process_modbus_message.h **** #include <device.h>
  12:.\rtu_modbus/process_modbus_message.h **** 
  13:.\rtu_modbus/process_modbus_message.h ****     
  14:.\rtu_modbus/process_modbus_message.h **** #define MODBUS_REGISTER_LENGTH 256
  15:.\rtu_modbus/process_modbus_message.h **** 
  16:.\rtu_modbus/process_modbus_message.h **** /*
  17:.\rtu_modbus/process_modbus_message.h **** **
  18:.\rtu_modbus/process_modbus_message.h **** ** Modbus Register Definitions
  19:.\rtu_modbus/process_modbus_message.h **** **
  20:.\rtu_modbus/process_modbus_message.h **** */ 
  21:.\rtu_modbus/process_modbus_message.h **** 
  22:.\rtu_modbus/process_modbus_message.h **** 
  23:.\rtu_modbus/process_modbus_message.h ****     
  24:.\rtu_modbus/process_modbus_message.h **** // System Definitions
  25:.\rtu_modbus/process_modbus_message.h ****     
  26:.\rtu_modbus/process_modbus_message.h **** #define MOD_UNIT_ID                     0
  27:.\rtu_modbus/process_modbus_message.h **** #define MOD_UNIT_TEMP                   1
  28:.\rtu_modbus/process_modbus_message.h **** #define MOD_RTU_WATCH_DOG_FLAG          2
  29:.\rtu_modbus/process_modbus_message.h **** #define MOD_CONTROLLER_WATCH_DOG_FLAG   3
  30:.\rtu_modbus/process_modbus_message.h **** #define MOD_COMMISSIONING_FLAG          4
  31:.\rtu_modbus/process_modbus_message.h **** #define MOD_POWER_UP_EVENT              5
  32:.\rtu_modbus/process_modbus_message.h **** #define MOD_MINUTE_ROLLOVER             6
ARM GAS  C:\Users\glenn\AppData\Local\Temp\cc0I1j3r.s 			page 2


  33:.\rtu_modbus/process_modbus_message.h **** #define MOD_DISCRETE_IO_CHANGE          7
  34:.\rtu_modbus/process_modbus_message.h **** #define MOD_YEAR                        8
  35:.\rtu_modbus/process_modbus_message.h **** #define MOD_MONTH                       9
  36:.\rtu_modbus/process_modbus_message.h **** #define MOD_DAY                        10
  37:.\rtu_modbus/process_modbus_message.h **** #define MOD_HOUR                       11
  38:.\rtu_modbus/process_modbus_message.h **** #define MOD_MINUTE                     12
  39:.\rtu_modbus/process_modbus_message.h **** #define MOD_SECOND                     13
  40:.\rtu_modbus/process_modbus_message.h **** 
  41:.\rtu_modbus/process_modbus_message.h ****        
  42:.\rtu_modbus/process_modbus_message.h ****          
  43:.\rtu_modbus/process_modbus_message.h **** // Logging Control
  44:.\rtu_modbus/process_modbus_message.h **** #define ACTIVE_FLAG                 30
  45:.\rtu_modbus/process_modbus_message.h **** #define LOGGING_FLAG                31
  46:.\rtu_modbus/process_modbus_message.h **** #define LOGGING_INDEX               32
  47:.\rtu_modbus/process_modbus_message.h **** #define LOGGING_RATE                33
  48:.\rtu_modbus/process_modbus_message.h **** #define NEW_MOISTURE_DATA           34
  49:.\rtu_modbus/process_modbus_message.h **** 
  50:.\rtu_modbus/process_modbus_message.h **** 
  51:.\rtu_modbus/process_modbus_message.h **** //  Moisture Sensor Data
  52:.\rtu_modbus/process_modbus_message.h **** #define MOISTURE_TEMP_DC_MIN_FLOAT      40
  53:.\rtu_modbus/process_modbus_message.h **** #define MOISTURE_TEMP_AC_MIN_FLOAT      42
  54:.\rtu_modbus/process_modbus_message.h **** #define MOISTURE_TEMP_DC_SEC_FLOAT      44
  55:.\rtu_modbus/process_modbus_message.h **** #define MOISTURE_TEMP_AC_SEC_FLOAT      46
  56:.\rtu_modbus/process_modbus_message.h **** #define MOISTURE_SENSOR_1_FLOAT         50
  57:.\rtu_modbus/process_modbus_message.h **** #define MOISTURE_SENSOR_2_FLOAT         52
  58:.\rtu_modbus/process_modbus_message.h **** #define MOISTURE_SENSOR_3_FLOAT         54
  59:.\rtu_modbus/process_modbus_message.h **** #define MOISTRUE_SENSOR_4_FLOAT         56
  60:.\rtu_modbus/process_modbus_message.h **** #define MOISTURE_SENSOR_5_FLOAT         58
  61:.\rtu_modbus/process_modbus_message.h **** #define MOISTURE_SENSOR_6_FLOAT         60
  62:.\rtu_modbus/process_modbus_message.h **** #define MOISTURE_SENSOR_7_FLOAT         62
  63:.\rtu_modbus/process_modbus_message.h **** #define MOISTURE_SENSOR_8_FLOAT         64   
  64:.\rtu_modbus/process_modbus_message.h **** #define MOISTURE_SENSOR_9_FLOAT         66
  65:.\rtu_modbus/process_modbus_message.h **** #define MOISTURE_SENSOR_10_FLOAT         68
  66:.\rtu_modbus/process_modbus_message.h **** #define MOISTURE_SENSOR_11_FLOAT         70
  67:.\rtu_modbus/process_modbus_message.h **** #define MOISTURE_SENSOR_12_FLOAT         72
  68:.\rtu_modbus/process_modbus_message.h **** #define MOISTRUE_SENSOR_13_FLOAT         74
  69:.\rtu_modbus/process_modbus_message.h **** #define MOISTURE_SENSOR_14_FLOAT         76
  70:.\rtu_modbus/process_modbus_message.h **** #define MOISTURE_SENSOR_15_FLOAT         78
  71:.\rtu_modbus/process_modbus_message.h **** 
  72:.\rtu_modbus/process_modbus_message.h **** 
  73:.\rtu_modbus/process_modbus_message.h **** // CONFIGURATION DATA
  74:.\rtu_modbus/process_modbus_message.h **** #define MOISTURE_SENSOR_1_CONFIGURATION    80
  75:.\rtu_modbus/process_modbus_message.h **** #define MOISTURE_SENSOR_2_CONFIGURATION    81
  76:.\rtu_modbus/process_modbus_message.h **** #define MOISTURE_SENSOR_3_CONFIGURATION    82 
  77:.\rtu_modbus/process_modbus_message.h **** #define MOISTURE_SENSOR_4_CONFIGURATION    83
  78:.\rtu_modbus/process_modbus_message.h **** #define MOISTURE_SENSOR_5_CONFIGURATION    84
  79:.\rtu_modbus/process_modbus_message.h **** #define MOISTURE_SENSOR_6_CONFIGURATION    85
  80:.\rtu_modbus/process_modbus_message.h **** #define MOISTURE_SENSOR_7_CONFIGURATION    86
  81:.\rtu_modbus/process_modbus_message.h **** #define MOISTURE_SENSOR_8_CONFIGURATION    87
  82:.\rtu_modbus/process_modbus_message.h **** #define MOISTURE_SENSOR_9_CONFIGURATION    88
  83:.\rtu_modbus/process_modbus_message.h **** #define MOISTURE_SENSOR_10_CONFIGURATION    89
  84:.\rtu_modbus/process_modbus_message.h **** #define MOISTURE_SENSOR_11_CONFIGURATION    90
  85:.\rtu_modbus/process_modbus_message.h **** #define MOISTURE_SENSOR_12_CONFIGURATION    91 
  86:.\rtu_modbus/process_modbus_message.h **** #define MOISTURE_SENSOR_13_CONFIGURATION    92
  87:.\rtu_modbus/process_modbus_message.h **** #define MOISTURE_SENSOR_14_CONFIGURATION    93
  88:.\rtu_modbus/process_modbus_message.h **** #define MOISTURE_SENSOR_15_CONFIGURATION    94
  89:.\rtu_modbus/process_modbus_message.h **** #define MOISTURE_SENSOR_16_CONFIGURATION    95
ARM GAS  C:\Users\glenn\AppData\Local\Temp\cc0I1j3r.s 			page 3


  90:.\rtu_modbus/process_modbus_message.h **** 
  91:.\rtu_modbus/process_modbus_message.h **** #define MOISTURE_TEMP_CALIBRATION_A        100
  92:.\rtu_modbus/process_modbus_message.h **** #define MOISTURE_TEMP_CALIBRATION_B        102
  93:.\rtu_modbus/process_modbus_message.h **** 
  94:.\rtu_modbus/process_modbus_message.h **** //  Moisture Sensor Data
  95:.\rtu_modbus/process_modbus_message.h **** #define REFERENCE_RESISTOR_1_FLOAT         110
  96:.\rtu_modbus/process_modbus_message.h **** #define REFERENCE_RESISTOR_2_FLOAT         112
  97:.\rtu_modbus/process_modbus_message.h **** #define REFERENCE_RESISTOR__3_FLOAT        114
  98:.\rtu_modbus/process_modbus_message.h **** #define REFERENCE_RESISTOR_4_FLOAT         116
  99:.\rtu_modbus/process_modbus_message.h **** #define REFERENCE_RESISTOR_5_FLOAT         118
 100:.\rtu_modbus/process_modbus_message.h **** #define REFERENCE_RESISTOR_6_FLOAT         120
 101:.\rtu_modbus/process_modbus_message.h **** #define REFERENCE_RESISTOR_7_FLOAT         122
 102:.\rtu_modbus/process_modbus_message.h **** #define REFERENCE_RESISTOR_8_FLOAT         124   
 103:.\rtu_modbus/process_modbus_message.h **** #define REFERENCE_RESISTOR_9_FLOAT         126
 104:.\rtu_modbus/process_modbus_message.h **** #define REFERENCE_RESISTOR_10_FLOAT        128
 105:.\rtu_modbus/process_modbus_message.h **** #define REFERENCE_RESISTOR_11_FLOAT        130
 106:.\rtu_modbus/process_modbus_message.h **** #define REFERENCE_RESISTOR_12_FLOAT        132
 107:.\rtu_modbus/process_modbus_message.h **** #define REFERENCE_RESISTOR_13_FLOAT        134
 108:.\rtu_modbus/process_modbus_message.h **** #define REFERENCE_RESISTOR__14_FLOAT       136
 109:.\rtu_modbus/process_modbus_message.h **** #define REFERENCE_RESISTOR__15_FLOAT       138
 110:.\rtu_modbus/process_modbus_message.h **** 
 111:.\rtu_modbus/process_modbus_message.h **** 
 112:.\rtu_modbus/process_modbus_message.h ****     
 113:.\rtu_modbus/process_modbus_message.h **** 
 114:.\rtu_modbus/process_modbus_message.h **** 
 115:.\rtu_modbus/process_modbus_message.h **** 
 116:.\rtu_modbus/process_modbus_message.h **** #define MODBUS_ARRAY_LENGTH  sizeof( modbus_address_data)/sizeof(modbus_address_data)
 117:.\rtu_modbus/process_modbus_message.h **** 
 118:.\rtu_modbus/process_modbus_message.h **** 
 119:.\rtu_modbus/process_modbus_message.h **** extern const uint16 modbus_address_data[2];
 120:.\rtu_modbus/process_modbus_message.h **** 
 121:.\rtu_modbus/process_modbus_message.h **** static inline uint16 get_modbus_address( void )
 122:.\rtu_modbus/process_modbus_message.h **** {
  26              		.loc 1 122 0
  27              		.cfi_startproc
  28              		@ args = 0, pretend = 0, frame = 0
  29              		@ frame_needed = 1, uses_anonymous_args = 0
  30              		@ link register save eliminated.
  31 0000 80B4     		push	{r7}
  32              		.cfi_def_cfa_offset 4
  33              		.cfi_offset 7, -4
  34 0002 00AF     		add	r7, sp, #0
  35              		.cfi_def_cfa_register 7
 123:.\rtu_modbus/process_modbus_message.h ****     return modbus_address_data[0];
  36              		.loc 1 123 0
  37 0004 034B     		ldr	r3, .L3
  38 0006 1B88     		ldrh	r3, [r3]
 124:.\rtu_modbus/process_modbus_message.h **** }
  39              		.loc 1 124 0
  40 0008 1846     		mov	r0, r3
  41 000a BD46     		mov	sp, r7
  42              		.cfi_def_cfa_register 13
  43              		@ sp needed
  44 000c 5DF8047B 		ldr	r7, [sp], #4
  45              		.cfi_restore 7
  46              		.cfi_def_cfa_offset 0
  47 0010 7047     		bx	lr
ARM GAS  C:\Users\glenn\AppData\Local\Temp\cc0I1j3r.s 			page 4


  48              	.L4:
  49 0012 00BF     		.align	2
  50              	.L3:
  51 0014 00000000 		.word	modbus_address_data
  52              		.cfi_endproc
  53              	.LFE63:
  54              		.size	get_modbus_address, .-get_modbus_address
  55              		.section	.text.get_commissioning_address,"ax",%progbits
  56              		.align	2
  57              		.thumb
  58              		.thumb_func
  59              		.type	get_commissioning_address, %function
  60              	get_commissioning_address:
  61              	.LFB64:
 125:.\rtu_modbus/process_modbus_message.h **** 
 126:.\rtu_modbus/process_modbus_message.h **** static inline uint16 get_commissioning_address( void )
 127:.\rtu_modbus/process_modbus_message.h **** {
  62              		.loc 1 127 0
  63              		.cfi_startproc
  64              		@ args = 0, pretend = 0, frame = 0
  65              		@ frame_needed = 1, uses_anonymous_args = 0
  66              		@ link register save eliminated.
  67 0000 80B4     		push	{r7}
  68              		.cfi_def_cfa_offset 4
  69              		.cfi_offset 7, -4
  70 0002 00AF     		add	r7, sp, #0
  71              		.cfi_def_cfa_register 7
 128:.\rtu_modbus/process_modbus_message.h ****     return modbus_address_data[1];
  72              		.loc 1 128 0
  73 0004 034B     		ldr	r3, .L7
  74 0006 5B88     		ldrh	r3, [r3, #2]
 129:.\rtu_modbus/process_modbus_message.h **** }
  75              		.loc 1 129 0
  76 0008 1846     		mov	r0, r3
  77 000a BD46     		mov	sp, r7
  78              		.cfi_def_cfa_register 13
  79              		@ sp needed
  80 000c 5DF8047B 		ldr	r7, [sp], #4
  81              		.cfi_restore 7
  82              		.cfi_def_cfa_offset 0
  83 0010 7047     		bx	lr
  84              	.L8:
  85 0012 00BF     		.align	2
  86              	.L7:
  87 0014 00000000 		.word	modbus_address_data
  88              		.cfi_endproc
  89              	.LFE64:
  90              		.size	get_commissioning_address, .-get_commissioning_address
  91              		.bss
  92              		.align	2
  93              	uart_timer_state:
  94 0000 00000000 		.space	4
  95              		.align	2
  96              	uart_rx_state:
  97 0004 00000000 		.space	4
  98              		.align	2
  99              	uart_tx_state:
ARM GAS  C:\Users\glenn\AppData\Local\Temp\cc0I1j3r.s 			page 5


 100 0008 00000000 		.space	4
 101              		.align	2
 102              	rx_interval_count:
 103 000c 00000000 		.space	4
 104              		.align	1
 105              	modbus_address:
 106 0010 0000     		.space	2
 107 0012 0000     		.align	2
 108              	modbus_rx_index:
 109 0014 00000000 		.space	4
 110              		.align	2
 111              	modbus_in_buffer:
 112 0018 00000000 		.space	257
 112      00000000 
 112      00000000 
 112      00000000 
 112      00000000 
 113 0119 000000   		.align	2
 114              	modbus_tx_index:
 115 011c 00000000 		.space	4
 116              		.align	2
 117              	modbus_tx_message_count:
 118 0120 00000000 		.space	4
 119              		.align	2
 120              	modbus_out_buffer:
 121 0124 00000000 		.space	257
 121      00000000 
 121      00000000 
 121      00000000 
 121      00000000 
 122 0225 000000   		.align	2
 123              	read_status_value:
 124 0228 00000000 		.space	4
 125              		.section	.text.empty_rx_uart,"ax",%progbits
 126              		.align	2
 127              		.thumb
 128              		.thumb_func
 129              		.type	empty_rx_uart, %function
 130              	empty_rx_uart:
 131              	.LFB65:
 132              		.file 2 ".\\rtu_modbus\\modbus_serial_ctrl.c"
   1:.\rtu_modbus/modbus_serial_ctrl.c **** /*
   2:.\rtu_modbus/modbus_serial_ctrl.c **** ** File: modbus_srial_ctrl.c
   3:.\rtu_modbus/modbus_serial_ctrl.c **** **
   4:.\rtu_modbus/modbus_serial_ctrl.c **** **
   5:.\rtu_modbus/modbus_serial_ctrl.c **** */
   6:.\rtu_modbus/modbus_serial_ctrl.c **** 
   7:.\rtu_modbus/modbus_serial_ctrl.c **** #include <device.h>
   8:.\rtu_modbus/modbus_serial_ctrl.c **** #include "modbus_serial_ctrl.h"
   9:.\rtu_modbus/modbus_serial_ctrl.c **** #include "process_modbus_message.h"
  10:.\rtu_modbus/modbus_serial_ctrl.c **** #include "cf_events.h"
  11:.\rtu_modbus/modbus_serial_ctrl.c **** #include "cf_status_bit.h"
  12:.\rtu_modbus/modbus_serial_ctrl.c **** 
  13:.\rtu_modbus/modbus_serial_ctrl.c **** 
  14:.\rtu_modbus/modbus_serial_ctrl.c **** 
  15:.\rtu_modbus/modbus_serial_ctrl.c **** #define UART_RX_IDLE           0
  16:.\rtu_modbus/modbus_serial_ctrl.c **** #define UART_RX_ACTIVE_RECEIVE 1
ARM GAS  C:\Users\glenn\AppData\Local\Temp\cc0I1j3r.s 			page 6


  17:.\rtu_modbus/modbus_serial_ctrl.c **** #define UART_RX_BAD_ADDRESS    2
  18:.\rtu_modbus/modbus_serial_ctrl.c **** #define UART_RX_DUMP_STATE     3
  19:.\rtu_modbus/modbus_serial_ctrl.c **** 
  20:.\rtu_modbus/modbus_serial_ctrl.c **** #define UART_TX_STATE_IDLE              0
  21:.\rtu_modbus/modbus_serial_ctrl.c **** #define UART_TX_STATE_TRANSMITTING      1
  22:.\rtu_modbus/modbus_serial_ctrl.c **** #define UART_TX_STATE_WAIT_FOR_EOT      2
  23:.\rtu_modbus/modbus_serial_ctrl.c **** 
  24:.\rtu_modbus/modbus_serial_ctrl.c **** 
  25:.\rtu_modbus/modbus_serial_ctrl.c **** #define UART_TIMER_IDLE 0
  26:.\rtu_modbus/modbus_serial_ctrl.c **** #define UART_TIMER_BAD_ADDRESS 1
  27:.\rtu_modbus/modbus_serial_ctrl.c **** #define UART_TIMER_RX  2
  28:.\rtu_modbus/modbus_serial_ctrl.c **** 
  29:.\rtu_modbus/modbus_serial_ctrl.c **** #define RX_FIFO_SIZE 16
  30:.\rtu_modbus/modbus_serial_ctrl.c **** #define TX_FIFO_SIZE 16
  31:.\rtu_modbus/modbus_serial_ctrl.c **** #define MODBUS_BUFFER_SIZE 256
  32:.\rtu_modbus/modbus_serial_ctrl.c **** 
  33:.\rtu_modbus/modbus_serial_ctrl.c **** static int uart_timer_state;
  34:.\rtu_modbus/modbus_serial_ctrl.c **** static int uart_rx_state;
  35:.\rtu_modbus/modbus_serial_ctrl.c **** static int uart_tx_state;
  36:.\rtu_modbus/modbus_serial_ctrl.c **** // process_rtu_message waits on CF_USB_RTU_EVENT event sent by rx interrupt handler
  37:.\rtu_modbus/modbus_serial_ctrl.c **** 
  38:.\rtu_modbus/modbus_serial_ctrl.c **** static int rx_interval_count;
  39:.\rtu_modbus/modbus_serial_ctrl.c **** 
  40:.\rtu_modbus/modbus_serial_ctrl.c **** 
  41:.\rtu_modbus/modbus_serial_ctrl.c **** static uint16 modbus_address;
  42:.\rtu_modbus/modbus_serial_ctrl.c **** static int modbus_rx_index;
  43:.\rtu_modbus/modbus_serial_ctrl.c **** static uint8 modbus_in_buffer[MODBUS_BUFFER_SIZE+1];
  44:.\rtu_modbus/modbus_serial_ctrl.c **** 
  45:.\rtu_modbus/modbus_serial_ctrl.c **** static int modbus_tx_index;
  46:.\rtu_modbus/modbus_serial_ctrl.c **** static int modbus_tx_message_count;
  47:.\rtu_modbus/modbus_serial_ctrl.c **** static uint8 modbus_out_buffer[MODBUS_BUFFER_SIZE+1];
  48:.\rtu_modbus/modbus_serial_ctrl.c **** 
  49:.\rtu_modbus/modbus_serial_ctrl.c **** static void init_rx_state( void );
  50:.\rtu_modbus/modbus_serial_ctrl.c **** static void init_processing_state( void );
  51:.\rtu_modbus/modbus_serial_ctrl.c **** static void init_tx_state( int tx_count );
  52:.\rtu_modbus/modbus_serial_ctrl.c **** static void abort_rx_state( void );
  53:.\rtu_modbus/modbus_serial_ctrl.c **** static volatile int read_status_value;
  54:.\rtu_modbus/modbus_serial_ctrl.c **** 
  55:.\rtu_modbus/modbus_serial_ctrl.c **** static inline int empty_rx_uart( void )
  56:.\rtu_modbus/modbus_serial_ctrl.c **** {
 133              		.loc 2 56 0
 134              		.cfi_startproc
 135              		@ args = 0, pretend = 0, frame = 8
 136              		@ frame_needed = 1, uses_anonymous_args = 0
 137 0000 90B5     		push	{r4, r7, lr}
 138              		.cfi_def_cfa_offset 12
 139              		.cfi_offset 4, -12
 140              		.cfi_offset 7, -8
 141              		.cfi_offset 14, -4
 142 0002 83B0     		sub	sp, sp, #12
 143              		.cfi_def_cfa_offset 24
 144 0004 00AF     		add	r7, sp, #0
 145              		.cfi_def_cfa_register 7
  57:.\rtu_modbus/modbus_serial_ctrl.c ****     int i;
  58:.\rtu_modbus/modbus_serial_ctrl.c ****     int return_value;
  59:.\rtu_modbus/modbus_serial_ctrl.c ****     
  60:.\rtu_modbus/modbus_serial_ctrl.c ****     return_value = 0;
ARM GAS  C:\Users\glenn\AppData\Local\Temp\cc0I1j3r.s 			page 7


 146              		.loc 2 60 0
 147 0006 0023     		movs	r3, #0
 148 0008 3B60     		str	r3, [r7]
  61:.\rtu_modbus/modbus_serial_ctrl.c ****     for( i = 0; i < RX_FIFO_SIZE; i++ )
 149              		.loc 2 61 0
 150 000a 0023     		movs	r3, #0
 151 000c 7B60     		str	r3, [r7, #4]
 152 000e 26E0     		b	.L10
 153              	.L13:
  62:.\rtu_modbus/modbus_serial_ctrl.c ****     {
  63:.\rtu_modbus/modbus_serial_ctrl.c ****         read_status_value = UART_1_ReadRxStatus();
 154              		.loc 2 63 0
 155 0010 FFF7FEFF 		bl	UART_1_ReadRxStatus
 156 0014 0346     		mov	r3, r0
 157 0016 1A46     		mov	r2, r3
 158 0018 154B     		ldr	r3, .L15
 159 001a 1A60     		str	r2, [r3]
  64:.\rtu_modbus/modbus_serial_ctrl.c ****         if(  read_status_value & UART_1_RX_STS_FIFO_NOTEMPTY )
 160              		.loc 2 64 0
 161 001c 144B     		ldr	r3, .L15
 162 001e 1B68     		ldr	r3, [r3]
 163 0020 03F02003 		and	r3, r3, #32
 164 0024 002B     		cmp	r3, #0
 165 0026 17D0     		beq	.L11
  65:.\rtu_modbus/modbus_serial_ctrl.c ****         {
  66:.\rtu_modbus/modbus_serial_ctrl.c ****             return_value += 1;
 166              		.loc 2 66 0
 167 0028 3B68     		ldr	r3, [r7]
 168 002a 0133     		adds	r3, r3, #1
 169 002c 3B60     		str	r3, [r7]
  67:.\rtu_modbus/modbus_serial_ctrl.c ****             modbus_in_buffer[ modbus_rx_index ] = UART_1_ReadRxData();
 170              		.loc 2 67 0
 171 002e 114B     		ldr	r3, .L15+4
 172 0030 1C68     		ldr	r4, [r3]
 173 0032 FFF7FEFF 		bl	UART_1_ReadRxData
 174 0036 0346     		mov	r3, r0
 175 0038 1A46     		mov	r2, r3
 176 003a 0F4B     		ldr	r3, .L15+8
 177 003c 1A55     		strb	r2, [r3, r4]
  68:.\rtu_modbus/modbus_serial_ctrl.c ****             if( modbus_rx_index > MODBUS_BUFFER_SIZE )
 178              		.loc 2 68 0
 179 003e 0D4B     		ldr	r3, .L15+4
 180 0040 1B68     		ldr	r3, [r3]
 181 0042 B3F5807F 		cmp	r3, #256
 182 0046 02DD     		ble	.L12
  69:.\rtu_modbus/modbus_serial_ctrl.c ****             {
  70:.\rtu_modbus/modbus_serial_ctrl.c ****                 abort_rx_state();
 183              		.loc 2 70 0
 184 0048 FFF7FEFF 		bl	abort_rx_state
 185 004c 04E0     		b	.L11
 186              	.L12:
  71:.\rtu_modbus/modbus_serial_ctrl.c ****             }
  72:.\rtu_modbus/modbus_serial_ctrl.c ****             else
  73:.\rtu_modbus/modbus_serial_ctrl.c ****             {
  74:.\rtu_modbus/modbus_serial_ctrl.c ****                 modbus_rx_index += 1;
 187              		.loc 2 74 0
 188 004e 094B     		ldr	r3, .L15+4
ARM GAS  C:\Users\glenn\AppData\Local\Temp\cc0I1j3r.s 			page 8


 189 0050 1B68     		ldr	r3, [r3]
 190 0052 0133     		adds	r3, r3, #1
 191 0054 074A     		ldr	r2, .L15+4
 192 0056 1360     		str	r3, [r2]
 193              	.L11:
  61:.\rtu_modbus/modbus_serial_ctrl.c ****     {
 194              		.loc 2 61 0 discriminator 2
 195 0058 7B68     		ldr	r3, [r7, #4]
 196 005a 0133     		adds	r3, r3, #1
 197 005c 7B60     		str	r3, [r7, #4]
 198              	.L10:
  61:.\rtu_modbus/modbus_serial_ctrl.c ****     {
 199              		.loc 2 61 0 is_stmt 0 discriminator 1
 200 005e 7B68     		ldr	r3, [r7, #4]
 201 0060 0F2B     		cmp	r3, #15
 202 0062 D5DD     		ble	.L13
  75:.\rtu_modbus/modbus_serial_ctrl.c ****             }
  76:.\rtu_modbus/modbus_serial_ctrl.c ****         
  77:.\rtu_modbus/modbus_serial_ctrl.c ****         }
  78:.\rtu_modbus/modbus_serial_ctrl.c ****     }
  79:.\rtu_modbus/modbus_serial_ctrl.c ****     return return_value;
 203              		.loc 2 79 0 is_stmt 1
 204 0064 3B68     		ldr	r3, [r7]
  80:.\rtu_modbus/modbus_serial_ctrl.c **** }
 205              		.loc 2 80 0
 206 0066 1846     		mov	r0, r3
 207 0068 0C37     		adds	r7, r7, #12
 208              		.cfi_def_cfa_offset 12
 209 006a BD46     		mov	sp, r7
 210              		.cfi_def_cfa_register 13
 211              		@ sp needed
 212 006c 90BD     		pop	{r4, r7, pc}
 213              	.L16:
 214 006e 00BF     		.align	2
 215              	.L15:
 216 0070 28020000 		.word	read_status_value
 217 0074 14000000 		.word	modbus_rx_index
 218 0078 18000000 		.word	modbus_in_buffer
 219              		.cfi_endproc
 220              	.LFE65:
 221              		.size	empty_rx_uart, .-empty_rx_uart
 222              		.section	.text.dump_rx_uart,"ax",%progbits
 223              		.align	2
 224              		.thumb
 225              		.thumb_func
 226              		.type	dump_rx_uart, %function
 227              	dump_rx_uart:
 228              	.LFB66:
  81:.\rtu_modbus/modbus_serial_ctrl.c **** 
  82:.\rtu_modbus/modbus_serial_ctrl.c **** static inline void dump_rx_uart( void )
  83:.\rtu_modbus/modbus_serial_ctrl.c **** {
 229              		.loc 2 83 0
 230              		.cfi_startproc
 231              		@ args = 0, pretend = 0, frame = 8
 232              		@ frame_needed = 1, uses_anonymous_args = 0
 233 0000 80B5     		push	{r7, lr}
 234              		.cfi_def_cfa_offset 8
ARM GAS  C:\Users\glenn\AppData\Local\Temp\cc0I1j3r.s 			page 9


 235              		.cfi_offset 7, -8
 236              		.cfi_offset 14, -4
 237 0002 82B0     		sub	sp, sp, #8
 238              		.cfi_def_cfa_offset 16
 239 0004 00AF     		add	r7, sp, #0
 240              		.cfi_def_cfa_register 7
  84:.\rtu_modbus/modbus_serial_ctrl.c ****     int i;
  85:.\rtu_modbus/modbus_serial_ctrl.c ****    
  86:.\rtu_modbus/modbus_serial_ctrl.c ****     for( i = 0; i < RX_FIFO_SIZE; i++ )
 241              		.loc 2 86 0
 242 0006 0023     		movs	r3, #0
 243 0008 7B60     		str	r3, [r7, #4]
 244 000a 12E0     		b	.L18
 245              	.L22:
  87:.\rtu_modbus/modbus_serial_ctrl.c ****     {
  88:.\rtu_modbus/modbus_serial_ctrl.c ****         read_status_value = UART_1_ReadRxStatus();
 246              		.loc 2 88 0
 247 000c FFF7FEFF 		bl	UART_1_ReadRxStatus
 248 0010 0346     		mov	r3, r0
 249 0012 1A46     		mov	r2, r3
 250 0014 0A4B     		ldr	r3, .L24
 251 0016 1A60     		str	r2, [r3]
  89:.\rtu_modbus/modbus_serial_ctrl.c ****         if(  read_status_value & UART_1_RX_STS_FIFO_NOTEMPTY )
 252              		.loc 2 89 0
 253 0018 094B     		ldr	r3, .L24
 254 001a 1B68     		ldr	r3, [r3]
 255 001c 03F02003 		and	r3, r3, #32
 256 0020 002B     		cmp	r3, #0
 257 0022 02D0     		beq	.L19
  90:.\rtu_modbus/modbus_serial_ctrl.c ****         {
  91:.\rtu_modbus/modbus_serial_ctrl.c ****              UART_1_ReadRxData();
 258              		.loc 2 91 0
 259 0024 FFF7FEFF 		bl	UART_1_ReadRxData
 260 0028 00E0     		b	.L23
 261              	.L19:
  92:.\rtu_modbus/modbus_serial_ctrl.c ****          
  93:.\rtu_modbus/modbus_serial_ctrl.c ****         }
  94:.\rtu_modbus/modbus_serial_ctrl.c ****         else
  95:.\rtu_modbus/modbus_serial_ctrl.c ****         {
  96:.\rtu_modbus/modbus_serial_ctrl.c ****             break;
 262              		.loc 2 96 0
 263 002a 05E0     		b	.L17
 264              	.L23:
  86:.\rtu_modbus/modbus_serial_ctrl.c ****     {
 265              		.loc 2 86 0 discriminator 2
 266 002c 7B68     		ldr	r3, [r7, #4]
 267 002e 0133     		adds	r3, r3, #1
 268 0030 7B60     		str	r3, [r7, #4]
 269              	.L18:
  86:.\rtu_modbus/modbus_serial_ctrl.c ****     {
 270              		.loc 2 86 0 is_stmt 0 discriminator 1
 271 0032 7B68     		ldr	r3, [r7, #4]
 272 0034 0F2B     		cmp	r3, #15
 273 0036 E9DD     		ble	.L22
 274              	.L17:
  97:.\rtu_modbus/modbus_serial_ctrl.c ****         }
  98:.\rtu_modbus/modbus_serial_ctrl.c ****     }
ARM GAS  C:\Users\glenn\AppData\Local\Temp\cc0I1j3r.s 			page 10


  99:.\rtu_modbus/modbus_serial_ctrl.c ****     
 100:.\rtu_modbus/modbus_serial_ctrl.c **** }
 275              		.loc 2 100 0 is_stmt 1
 276 0038 0837     		adds	r7, r7, #8
 277              		.cfi_def_cfa_offset 8
 278 003a BD46     		mov	sp, r7
 279              		.cfi_def_cfa_register 13
 280              		@ sp needed
 281 003c 80BD     		pop	{r7, pc}
 282              	.L25:
 283 003e 00BF     		.align	2
 284              	.L24:
 285 0040 28020000 		.word	read_status_value
 286              		.cfi_endproc
 287              	.LFE66:
 288              		.size	dump_rx_uart, .-dump_rx_uart
 289              		.section	.text.check_modbus_address,"ax",%progbits
 290              		.align	2
 291              		.thumb
 292              		.thumb_func
 293              		.type	check_modbus_address, %function
 294              	check_modbus_address:
 295              	.LFB67:
 101:.\rtu_modbus/modbus_serial_ctrl.c **** 
 102:.\rtu_modbus/modbus_serial_ctrl.c **** static inline int check_modbus_address( void )
 103:.\rtu_modbus/modbus_serial_ctrl.c **** {
 296              		.loc 2 103 0
 297              		.cfi_startproc
 298              		@ args = 0, pretend = 0, frame = 8
 299              		@ frame_needed = 1, uses_anonymous_args = 0
 300              		@ link register save eliminated.
 301 0000 80B4     		push	{r7}
 302              		.cfi_def_cfa_offset 4
 303              		.cfi_offset 7, -4
 304 0002 83B0     		sub	sp, sp, #12
 305              		.cfi_def_cfa_offset 16
 306 0004 00AF     		add	r7, sp, #0
 307              		.cfi_def_cfa_register 7
 104:.\rtu_modbus/modbus_serial_ctrl.c ****     int return_value;
 105:.\rtu_modbus/modbus_serial_ctrl.c ****     if( modbus_in_buffer[0] == modbus_address )
 308              		.loc 2 105 0
 309 0006 094B     		ldr	r3, .L30
 310 0008 1B78     		ldrb	r3, [r3]	@ zero_extendqisi2
 311 000a 9AB2     		uxth	r2, r3
 312 000c 084B     		ldr	r3, .L30+4
 313 000e 1B88     		ldrh	r3, [r3]
 314 0010 9A42     		cmp	r2, r3
 315 0012 02D1     		bne	.L27
 106:.\rtu_modbus/modbus_serial_ctrl.c ****     {
 107:.\rtu_modbus/modbus_serial_ctrl.c ****         return_value = 1;
 316              		.loc 2 107 0
 317 0014 0123     		movs	r3, #1
 318 0016 7B60     		str	r3, [r7, #4]
 319 0018 01E0     		b	.L28
 320              	.L27:
 108:.\rtu_modbus/modbus_serial_ctrl.c ****     }
 109:.\rtu_modbus/modbus_serial_ctrl.c ****     else
ARM GAS  C:\Users\glenn\AppData\Local\Temp\cc0I1j3r.s 			page 11


 110:.\rtu_modbus/modbus_serial_ctrl.c ****     {
 111:.\rtu_modbus/modbus_serial_ctrl.c ****         return_value = 0;
 321              		.loc 2 111 0
 322 001a 0023     		movs	r3, #0
 323 001c 7B60     		str	r3, [r7, #4]
 324              	.L28:
 112:.\rtu_modbus/modbus_serial_ctrl.c ****     }
 113:.\rtu_modbus/modbus_serial_ctrl.c ****     return return_value;
 325              		.loc 2 113 0
 326 001e 7B68     		ldr	r3, [r7, #4]
 114:.\rtu_modbus/modbus_serial_ctrl.c ****     
 115:.\rtu_modbus/modbus_serial_ctrl.c **** }
 327              		.loc 2 115 0
 328 0020 1846     		mov	r0, r3
 329 0022 0C37     		adds	r7, r7, #12
 330              		.cfi_def_cfa_offset 4
 331 0024 BD46     		mov	sp, r7
 332              		.cfi_def_cfa_register 13
 333              		@ sp needed
 334 0026 5DF8047B 		ldr	r7, [sp], #4
 335              		.cfi_restore 7
 336              		.cfi_def_cfa_offset 0
 337 002a 7047     		bx	lr
 338              	.L31:
 339              		.align	2
 340              	.L30:
 341 002c 18000000 		.word	modbus_in_buffer
 342 0030 10000000 		.word	modbus_address
 343              		.cfi_endproc
 344              	.LFE67:
 345              		.size	check_modbus_address, .-check_modbus_address
 346              		.section	.text.rx_interrupt,"ax",%progbits
 347              		.align	2
 348              		.global	rx_interrupt
 349              		.thumb
 350              		.thumb_func
 351              		.type	rx_interrupt, %function
 352              	rx_interrupt:
 353              	.LFB68:
 116:.\rtu_modbus/modbus_serial_ctrl.c **** 
 117:.\rtu_modbus/modbus_serial_ctrl.c **** 
 118:.\rtu_modbus/modbus_serial_ctrl.c **** CY_ISR_PROTO( rx_interrupt )
 119:.\rtu_modbus/modbus_serial_ctrl.c **** {
 354              		.loc 2 119 0
 355              		.cfi_startproc
 356              		@ args = 0, pretend = 0, frame = 0
 357              		@ frame_needed = 1, uses_anonymous_args = 0
 358 0000 80B5     		push	{r7, lr}
 359              		.cfi_def_cfa_offset 8
 360              		.cfi_offset 7, -8
 361              		.cfi_offset 14, -4
 362 0002 00AF     		add	r7, sp, #0
 363              		.cfi_def_cfa_register 7
 120:.\rtu_modbus/modbus_serial_ctrl.c ****    
 121:.\rtu_modbus/modbus_serial_ctrl.c ****     switch( uart_rx_state )
 364              		.loc 2 121 0
 365 0004 1F4B     		ldr	r3, .L41
ARM GAS  C:\Users\glenn\AppData\Local\Temp\cc0I1j3r.s 			page 12


 366 0006 1B68     		ldr	r3, [r3]
 367 0008 032B     		cmp	r3, #3
 368 000a 3AD8     		bhi	.L32
 369 000c 01A2     		adr	r2, .L35
 370 000e 52F823F0 		ldr	pc, [r2, r3, lsl #2]
 371 0012 00BF     		.p2align 2
 372              	.L35:
 373 0014 25000000 		.word	.L34+1
 374 0018 5F000000 		.word	.L36+1
 375 001c 6B000000 		.word	.L37+1
 376 0020 7D000000 		.word	.L38+1
 377              		.p2align 1
 378              	.L34:
 122:.\rtu_modbus/modbus_serial_ctrl.c ****     {
 123:.\rtu_modbus/modbus_serial_ctrl.c ****         case UART_RX_IDLE:
 124:.\rtu_modbus/modbus_serial_ctrl.c ****            rx_interval_count = empty_rx_uart();
 379              		.loc 2 124 0
 380 0024 FFF7FEFF 		bl	empty_rx_uart
 381 0028 0246     		mov	r2, r0
 382 002a 174B     		ldr	r3, .L41+4
 383 002c 1A60     		str	r2, [r3]
 125:.\rtu_modbus/modbus_serial_ctrl.c ****            if( rx_interval_count > 0 )
 384              		.loc 2 125 0
 385 002e 164B     		ldr	r3, .L41+4
 386 0030 1B68     		ldr	r3, [r3]
 387 0032 002B     		cmp	r3, #0
 388 0034 12DD     		ble	.L39
 126:.\rtu_modbus/modbus_serial_ctrl.c ****            {
 127:.\rtu_modbus/modbus_serial_ctrl.c ****               
 128:.\rtu_modbus/modbus_serial_ctrl.c ****               if( check_modbus_address() > 0 )
 389              		.loc 2 128 0
 390 0036 FFF7FEFF 		bl	check_modbus_address
 391 003a 0346     		mov	r3, r0
 392 003c 002B     		cmp	r3, #0
 393 003e 06DD     		ble	.L40
 129:.\rtu_modbus/modbus_serial_ctrl.c ****               {
 130:.\rtu_modbus/modbus_serial_ctrl.c ****                  uart_rx_state     = UART_RX_ACTIVE_RECEIVE;
 394              		.loc 2 130 0
 395 0040 104B     		ldr	r3, .L41
 396 0042 0122     		movs	r2, #1
 397 0044 1A60     		str	r2, [r3]
 131:.\rtu_modbus/modbus_serial_ctrl.c ****                  uart_timer_state  = UART_TIMER_RX;
 398              		.loc 2 131 0
 399 0046 114B     		ldr	r3, .L41+8
 400 0048 0222     		movs	r2, #2
 401 004a 1A60     		str	r2, [r3]
 402 004c 06E0     		b	.L39
 403              	.L40:
 132:.\rtu_modbus/modbus_serial_ctrl.c ****               }
 133:.\rtu_modbus/modbus_serial_ctrl.c ****               else
 134:.\rtu_modbus/modbus_serial_ctrl.c ****               {
 135:.\rtu_modbus/modbus_serial_ctrl.c ****                 uart_rx_state = UART_RX_BAD_ADDRESS;
 404              		.loc 2 135 0
 405 004e 0D4B     		ldr	r3, .L41
 406 0050 0222     		movs	r2, #2
 407 0052 1A60     		str	r2, [r3]
 136:.\rtu_modbus/modbus_serial_ctrl.c ****                 uart_timer_state = UART_TIMER_BAD_ADDRESS;
ARM GAS  C:\Users\glenn\AppData\Local\Temp\cc0I1j3r.s 			page 13


 408              		.loc 2 136 0
 409 0054 0D4B     		ldr	r3, .L41+8
 410 0056 0122     		movs	r2, #1
 411 0058 1A60     		str	r2, [r3]
 137:.\rtu_modbus/modbus_serial_ctrl.c ****                
 138:.\rtu_modbus/modbus_serial_ctrl.c ****               }
 139:.\rtu_modbus/modbus_serial_ctrl.c ****            }     
 140:.\rtu_modbus/modbus_serial_ctrl.c ****            break;
 412              		.loc 2 140 0
 413 005a 12E0     		b	.L32
 414              	.L39:
 415 005c 11E0     		b	.L32
 416              	.L36:
 141:.\rtu_modbus/modbus_serial_ctrl.c ****         
 142:.\rtu_modbus/modbus_serial_ctrl.c ****         case UART_RX_ACTIVE_RECEIVE:
 143:.\rtu_modbus/modbus_serial_ctrl.c ****             rx_interval_count = empty_rx_uart();
 417              		.loc 2 143 0
 418 005e FFF7FEFF 		bl	empty_rx_uart
 419 0062 0246     		mov	r2, r0
 420 0064 084B     		ldr	r3, .L41+4
 421 0066 1A60     		str	r2, [r3]
 144:.\rtu_modbus/modbus_serial_ctrl.c ****             break;
 422              		.loc 2 144 0
 423 0068 0BE0     		b	.L32
 424              	.L37:
 145:.\rtu_modbus/modbus_serial_ctrl.c ****         
 146:.\rtu_modbus/modbus_serial_ctrl.c ****         case UART_RX_BAD_ADDRESS:
 147:.\rtu_modbus/modbus_serial_ctrl.c ****             rx_interval_count = empty_rx_uart();
 425              		.loc 2 147 0
 426 006a FFF7FEFF 		bl	empty_rx_uart
 427 006e 0246     		mov	r2, r0
 428 0070 054B     		ldr	r3, .L41+4
 429 0072 1A60     		str	r2, [r3]
 148:.\rtu_modbus/modbus_serial_ctrl.c ****             
 149:.\rtu_modbus/modbus_serial_ctrl.c ****             modbus_rx_index = 0;
 430              		.loc 2 149 0
 431 0074 064B     		ldr	r3, .L41+12
 432 0076 0022     		movs	r2, #0
 433 0078 1A60     		str	r2, [r3]
 150:.\rtu_modbus/modbus_serial_ctrl.c ****             break;
 434              		.loc 2 150 0
 435 007a 02E0     		b	.L32
 436              	.L38:
 151:.\rtu_modbus/modbus_serial_ctrl.c ****             
 152:.\rtu_modbus/modbus_serial_ctrl.c ****        case UART_RX_DUMP_STATE:
 153:.\rtu_modbus/modbus_serial_ctrl.c ****             dump_rx_uart();
 437              		.loc 2 153 0
 438 007c FFF7FEFF 		bl	dump_rx_uart
 154:.\rtu_modbus/modbus_serial_ctrl.c ****             break;
 439              		.loc 2 154 0
 440 0080 00BF     		nop
 441              	.L32:
 155:.\rtu_modbus/modbus_serial_ctrl.c ****             
 156:.\rtu_modbus/modbus_serial_ctrl.c ****     }
 157:.\rtu_modbus/modbus_serial_ctrl.c **** 
 158:.\rtu_modbus/modbus_serial_ctrl.c ****     
 159:.\rtu_modbus/modbus_serial_ctrl.c **** }
ARM GAS  C:\Users\glenn\AppData\Local\Temp\cc0I1j3r.s 			page 14


 442              		.loc 2 159 0
 443 0082 80BD     		pop	{r7, pc}
 444              	.L42:
 445              		.align	2
 446              	.L41:
 447 0084 04000000 		.word	uart_rx_state
 448 0088 0C000000 		.word	rx_interval_count
 449 008c 00000000 		.word	uart_timer_state
 450 0090 14000000 		.word	modbus_rx_index
 451              		.cfi_endproc
 452              	.LFE68:
 453              		.size	rx_interrupt, .-rx_interrupt
 454              		.section	.text.fill_transmitter,"ax",%progbits
 455              		.align	2
 456              		.thumb
 457              		.thumb_func
 458              		.type	fill_transmitter, %function
 459              	fill_transmitter:
 460              	.LFB69:
 160:.\rtu_modbus/modbus_serial_ctrl.c **** 
 161:.\rtu_modbus/modbus_serial_ctrl.c **** static inline int fill_transmitter( void )
 162:.\rtu_modbus/modbus_serial_ctrl.c **** { 
 461              		.loc 2 162 0
 462              		.cfi_startproc
 463              		@ args = 0, pretend = 0, frame = 0
 464              		@ frame_needed = 1, uses_anonymous_args = 0
 465 0000 80B5     		push	{r7, lr}
 466              		.cfi_def_cfa_offset 8
 467              		.cfi_offset 7, -8
 468              		.cfi_offset 14, -4
 469 0002 00AF     		add	r7, sp, #0
 470              		.cfi_def_cfa_register 7
 163:.\rtu_modbus/modbus_serial_ctrl.c ****     while( ( UART_1_ReadTxStatus() & UART_1_TX_STS_FIFO_NOT_FULL ) && ( modbus_tx_message_count > 0
 471              		.loc 2 163 0
 472 0004 10E0     		b	.L44
 473              	.L46:
 164:.\rtu_modbus/modbus_serial_ctrl.c ****     {
 165:.\rtu_modbus/modbus_serial_ctrl.c ****         UART_1_WriteTxData(modbus_out_buffer[modbus_tx_index]);
 474              		.loc 2 165 0
 475 0006 104B     		ldr	r3, .L48
 476 0008 1B68     		ldr	r3, [r3]
 477 000a 104A     		ldr	r2, .L48+4
 478 000c D35C     		ldrb	r3, [r2, r3]	@ zero_extendqisi2
 479 000e 1846     		mov	r0, r3
 480 0010 FFF7FEFF 		bl	UART_1_WriteTxData
 166:.\rtu_modbus/modbus_serial_ctrl.c ****         modbus_tx_index +=1;
 481              		.loc 2 166 0
 482 0014 0C4B     		ldr	r3, .L48
 483 0016 1B68     		ldr	r3, [r3]
 484 0018 0133     		adds	r3, r3, #1
 485 001a 0B4A     		ldr	r2, .L48
 486 001c 1360     		str	r3, [r2]
 167:.\rtu_modbus/modbus_serial_ctrl.c ****         modbus_tx_message_count -= 1;
 487              		.loc 2 167 0
 488 001e 0C4B     		ldr	r3, .L48+8
 489 0020 1B68     		ldr	r3, [r3]
 490 0022 013B     		subs	r3, r3, #1
ARM GAS  C:\Users\glenn\AppData\Local\Temp\cc0I1j3r.s 			page 15


 491 0024 0A4A     		ldr	r2, .L48+8
 492 0026 1360     		str	r3, [r2]
 493              	.L44:
 163:.\rtu_modbus/modbus_serial_ctrl.c ****     {
 494              		.loc 2 163 0
 495 0028 FFF7FEFF 		bl	UART_1_ReadTxStatus
 496 002c 0346     		mov	r3, r0
 497 002e 03F00803 		and	r3, r3, #8
 498 0032 002B     		cmp	r3, #0
 499 0034 03D0     		beq	.L45
 163:.\rtu_modbus/modbus_serial_ctrl.c ****     {
 500              		.loc 2 163 0 is_stmt 0 discriminator 1
 501 0036 064B     		ldr	r3, .L48+8
 502 0038 1B68     		ldr	r3, [r3]
 503 003a 002B     		cmp	r3, #0
 504 003c E3DC     		bgt	.L46
 505              	.L45:
 168:.\rtu_modbus/modbus_serial_ctrl.c ****     }
 169:.\rtu_modbus/modbus_serial_ctrl.c ****     return modbus_tx_message_count;
 506              		.loc 2 169 0 is_stmt 1
 507 003e 044B     		ldr	r3, .L48+8
 508 0040 1B68     		ldr	r3, [r3]
 170:.\rtu_modbus/modbus_serial_ctrl.c **** }
 509              		.loc 2 170 0
 510 0042 1846     		mov	r0, r3
 511 0044 80BD     		pop	{r7, pc}
 512              	.L49:
 513 0046 00BF     		.align	2
 514              	.L48:
 515 0048 1C010000 		.word	modbus_tx_index
 516 004c 24010000 		.word	modbus_out_buffer
 517 0050 20010000 		.word	modbus_tx_message_count
 518              		.cfi_endproc
 519              	.LFE69:
 520              		.size	fill_transmitter, .-fill_transmitter
 521              		.section	.text.tx_interrupt,"ax",%progbits
 522              		.align	2
 523              		.global	tx_interrupt
 524              		.thumb
 525              		.thumb_func
 526              		.type	tx_interrupt, %function
 527              	tx_interrupt:
 528              	.LFB70:
 171:.\rtu_modbus/modbus_serial_ctrl.c **** 
 172:.\rtu_modbus/modbus_serial_ctrl.c **** CY_ISR_PROTO( tx_interrupt )
 173:.\rtu_modbus/modbus_serial_ctrl.c **** {
 529              		.loc 2 173 0
 530              		.cfi_startproc
 531              		@ args = 0, pretend = 0, frame = 8
 532              		@ frame_needed = 1, uses_anonymous_args = 0
 533 0000 80B5     		push	{r7, lr}
 534              		.cfi_def_cfa_offset 8
 535              		.cfi_offset 7, -8
 536              		.cfi_offset 14, -4
 537 0002 82B0     		sub	sp, sp, #8
 538              		.cfi_def_cfa_offset 16
 539 0004 00AF     		add	r7, sp, #0
ARM GAS  C:\Users\glenn\AppData\Local\Temp\cc0I1j3r.s 			page 16


 540              		.cfi_def_cfa_register 7
 174:.\rtu_modbus/modbus_serial_ctrl.c ****     int status;
 175:.\rtu_modbus/modbus_serial_ctrl.c ****     switch( uart_tx_state )
 541              		.loc 2 175 0
 542 0006 154B     		ldr	r3, .L56
 543 0008 1B68     		ldr	r3, [r3]
 544 000a 012B     		cmp	r3, #1
 545 000c 07D0     		beq	.L52
 546 000e 022B     		cmp	r3, #2
 547 0010 16D0     		beq	.L53
 548 0012 002B     		cmp	r3, #0
 549 0014 1ED1     		bne	.L50
 176:.\rtu_modbus/modbus_serial_ctrl.c ****     {
 177:.\rtu_modbus/modbus_serial_ctrl.c ****         case UART_TX_STATE_IDLE:
 178:.\rtu_modbus/modbus_serial_ctrl.c ****             UART_1_DisableTxInt();
 550              		.loc 2 178 0
 551 0016 124B     		ldr	r3, .L56+4
 552 0018 2022     		movs	r2, #32
 553 001a 1A60     		str	r2, [r3]
 179:.\rtu_modbus/modbus_serial_ctrl.c ****             break;
 554              		.loc 2 179 0
 555 001c 1AE0     		b	.L50
 556              	.L52:
 180:.\rtu_modbus/modbus_serial_ctrl.c ****         
 181:.\rtu_modbus/modbus_serial_ctrl.c ****         case UART_TX_STATE_TRANSMITTING:
 182:.\rtu_modbus/modbus_serial_ctrl.c ****             status = fill_transmitter();
 557              		.loc 2 182 0
 558 001e FFF7FEFF 		bl	fill_transmitter
 559 0022 7860     		str	r0, [r7, #4]
 183:.\rtu_modbus/modbus_serial_ctrl.c ****             if( status == 0 )
 560              		.loc 2 183 0
 561 0024 7B68     		ldr	r3, [r7, #4]
 562 0026 002B     		cmp	r3, #0
 563 0028 09D1     		bne	.L55
 184:.\rtu_modbus/modbus_serial_ctrl.c ****             {
 185:.\rtu_modbus/modbus_serial_ctrl.c ****                 uart_tx_state = UART_TX_STATE_WAIT_FOR_EOT;
 564              		.loc 2 185 0
 565 002a 0C4B     		ldr	r3, .L56
 566 002c 0222     		movs	r2, #2
 567 002e 1A60     		str	r2, [r3]
 186:.\rtu_modbus/modbus_serial_ctrl.c ****                  UART_1_SetTxInterruptMode( UART_1_TX_STS_COMPLETE   );
 568              		.loc 2 186 0
 569 0030 0120     		movs	r0, #1
 570 0032 FFF7FEFF 		bl	UART_1_SetTxInterruptMode
 187:.\rtu_modbus/modbus_serial_ctrl.c ****                 UART_1_SetTxInterruptMode(UART_1_TX_STS_COMPLETE );
 571              		.loc 2 187 0
 572 0036 0120     		movs	r0, #1
 573 0038 FFF7FEFF 		bl	UART_1_SetTxInterruptMode
 188:.\rtu_modbus/modbus_serial_ctrl.c ****             }
 189:.\rtu_modbus/modbus_serial_ctrl.c ****             break;
 574              		.loc 2 189 0
 575 003c 0AE0     		b	.L50
 576              	.L55:
 577 003e 09E0     		b	.L50
 578              	.L53:
 190:.\rtu_modbus/modbus_serial_ctrl.c ****         
 191:.\rtu_modbus/modbus_serial_ctrl.c ****         case UART_TX_STATE_WAIT_FOR_EOT:
ARM GAS  C:\Users\glenn\AppData\Local\Temp\cc0I1j3r.s 			page 17


 192:.\rtu_modbus/modbus_serial_ctrl.c ****               UART_1_Stop();
 579              		.loc 2 192 0
 580 0040 FFF7FEFF 		bl	UART_1_Stop
 193:.\rtu_modbus/modbus_serial_ctrl.c ****               UART_1_Start();
 581              		.loc 2 193 0
 582 0044 FFF7FEFF 		bl	UART_1_Start
 194:.\rtu_modbus/modbus_serial_ctrl.c ****               UART_1_DisableTxInt();
 583              		.loc 2 194 0
 584 0048 054B     		ldr	r3, .L56+4
 585 004a 2022     		movs	r2, #32
 586 004c 1A60     		str	r2, [r3]
 195:.\rtu_modbus/modbus_serial_ctrl.c ****               init_rx_state();
 587              		.loc 2 195 0
 588 004e FFF7FEFF 		bl	init_rx_state
 196:.\rtu_modbus/modbus_serial_ctrl.c ****               break;
 589              		.loc 2 196 0
 590 0052 00BF     		nop
 591              	.L50:
 197:.\rtu_modbus/modbus_serial_ctrl.c ****     }
 198:.\rtu_modbus/modbus_serial_ctrl.c **** }
 592              		.loc 2 198 0
 593 0054 0837     		adds	r7, r7, #8
 594              		.cfi_def_cfa_offset 8
 595 0056 BD46     		mov	sp, r7
 596              		.cfi_def_cfa_register 13
 597              		@ sp needed
 598 0058 80BD     		pop	{r7, pc}
 599              	.L57:
 600 005a 00BF     		.align	2
 601              	.L56:
 602 005c 08000000 		.word	uart_tx_state
 603 0060 80E100E0 		.word	-536813184
 604              		.cfi_endproc
 605              	.LFE70:
 606              		.size	tx_interrupt, .-tx_interrupt
 607              		.section	.text.timer_interrupt,"ax",%progbits
 608              		.align	2
 609              		.global	timer_interrupt
 610              		.thumb
 611              		.thumb_func
 612              		.type	timer_interrupt, %function
 613              	timer_interrupt:
 614              	.LFB71:
 199:.\rtu_modbus/modbus_serial_ctrl.c **** CY_ISR_PROTO( timer_interrupt )
 200:.\rtu_modbus/modbus_serial_ctrl.c **** {
 615              		.loc 2 200 0
 616              		.cfi_startproc
 617              		@ args = 0, pretend = 0, frame = 0
 618              		@ frame_needed = 1, uses_anonymous_args = 0
 619 0000 80B5     		push	{r7, lr}
 620              		.cfi_def_cfa_offset 8
 621              		.cfi_offset 7, -8
 622              		.cfi_offset 14, -4
 623 0002 00AF     		add	r7, sp, #0
 624              		.cfi_def_cfa_register 7
 201:.\rtu_modbus/modbus_serial_ctrl.c ****     modbus_symbol_timer_ClearPending();
 625              		.loc 2 201 0
ARM GAS  C:\Users\glenn\AppData\Local\Temp\cc0I1j3r.s 			page 18


 626 0004 FFF7FEFF 		bl	modbus_symbol_timer_ClearPending
 202:.\rtu_modbus/modbus_serial_ctrl.c ****     switch( uart_timer_state )
 627              		.loc 2 202 0
 628 0008 0F4B     		ldr	r3, .L67
 629 000a 1B68     		ldr	r3, [r3]
 630 000c 012B     		cmp	r3, #1
 631 000e 03D0     		beq	.L60
 632 0010 022B     		cmp	r3, #2
 633 0012 0CD0     		beq	.L61
 634 0014 002B     		cmp	r3, #0
 203:.\rtu_modbus/modbus_serial_ctrl.c ****     {
 204:.\rtu_modbus/modbus_serial_ctrl.c ****        case UART_TIMER_IDLE:
 205:.\rtu_modbus/modbus_serial_ctrl.c ****            break; 
 635              		.loc 2 205 0
 636 0016 15E0     		b	.L58
 637              	.L60:
 206:.\rtu_modbus/modbus_serial_ctrl.c ****         
 207:.\rtu_modbus/modbus_serial_ctrl.c ****        case UART_TIMER_BAD_ADDRESS:  // wait for link to become idle and then reenable modbus rx
 208:.\rtu_modbus/modbus_serial_ctrl.c ****             if( rx_interval_count == 0 )
 638              		.loc 2 208 0
 639 0018 0C4B     		ldr	r3, .L67+4
 640 001a 1B68     		ldr	r3, [r3]
 641 001c 002B     		cmp	r3, #0
 642 001e 02D1     		bne	.L63
 209:.\rtu_modbus/modbus_serial_ctrl.c ****             {
 210:.\rtu_modbus/modbus_serial_ctrl.c ****                 init_rx_state();
 643              		.loc 2 210 0
 644 0020 FFF7FEFF 		bl	init_rx_state
 211:.\rtu_modbus/modbus_serial_ctrl.c ****             }
 212:.\rtu_modbus/modbus_serial_ctrl.c ****             else
 213:.\rtu_modbus/modbus_serial_ctrl.c ****             {
 214:.\rtu_modbus/modbus_serial_ctrl.c ****                 rx_interval_count = 0;
 215:.\rtu_modbus/modbus_serial_ctrl.c ****             }
 216:.\rtu_modbus/modbus_serial_ctrl.c ****             break;
 645              		.loc 2 216 0
 646 0024 0EE0     		b	.L58
 647              	.L63:
 214:.\rtu_modbus/modbus_serial_ctrl.c ****             }
 648              		.loc 2 214 0
 649 0026 094B     		ldr	r3, .L67+4
 650 0028 0022     		movs	r2, #0
 651 002a 1A60     		str	r2, [r3]
 652              		.loc 2 216 0
 653 002c 0AE0     		b	.L58
 654              	.L61:
 217:.\rtu_modbus/modbus_serial_ctrl.c ****             
 218:.\rtu_modbus/modbus_serial_ctrl.c ****        case UART_TIMER_RX:
 219:.\rtu_modbus/modbus_serial_ctrl.c ****             if( rx_interval_count == 0 )
 655              		.loc 2 219 0
 656 002e 074B     		ldr	r3, .L67+4
 657 0030 1B68     		ldr	r3, [r3]
 658 0032 002B     		cmp	r3, #0
 659 0034 02D1     		bne	.L65
 220:.\rtu_modbus/modbus_serial_ctrl.c ****             {
 221:.\rtu_modbus/modbus_serial_ctrl.c ****                 init_processing_state();
 660              		.loc 2 221 0
 661 0036 FFF7FEFF 		bl	init_processing_state
ARM GAS  C:\Users\glenn\AppData\Local\Temp\cc0I1j3r.s 			page 19


 662 003a 02E0     		b	.L66
 663              	.L65:
 222:.\rtu_modbus/modbus_serial_ctrl.c ****             }
 223:.\rtu_modbus/modbus_serial_ctrl.c ****             else
 224:.\rtu_modbus/modbus_serial_ctrl.c ****             {
 225:.\rtu_modbus/modbus_serial_ctrl.c ****                 rx_interval_count = 0;
 664              		.loc 2 225 0
 665 003c 034B     		ldr	r3, .L67+4
 666 003e 0022     		movs	r2, #0
 667 0040 1A60     		str	r2, [r3]
 668              	.L66:
 226:.\rtu_modbus/modbus_serial_ctrl.c ****             }
 227:.\rtu_modbus/modbus_serial_ctrl.c ****             break;
 669              		.loc 2 227 0
 670 0042 00BF     		nop
 671              	.L58:
 228:.\rtu_modbus/modbus_serial_ctrl.c ****     }
 229:.\rtu_modbus/modbus_serial_ctrl.c **** }
 672              		.loc 2 229 0
 673 0044 80BD     		pop	{r7, pc}
 674              	.L68:
 675 0046 00BF     		.align	2
 676              	.L67:
 677 0048 00000000 		.word	uart_timer_state
 678 004c 0C000000 		.word	rx_interval_count
 679              		.cfi_endproc
 680              	.LFE71:
 681              		.size	timer_interrupt, .-timer_interrupt
 682              		.section	.text.abort_rx_state,"ax",%progbits
 683              		.align	2
 684              		.thumb
 685              		.thumb_func
 686              		.type	abort_rx_state, %function
 687              	abort_rx_state:
 688              	.LFB72:
 230:.\rtu_modbus/modbus_serial_ctrl.c **** 
 231:.\rtu_modbus/modbus_serial_ctrl.c **** static inline void abort_rx_state( void )
 232:.\rtu_modbus/modbus_serial_ctrl.c **** {
 689              		.loc 2 232 0
 690              		.cfi_startproc
 691              		@ args = 0, pretend = 0, frame = 0
 692              		@ frame_needed = 1, uses_anonymous_args = 0
 693              		@ link register save eliminated.
 694 0000 80B4     		push	{r7}
 695              		.cfi_def_cfa_offset 4
 696              		.cfi_offset 7, -4
 697 0002 00AF     		add	r7, sp, #0
 698              		.cfi_def_cfa_register 7
 233:.\rtu_modbus/modbus_serial_ctrl.c ****      uart_rx_state     =  UART_RX_BAD_ADDRESS;
 699              		.loc 2 233 0
 700 0004 074B     		ldr	r3, .L70
 701 0006 0222     		movs	r2, #2
 702 0008 1A60     		str	r2, [r3]
 234:.\rtu_modbus/modbus_serial_ctrl.c ****      uart_timer_state  =  UART_RX_IDLE;
 703              		.loc 2 234 0
 704 000a 074B     		ldr	r3, .L70+4
 705 000c 0022     		movs	r2, #0
ARM GAS  C:\Users\glenn\AppData\Local\Temp\cc0I1j3r.s 			page 20


 706 000e 1A60     		str	r2, [r3]
 235:.\rtu_modbus/modbus_serial_ctrl.c ****      modbus_rx_index   = 0;
 707              		.loc 2 235 0
 708 0010 064B     		ldr	r3, .L70+8
 709 0012 0022     		movs	r2, #0
 710 0014 1A60     		str	r2, [r3]
 236:.\rtu_modbus/modbus_serial_ctrl.c ****      uart_tx_state     =  UART_TX_STATE_IDLE;
 711              		.loc 2 236 0
 712 0016 064B     		ldr	r3, .L70+12
 713 0018 0022     		movs	r2, #0
 714 001a 1A60     		str	r2, [r3]
 237:.\rtu_modbus/modbus_serial_ctrl.c **** }
 715              		.loc 2 237 0
 716 001c BD46     		mov	sp, r7
 717              		.cfi_def_cfa_register 13
 718              		@ sp needed
 719 001e 5DF8047B 		ldr	r7, [sp], #4
 720              		.cfi_restore 7
 721              		.cfi_def_cfa_offset 0
 722 0022 7047     		bx	lr
 723              	.L71:
 724              		.align	2
 725              	.L70:
 726 0024 04000000 		.word	uart_rx_state
 727 0028 00000000 		.word	uart_timer_state
 728 002c 14000000 		.word	modbus_rx_index
 729 0030 08000000 		.word	uart_tx_state
 730              		.cfi_endproc
 731              	.LFE72:
 732              		.size	abort_rx_state, .-abort_rx_state
 733              		.section	.text.init_rx_state,"ax",%progbits
 734              		.align	2
 735              		.thumb
 736              		.thumb_func
 737              		.type	init_rx_state, %function
 738              	init_rx_state:
 739              	.LFB73:
 238:.\rtu_modbus/modbus_serial_ctrl.c **** 
 239:.\rtu_modbus/modbus_serial_ctrl.c **** static inline void init_rx_state( void )
 240:.\rtu_modbus/modbus_serial_ctrl.c **** {
 740              		.loc 2 240 0
 741              		.cfi_startproc
 742              		@ args = 0, pretend = 0, frame = 0
 743              		@ frame_needed = 1, uses_anonymous_args = 0
 744 0000 80B5     		push	{r7, lr}
 745              		.cfi_def_cfa_offset 8
 746              		.cfi_offset 7, -8
 747              		.cfi_offset 14, -4
 748 0002 00AF     		add	r7, sp, #0
 749              		.cfi_def_cfa_register 7
 241:.\rtu_modbus/modbus_serial_ctrl.c ****     
 242:.\rtu_modbus/modbus_serial_ctrl.c ****    rx_interval_count  = 0;
 750              		.loc 2 242 0
 751 0004 0A4B     		ldr	r3, .L73
 752 0006 0022     		movs	r2, #0
 753 0008 1A60     		str	r2, [r3]
 243:.\rtu_modbus/modbus_serial_ctrl.c ****    modbus_rx_index    = 0;
ARM GAS  C:\Users\glenn\AppData\Local\Temp\cc0I1j3r.s 			page 21


 754              		.loc 2 243 0
 755 000a 0A4B     		ldr	r3, .L73+4
 756 000c 0022     		movs	r2, #0
 757 000e 1A60     		str	r2, [r3]
 244:.\rtu_modbus/modbus_serial_ctrl.c ****    uart_rx_state      =  UART_RX_IDLE;
 758              		.loc 2 244 0
 759 0010 094B     		ldr	r3, .L73+8
 760 0012 0022     		movs	r2, #0
 761 0014 1A60     		str	r2, [r3]
 245:.\rtu_modbus/modbus_serial_ctrl.c ****    uart_timer_state   =  UART_TIMER_IDLE;
 762              		.loc 2 245 0
 763 0016 094B     		ldr	r3, .L73+12
 764 0018 0022     		movs	r2, #0
 765 001a 1A60     		str	r2, [r3]
 246:.\rtu_modbus/modbus_serial_ctrl.c ****    uart_tx_state      =  UART_TX_STATE_IDLE;
 766              		.loc 2 246 0
 767 001c 084B     		ldr	r3, .L73+16
 768 001e 0022     		movs	r2, #0
 769 0020 1A60     		str	r2, [r3]
 247:.\rtu_modbus/modbus_serial_ctrl.c ****    UART_1_SetTxInterruptMode(  0 );
 770              		.loc 2 247 0
 771 0022 0020     		movs	r0, #0
 772 0024 FFF7FEFF 		bl	UART_1_SetTxInterruptMode
 248:.\rtu_modbus/modbus_serial_ctrl.c ****    UART_1_ClearTxBuffer(); 
 773              		.loc 2 248 0
 774 0028 FFF7FEFF 		bl	UART_1_ClearTxBuffer
 249:.\rtu_modbus/modbus_serial_ctrl.c ****    
 250:.\rtu_modbus/modbus_serial_ctrl.c **** }
 775              		.loc 2 250 0
 776 002c 80BD     		pop	{r7, pc}
 777              	.L74:
 778 002e 00BF     		.align	2
 779              	.L73:
 780 0030 0C000000 		.word	rx_interval_count
 781 0034 14000000 		.word	modbus_rx_index
 782 0038 04000000 		.word	uart_rx_state
 783 003c 00000000 		.word	uart_timer_state
 784 0040 08000000 		.word	uart_tx_state
 785              		.cfi_endproc
 786              	.LFE73:
 787              		.size	init_rx_state, .-init_rx_state
 788              		.section	.text.init_processing_state,"ax",%progbits
 789              		.align	2
 790              		.thumb
 791              		.thumb_func
 792              		.type	init_processing_state, %function
 793              	init_processing_state:
 794              	.LFB74:
 251:.\rtu_modbus/modbus_serial_ctrl.c **** 
 252:.\rtu_modbus/modbus_serial_ctrl.c **** static inline void init_processing_state( void )
 253:.\rtu_modbus/modbus_serial_ctrl.c **** {
 795              		.loc 2 253 0
 796              		.cfi_startproc
 797              		@ args = 0, pretend = 0, frame = 0
 798              		@ frame_needed = 1, uses_anonymous_args = 0
 799 0000 80B5     		push	{r7, lr}
 800              		.cfi_def_cfa_offset 8
ARM GAS  C:\Users\glenn\AppData\Local\Temp\cc0I1j3r.s 			page 22


 801              		.cfi_offset 7, -8
 802              		.cfi_offset 14, -4
 803 0002 00AF     		add	r7, sp, #0
 804              		.cfi_def_cfa_register 7
 254:.\rtu_modbus/modbus_serial_ctrl.c ****     cf_set_interrupt_status_bit( CF_PROCESS_MODBUS );
 805              		.loc 2 254 0
 806 0004 0220     		movs	r0, #2
 807 0006 FFF7FEFF 		bl	cf_set_interrupt_status_bit
 255:.\rtu_modbus/modbus_serial_ctrl.c ****     uart_rx_state      =  UART_RX_DUMP_STATE;
 808              		.loc 2 255 0
 809 000a 024B     		ldr	r3, .L76
 810 000c 0322     		movs	r2, #3
 811 000e 1A60     		str	r2, [r3]
 256:.\rtu_modbus/modbus_serial_ctrl.c **** }
 812              		.loc 2 256 0
 813 0010 80BD     		pop	{r7, pc}
 814              	.L77:
 815 0012 00BF     		.align	2
 816              	.L76:
 817 0014 04000000 		.word	uart_rx_state
 818              		.cfi_endproc
 819              	.LFE74:
 820              		.size	init_processing_state, .-init_processing_state
 821              		.section	.text.init_tx_state,"ax",%progbits
 822              		.align	2
 823              		.thumb
 824              		.thumb_func
 825              		.type	init_tx_state, %function
 826              	init_tx_state:
 827              	.LFB75:
 257:.\rtu_modbus/modbus_serial_ctrl.c **** 
 258:.\rtu_modbus/modbus_serial_ctrl.c **** static inline void init_tx_state( int out_count )
 259:.\rtu_modbus/modbus_serial_ctrl.c **** {
 828              		.loc 2 259 0
 829              		.cfi_startproc
 830              		@ args = 0, pretend = 0, frame = 8
 831              		@ frame_needed = 1, uses_anonymous_args = 0
 832 0000 80B5     		push	{r7, lr}
 833              		.cfi_def_cfa_offset 8
 834              		.cfi_offset 7, -8
 835              		.cfi_offset 14, -4
 836 0002 82B0     		sub	sp, sp, #8
 837              		.cfi_def_cfa_offset 16
 838 0004 00AF     		add	r7, sp, #0
 839              		.cfi_def_cfa_register 7
 840 0006 7860     		str	r0, [r7, #4]
 260:.\rtu_modbus/modbus_serial_ctrl.c ****    if( out_count > 200)
 841              		.loc 2 260 0
 842 0008 7B68     		ldr	r3, [r7, #4]
 843 000a C82B     		cmp	r3, #200
 844 000c 02DD     		ble	.L79
 261:.\rtu_modbus/modbus_serial_ctrl.c ****    {
 262:.\rtu_modbus/modbus_serial_ctrl.c ****      CYASSERT(0);  // this should not happen
 845              		.loc 2 262 0 discriminator 1
 846 000e 0020     		movs	r0, #0
 847 0010 FFF7FEFF 		bl	CyHalt
 848              	.L79:
ARM GAS  C:\Users\glenn\AppData\Local\Temp\cc0I1j3r.s 			page 23


 263:.\rtu_modbus/modbus_serial_ctrl.c ****    }
 264:.\rtu_modbus/modbus_serial_ctrl.c ****    modbus_tx_index  = 0;
 849              		.loc 2 264 0
 850 0014 094B     		ldr	r3, .L80
 851 0016 0022     		movs	r2, #0
 852 0018 1A60     		str	r2, [r3]
 265:.\rtu_modbus/modbus_serial_ctrl.c ****    modbus_tx_message_count = out_count;
 853              		.loc 2 265 0
 854 001a 094A     		ldr	r2, .L80+4
 855 001c 7B68     		ldr	r3, [r7, #4]
 856 001e 1360     		str	r3, [r2]
 266:.\rtu_modbus/modbus_serial_ctrl.c ****    uart_timer_state   = UART_TIMER_IDLE;
 857              		.loc 2 266 0
 858 0020 084B     		ldr	r3, .L80+8
 859 0022 0022     		movs	r2, #0
 860 0024 1A60     		str	r2, [r3]
 267:.\rtu_modbus/modbus_serial_ctrl.c ****    uart_tx_state     =  UART_TX_STATE_TRANSMITTING;
 861              		.loc 2 267 0
 862 0026 084B     		ldr	r3, .L80+12
 863 0028 0122     		movs	r2, #1
 864 002a 1A60     		str	r2, [r3]
 268:.\rtu_modbus/modbus_serial_ctrl.c ****    UART_1_SetTxInterruptMode(  UART_1_TX_STS_FIFO_NOT_FULL  );
 865              		.loc 2 268 0
 866 002c 0820     		movs	r0, #8
 867 002e FFF7FEFF 		bl	UART_1_SetTxInterruptMode
 269:.\rtu_modbus/modbus_serial_ctrl.c ****    
 270:.\rtu_modbus/modbus_serial_ctrl.c ****    fill_transmitter();
 868              		.loc 2 270 0
 869 0032 FFF7FEFF 		bl	fill_transmitter
 271:.\rtu_modbus/modbus_serial_ctrl.c **** }
 870              		.loc 2 271 0
 871 0036 0837     		adds	r7, r7, #8
 872              		.cfi_def_cfa_offset 8
 873 0038 BD46     		mov	sp, r7
 874              		.cfi_def_cfa_register 13
 875              		@ sp needed
 876 003a 80BD     		pop	{r7, pc}
 877              	.L81:
 878              		.align	2
 879              	.L80:
 880 003c 1C010000 		.word	modbus_tx_index
 881 0040 20010000 		.word	modbus_tx_message_count
 882 0044 00000000 		.word	uart_timer_state
 883 0048 08000000 		.word	uart_tx_state
 884              		.cfi_endproc
 885              	.LFE75:
 886              		.size	init_tx_state, .-init_tx_state
 887              		.section	.text.initialize_modbus_rtu,"ax",%progbits
 888              		.align	2
 889              		.global	initialize_modbus_rtu
 890              		.thumb
 891              		.thumb_func
 892              		.type	initialize_modbus_rtu, %function
 893              	initialize_modbus_rtu:
 894              	.LFB76:
 272:.\rtu_modbus/modbus_serial_ctrl.c **** 
 273:.\rtu_modbus/modbus_serial_ctrl.c **** 
ARM GAS  C:\Users\glenn\AppData\Local\Temp\cc0I1j3r.s 			page 24


 274:.\rtu_modbus/modbus_serial_ctrl.c **** 
 275:.\rtu_modbus/modbus_serial_ctrl.c **** int initialize_modbus_rtu(unsigned link_id, unsigned param_1,
 276:.\rtu_modbus/modbus_serial_ctrl.c ****   unsigned param_2, unsigned param_3, unsigned event, unsigned data)
 277:.\rtu_modbus/modbus_serial_ctrl.c **** {
 895              		.loc 2 277 0
 896              		.cfi_startproc
 897              		@ args = 8, pretend = 0, frame = 16
 898              		@ frame_needed = 1, uses_anonymous_args = 0
 899 0000 80B5     		push	{r7, lr}
 900              		.cfi_def_cfa_offset 8
 901              		.cfi_offset 7, -8
 902              		.cfi_offset 14, -4
 903 0002 84B0     		sub	sp, sp, #16
 904              		.cfi_def_cfa_offset 24
 905 0004 00AF     		add	r7, sp, #0
 906              		.cfi_def_cfa_register 7
 907 0006 F860     		str	r0, [r7, #12]
 908 0008 B960     		str	r1, [r7, #8]
 909 000a 7A60     		str	r2, [r7, #4]
 910 000c 3B60     		str	r3, [r7]
 278:.\rtu_modbus/modbus_serial_ctrl.c ****     uart_timer_state = UART_TIMER_IDLE;
 911              		.loc 2 278 0
 912 000e 144B     		ldr	r3, .L84
 913 0010 0022     		movs	r2, #0
 914 0012 1A60     		str	r2, [r3]
 279:.\rtu_modbus/modbus_serial_ctrl.c ****     uart_rx_state    = UART_RX_IDLE;
 915              		.loc 2 279 0
 916 0014 134B     		ldr	r3, .L84+4
 917 0016 0022     		movs	r2, #0
 918 0018 1A60     		str	r2, [r3]
 280:.\rtu_modbus/modbus_serial_ctrl.c ****     uart_timer_state = UART_TIMER_IDLE;
 919              		.loc 2 280 0
 920 001a 114B     		ldr	r3, .L84
 921 001c 0022     		movs	r2, #0
 922 001e 1A60     		str	r2, [r3]
 281:.\rtu_modbus/modbus_serial_ctrl.c ****     
 282:.\rtu_modbus/modbus_serial_ctrl.c ****     initialize_modbus_registers();
 923              		.loc 2 282 0
 924 0020 FFF7FEFF 		bl	initialize_modbus_registers
 283:.\rtu_modbus/modbus_serial_ctrl.c ****     UART_RX_INTERRUPT_StartEx(rx_interrupt); 
 925              		.loc 2 283 0
 926 0024 1048     		ldr	r0, .L84+8
 927 0026 FFF7FEFF 		bl	UART_RX_INTERRUPT_StartEx
 284:.\rtu_modbus/modbus_serial_ctrl.c ****     UART_1_SetTxInterruptMode(  0 );
 928              		.loc 2 284 0
 929 002a 0020     		movs	r0, #0
 930 002c FFF7FEFF 		bl	UART_1_SetTxInterruptMode
 285:.\rtu_modbus/modbus_serial_ctrl.c ****     UART_TX_INTERRUPT_StartEx(tx_interrupt); 
 931              		.loc 2 285 0
 932 0030 0E48     		ldr	r0, .L84+12
 933 0032 FFF7FEFF 		bl	UART_TX_INTERRUPT_StartEx
 286:.\rtu_modbus/modbus_serial_ctrl.c ****     UART_1_DisableTxInt();
 934              		.loc 2 286 0
 935 0036 0E4B     		ldr	r3, .L84+16
 936 0038 2022     		movs	r2, #32
 937 003a 1A60     		str	r2, [r3]
 287:.\rtu_modbus/modbus_serial_ctrl.c ****     modbus_symbol_timer_StartEx(timer_interrupt);
ARM GAS  C:\Users\glenn\AppData\Local\Temp\cc0I1j3r.s 			page 25


 938              		.loc 2 287 0
 939 003c 0D48     		ldr	r0, .L84+20
 940 003e FFF7FEFF 		bl	modbus_symbol_timer_StartEx
 288:.\rtu_modbus/modbus_serial_ctrl.c ****     // find modbus address
 289:.\rtu_modbus/modbus_serial_ctrl.c ****     modbus_address = get_modbus_address();
 941              		.loc 2 289 0
 942 0042 FFF7FEFF 		bl	get_modbus_address
 943 0046 0346     		mov	r3, r0
 944 0048 1A46     		mov	r2, r3
 945 004a 0B4B     		ldr	r3, .L84+24
 946 004c 1A80     		strh	r2, [r3]	@ movhi
 290:.\rtu_modbus/modbus_serial_ctrl.c **** 
 291:.\rtu_modbus/modbus_serial_ctrl.c ****     init_rx_state();
 947              		.loc 2 291 0
 948 004e FFF7FEFF 		bl	init_rx_state
 292:.\rtu_modbus/modbus_serial_ctrl.c ****     UART_1_Start();
 949              		.loc 2 292 0
 950 0052 FFF7FEFF 		bl	UART_1_Start
 293:.\rtu_modbus/modbus_serial_ctrl.c ****     return CF_DISABLE; // TBD Right now
 951              		.loc 2 293 0
 952 0056 0223     		movs	r3, #2
 294:.\rtu_modbus/modbus_serial_ctrl.c **** }
 953              		.loc 2 294 0
 954 0058 1846     		mov	r0, r3
 955 005a 1037     		adds	r7, r7, #16
 956              		.cfi_def_cfa_offset 8
 957 005c BD46     		mov	sp, r7
 958              		.cfi_def_cfa_register 13
 959              		@ sp needed
 960 005e 80BD     		pop	{r7, pc}
 961              	.L85:
 962              		.align	2
 963              	.L84:
 964 0060 00000000 		.word	uart_timer_state
 965 0064 04000000 		.word	uart_rx_state
 966 0068 00000000 		.word	rx_interrupt
 967 006c 00000000 		.word	tx_interrupt
 968 0070 80E100E0 		.word	-536813184
 969 0074 00000000 		.word	timer_interrupt
 970 0078 10000000 		.word	modbus_address
 971              		.cfi_endproc
 972              	.LFE76:
 973              		.size	initialize_modbus_rtu, .-initialize_modbus_rtu
 974              		.section	.text.process_rx_modbus_rtu_message,"ax",%progbits
 975              		.align	2
 976              		.global	process_rx_modbus_rtu_message
 977              		.thumb
 978              		.thumb_func
 979              		.type	process_rx_modbus_rtu_message, %function
 980              	process_rx_modbus_rtu_message:
 981              	.LFB77:
 295:.\rtu_modbus/modbus_serial_ctrl.c **** 
 296:.\rtu_modbus/modbus_serial_ctrl.c **** int process_rx_modbus_rtu_message(void )
 297:.\rtu_modbus/modbus_serial_ctrl.c **** {
 982              		.loc 2 297 0
 983              		.cfi_startproc
 984              		@ args = 0, pretend = 0, frame = 8
ARM GAS  C:\Users\glenn\AppData\Local\Temp\cc0I1j3r.s 			page 26


 985              		@ frame_needed = 1, uses_anonymous_args = 0
 986 0000 80B5     		push	{r7, lr}
 987              		.cfi_def_cfa_offset 8
 988              		.cfi_offset 7, -8
 989              		.cfi_offset 14, -4
 990 0002 82B0     		sub	sp, sp, #8
 991              		.cfi_def_cfa_offset 16
 992 0004 00AF     		add	r7, sp, #0
 993              		.cfi_def_cfa_register 7
 298:.\rtu_modbus/modbus_serial_ctrl.c ****     int out_count;
 299:.\rtu_modbus/modbus_serial_ctrl.c ****     
 300:.\rtu_modbus/modbus_serial_ctrl.c ****     out_count =  process_modbus_message( modbus_rx_index, &modbus_in_buffer[0], sizeof(modbus_out_b
 994              		.loc 2 300 0
 995 0006 0C4B     		ldr	r3, .L90
 996 0008 1B68     		ldr	r3, [r3]
 997 000a 1846     		mov	r0, r3
 998 000c 0B49     		ldr	r1, .L90+4
 999 000e 40F20112 		movw	r2, #257
 1000 0012 0B4B     		ldr	r3, .L90+8
 1001 0014 FFF7FEFF 		bl	process_modbus_message
 1002 0018 7860     		str	r0, [r7, #4]
 301:.\rtu_modbus/modbus_serial_ctrl.c ****                            
 302:.\rtu_modbus/modbus_serial_ctrl.c ****     
 303:.\rtu_modbus/modbus_serial_ctrl.c ****     if( out_count > 0 )
 1003              		.loc 2 303 0
 1004 001a 7B68     		ldr	r3, [r7, #4]
 1005 001c 002B     		cmp	r3, #0
 1006 001e 03DD     		ble	.L87
 304:.\rtu_modbus/modbus_serial_ctrl.c ****     {
 305:.\rtu_modbus/modbus_serial_ctrl.c ****         init_tx_state( out_count );
 1007              		.loc 2 305 0
 1008 0020 7868     		ldr	r0, [r7, #4]
 1009 0022 FFF7FEFF 		bl	init_tx_state
 1010 0026 01E0     		b	.L88
 1011              	.L87:
 306:.\rtu_modbus/modbus_serial_ctrl.c ****     }
 307:.\rtu_modbus/modbus_serial_ctrl.c ****     else
 308:.\rtu_modbus/modbus_serial_ctrl.c ****     {
 309:.\rtu_modbus/modbus_serial_ctrl.c ****         init_rx_state();
 1012              		.loc 2 309 0
 1013 0028 FFF7FEFF 		bl	init_rx_state
 1014              	.L88:
 310:.\rtu_modbus/modbus_serial_ctrl.c ****     }
 311:.\rtu_modbus/modbus_serial_ctrl.c ****     return CF_TERMINATE; // TBD Right now
 1015              		.loc 2 311 0
 1016 002c 0423     		movs	r3, #4
 312:.\rtu_modbus/modbus_serial_ctrl.c **** }
 1017              		.loc 2 312 0
 1018 002e 1846     		mov	r0, r3
 1019 0030 0837     		adds	r7, r7, #8
 1020              		.cfi_def_cfa_offset 8
 1021 0032 BD46     		mov	sp, r7
 1022              		.cfi_def_cfa_register 13
 1023              		@ sp needed
 1024 0034 80BD     		pop	{r7, pc}
 1025              	.L91:
 1026 0036 00BF     		.align	2
ARM GAS  C:\Users\glenn\AppData\Local\Temp\cc0I1j3r.s 			page 27


 1027              	.L90:
 1028 0038 14000000 		.word	modbus_rx_index
 1029 003c 18000000 		.word	modbus_in_buffer
 1030 0040 24010000 		.word	modbus_out_buffer
 1031              		.cfi_endproc
 1032              	.LFE77:
 1033              		.size	process_rx_modbus_rtu_message, .-process_rx_modbus_rtu_message
 1034              		.section	.text.set_normal_modbus_address,"ax",%progbits
 1035              		.align	2
 1036              		.global	set_normal_modbus_address
 1037              		.thumb
 1038              		.thumb_func
 1039              		.type	set_normal_modbus_address, %function
 1040              	set_normal_modbus_address:
 1041              	.LFB78:
 313:.\rtu_modbus/modbus_serial_ctrl.c **** 
 314:.\rtu_modbus/modbus_serial_ctrl.c **** 
 315:.\rtu_modbus/modbus_serial_ctrl.c **** 
 316:.\rtu_modbus/modbus_serial_ctrl.c **** 
 317:.\rtu_modbus/modbus_serial_ctrl.c **** int set_normal_modbus_address(unsigned link_id, unsigned param_1,
 318:.\rtu_modbus/modbus_serial_ctrl.c ****   unsigned param_2, unsigned param_3, unsigned event, unsigned data)
 319:.\rtu_modbus/modbus_serial_ctrl.c **** {
 1042              		.loc 2 319 0
 1043              		.cfi_startproc
 1044              		@ args = 8, pretend = 0, frame = 24
 1045              		@ frame_needed = 1, uses_anonymous_args = 0
 1046 0000 80B5     		push	{r7, lr}
 1047              		.cfi_def_cfa_offset 8
 1048              		.cfi_offset 7, -8
 1049              		.cfi_offset 14, -4
 1050 0002 86B0     		sub	sp, sp, #24
 1051              		.cfi_def_cfa_offset 32
 1052 0004 00AF     		add	r7, sp, #0
 1053              		.cfi_def_cfa_register 7
 1054 0006 F860     		str	r0, [r7, #12]
 1055 0008 B960     		str	r1, [r7, #8]
 1056 000a 7A60     		str	r2, [r7, #4]
 1057 000c 3B60     		str	r3, [r7]
 320:.\rtu_modbus/modbus_serial_ctrl.c ****       uint16 temp;
 321:.\rtu_modbus/modbus_serial_ctrl.c ****       temp = 0;
 1058              		.loc 2 321 0
 1059 000e 0023     		movs	r3, #0
 1060 0010 FB82     		strh	r3, [r7, #22]	@ movhi
 322:.\rtu_modbus/modbus_serial_ctrl.c ****     
 323:.\rtu_modbus/modbus_serial_ctrl.c ****       store_modbus_data_registers( MOD_COMMISSIONING_FLAG, 1 , &temp );
 1061              		.loc 2 323 0
 1062 0012 07F11603 		add	r3, r7, #22
 1063 0016 0420     		movs	r0, #4
 1064 0018 0121     		movs	r1, #1
 1065 001a 1A46     		mov	r2, r3
 1066 001c FFF7FEFF 		bl	store_modbus_data_registers
 324:.\rtu_modbus/modbus_serial_ctrl.c ****       modbus_address = get_modbus_address();
 1067              		.loc 2 324 0
 1068 0020 FFF7FEFF 		bl	get_modbus_address
 1069 0024 0346     		mov	r3, r0
 1070 0026 1A46     		mov	r2, r3
 1071 0028 034B     		ldr	r3, .L94
ARM GAS  C:\Users\glenn\AppData\Local\Temp\cc0I1j3r.s 			page 28


 1072 002a 1A80     		strh	r2, [r3]	@ movhi
 325:.\rtu_modbus/modbus_serial_ctrl.c ****       return 0;
 1073              		.loc 2 325 0
 1074 002c 0023     		movs	r3, #0
 326:.\rtu_modbus/modbus_serial_ctrl.c **** }
 1075              		.loc 2 326 0
 1076 002e 1846     		mov	r0, r3
 1077 0030 1837     		adds	r7, r7, #24
 1078              		.cfi_def_cfa_offset 8
 1079 0032 BD46     		mov	sp, r7
 1080              		.cfi_def_cfa_register 13
 1081              		@ sp needed
 1082 0034 80BD     		pop	{r7, pc}
 1083              	.L95:
 1084 0036 00BF     		.align	2
 1085              	.L94:
 1086 0038 10000000 		.word	modbus_address
 1087              		.cfi_endproc
 1088              	.LFE78:
 1089              		.size	set_normal_modbus_address, .-set_normal_modbus_address
 1090              		.section	.text.set_commissiong_address,"ax",%progbits
 1091              		.align	2
 1092              		.global	set_commissiong_address
 1093              		.thumb
 1094              		.thumb_func
 1095              		.type	set_commissiong_address, %function
 1096              	set_commissiong_address:
 1097              	.LFB79:
 327:.\rtu_modbus/modbus_serial_ctrl.c **** 
 328:.\rtu_modbus/modbus_serial_ctrl.c **** int set_commissiong_address(unsigned link_id, unsigned param_1,
 329:.\rtu_modbus/modbus_serial_ctrl.c ****   unsigned param_2, unsigned param_3, unsigned event, unsigned data)
 330:.\rtu_modbus/modbus_serial_ctrl.c **** {
 1098              		.loc 2 330 0
 1099              		.cfi_startproc
 1100              		@ args = 8, pretend = 0, frame = 24
 1101              		@ frame_needed = 1, uses_anonymous_args = 0
 1102 0000 80B5     		push	{r7, lr}
 1103              		.cfi_def_cfa_offset 8
 1104              		.cfi_offset 7, -8
 1105              		.cfi_offset 14, -4
 1106 0002 86B0     		sub	sp, sp, #24
 1107              		.cfi_def_cfa_offset 32
 1108 0004 00AF     		add	r7, sp, #0
 1109              		.cfi_def_cfa_register 7
 1110 0006 F860     		str	r0, [r7, #12]
 1111 0008 B960     		str	r1, [r7, #8]
 1112 000a 7A60     		str	r2, [r7, #4]
 1113 000c 3B60     		str	r3, [r7]
 331:.\rtu_modbus/modbus_serial_ctrl.c ****       uint16 temp;
 332:.\rtu_modbus/modbus_serial_ctrl.c ****       temp = 1;
 1114              		.loc 2 332 0
 1115 000e 0123     		movs	r3, #1
 1116 0010 FB82     		strh	r3, [r7, #22]	@ movhi
 333:.\rtu_modbus/modbus_serial_ctrl.c ****     
 334:.\rtu_modbus/modbus_serial_ctrl.c ****        store_modbus_data_registers( MOD_COMMISSIONING_FLAG, 1 , &temp );
 1117              		.loc 2 334 0
 1118 0012 07F11603 		add	r3, r7, #22
ARM GAS  C:\Users\glenn\AppData\Local\Temp\cc0I1j3r.s 			page 29


 1119 0016 0420     		movs	r0, #4
 1120 0018 0121     		movs	r1, #1
 1121 001a 1A46     		mov	r2, r3
 1122 001c FFF7FEFF 		bl	store_modbus_data_registers
 335:.\rtu_modbus/modbus_serial_ctrl.c ****        modbus_address = get_commissioning_address();
 1123              		.loc 2 335 0
 1124 0020 FFF7FEFF 		bl	get_commissioning_address
 1125 0024 0346     		mov	r3, r0
 1126 0026 1A46     		mov	r2, r3
 1127 0028 034B     		ldr	r3, .L98
 1128 002a 1A80     		strh	r2, [r3]	@ movhi
 336:.\rtu_modbus/modbus_serial_ctrl.c ****       
 337:.\rtu_modbus/modbus_serial_ctrl.c ****       return 0;
 1129              		.loc 2 337 0
 1130 002c 0023     		movs	r3, #0
 338:.\rtu_modbus/modbus_serial_ctrl.c **** }...
 1131              		.loc 2 338 0
 1132 002e 1846     		mov	r0, r3
 1133 0030 1837     		adds	r7, r7, #24
 1134              		.cfi_def_cfa_offset 8
 1135 0032 BD46     		mov	sp, r7
 1136              		.cfi_def_cfa_register 13
 1137              		@ sp needed
 1138 0034 80BD     		pop	{r7, pc}
 1139              	.L99:
 1140 0036 00BF     		.align	2
 1141              	.L98:
 1142 0038 10000000 		.word	modbus_address
 1143              		.cfi_endproc
 1144              	.LFE79:
 1145              		.size	set_commissiong_address, .-set_commissiong_address
 1146              		.text
 1147              	.Letext0:
 1148              		.file 3 "c:\\program files (x86)\\cypress\\psoc creator\\3.3\\psoc creator\\import\\gnu\\arm\\4.9.
 1149              		.file 4 "c:\\program files (x86)\\cypress\\psoc creator\\3.3\\psoc creator\\import\\gnu\\arm\\4.9.
 1150              		.file 5 "Generated_Source\\PSoC5/cytypes.h"
 1151              		.file 6 "Generated_Source\\PSoC5/core_cm3.h"