ARM GAS  C:\Users\glenn\AppData\Local\Temp\ccV9538d.s 			page 1


   1              		.syntax unified
   2              		.cpu cortex-m3
   3              		.fpu softvfp
   4              		.eabi_attribute 20, 1
   5              		.eabi_attribute 21, 1
   6              		.eabi_attribute 23, 3
   7              		.eabi_attribute 24, 1
   8              		.eabi_attribute 25, 1
   9              		.eabi_attribute 26, 1
  10              		.eabi_attribute 30, 6
  11              		.eabi_attribute 34, 1
  12              		.eabi_attribute 18, 4
  13              		.thumb
  14              		.file	"moisture_measurements.c"
  15              		.text
  16              	.Ltext0:
  17              		.cfi_sections	.debug_frame
  18              		.bss
  19              		.align	2
  20              	logging_flag:
  21 0000 00000000 		.space	4
  22              		.align	2
  23              	active_flag:
  24 0004 00000000 		.space	4
  25              		.align	2
  26              	measurement_minute_count:
  27 0008 00000000 		.space	4
  28              		.align	2
  29              	moisture_meaurements:
  30 000c 00000000 		.space	36
  30      00000000 
  30      00000000 
  30      00000000 
  30      00000000 
  31              		.align	2
  32              	temp_c:
  33 0030 00000000 		.space	4
  34              		.global	__aeabi_fcmplt
  35              		.global	__aeabi_fsub
  36              		.global	__aeabi_f2d
  37              		.global	__aeabi_dmul
  38              		.global	__aeabi_ddiv
  39              		.global	__aeabi_d2f
  40              		.section	.text.get_soil_temperature,"ax",%progbits
  41              		.align	2
  42              		.thumb
  43              		.thumb_func
  44              		.type	get_soil_temperature, %function
  45              	get_soil_temperature:
  46              	.LFB65:
  47              		.file 1 ".\\moisture_measurement\\moisture_measurements.c"
   1:.\moisture_measurement/moisture_measurements.c **** /*
   2:.\moisture_measurement/moisture_measurements.c **** **
   3:.\moisture_measurement/moisture_measurements.c **** ** File: moisture_measurements.c
   4:.\moisture_measurement/moisture_measurements.c **** **
   5:.\moisture_measurement/moisture_measurements.c **** **
   6:.\moisture_measurement/moisture_measurements.c **** **
ARM GAS  C:\Users\glenn\AppData\Local\Temp\ccV9538d.s 			page 2


   7:.\moisture_measurement/moisture_measurements.c **** */
   8:.\moisture_measurement/moisture_measurements.c **** 
   9:.\moisture_measurement/moisture_measurements.c **** #include <device.h>
  10:.\moisture_measurement/moisture_measurements.c **** #include "cf_external_functions.h"
  11:.\moisture_measurement/moisture_measurements.c **** #include "moisture_measurements.h"
  12:.\moisture_measurement/moisture_measurements.c **** #include "a_to_d_functions.h"
  13:.\moisture_measurement/moisture_measurements.c **** #include "cf_events.h"
  14:.\moisture_measurement/moisture_measurements.c **** #include "cb_logging.h"
  15:.\moisture_measurement/moisture_measurements.c **** #include "process_modbus_message.h"
  16:.\moisture_measurement/moisture_measurements.c **** #include "digitial_io.h"
  17:.\moisture_measurement/moisture_measurements.c **** 
  18:.\moisture_measurement/moisture_measurements.c **** 
  19:.\moisture_measurement/moisture_measurements.c **** 
  20:.\moisture_measurement/moisture_measurements.c **** static uint32 logging_flag;
  21:.\moisture_measurement/moisture_measurements.c **** static uint32 active_flag = 0;
  22:.\moisture_measurement/moisture_measurements.c **** static uint32 measurement_minute_count = 0;
  23:.\moisture_measurement/moisture_measurements.c **** 
  24:.\moisture_measurement/moisture_measurements.c **** 
  25:.\moisture_measurement/moisture_measurements.c **** 
  26:.\moisture_measurement/moisture_measurements.c **** 
  27:.\moisture_measurement/moisture_measurements.c **** 
  28:.\moisture_measurement/moisture_measurements.c **** 
  29:.\moisture_measurement/moisture_measurements.c **** static float moisture_meaurements[ MOISTURE_SENSOR_NUMBER ];
  30:.\moisture_measurement/moisture_measurements.c **** static float temp_c;
  31:.\moisture_measurement/moisture_measurements.c **** static float inline get_soil_temperature( void )
  32:.\moisture_measurement/moisture_measurements.c **** {
  48              		.loc 1 32 0
  49              		.cfi_startproc
  50              		@ args = 0, pretend = 0, frame = 8
  51              		@ frame_needed = 1, uses_anonymous_args = 0
  52 0000 80B5     		push	{r7, lr}
  53              		.cfi_def_cfa_offset 8
  54              		.cfi_offset 7, -8
  55              		.cfi_offset 14, -4
  56 0002 82B0     		sub	sp, sp, #8
  57              		.cfi_def_cfa_offset 16
  58 0004 00AF     		add	r7, sp, #0
  59              		.cfi_def_cfa_register 7
  33:.\moisture_measurement/moisture_measurements.c ****     float temp_f;
  34:.\moisture_measurement/moisture_measurements.c ****     
  35:.\moisture_measurement/moisture_measurements.c ****     
  36:.\moisture_measurement/moisture_measurements.c ****     get_modbus_data_registers( MOISTURE_TEMP_DC_SEC_FLOAT , 2, (uint16 *)&temp_f );
  60              		.loc 1 36 0
  61 0006 3B1D     		adds	r3, r7, #4
  62 0008 2C20     		movs	r0, #44
  63 000a 0221     		movs	r1, #2
  64 000c 1A46     		mov	r2, r3
  65 000e FFF7FEFF 		bl	get_modbus_data_registers
  37:.\moisture_measurement/moisture_measurements.c ****     if( temp_f < 0 )
  66              		.loc 1 37 0
  67 0012 7B68     		ldr	r3, [r7, #4]	@ float
  68 0014 1846     		mov	r0, r3
  69 0016 4FF00001 		mov	r1, #0
  70 001a FFF7FEFF 		bl	__aeabi_fcmplt
  71 001e 0346     		mov	r3, r0
  72 0020 002B     		cmp	r3, #0
  73 0022 03D0     		beq	.L7
ARM GAS  C:\Users\glenn\AppData\Local\Temp\ccV9538d.s 			page 3


  38:.\moisture_measurement/moisture_measurements.c ****     {
  39:.\moisture_measurement/moisture_measurements.c ****         temp_c = 20.0;
  74              		.loc 1 39 0
  75 0024 174B     		ldr	r3, .L8
  76 0026 184A     		ldr	r2, .L8+4
  77 0028 1A60     		str	r2, [r3]	@ float
  78 002a 24E0     		b	.L4
  79              	.L7:
  40:.\moisture_measurement/moisture_measurements.c ****     }
  41:.\moisture_measurement/moisture_measurements.c ****     else
  42:.\moisture_measurement/moisture_measurements.c ****     {
  43:.\moisture_measurement/moisture_measurements.c ****         temp_c = (temp_f-32)*5.0/9.0;
  80              		.loc 1 43 0
  81 002c 7B68     		ldr	r3, [r7, #4]	@ float
  82 002e 1846     		mov	r0, r3
  83 0030 4FF08441 		mov	r1, #1107296256
  84 0034 FFF7FEFF 		bl	__aeabi_fsub
  85 0038 0346     		mov	r3, r0
  86 003a 1846     		mov	r0, r3
  87 003c FFF7FEFF 		bl	__aeabi_f2d
  88 0040 0246     		mov	r2, r0
  89 0042 0B46     		mov	r3, r1
  90 0044 1046     		mov	r0, r2
  91 0046 1946     		mov	r1, r3
  92 0048 4FF00002 		mov	r2, #0
  93 004c 0F4B     		ldr	r3, .L8+8
  94 004e FFF7FEFF 		bl	__aeabi_dmul
  95 0052 0246     		mov	r2, r0
  96 0054 0B46     		mov	r3, r1
  97 0056 1046     		mov	r0, r2
  98 0058 1946     		mov	r1, r3
  99 005a 4FF00002 		mov	r2, #0
 100 005e 0C4B     		ldr	r3, .L8+12
 101 0060 FFF7FEFF 		bl	__aeabi_ddiv
 102 0064 0246     		mov	r2, r0
 103 0066 0B46     		mov	r3, r1
 104 0068 1046     		mov	r0, r2
 105 006a 1946     		mov	r1, r3
 106 006c FFF7FEFF 		bl	__aeabi_d2f
 107 0070 0246     		mov	r2, r0
 108 0072 044B     		ldr	r3, .L8
 109 0074 1A60     		str	r2, [r3]	@ float
 110              	.L4:
  44:.\moisture_measurement/moisture_measurements.c ****     }
  45:.\moisture_measurement/moisture_measurements.c ****     return temp_c;
 111              		.loc 1 45 0
 112 0076 034B     		ldr	r3, .L8
 113 0078 1B68     		ldr	r3, [r3]	@ float
  46:.\moisture_measurement/moisture_measurements.c **** }
 114              		.loc 1 46 0
 115 007a 1846     		mov	r0, r3
 116 007c 0837     		adds	r7, r7, #8
 117              		.cfi_def_cfa_offset 8
 118 007e BD46     		mov	sp, r7
 119              		.cfi_def_cfa_register 13
 120              		@ sp needed
 121 0080 80BD     		pop	{r7, pc}
ARM GAS  C:\Users\glenn\AppData\Local\Temp\ccV9538d.s 			page 4


 122              	.L9:
 123 0082 00BF     		.align	2
 124              	.L8:
 125 0084 30000000 		.word	temp_c
 126 0088 0000A041 		.word	1101004800
 127 008c 00001440 		.word	1075052544
 128 0090 00002240 		.word	1075970048
 129              		.cfi_endproc
 130              	.LFE65:
 131              		.size	get_soil_temperature, .-get_soil_temperature
 132              		.global	__aeabi_fdiv
 133              		.global	__aeabi_dadd
 134              		.global	__aeabi_dsub
 135              		.section	.text.store_moisture_data,"ax",%progbits
 136              		.align	2
 137              		.thumb
 138              		.thumb_func
 139              		.type	store_moisture_data, %function
 140              	store_moisture_data:
 141              	.LFB66:
  47:.\moisture_measurement/moisture_measurements.c **** 
  48:.\moisture_measurement/moisture_measurements.c **** 
  49:.\moisture_measurement/moisture_measurements.c **** /*
  50:.\moisture_measurement/moisture_measurements.c **** **
  51:.\moisture_measurement/moisture_measurements.c **** ** Routines to store data
  52:.\moisture_measurement/moisture_measurements.c **** ** resistance unknow resistance equals
  53:.\moisture_measurement/moisture_measurements.c **** ** reference resistance is stored in modbus location REFERENECE_RESISTANCE
  54:.\moisture_measurement/moisture_measurements.c **** ** i = ( sigma_v_rail)/known_resistance
  55:.\moisture_measurement/moisture_measurements.c **** ** unknown resistance = v_measurement/i
  56:.\moisture_measurement/moisture_measurements.c **** */
  57:.\moisture_measurement/moisture_measurements.c **** static inline int store_moisture_data(unsigned current_channel, float high_voltage, float low_volta
  58:.\moisture_measurement/moisture_measurements.c **** {
 142              		.loc 1 58 0
 143              		.cfi_startproc
 144              		@ args = 0, pretend = 0, frame = 40
 145              		@ frame_needed = 1, uses_anonymous_args = 0
 146 0000 2DE9B043 		push	{r4, r5, r7, r8, r9, lr}
 147              		.cfi_def_cfa_offset 24
 148              		.cfi_offset 4, -24
 149              		.cfi_offset 5, -20
 150              		.cfi_offset 7, -16
 151              		.cfi_offset 8, -12
 152              		.cfi_offset 9, -8
 153              		.cfi_offset 14, -4
 154 0004 8AB0     		sub	sp, sp, #40
 155              		.cfi_def_cfa_offset 64
 156 0006 00AF     		add	r7, sp, #0
 157              		.cfi_def_cfa_register 7
 158 0008 F860     		str	r0, [r7, #12]
 159 000a B960     		str	r1, [r7, #8]	@ float
 160 000c 7A60     		str	r2, [r7, #4]	@ float
 161 000e 3B60     		str	r3, [r7]	@ float
  59:.\moisture_measurement/moisture_measurements.c ****     float measurement;
  60:.\moisture_measurement/moisture_measurements.c ****     float source_current;
  61:.\moisture_measurement/moisture_measurements.c ****     float source_resistance;
  62:.\moisture_measurement/moisture_measurements.c ****     float reference_resistance;
  63:.\moisture_measurement/moisture_measurements.c ****     int sensor_type;
ARM GAS  C:\Users\glenn\AppData\Local\Temp\ccV9538d.s 			page 5


  64:.\moisture_measurement/moisture_measurements.c ****     float temperature;
  65:.\moisture_measurement/moisture_measurements.c ****     
  66:.\moisture_measurement/moisture_measurements.c ****     sensor_type = get_moisture_sensor_configuration( current_channel );
 162              		.loc 1 66 0
 163 0010 F868     		ldr	r0, [r7, #12]
 164 0012 FFF7FEFF 		bl	get_moisture_sensor_configuration
 165 0016 0346     		mov	r3, r0
 166 0018 3B62     		str	r3, [r7, #32]
  67:.\moisture_measurement/moisture_measurements.c ****     
  68:.\moisture_measurement/moisture_measurements.c ****     reference_resistance = get_reference_resistor( current_channel );
 167              		.loc 1 68 0
 168 001a F868     		ldr	r0, [r7, #12]
 169 001c FFF7FEFF 		bl	get_reference_resistor
 170 0020 F861     		str	r0, [r7, #28]	@ float
  69:.\moisture_measurement/moisture_measurements.c ****     source_current = ((float) high_voltage -(float)sensor_voltage)/reference_resistance;
 171              		.loc 1 69 0
 172 0022 B868     		ldr	r0, [r7, #8]	@ float
 173 0024 3968     		ldr	r1, [r7]	@ float
 174 0026 FFF7FEFF 		bl	__aeabi_fsub
 175 002a 0346     		mov	r3, r0
 176 002c 1846     		mov	r0, r3
 177 002e F969     		ldr	r1, [r7, #28]	@ float
 178 0030 FFF7FEFF 		bl	__aeabi_fdiv
 179 0034 0346     		mov	r3, r0
 180 0036 BB61     		str	r3, [r7, #24]	@ float
  70:.\moisture_measurement/moisture_measurements.c ****     source_resistance = (sensor_voltage - low_voltage)/source_current;
 181              		.loc 1 70 0
 182 0038 3868     		ldr	r0, [r7]	@ float
 183 003a 7968     		ldr	r1, [r7, #4]	@ float
 184 003c FFF7FEFF 		bl	__aeabi_fsub
 185 0040 0346     		mov	r3, r0
 186 0042 1846     		mov	r0, r3
 187 0044 B969     		ldr	r1, [r7, #24]	@ float
 188 0046 FFF7FEFF 		bl	__aeabi_fdiv
 189 004a 0346     		mov	r3, r0
 190 004c 7B61     		str	r3, [r7, #20]	@ float
  71:.\moisture_measurement/moisture_measurements.c ****     switch( sensor_type )
 191              		.loc 1 71 0
 192 004e 3B6A     		ldr	r3, [r7, #32]
 193 0050 012B     		cmp	r3, #1
 194 0052 07D0     		beq	.L12
 195 0054 022B     		cmp	r3, #2
 196 0056 08D0     		beq	.L13
 197 0058 002B     		cmp	r3, #0
 198 005a 60D1     		bne	.L17
  72:.\moisture_measurement/moisture_measurements.c ****     {
  73:.\moisture_measurement/moisture_measurements.c ****         case NOT_POPULATED:  // not connected sensor -- should not reach this poi
  74:.\moisture_measurement/moisture_measurements.c ****            measurement = 0;
 199              		.loc 1 74 0
 200 005c 4FF00003 		mov	r3, #0
 201 0060 7B62     		str	r3, [r7, #36]	@ float
  75:.\moisture_measurement/moisture_measurements.c ****            break;
 202              		.loc 1 75 0
 203 0062 5FE0     		b	.L15
 204              	.L12:
  76:.\moisture_measurement/moisture_measurements.c ****         
  77:.\moisture_measurement/moisture_measurements.c ****         case RESISTIVE_ELEMENT:
ARM GAS  C:\Users\glenn\AppData\Local\Temp\ccV9538d.s 			page 6


  78:.\moisture_measurement/moisture_measurements.c ****             measurement = source_resistance;
 205              		.loc 1 78 0
 206 0064 7B69     		ldr	r3, [r7, #20]	@ float
 207 0066 7B62     		str	r3, [r7, #36]	@ float
  79:.\moisture_measurement/moisture_measurements.c ****             break;
 208              		.loc 1 79 0
 209 0068 5CE0     		b	.L15
 210              	.L13:
  80:.\moisture_measurement/moisture_measurements.c ****             
  81:.\moisture_measurement/moisture_measurements.c ****         case WATER_MARK:
  82:.\moisture_measurement/moisture_measurements.c ****             temperature = get_soil_temperature();
 211              		.loc 1 82 0
 212 006a FFF7FEFF 		bl	get_soil_temperature
 213 006e 3861     		str	r0, [r7, #16]	@ float
  83:.\moisture_measurement/moisture_measurements.c ****             source_resistance = source_resistance/1000.;
 214              		.loc 1 83 0
 215 0070 7869     		ldr	r0, [r7, #20]	@ float
 216 0072 3B49     		ldr	r1, .L18+32
 217 0074 FFF7FEFF 		bl	__aeabi_fdiv
 218 0078 0346     		mov	r3, r0
 219 007a 7B61     		str	r3, [r7, #20]	@ float
  84:.\moisture_measurement/moisture_measurements.c ****             //kPa=(4.093+3.213*R)/(1-0.009733*R-0.01205*T)
  85:.\moisture_measurement/moisture_measurements.c ****             measurement = ( 4.093 + 3.213* source_resistance  )/( 1. - .009733*source_resistance - 
 220              		.loc 1 85 0
 221 007c 7869     		ldr	r0, [r7, #20]	@ float
 222 007e FFF7FEFF 		bl	__aeabi_f2d
 223 0082 0246     		mov	r2, r0
 224 0084 0B46     		mov	r3, r1
 225 0086 1046     		mov	r0, r2
 226 0088 1946     		mov	r1, r3
 227 008a 2DA3     		adr	r3, .L18
 228 008c D3E90023 		ldrd	r2, [r3]
 229 0090 FFF7FEFF 		bl	__aeabi_dmul
 230 0094 0246     		mov	r2, r0
 231 0096 0B46     		mov	r3, r1
 232 0098 1046     		mov	r0, r2
 233 009a 1946     		mov	r1, r3
 234 009c 2AA3     		adr	r3, .L18+8
 235 009e D3E90023 		ldrd	r2, [r3]
 236 00a2 FFF7FEFF 		bl	__aeabi_dadd
 237 00a6 0246     		mov	r2, r0
 238 00a8 0B46     		mov	r3, r1
 239 00aa 1446     		mov	r4, r2
 240 00ac 1D46     		mov	r5, r3
 241 00ae 7869     		ldr	r0, [r7, #20]	@ float
 242 00b0 FFF7FEFF 		bl	__aeabi_f2d
 243 00b4 0246     		mov	r2, r0
 244 00b6 0B46     		mov	r3, r1
 245 00b8 1046     		mov	r0, r2
 246 00ba 1946     		mov	r1, r3
 247 00bc 24A3     		adr	r3, .L18+16
 248 00be D3E90023 		ldrd	r2, [r3]
 249 00c2 FFF7FEFF 		bl	__aeabi_dmul
 250 00c6 0246     		mov	r2, r0
 251 00c8 0B46     		mov	r3, r1
 252 00ca 4FF00000 		mov	r0, #0
 253 00ce 2549     		ldr	r1, .L18+36
ARM GAS  C:\Users\glenn\AppData\Local\Temp\ccV9538d.s 			page 7


 254 00d0 FFF7FEFF 		bl	__aeabi_dsub
 255 00d4 0246     		mov	r2, r0
 256 00d6 0B46     		mov	r3, r1
 257 00d8 9046     		mov	r8, r2
 258 00da 9946     		mov	r9, r3
 259 00dc 3869     		ldr	r0, [r7, #16]	@ float
 260 00de FFF7FEFF 		bl	__aeabi_f2d
 261 00e2 0246     		mov	r2, r0
 262 00e4 0B46     		mov	r3, r1
 263 00e6 1046     		mov	r0, r2
 264 00e8 1946     		mov	r1, r3
 265 00ea 1BA3     		adr	r3, .L18+24
 266 00ec D3E90023 		ldrd	r2, [r3]
 267 00f0 FFF7FEFF 		bl	__aeabi_dmul
 268 00f4 0246     		mov	r2, r0
 269 00f6 0B46     		mov	r3, r1
 270 00f8 4046     		mov	r0, r8
 271 00fa 4946     		mov	r1, r9
 272 00fc FFF7FEFF 		bl	__aeabi_dsub
 273 0100 0246     		mov	r2, r0
 274 0102 0B46     		mov	r3, r1
 275 0104 2046     		mov	r0, r4
 276 0106 2946     		mov	r1, r5
 277 0108 FFF7FEFF 		bl	__aeabi_ddiv
 278 010c 0246     		mov	r2, r0
 279 010e 0B46     		mov	r3, r1
 280 0110 1046     		mov	r0, r2
 281 0112 1946     		mov	r1, r3
 282 0114 FFF7FEFF 		bl	__aeabi_d2f
 283 0118 0346     		mov	r3, r0
 284 011a 7B62     		str	r3, [r7, #36]	@ float
  86:.\moisture_measurement/moisture_measurements.c ****             break;
 285              		.loc 1 86 0
 286 011c 02E0     		b	.L15
 287              	.L17:
  87:.\moisture_measurement/moisture_measurements.c ****        default:
  88:.\moisture_measurement/moisture_measurements.c ****             CYASSERT(0);
 288              		.loc 1 88 0
 289 011e 0020     		movs	r0, #0
 290 0120 FFF7FEFF 		bl	CyHalt
 291              	.L15:
  89:.\moisture_measurement/moisture_measurements.c ****     }
  90:.\moisture_measurement/moisture_measurements.c ****     
  91:.\moisture_measurement/moisture_measurements.c ****     moisture_meaurements[ current_channel ] = measurement;
 292              		.loc 1 91 0
 293 0124 1049     		ldr	r1, .L18+40
 294 0126 FB68     		ldr	r3, [r7, #12]
 295 0128 7A6A     		ldr	r2, [r7, #36]	@ float
 296 012a 41F82320 		str	r2, [r1, r3, lsl #2]	@ float
  92:.\moisture_measurement/moisture_measurements.c ****     return 0;
 297              		.loc 1 92 0
 298 012e 0023     		movs	r3, #0
  93:.\moisture_measurement/moisture_measurements.c **** }
 299              		.loc 1 93 0
 300 0130 1846     		mov	r0, r3
 301 0132 2837     		adds	r7, r7, #40
 302              		.cfi_def_cfa_offset 24
ARM GAS  C:\Users\glenn\AppData\Local\Temp\ccV9538d.s 			page 8


 303 0134 BD46     		mov	sp, r7
 304              		.cfi_def_cfa_register 13
 305              		@ sp needed
 306 0136 BDE8B083 		pop	{r4, r5, r7, r8, r9, pc}
 307              	.L19:
 308 013a 00BFAFF3 		.align	3
 308      0080
 309              	.L18:
 310 0140 4E621058 		.word	1477468750
 311 0144 39B40940 		.word	1074377785
 312 0148 AC1C5A64 		.word	1683627180
 313 014c 3B5F1040 		.word	1074814779
 314 0150 85268925 		.word	629745285
 315 0154 E5EE833F 		.word	1065610981
 316 0158 3D9B559F 		.word	-1621779651
 317 015c ABAD883F 		.word	1065921963
 318 0160 00007A44 		.word	1148846080
 319 0164 0000F03F 		.word	1072693248
 320 0168 0C000000 		.word	moisture_meaurements
 321              		.cfi_endproc
 322              	.LFE66:
 323              		.size	store_moisture_data, .-store_moisture_data
 324 016c AFF30080 		.section	.text.init_moisture_processing,"ax",%progbits
 325              		.align	2
 326              		.global	init_moisture_processing
 327              		.thumb
 328              		.thumb_func
 329              		.type	init_moisture_processing, %function
 330              	init_moisture_processing:
 331              	.LFB67:
  94:.\moisture_measurement/moisture_measurements.c **** 
  95:.\moisture_measurement/moisture_measurements.c **** 
  96:.\moisture_measurement/moisture_measurements.c **** 
  97:.\moisture_measurement/moisture_measurements.c **** 
  98:.\moisture_measurement/moisture_measurements.c **** 
  99:.\moisture_measurement/moisture_measurements.c **** /*
 100:.\moisture_measurement/moisture_measurements.c **** **
 101:.\moisture_measurement/moisture_measurements.c **** ** Public ChainFlow Functions
 102:.\moisture_measurement/moisture_measurements.c **** **
 103:.\moisture_measurement/moisture_measurements.c **** **
 104:.\moisture_measurement/moisture_measurements.c **** **
 105:.\moisture_measurement/moisture_measurements.c **** */
 106:.\moisture_measurement/moisture_measurements.c **** 
 107:.\moisture_measurement/moisture_measurements.c **** /*
 108:.\moisture_measurement/moisture_measurements.c **** ** Moisture Measurement Initialization Functions
 109:.\moisture_measurement/moisture_measurements.c **** **
 110:.\moisture_measurement/moisture_measurements.c **** **
 111:.\moisture_measurement/moisture_measurements.c **** **
 112:.\moisture_measurement/moisture_measurements.c **** */
 113:.\moisture_measurement/moisture_measurements.c **** 
 114:.\moisture_measurement/moisture_measurements.c **** int init_moisture_processing(unsigned link_id, unsigned param_1,
 115:.\moisture_measurement/moisture_measurements.c ****   unsigned param_2, unsigned param_3, unsigned event, unsigned data)
 116:.\moisture_measurement/moisture_measurements.c **** {
 332              		.loc 1 116 0
 333              		.cfi_startproc
 334              		@ args = 8, pretend = 0, frame = 16
 335              		@ frame_needed = 1, uses_anonymous_args = 0
ARM GAS  C:\Users\glenn\AppData\Local\Temp\ccV9538d.s 			page 9


 336 0000 80B5     		push	{r7, lr}
 337              		.cfi_def_cfa_offset 8
 338              		.cfi_offset 7, -8
 339              		.cfi_offset 14, -4
 340 0002 84B0     		sub	sp, sp, #16
 341              		.cfi_def_cfa_offset 24
 342 0004 00AF     		add	r7, sp, #0
 343              		.cfi_def_cfa_register 7
 344 0006 F860     		str	r0, [r7, #12]
 345 0008 B960     		str	r1, [r7, #8]
 346 000a 7A60     		str	r2, [r7, #4]
 347 000c 3B60     		str	r3, [r7]
 117:.\moisture_measurement/moisture_measurements.c ****    logging_flag     = 0;
 348              		.loc 1 117 0
 349 000e 0F4B     		ldr	r3, .L22
 350 0010 0022     		movs	r2, #0
 351 0012 1A60     		str	r2, [r3]
 118:.\moisture_measurement/moisture_measurements.c ****    active_flag      = 0;
 352              		.loc 1 118 0
 353 0014 0E4B     		ldr	r3, .L22+4
 354 0016 0022     		movs	r2, #0
 355 0018 1A60     		str	r2, [r3]
 119:.\moisture_measurement/moisture_measurements.c ****    measurement_minute_count = 0;
 356              		.loc 1 119 0
 357 001a 0E4B     		ldr	r3, .L22+8
 358 001c 0022     		movs	r2, #0
 359 001e 1A60     		str	r2, [r3]
 120:.\moisture_measurement/moisture_measurements.c **** 
 121:.\moisture_measurement/moisture_measurements.c ****    Source_Reg_Write(0);
 360              		.loc 1 121 0
 361 0020 0020     		movs	r0, #0
 362 0022 FFF7FEFF 		bl	Source_Reg_Write
 122:.\moisture_measurement/moisture_measurements.c ****    Sink_Reg_Write(0);
 363              		.loc 1 122 0
 364 0026 0020     		movs	r0, #0
 365 0028 FFF7FEFF 		bl	Sink_Reg_Write
 123:.\moisture_measurement/moisture_measurements.c ****    Sink_Source_Setup_Start();
 366              		.loc 1 123 0
 367 002c FFF7FEFF 		bl	Sink_Source_Setup_Start
 124:.\moisture_measurement/moisture_measurements.c ****    Sink_Source_Setup_FastSelect(MOISTURE_SENSOR_NUMBER);
 368              		.loc 1 124 0
 369 0030 0920     		movs	r0, #9
 370 0032 FFF7FEFF 		bl	Sink_Source_Setup_FastSelect
 125:.\moisture_measurement/moisture_measurements.c ****    SIGMA_A_D_Start();
 371              		.loc 1 125 0
 372 0036 FFF7FEFF 		bl	SIGMA_A_D_Start
 126:.\moisture_measurement/moisture_measurements.c ****    SIGMA_A_D_Sleep();
 373              		.loc 1 126 0
 374 003a FFF7FEFF 		bl	SIGMA_A_D_Sleep
 127:.\moisture_measurement/moisture_measurements.c ****    moisture_interval_clock_Stop();
 375              		.loc 1 127 0
 376 003e FFF7FEFF 		bl	moisture_interval_clock_Stop
 128:.\moisture_measurement/moisture_measurements.c ****    return 0;
 377              		.loc 1 128 0
 378 0042 0023     		movs	r3, #0
 129:.\moisture_measurement/moisture_measurements.c **** }
 379              		.loc 1 129 0
ARM GAS  C:\Users\glenn\AppData\Local\Temp\ccV9538d.s 			page 10


 380 0044 1846     		mov	r0, r3
 381 0046 1037     		adds	r7, r7, #16
 382              		.cfi_def_cfa_offset 8
 383 0048 BD46     		mov	sp, r7
 384              		.cfi_def_cfa_register 13
 385              		@ sp needed
 386 004a 80BD     		pop	{r7, pc}
 387              	.L23:
 388              		.align	2
 389              	.L22:
 390 004c 00000000 		.word	logging_flag
 391 0050 04000000 		.word	active_flag
 392 0054 08000000 		.word	measurement_minute_count
 393              		.cfi_endproc
 394              	.LFE67:
 395              		.size	init_moisture_processing, .-init_moisture_processing
 396              		.section	.text.process_moisture_interval_interrupt,"ax",%progbits
 397              		.align	2
 398              		.global	process_moisture_interval_interrupt
 399              		.thumb
 400              		.thumb_func
 401              		.type	process_moisture_interval_interrupt, %function
 402              	process_moisture_interval_interrupt:
 403              	.LFB68:
 130:.\moisture_measurement/moisture_measurements.c **** 
 131:.\moisture_measurement/moisture_measurements.c **** 
 132:.\moisture_measurement/moisture_measurements.c **** 
 133:.\moisture_measurement/moisture_measurements.c **** 
 134:.\moisture_measurement/moisture_measurements.c **** 
 135:.\moisture_measurement/moisture_measurements.c **** 
 136:.\moisture_measurement/moisture_measurements.c **** 
 137:.\moisture_measurement/moisture_measurements.c **** 
 138:.\moisture_measurement/moisture_measurements.c **** 
 139:.\moisture_measurement/moisture_measurements.c **** CY_ISR_PROTO(process_moisture_interval_interrupt)
 140:.\moisture_measurement/moisture_measurements.c **** {
 404              		.loc 1 140 0
 405              		.cfi_startproc
 406              		@ args = 0, pretend = 0, frame = 0
 407              		@ frame_needed = 1, uses_anonymous_args = 0
 408 0000 80B5     		push	{r7, lr}
 409              		.cfi_def_cfa_offset 8
 410              		.cfi_offset 7, -8
 411              		.cfi_offset 14, -4
 412 0002 00AF     		add	r7, sp, #0
 413              		.cfi_def_cfa_register 7
 141:.\moisture_measurement/moisture_measurements.c ****     ad_interrupt_1_ClearPending();
 414              		.loc 1 141 0
 415 0004 FFF7FEFF 		bl	ad_interrupt_1_ClearPending
 142:.\moisture_measurement/moisture_measurements.c ****     cf_send_event(  CF_120HZ_TICK,0 );
 416              		.loc 1 142 0
 417 0008 0A20     		movs	r0, #10
 418 000a 0021     		movs	r1, #0
 419 000c FFF7FEFF 		bl	cf_send_event
 143:.\moisture_measurement/moisture_measurements.c **** }
 420              		.loc 1 143 0
 421 0010 80BD     		pop	{r7, pc}
 422              		.cfi_endproc
ARM GAS  C:\Users\glenn\AppData\Local\Temp\ccV9538d.s 			page 11


 423              	.LFE68:
 424              		.size	process_moisture_interval_interrupt, .-process_moisture_interval_interrupt
 425 0012 00BF     		.section	.text.set_up_moisture_interrupt,"ax",%progbits
 426              		.align	2
 427              		.global	set_up_moisture_interrupt
 428              		.thumb
 429              		.thumb_func
 430              		.type	set_up_moisture_interrupt, %function
 431              	set_up_moisture_interrupt:
 432              	.LFB69:
 144:.\moisture_measurement/moisture_measurements.c **** 
 145:.\moisture_measurement/moisture_measurements.c **** 
 146:.\moisture_measurement/moisture_measurements.c **** 
 147:.\moisture_measurement/moisture_measurements.c **** 
 148:.\moisture_measurement/moisture_measurements.c **** 
 149:.\moisture_measurement/moisture_measurements.c **** int set_up_moisture_interrupt(unsigned link_id, unsigned param_1,
 150:.\moisture_measurement/moisture_measurements.c ****   unsigned param_2, unsigned param_3, unsigned event, unsigned data)
 151:.\moisture_measurement/moisture_measurements.c **** {
 433              		.loc 1 151 0
 434              		.cfi_startproc
 435              		@ args = 8, pretend = 0, frame = 16
 436              		@ frame_needed = 1, uses_anonymous_args = 0
 437 0000 80B5     		push	{r7, lr}
 438              		.cfi_def_cfa_offset 8
 439              		.cfi_offset 7, -8
 440              		.cfi_offset 14, -4
 441 0002 84B0     		sub	sp, sp, #16
 442              		.cfi_def_cfa_offset 24
 443 0004 00AF     		add	r7, sp, #0
 444              		.cfi_def_cfa_register 7
 445 0006 F860     		str	r0, [r7, #12]
 446 0008 B960     		str	r1, [r7, #8]
 447 000a 7A60     		str	r2, [r7, #4]
 448 000c 3B60     		str	r3, [r7]
 152:.\moisture_measurement/moisture_measurements.c ****     moisture_interval_clock_Stop();
 449              		.loc 1 152 0
 450 000e FFF7FEFF 		bl	moisture_interval_clock_Stop
 153:.\moisture_measurement/moisture_measurements.c ****     moisture_interval_interrupt_StartEx(process_moisture_interval_interrupt);
 451              		.loc 1 153 0
 452 0012 0448     		ldr	r0, .L27
 453 0014 FFF7FEFF 		bl	moisture_interval_interrupt_StartEx
 154:.\moisture_measurement/moisture_measurements.c ****     return 0;
 454              		.loc 1 154 0
 455 0018 0023     		movs	r3, #0
 155:.\moisture_measurement/moisture_measurements.c **** }
 456              		.loc 1 155 0
 457 001a 1846     		mov	r0, r3
 458 001c 1037     		adds	r7, r7, #16
 459              		.cfi_def_cfa_offset 8
 460 001e BD46     		mov	sp, r7
 461              		.cfi_def_cfa_register 13
 462              		@ sp needed
 463 0020 80BD     		pop	{r7, pc}
 464              	.L28:
 465 0022 00BF     		.align	2
 466              	.L27:
 467 0024 00000000 		.word	process_moisture_interval_interrupt
ARM GAS  C:\Users\glenn\AppData\Local\Temp\ccV9538d.s 			page 12


 468              		.cfi_endproc
 469              	.LFE69:
 470              		.size	set_up_moisture_interrupt, .-set_up_moisture_interrupt
 471              		.section	.text.check_moisture_active_flag,"ax",%progbits
 472              		.align	2
 473              		.global	check_moisture_active_flag
 474              		.thumb
 475              		.thumb_func
 476              		.type	check_moisture_active_flag, %function
 477              	check_moisture_active_flag:
 478              	.LFB70:
 156:.\moisture_measurement/moisture_measurements.c **** 
 157:.\moisture_measurement/moisture_measurements.c **** 
 158:.\moisture_measurement/moisture_measurements.c **** 
 159:.\moisture_measurement/moisture_measurements.c **** 
 160:.\moisture_measurement/moisture_measurements.c **** /*
 161:.\moisture_measurement/moisture_measurements.c **** **  Monitor Pins to determine if active or if logging
 162:.\moisture_measurement/moisture_measurements.c **** **  Check to see if it is time to measure moisture
 163:.\moisture_measurement/moisture_measurements.c **** **
 164:.\moisture_measurement/moisture_measurements.c **** **
 165:.\moisture_measurement/moisture_measurements.c **** */
 166:.\moisture_measurement/moisture_measurements.c **** 
 167:.\moisture_measurement/moisture_measurements.c **** 
 168:.\moisture_measurement/moisture_measurements.c **** 
 169:.\moisture_measurement/moisture_measurements.c **** 
 170:.\moisture_measurement/moisture_measurements.c **** 
 171:.\moisture_measurement/moisture_measurements.c **** int check_moisture_active_flag(unsigned link_id, unsigned param_1,
 172:.\moisture_measurement/moisture_measurements.c ****   unsigned param_2, unsigned param_3, unsigned event, unsigned data)
 173:.\moisture_measurement/moisture_measurements.c **** {
 479              		.loc 1 173 0
 480              		.cfi_startproc
 481              		@ args = 8, pretend = 0, frame = 24
 482              		@ frame_needed = 1, uses_anonymous_args = 0
 483 0000 80B5     		push	{r7, lr}
 484              		.cfi_def_cfa_offset 8
 485              		.cfi_offset 7, -8
 486              		.cfi_offset 14, -4
 487 0002 86B0     		sub	sp, sp, #24
 488              		.cfi_def_cfa_offset 32
 489 0004 00AF     		add	r7, sp, #0
 490              		.cfi_def_cfa_register 7
 491 0006 F860     		str	r0, [r7, #12]
 492 0008 B960     		str	r1, [r7, #8]
 493 000a 7A60     		str	r2, [r7, #4]
 494 000c 3B60     		str	r3, [r7]
 174:.\moisture_measurement/moisture_measurements.c ****       uint16 temp;
 175:.\moisture_measurement/moisture_measurements.c ****       temp =  Active_Pin_Read();
 495              		.loc 1 175 0
 496 000e FFF7FEFF 		bl	Active_Pin_Read
 497 0012 0346     		mov	r3, r0
 498 0014 9BB2     		uxth	r3, r3
 499 0016 FB82     		strh	r3, [r7, #22]	@ movhi
 176:.\moisture_measurement/moisture_measurements.c ****       if( read_active_pin() != 0 )
 500              		.loc 1 176 0
 501 0018 FFF7FEFF 		bl	read_active_pin
 502 001c 0346     		mov	r3, r0
 503 001e 002B     		cmp	r3, #0
ARM GAS  C:\Users\glenn\AppData\Local\Temp\ccV9538d.s 			page 13


 504 0020 03D0     		beq	.L30
 177:.\moisture_measurement/moisture_measurements.c ****       {
 178:.\moisture_measurement/moisture_measurements.c ****           active_flag = 0;
 505              		.loc 1 178 0
 506 0022 0B4B     		ldr	r3, .L33
 507 0024 0022     		movs	r2, #0
 508 0026 1A60     		str	r2, [r3]
 509 0028 02E0     		b	.L31
 510              	.L30:
 179:.\moisture_measurement/moisture_measurements.c ****       }
 180:.\moisture_measurement/moisture_measurements.c ****       else
 181:.\moisture_measurement/moisture_measurements.c ****       {  
 182:.\moisture_measurement/moisture_measurements.c ****           active_flag = 1;
 511              		.loc 1 182 0
 512 002a 094B     		ldr	r3, .L33
 513 002c 0122     		movs	r2, #1
 514 002e 1A60     		str	r2, [r3]
 515              	.L31:
 183:.\moisture_measurement/moisture_measurements.c ****       }
 184:.\moisture_measurement/moisture_measurements.c ****       temp = active_flag;
 516              		.loc 1 184 0
 517 0030 074B     		ldr	r3, .L33
 518 0032 1B68     		ldr	r3, [r3]
 519 0034 9BB2     		uxth	r3, r3
 520 0036 FB82     		strh	r3, [r7, #22]	@ movhi
 185:.\moisture_measurement/moisture_measurements.c ****       store_modbus_data_registers( LOGGING_FLAG, 1, &temp);
 521              		.loc 1 185 0
 522 0038 07F11603 		add	r3, r7, #22
 523 003c 1F20     		movs	r0, #31
 524 003e 0121     		movs	r1, #1
 525 0040 1A46     		mov	r2, r3
 526 0042 FFF7FEFF 		bl	store_modbus_data_registers
 186:.\moisture_measurement/moisture_measurements.c **** 
 187:.\moisture_measurement/moisture_measurements.c ****       return 0;
 527              		.loc 1 187 0
 528 0046 0023     		movs	r3, #0
 188:.\moisture_measurement/moisture_measurements.c **** 
 189:.\moisture_measurement/moisture_measurements.c **** }
 529              		.loc 1 189 0
 530 0048 1846     		mov	r0, r3
 531 004a 1837     		adds	r7, r7, #24
 532              		.cfi_def_cfa_offset 8
 533 004c BD46     		mov	sp, r7
 534              		.cfi_def_cfa_register 13
 535              		@ sp needed
 536 004e 80BD     		pop	{r7, pc}
 537              	.L34:
 538              		.align	2
 539              	.L33:
 540 0050 04000000 		.word	active_flag
 541              		.cfi_endproc
 542              	.LFE70:
 543              		.size	check_moisture_active_flag, .-check_moisture_active_flag
 544              		.section	.text.check_logging_active_flag,"ax",%progbits
 545              		.align	2
 546              		.global	check_logging_active_flag
 547              		.thumb
ARM GAS  C:\Users\glenn\AppData\Local\Temp\ccV9538d.s 			page 14


 548              		.thumb_func
 549              		.type	check_logging_active_flag, %function
 550              	check_logging_active_flag:
 551              	.LFB71:
 190:.\moisture_measurement/moisture_measurements.c **** 
 191:.\moisture_measurement/moisture_measurements.c **** 
 192:.\moisture_measurement/moisture_measurements.c **** int check_logging_active_flag(unsigned link_id, unsigned param_1,
 193:.\moisture_measurement/moisture_measurements.c ****   unsigned param_2, unsigned param_3, unsigned event, unsigned data)
 194:.\moisture_measurement/moisture_measurements.c **** {
 552              		.loc 1 194 0
 553              		.cfi_startproc
 554              		@ args = 8, pretend = 0, frame = 24
 555              		@ frame_needed = 1, uses_anonymous_args = 0
 556 0000 80B5     		push	{r7, lr}
 557              		.cfi_def_cfa_offset 8
 558              		.cfi_offset 7, -8
 559              		.cfi_offset 14, -4
 560 0002 86B0     		sub	sp, sp, #24
 561              		.cfi_def_cfa_offset 32
 562 0004 00AF     		add	r7, sp, #0
 563              		.cfi_def_cfa_register 7
 564 0006 F860     		str	r0, [r7, #12]
 565 0008 B960     		str	r1, [r7, #8]
 566 000a 7A60     		str	r2, [r7, #4]
 567 000c 3B60     		str	r3, [r7]
 195:.\moisture_measurement/moisture_measurements.c ****       uint16 temp;
 196:.\moisture_measurement/moisture_measurements.c ****       if( read_log_pin() != 0 )
 568              		.loc 1 196 0
 569 000e FFF7FEFF 		bl	read_log_pin
 570 0012 0346     		mov	r3, r0
 571 0014 002B     		cmp	r3, #0
 572 0016 03D0     		beq	.L36
 197:.\moisture_measurement/moisture_measurements.c ****       {
 198:.\moisture_measurement/moisture_measurements.c ****           logging_flag = 0;
 573              		.loc 1 198 0
 574 0018 0B4B     		ldr	r3, .L39
 575 001a 0022     		movs	r2, #0
 576 001c 1A60     		str	r2, [r3]
 577 001e 02E0     		b	.L37
 578              	.L36:
 199:.\moisture_measurement/moisture_measurements.c ****       }
 200:.\moisture_measurement/moisture_measurements.c ****       else
 201:.\moisture_measurement/moisture_measurements.c ****       {  
 202:.\moisture_measurement/moisture_measurements.c ****           logging_flag = 1;
 579              		.loc 1 202 0
 580 0020 094B     		ldr	r3, .L39
 581 0022 0122     		movs	r2, #1
 582 0024 1A60     		str	r2, [r3]
 583              	.L37:
 203:.\moisture_measurement/moisture_measurements.c ****       }
 204:.\moisture_measurement/moisture_measurements.c ****       temp = logging_flag;
 584              		.loc 1 204 0
 585 0026 084B     		ldr	r3, .L39
 586 0028 1B68     		ldr	r3, [r3]
 587 002a 9BB2     		uxth	r3, r3
 588 002c FB82     		strh	r3, [r7, #22]	@ movhi
 205:.\moisture_measurement/moisture_measurements.c ****       store_modbus_data_registers( ACTIVE_FLAG, 1, &temp);
ARM GAS  C:\Users\glenn\AppData\Local\Temp\ccV9538d.s 			page 15


 589              		.loc 1 205 0
 590 002e 07F11603 		add	r3, r7, #22
 591 0032 1E20     		movs	r0, #30
 592 0034 0121     		movs	r1, #1
 593 0036 1A46     		mov	r2, r3
 594 0038 FFF7FEFF 		bl	store_modbus_data_registers
 206:.\moisture_measurement/moisture_measurements.c **** 
 207:.\moisture_measurement/moisture_measurements.c ****       return 0;
 595              		.loc 1 207 0
 596 003c 0023     		movs	r3, #0
 208:.\moisture_measurement/moisture_measurements.c **** 
 209:.\moisture_measurement/moisture_measurements.c **** }
 597              		.loc 1 209 0
 598 003e 1846     		mov	r0, r3
 599 0040 1837     		adds	r7, r7, #24
 600              		.cfi_def_cfa_offset 8
 601 0042 BD46     		mov	sp, r7
 602              		.cfi_def_cfa_register 13
 603              		@ sp needed
 604 0044 80BD     		pop	{r7, pc}
 605              	.L40:
 606 0046 00BF     		.align	2
 607              	.L39:
 608 0048 00000000 		.word	logging_flag
 609              		.cfi_endproc
 610              	.LFE71:
 611              		.size	check_logging_active_flag, .-check_logging_active_flag
 612              		.section	.text.check_for_moisture_measurement,"ax",%progbits
 613              		.align	2
 614              		.global	check_for_moisture_measurement
 615              		.thumb
 616              		.thumb_func
 617              		.type	check_for_moisture_measurement, %function
 618              	check_for_moisture_measurement:
 619              	.LFB72:
 210:.\moisture_measurement/moisture_measurements.c **** 
 211:.\moisture_measurement/moisture_measurements.c **** 
 212:.\moisture_measurement/moisture_measurements.c **** 
 213:.\moisture_measurement/moisture_measurements.c **** 
 214:.\moisture_measurement/moisture_measurements.c **** int check_for_moisture_measurement(unsigned link_id, unsigned param_1,
 215:.\moisture_measurement/moisture_measurements.c ****   unsigned param_2, unsigned param_3, unsigned event, unsigned data)
 216:.\moisture_measurement/moisture_measurements.c **** 
 217:.\moisture_measurement/moisture_measurements.c **** 
 218:.\moisture_measurement/moisture_measurements.c **** 
 219:.\moisture_measurement/moisture_measurements.c **** 
 220:.\moisture_measurement/moisture_measurements.c **** 
 221:.\moisture_measurement/moisture_measurements.c **** {
 620              		.loc 1 221 0
 621              		.cfi_startproc
 622              		@ args = 8, pretend = 0, frame = 24
 623              		@ frame_needed = 1, uses_anonymous_args = 0
 624 0000 80B5     		push	{r7, lr}
 625              		.cfi_def_cfa_offset 8
 626              		.cfi_offset 7, -8
 627              		.cfi_offset 14, -4
 628 0002 86B0     		sub	sp, sp, #24
 629              		.cfi_def_cfa_offset 32
ARM GAS  C:\Users\glenn\AppData\Local\Temp\ccV9538d.s 			page 16


 630 0004 00AF     		add	r7, sp, #0
 631              		.cfi_def_cfa_register 7
 632 0006 F860     		str	r0, [r7, #12]
 633 0008 B960     		str	r1, [r7, #8]
 634 000a 7A60     		str	r2, [r7, #4]
 635 000c 3B60     		str	r3, [r7]
 222:.\moisture_measurement/moisture_measurements.c ****       uint16 minute_count_limit;
 223:.\moisture_measurement/moisture_measurements.c ****       
 224:.\moisture_measurement/moisture_measurements.c ****       if( active_flag == 0 )
 636              		.loc 1 224 0
 637 000e 164B     		ldr	r3, .L48
 638 0010 1B68     		ldr	r3, [r3]
 639 0012 002B     		cmp	r3, #0
 640 0014 04D1     		bne	.L42
 225:.\moisture_measurement/moisture_measurements.c ****       {
 226:.\moisture_measurement/moisture_measurements.c ****         measurement_minute_count = 0;
 641              		.loc 1 226 0
 642 0016 154B     		ldr	r3, .L48+4
 643 0018 0022     		movs	r2, #0
 644 001a 1A60     		str	r2, [r3]
 227:.\moisture_measurement/moisture_measurements.c ****         return 0;
 645              		.loc 1 227 0
 646 001c 0023     		movs	r3, #0
 647 001e 1FE0     		b	.L47
 648              	.L42:
 228:.\moisture_measurement/moisture_measurements.c ****       }
 229:.\moisture_measurement/moisture_measurements.c ****       else
 230:.\moisture_measurement/moisture_measurements.c ****       {
 231:.\moisture_measurement/moisture_measurements.c ****         ; // no else actions
 232:.\moisture_measurement/moisture_measurements.c ****       }
 233:.\moisture_measurement/moisture_measurements.c ****       get_modbus_data_registers( LOGGING_RATE, 1, &minute_count_limit);
 649              		.loc 1 233 0
 650 0020 07F11603 		add	r3, r7, #22
 651 0024 2120     		movs	r0, #33
 652 0026 0121     		movs	r1, #1
 653 0028 1A46     		mov	r2, r3
 654 002a FFF7FEFF 		bl	get_modbus_data_registers
 234:.\moisture_measurement/moisture_measurements.c ****       if( minute_count_limit == 0 )
 655              		.loc 1 234 0
 656 002e FB8A     		ldrh	r3, [r7, #22]
 657 0030 002B     		cmp	r3, #0
 658 0032 01D1     		bne	.L44
 235:.\moisture_measurement/moisture_measurements.c ****       {
 236:.\moisture_measurement/moisture_measurements.c ****         return 0;
 659              		.loc 1 236 0
 660 0034 0023     		movs	r3, #0
 661 0036 13E0     		b	.L47
 662              	.L44:
 237:.\moisture_measurement/moisture_measurements.c ****       }
 238:.\moisture_measurement/moisture_measurements.c ****       else
 239:.\moisture_measurement/moisture_measurements.c ****       {
 240:.\moisture_measurement/moisture_measurements.c ****         // no else actions
 241:.\moisture_measurement/moisture_measurements.c ****       }
 242:.\moisture_measurement/moisture_measurements.c ****       
 243:.\moisture_measurement/moisture_measurements.c ****       if( measurement_minute_count >= minute_count_limit)
 663              		.loc 1 243 0
 664 0038 FB8A     		ldrh	r3, [r7, #22]
ARM GAS  C:\Users\glenn\AppData\Local\Temp\ccV9538d.s 			page 17


 665 003a 1A46     		mov	r2, r3
 666 003c 0B4B     		ldr	r3, .L48+4
 667 003e 1B68     		ldr	r3, [r3]
 668 0040 9A42     		cmp	r2, r3
 669 0042 07D8     		bhi	.L45
 244:.\moisture_measurement/moisture_measurements.c ****       {
 245:.\moisture_measurement/moisture_measurements.c ****           measurement_minute_count = 0;
 670              		.loc 1 245 0
 671 0044 094B     		ldr	r3, .L48+4
 672 0046 0022     		movs	r2, #0
 673 0048 1A60     		str	r2, [r3]
 246:.\moisture_measurement/moisture_measurements.c ****           cf_send_event(CF_START_MOISTURE_READING, 0 );
 674              		.loc 1 246 0
 675 004a 0920     		movs	r0, #9
 676 004c 0021     		movs	r1, #0
 677 004e FFF7FEFF 		bl	cf_send_event
 678 0052 04E0     		b	.L46
 679              	.L45:
 247:.\moisture_measurement/moisture_measurements.c ****       }
 248:.\moisture_measurement/moisture_measurements.c ****       else
 249:.\moisture_measurement/moisture_measurements.c ****       {
 250:.\moisture_measurement/moisture_measurements.c ****         measurement_minute_count += 1;
 680              		.loc 1 250 0
 681 0054 054B     		ldr	r3, .L48+4
 682 0056 1B68     		ldr	r3, [r3]
 683 0058 0133     		adds	r3, r3, #1
 684 005a 044A     		ldr	r2, .L48+4
 685 005c 1360     		str	r3, [r2]
 686              	.L46:
 251:.\moisture_measurement/moisture_measurements.c ****       }
 252:.\moisture_measurement/moisture_measurements.c ****       return 0;
 687              		.loc 1 252 0
 688 005e 0023     		movs	r3, #0
 689              	.L47:
 253:.\moisture_measurement/moisture_measurements.c **** }
 690              		.loc 1 253 0 discriminator 1
 691 0060 1846     		mov	r0, r3
 692 0062 1837     		adds	r7, r7, #24
 693              		.cfi_def_cfa_offset 8
 694 0064 BD46     		mov	sp, r7
 695              		.cfi_def_cfa_register 13
 696              		@ sp needed
 697 0066 80BD     		pop	{r7, pc}
 698              	.L49:
 699              		.align	2
 700              	.L48:
 701 0068 04000000 		.word	active_flag
 702 006c 08000000 		.word	measurement_minute_count
 703              		.cfi_endproc
 704              	.LFE72:
 705              		.size	check_for_moisture_measurement, .-check_for_moisture_measurement
 706              		.section	.text.remove_power,"ax",%progbits
 707              		.align	2
 708              		.global	remove_power
 709              		.thumb
 710              		.thumb_func
 711              		.type	remove_power, %function
ARM GAS  C:\Users\glenn\AppData\Local\Temp\ccV9538d.s 			page 18


 712              	remove_power:
 713              	.LFB73:
 254:.\moisture_measurement/moisture_measurements.c **** 
 255:.\moisture_measurement/moisture_measurements.c **** /*
 256:.\moisture_measurement/moisture_measurements.c **** **
 257:.\moisture_measurement/moisture_measurements.c **** **  Functions to make measurements
 258:.\moisture_measurement/moisture_measurements.c **** **
 259:.\moisture_measurement/moisture_measurements.c **** **/
 260:.\moisture_measurement/moisture_measurements.c **** 
 261:.\moisture_measurement/moisture_measurements.c **** 
 262:.\moisture_measurement/moisture_measurements.c **** 
 263:.\moisture_measurement/moisture_measurements.c **** int remove_power(unsigned link_id, unsigned param_1,
 264:.\moisture_measurement/moisture_measurements.c ****   unsigned param_2, unsigned param_3, unsigned event, unsigned data)
 265:.\moisture_measurement/moisture_measurements.c **** {
 714              		.loc 1 265 0
 715              		.cfi_startproc
 716              		@ args = 8, pretend = 0, frame = 16
 717              		@ frame_needed = 1, uses_anonymous_args = 0
 718 0000 80B5     		push	{r7, lr}
 719              		.cfi_def_cfa_offset 8
 720              		.cfi_offset 7, -8
 721              		.cfi_offset 14, -4
 722 0002 84B0     		sub	sp, sp, #16
 723              		.cfi_def_cfa_offset 24
 724 0004 00AF     		add	r7, sp, #0
 725              		.cfi_def_cfa_register 7
 726 0006 F860     		str	r0, [r7, #12]
 727 0008 B960     		str	r1, [r7, #8]
 728 000a 7A60     		str	r2, [r7, #4]
 729 000c 3B60     		str	r3, [r7]
 266:.\moisture_measurement/moisture_measurements.c ****      Sink_Source_Setup_FastSelect(MOISTURE_SENSOR_NUMBER);
 730              		.loc 1 266 0
 731 000e 0920     		movs	r0, #9
 732 0010 FFF7FEFF 		bl	Sink_Source_Setup_FastSelect
 267:.\moisture_measurement/moisture_measurements.c ****      SIGMA_A_D_Sleep();
 733              		.loc 1 267 0
 734 0014 FFF7FEFF 		bl	SIGMA_A_D_Sleep
 268:.\moisture_measurement/moisture_measurements.c ****      Sink_Reg_Write(0);
 735              		.loc 1 268 0
 736 0018 0020     		movs	r0, #0
 737 001a FFF7FEFF 		bl	Sink_Reg_Write
 269:.\moisture_measurement/moisture_measurements.c ****      Source_Reg_Write( 0);
 738              		.loc 1 269 0
 739 001e 0020     		movs	r0, #0
 740 0020 FFF7FEFF 		bl	Source_Reg_Write
 270:.\moisture_measurement/moisture_measurements.c ****      moisture_interval_clock_Stop();
 741              		.loc 1 270 0
 742 0024 FFF7FEFF 		bl	moisture_interval_clock_Stop
 271:.\moisture_measurement/moisture_measurements.c ****     
 272:.\moisture_measurement/moisture_measurements.c ****      return 0;
 743              		.loc 1 272 0
 744 0028 0023     		movs	r3, #0
 273:.\moisture_measurement/moisture_measurements.c **** }
 745              		.loc 1 273 0
 746 002a 1846     		mov	r0, r3
 747 002c 1037     		adds	r7, r7, #16
 748              		.cfi_def_cfa_offset 8
ARM GAS  C:\Users\glenn\AppData\Local\Temp\ccV9538d.s 			page 19


 749 002e BD46     		mov	sp, r7
 750              		.cfi_def_cfa_register 13
 751              		@ sp needed
 752 0030 80BD     		pop	{r7, pc}
 753              		.cfi_endproc
 754              	.LFE73:
 755              		.size	remove_power, .-remove_power
 756 0032 00BF     		.section	.text.turn_on_timer_clock,"ax",%progbits
 757              		.align	2
 758              		.global	turn_on_timer_clock
 759              		.thumb
 760              		.thumb_func
 761              		.type	turn_on_timer_clock, %function
 762              	turn_on_timer_clock:
 763              	.LFB74:
 274:.\moisture_measurement/moisture_measurements.c **** 
 275:.\moisture_measurement/moisture_measurements.c **** 
 276:.\moisture_measurement/moisture_measurements.c **** int turn_on_timer_clock(unsigned link_id, unsigned param_1,
 277:.\moisture_measurement/moisture_measurements.c ****   unsigned param_2, unsigned param_3, unsigned event, unsigned data)
 278:.\moisture_measurement/moisture_measurements.c **** {
 764              		.loc 1 278 0
 765              		.cfi_startproc
 766              		@ args = 8, pretend = 0, frame = 16
 767              		@ frame_needed = 1, uses_anonymous_args = 0
 768 0000 80B5     		push	{r7, lr}
 769              		.cfi_def_cfa_offset 8
 770              		.cfi_offset 7, -8
 771              		.cfi_offset 14, -4
 772 0002 84B0     		sub	sp, sp, #16
 773              		.cfi_def_cfa_offset 24
 774 0004 00AF     		add	r7, sp, #0
 775              		.cfi_def_cfa_register 7
 776 0006 F860     		str	r0, [r7, #12]
 777 0008 B960     		str	r1, [r7, #8]
 778 000a 7A60     		str	r2, [r7, #4]
 779 000c 3B60     		str	r3, [r7]
 279:.\moisture_measurement/moisture_measurements.c **** 
 280:.\moisture_measurement/moisture_measurements.c ****     moisture_interval_clock_Start();
 780              		.loc 1 280 0
 781 000e FFF7FEFF 		bl	moisture_interval_clock_Start
 281:.\moisture_measurement/moisture_measurements.c ****     return 0;
 782              		.loc 1 281 0
 783 0012 0023     		movs	r3, #0
 282:.\moisture_measurement/moisture_measurements.c **** }
 784              		.loc 1 282 0
 785 0014 1846     		mov	r0, r3
 786 0016 1037     		adds	r7, r7, #16
 787              		.cfi_def_cfa_offset 8
 788 0018 BD46     		mov	sp, r7
 789              		.cfi_def_cfa_register 13
 790              		@ sp needed
 791 001a 80BD     		pop	{r7, pc}
 792              		.cfi_endproc
 793              	.LFE74:
 794              		.size	turn_on_timer_clock, .-turn_on_timer_clock
 795              		.section	.text.set_source_channel,"ax",%progbits
 796              		.align	2
ARM GAS  C:\Users\glenn\AppData\Local\Temp\ccV9538d.s 			page 20


 797              		.global	set_source_channel
 798              		.thumb
 799              		.thumb_func
 800              		.type	set_source_channel, %function
 801              	set_source_channel:
 802              	.LFB75:
 283:.\moisture_measurement/moisture_measurements.c **** 
 284:.\moisture_measurement/moisture_measurements.c **** int set_source_channel(unsigned link_id, unsigned param_1,
 285:.\moisture_measurement/moisture_measurements.c ****   unsigned param_2, unsigned param_3, unsigned event, unsigned data)
 286:.\moisture_measurement/moisture_measurements.c **** {
 803              		.loc 1 286 0
 804              		.cfi_startproc
 805              		@ args = 8, pretend = 0, frame = 16
 806              		@ frame_needed = 1, uses_anonymous_args = 0
 807 0000 80B5     		push	{r7, lr}
 808              		.cfi_def_cfa_offset 8
 809              		.cfi_offset 7, -8
 810              		.cfi_offset 14, -4
 811 0002 84B0     		sub	sp, sp, #16
 812              		.cfi_def_cfa_offset 24
 813 0004 00AF     		add	r7, sp, #0
 814              		.cfi_def_cfa_register 7
 815 0006 F860     		str	r0, [r7, #12]
 816 0008 B960     		str	r1, [r7, #8]
 817 000a 7A60     		str	r2, [r7, #4]
 818 000c 3B60     		str	r3, [r7]
 287:.\moisture_measurement/moisture_measurements.c ****     SIGMA_A_D_Wakeup();
 819              		.loc 1 287 0
 820 000e FFF7FEFF 		bl	SIGMA_A_D_Wakeup
 288:.\moisture_measurement/moisture_measurements.c ****    
 289:.\moisture_measurement/moisture_measurements.c ****     Sink_Reg_Write( 2 );
 821              		.loc 1 289 0
 822 0012 0220     		movs	r0, #2
 823 0014 FFF7FEFF 		bl	Sink_Reg_Write
 290:.\moisture_measurement/moisture_measurements.c ****     Source_Reg_Write( 3 ) ;
 824              		.loc 1 290 0
 825 0018 0320     		movs	r0, #3
 826 001a FFF7FEFF 		bl	Source_Reg_Write
 291:.\moisture_measurement/moisture_measurements.c ****     return 0;
 827              		.loc 1 291 0
 828 001e 0023     		movs	r3, #0
 292:.\moisture_measurement/moisture_measurements.c **** }
 829              		.loc 1 292 0
 830 0020 1846     		mov	r0, r3
 831 0022 1037     		adds	r7, r7, #16
 832              		.cfi_def_cfa_offset 8
 833 0024 BD46     		mov	sp, r7
 834              		.cfi_def_cfa_register 13
 835              		@ sp needed
 836 0026 80BD     		pop	{r7, pc}
 837              		.cfi_endproc
 838              	.LFE75:
 839              		.size	set_source_channel, .-set_source_channel
 840              		.global	__aeabi_i2f
 841              		.section	.text.make_source_measurement,"ax",%progbits
 842              		.align	2
 843              		.global	make_source_measurement
ARM GAS  C:\Users\glenn\AppData\Local\Temp\ccV9538d.s 			page 21


 844              		.thumb
 845              		.thumb_func
 846              		.type	make_source_measurement, %function
 847              	make_source_measurement:
 848              	.LFB76:
 293:.\moisture_measurement/moisture_measurements.c **** 
 294:.\moisture_measurement/moisture_measurements.c **** int make_source_measurement(unsigned link_id, unsigned param_1,
 295:.\moisture_measurement/moisture_measurements.c ****   unsigned param_2, unsigned param_3, unsigned event, unsigned data)
 296:.\moisture_measurement/moisture_measurements.c **** {
 849              		.loc 1 296 0
 850              		.cfi_startproc
 851              		@ args = 8, pretend = 0, frame = 32
 852              		@ frame_needed = 1, uses_anonymous_args = 0
 853 0000 80B5     		push	{r7, lr}
 854              		.cfi_def_cfa_offset 8
 855              		.cfi_offset 7, -8
 856              		.cfi_offset 14, -4
 857 0002 88B0     		sub	sp, sp, #32
 858              		.cfi_def_cfa_offset 40
 859 0004 00AF     		add	r7, sp, #0
 860              		.cfi_def_cfa_register 7
 861 0006 F860     		str	r0, [r7, #12]
 862 0008 B960     		str	r1, [r7, #8]
 863 000a 7A60     		str	r2, [r7, #4]
 864 000c 3B60     		str	r3, [r7]
 297:.\moisture_measurement/moisture_measurements.c ****     unsigned i;
 298:.\moisture_measurement/moisture_measurements.c ****     float    low_voltage;
 299:.\moisture_measurement/moisture_measurements.c ****     float    high_voltage;
 300:.\moisture_measurement/moisture_measurements.c ****     float    sensor_voltage;
 301:.\moisture_measurement/moisture_measurements.c ****     
 302:.\moisture_measurement/moisture_measurements.c **** 
 303:.\moisture_measurement/moisture_measurements.c ****     
 304:.\moisture_measurement/moisture_measurements.c ****     Sink_Source_Setup_FastSelect(MOISTURE_SENSOR_NUMBER);
 865              		.loc 1 304 0
 866 000e 0920     		movs	r0, #9
 867 0010 FFF7FEFF 		bl	Sink_Source_Setup_FastSelect
 305:.\moisture_measurement/moisture_measurements.c ****     SIGMA_A_D_SelectConfiguration( 1,1);
 868              		.loc 1 305 0
 869 0014 0120     		movs	r0, #1
 870 0016 0121     		movs	r1, #1
 871 0018 FFF7FEFF 		bl	SIGMA_A_D_SelectConfiguration
 306:.\moisture_measurement/moisture_measurements.c **** 
 307:.\moisture_measurement/moisture_measurements.c ****     SIGMA_A_D_StartConvert();
 872              		.loc 1 307 0
 873 001c FFF7FEFF 		bl	SIGMA_A_D_StartConvert
 308:.\moisture_measurement/moisture_measurements.c **** 
 309:.\moisture_measurement/moisture_measurements.c ****     SIGMA_A_D_IsEndConversion( SIGMA_A_D_WAIT_FOR_RESULT );  // conversion is 3000/sec  max wait ti
 874              		.loc 1 309 0
 875 0020 0020     		movs	r0, #0
 876 0022 FFF7FEFF 		bl	SIGMA_A_D_IsEndConversion
 310:.\moisture_measurement/moisture_measurements.c ****     
 311:.\moisture_measurement/moisture_measurements.c ****     low_voltage = SIGMA_A_D_GetResult32();
 877              		.loc 1 311 0
 878 0026 FFF7FEFF 		bl	SIGMA_A_D_GetResult32
 879 002a 0346     		mov	r3, r0
 880 002c 1846     		mov	r0, r3
 881 002e FFF7FEFF 		bl	__aeabi_i2f
ARM GAS  C:\Users\glenn\AppData\Local\Temp\ccV9538d.s 			page 22


 882 0032 0346     		mov	r3, r0
 883 0034 BB61     		str	r3, [r7, #24]	@ float
 312:.\moisture_measurement/moisture_measurements.c **** 
 313:.\moisture_measurement/moisture_measurements.c ****     Sink_Source_Setup_FastSelect(MOISTURE_SENSOR_NUMBER+1);
 884              		.loc 1 313 0
 885 0036 0A20     		movs	r0, #10
 886 0038 FFF7FEFF 		bl	Sink_Source_Setup_FastSelect
 314:.\moisture_measurement/moisture_measurements.c ****     SIGMA_A_D_SelectConfiguration( 1,1);
 887              		.loc 1 314 0
 888 003c 0120     		movs	r0, #1
 889 003e 0121     		movs	r1, #1
 890 0040 FFF7FEFF 		bl	SIGMA_A_D_SelectConfiguration
 315:.\moisture_measurement/moisture_measurements.c ****     SIGMA_A_D_StartConvert();
 891              		.loc 1 315 0
 892 0044 FFF7FEFF 		bl	SIGMA_A_D_StartConvert
 316:.\moisture_measurement/moisture_measurements.c **** 
 317:.\moisture_measurement/moisture_measurements.c ****     SIGMA_A_D_IsEndConversion( SIGMA_A_D_WAIT_FOR_RESULT );  // conversion is 3000/sec  max wait ti
 893              		.loc 1 317 0
 894 0048 0020     		movs	r0, #0
 895 004a FFF7FEFF 		bl	SIGMA_A_D_IsEndConversion
 318:.\moisture_measurement/moisture_measurements.c ****     
 319:.\moisture_measurement/moisture_measurements.c ****     high_voltage = SIGMA_A_D_GetResult32();
 896              		.loc 1 319 0
 897 004e FFF7FEFF 		bl	SIGMA_A_D_GetResult32
 898 0052 0346     		mov	r3, r0
 899 0054 1846     		mov	r0, r3
 900 0056 FFF7FEFF 		bl	__aeabi_i2f
 901 005a 0346     		mov	r3, r0
 902 005c 7B61     		str	r3, [r7, #20]	@ float
 320:.\moisture_measurement/moisture_measurements.c ****     
 321:.\moisture_measurement/moisture_measurements.c **** 
 322:.\moisture_measurement/moisture_measurements.c ****     
 323:.\moisture_measurement/moisture_measurements.c ****     for( i = 0; i < MOISTURE_SENSOR_NUMBER; i++ )
 903              		.loc 1 323 0
 904 005e 0023     		movs	r3, #0
 905 0060 FB61     		str	r3, [r7, #28]
 906 0062 2BE0     		b	.L57
 907              	.L60:
 324:.\moisture_measurement/moisture_measurements.c ****     {
 325:.\moisture_measurement/moisture_measurements.c ****        if( get_moisture_sensor_configuration( i) != NOT_POPULATED )
 908              		.loc 1 325 0
 909 0064 F869     		ldr	r0, [r7, #28]
 910 0066 FFF7FEFF 		bl	get_moisture_sensor_configuration
 911 006a 0346     		mov	r3, r0
 912 006c 002B     		cmp	r3, #0
 913 006e 1CD0     		beq	.L58
 326:.\moisture_measurement/moisture_measurements.c ****        {
 327:.\moisture_measurement/moisture_measurements.c ****           Sink_Source_Setup_FastSelect(i);
 914              		.loc 1 327 0
 915 0070 FB69     		ldr	r3, [r7, #28]
 916 0072 DBB2     		uxtb	r3, r3
 917 0074 1846     		mov	r0, r3
 918 0076 FFF7FEFF 		bl	Sink_Source_Setup_FastSelect
 328:.\moisture_measurement/moisture_measurements.c ****           SIGMA_A_D_SelectConfiguration( 1,1);
 919              		.loc 1 328 0
 920 007a 0120     		movs	r0, #1
 921 007c 0121     		movs	r1, #1
ARM GAS  C:\Users\glenn\AppData\Local\Temp\ccV9538d.s 			page 23


 922 007e FFF7FEFF 		bl	SIGMA_A_D_SelectConfiguration
 329:.\moisture_measurement/moisture_measurements.c ****           SIGMA_A_D_StartConvert();
 923              		.loc 1 329 0
 924 0082 FFF7FEFF 		bl	SIGMA_A_D_StartConvert
 330:.\moisture_measurement/moisture_measurements.c ****           SIGMA_A_D_IsEndConversion( SIGMA_A_D_WAIT_FOR_RESULT );  // conversion is 3000/sec  max w
 925              		.loc 1 330 0
 926 0086 0020     		movs	r0, #0
 927 0088 FFF7FEFF 		bl	SIGMA_A_D_IsEndConversion
 331:.\moisture_measurement/moisture_measurements.c ****          
 332:.\moisture_measurement/moisture_measurements.c ****           sensor_voltage = SIGMA_A_D_GetResult32();
 928              		.loc 1 332 0
 929 008c FFF7FEFF 		bl	SIGMA_A_D_GetResult32
 930 0090 0346     		mov	r3, r0
 931 0092 1846     		mov	r0, r3
 932 0094 FFF7FEFF 		bl	__aeabi_i2f
 933 0098 0346     		mov	r3, r0
 934 009a 3B61     		str	r3, [r7, #16]	@ float
 333:.\moisture_measurement/moisture_measurements.c ****           store_moisture_data(i, high_voltage, low_voltage, sensor_voltage );
 935              		.loc 1 333 0
 936 009c F869     		ldr	r0, [r7, #28]
 937 009e 7969     		ldr	r1, [r7, #20]	@ float
 938 00a0 BA69     		ldr	r2, [r7, #24]	@ float
 939 00a2 3B69     		ldr	r3, [r7, #16]	@ float
 940 00a4 FFF7FEFF 		bl	store_moisture_data
 941 00a8 05E0     		b	.L59
 942              	.L58:
 334:.\moisture_measurement/moisture_measurements.c ****        }
 335:.\moisture_measurement/moisture_measurements.c ****        else
 336:.\moisture_measurement/moisture_measurements.c ****        {
 337:.\moisture_measurement/moisture_measurements.c ****           moisture_meaurements[ i] = 0.0;
 943              		.loc 1 337 0
 944 00aa 084A     		ldr	r2, .L62
 945 00ac FB69     		ldr	r3, [r7, #28]
 946 00ae 4FF00001 		mov	r1, #0
 947 00b2 42F82310 		str	r1, [r2, r3, lsl #2]	@ float
 948              	.L59:
 323:.\moisture_measurement/moisture_measurements.c ****     {
 949              		.loc 1 323 0 discriminator 2
 950 00b6 FB69     		ldr	r3, [r7, #28]
 951 00b8 0133     		adds	r3, r3, #1
 952 00ba FB61     		str	r3, [r7, #28]
 953              	.L57:
 323:.\moisture_measurement/moisture_measurements.c ****     {
 954              		.loc 1 323 0 is_stmt 0 discriminator 1
 955 00bc FB69     		ldr	r3, [r7, #28]
 956 00be 082B     		cmp	r3, #8
 957 00c0 D0D9     		bls	.L60
 338:.\moisture_measurement/moisture_measurements.c ****        }
 339:.\moisture_measurement/moisture_measurements.c ****     
 340:.\moisture_measurement/moisture_measurements.c ****     }
 341:.\moisture_measurement/moisture_measurements.c ****     return 0;
 958              		.loc 1 341 0 is_stmt 1
 959 00c2 0023     		movs	r3, #0
 342:.\moisture_measurement/moisture_measurements.c **** 
 343:.\moisture_measurement/moisture_measurements.c **** }
 960              		.loc 1 343 0
 961 00c4 1846     		mov	r0, r3
ARM GAS  C:\Users\glenn\AppData\Local\Temp\ccV9538d.s 			page 24


 962 00c6 2037     		adds	r7, r7, #32
 963              		.cfi_def_cfa_offset 8
 964 00c8 BD46     		mov	sp, r7
 965              		.cfi_def_cfa_register 13
 966              		@ sp needed
 967 00ca 80BD     		pop	{r7, pc}
 968              	.L63:
 969              		.align	2
 970              	.L62:
 971 00cc 0C000000 		.word	moisture_meaurements
 972              		.cfi_endproc
 973              	.LFE76:
 974              		.size	make_source_measurement, .-make_source_measurement
 975              		.section	.text.set_sink_channel,"ax",%progbits
 976              		.align	2
 977              		.global	set_sink_channel
 978              		.thumb
 979              		.thumb_func
 980              		.type	set_sink_channel, %function
 981              	set_sink_channel:
 982              	.LFB77:
 344:.\moisture_measurement/moisture_measurements.c **** 
 345:.\moisture_measurement/moisture_measurements.c **** 
 346:.\moisture_measurement/moisture_measurements.c **** 
 347:.\moisture_measurement/moisture_measurements.c **** 
 348:.\moisture_measurement/moisture_measurements.c **** 
 349:.\moisture_measurement/moisture_measurements.c **** 
 350:.\moisture_measurement/moisture_measurements.c **** 
 351:.\moisture_measurement/moisture_measurements.c **** int set_sink_channel(unsigned link_id, unsigned param_1,
 352:.\moisture_measurement/moisture_measurements.c ****   unsigned param_2, unsigned param_3, unsigned event, unsigned data)
 353:.\moisture_measurement/moisture_measurements.c **** {
 983              		.loc 1 353 0
 984              		.cfi_startproc
 985              		@ args = 8, pretend = 0, frame = 16
 986              		@ frame_needed = 1, uses_anonymous_args = 0
 987 0000 80B5     		push	{r7, lr}
 988              		.cfi_def_cfa_offset 8
 989              		.cfi_offset 7, -8
 990              		.cfi_offset 14, -4
 991 0002 84B0     		sub	sp, sp, #16
 992              		.cfi_def_cfa_offset 24
 993 0004 00AF     		add	r7, sp, #0
 994              		.cfi_def_cfa_register 7
 995 0006 F860     		str	r0, [r7, #12]
 996 0008 B960     		str	r1, [r7, #8]
 997 000a 7A60     		str	r2, [r7, #4]
 998 000c 3B60     		str	r3, [r7]
 354:.\moisture_measurement/moisture_measurements.c ****    
 355:.\moisture_measurement/moisture_measurements.c ****     Sink_Reg_Write( 3 );
 999              		.loc 1 355 0
 1000 000e 0320     		movs	r0, #3
 1001 0010 FFF7FEFF 		bl	Sink_Reg_Write
 356:.\moisture_measurement/moisture_measurements.c ****     Source_Reg_Write (2 );
 1002              		.loc 1 356 0
 1003 0014 0220     		movs	r0, #2
 1004 0016 FFF7FEFF 		bl	Source_Reg_Write
 357:.\moisture_measurement/moisture_measurements.c ****     
ARM GAS  C:\Users\glenn\AppData\Local\Temp\ccV9538d.s 			page 25


 358:.\moisture_measurement/moisture_measurements.c ****     
 359:.\moisture_measurement/moisture_measurements.c ****     return 0;
 1005              		.loc 1 359 0
 1006 001a 0023     		movs	r3, #0
 360:.\moisture_measurement/moisture_measurements.c **** }
 1007              		.loc 1 360 0
 1008 001c 1846     		mov	r0, r3
 1009 001e 1037     		adds	r7, r7, #16
 1010              		.cfi_def_cfa_offset 8
 1011 0020 BD46     		mov	sp, r7
 1012              		.cfi_def_cfa_register 13
 1013              		@ sp needed
 1014 0022 80BD     		pop	{r7, pc}
 1015              		.cfi_endproc
 1016              	.LFE77:
 1017              		.size	set_sink_channel, .-set_sink_channel
 1018              		.section	.text.make_dummy_measurement,"ax",%progbits
 1019              		.align	2
 1020              		.global	make_dummy_measurement
 1021              		.thumb
 1022              		.thumb_func
 1023              		.type	make_dummy_measurement, %function
 1024              	make_dummy_measurement:
 1025              	.LFB78:
 361:.\moisture_measurement/moisture_measurements.c **** 
 362:.\moisture_measurement/moisture_measurements.c **** /*
 363:.\moisture_measurement/moisture_measurements.c **** **
 364:.\moisture_measurement/moisture_measurements.c **** **  This Routine is used to balance time on opposite leg but make no measurement
 365:.\moisture_measurement/moisture_measurements.c **** **
 366:.\moisture_measurement/moisture_measurements.c **** **
 367:.\moisture_measurement/moisture_measurements.c **** **
 368:.\moisture_measurement/moisture_measurements.c **** **
 369:.\moisture_measurement/moisture_measurements.c **** */
 370:.\moisture_measurement/moisture_measurements.c **** 
 371:.\moisture_measurement/moisture_measurements.c **** 
 372:.\moisture_measurement/moisture_measurements.c **** int make_dummy_measurement(unsigned link_id, unsigned param_1,
 373:.\moisture_measurement/moisture_measurements.c ****   unsigned param_2, unsigned param_3, unsigned event, unsigned data)
 374:.\moisture_measurement/moisture_measurements.c **** {
 1026              		.loc 1 374 0
 1027              		.cfi_startproc
 1028              		@ args = 8, pretend = 0, frame = 24
 1029              		@ frame_needed = 1, uses_anonymous_args = 0
 1030 0000 80B5     		push	{r7, lr}
 1031              		.cfi_def_cfa_offset 8
 1032              		.cfi_offset 7, -8
 1033              		.cfi_offset 14, -4
 1034 0002 86B0     		sub	sp, sp, #24
 1035              		.cfi_def_cfa_offset 32
 1036 0004 00AF     		add	r7, sp, #0
 1037              		.cfi_def_cfa_register 7
 1038 0006 F860     		str	r0, [r7, #12]
 1039 0008 B960     		str	r1, [r7, #8]
 1040 000a 7A60     		str	r2, [r7, #4]
 1041 000c 3B60     		str	r3, [r7]
 375:.\moisture_measurement/moisture_measurements.c ****     unsigned i;
 376:.\moisture_measurement/moisture_measurements.c ****     //float    low_voltage;
 377:.\moisture_measurement/moisture_measurements.c ****     //float    high_voltage;
ARM GAS  C:\Users\glenn\AppData\Local\Temp\ccV9538d.s 			page 26


 378:.\moisture_measurement/moisture_measurements.c ****     //float    sensor_voltage;
 379:.\moisture_measurement/moisture_measurements.c ****     
 380:.\moisture_measurement/moisture_measurements.c ****     
 381:.\moisture_measurement/moisture_measurements.c ****     
 382:.\moisture_measurement/moisture_measurements.c ****     Sink_Source_Setup_FastSelect(MOISTURE_SENSOR_NUMBER);
 1042              		.loc 1 382 0
 1043 000e 0920     		movs	r0, #9
 1044 0010 FFF7FEFF 		bl	Sink_Source_Setup_FastSelect
 383:.\moisture_measurement/moisture_measurements.c ****     SIGMA_A_D_SelectConfiguration( 1,1);
 1045              		.loc 1 383 0
 1046 0014 0120     		movs	r0, #1
 1047 0016 0121     		movs	r1, #1
 1048 0018 FFF7FEFF 		bl	SIGMA_A_D_SelectConfiguration
 384:.\moisture_measurement/moisture_measurements.c **** 
 385:.\moisture_measurement/moisture_measurements.c ****     SIGMA_A_D_StartConvert();
 1049              		.loc 1 385 0
 1050 001c FFF7FEFF 		bl	SIGMA_A_D_StartConvert
 386:.\moisture_measurement/moisture_measurements.c ****     SIGMA_A_D_IsEndConversion( SIGMA_A_D_WAIT_FOR_RESULT );  // conversion is 3000/sec  max wait ti
 1051              		.loc 1 386 0
 1052 0020 0020     		movs	r0, #0
 1053 0022 FFF7FEFF 		bl	SIGMA_A_D_IsEndConversion
 387:.\moisture_measurement/moisture_measurements.c ****  
 388:.\moisture_measurement/moisture_measurements.c ****     //low_voltage = SIGMA_A_D_GetResult32();
 389:.\moisture_measurement/moisture_measurements.c **** 
 390:.\moisture_measurement/moisture_measurements.c ****     Sink_Source_Setup_FastSelect(MOISTURE_SENSOR_NUMBER+1);
 1054              		.loc 1 390 0
 1055 0026 0A20     		movs	r0, #10
 1056 0028 FFF7FEFF 		bl	Sink_Source_Setup_FastSelect
 391:.\moisture_measurement/moisture_measurements.c ****     SIGMA_A_D_SelectConfiguration( 1,1);
 1057              		.loc 1 391 0
 1058 002c 0120     		movs	r0, #1
 1059 002e 0121     		movs	r1, #1
 1060 0030 FFF7FEFF 		bl	SIGMA_A_D_SelectConfiguration
 392:.\moisture_measurement/moisture_measurements.c ****     SIGMA_A_D_StartConvert();
 1061              		.loc 1 392 0
 1062 0034 FFF7FEFF 		bl	SIGMA_A_D_StartConvert
 393:.\moisture_measurement/moisture_measurements.c ****     SIGMA_A_D_IsEndConversion( SIGMA_A_D_WAIT_FOR_RESULT );  // conversion is 3000/sec  max wait ti
 1063              		.loc 1 393 0
 1064 0038 0020     		movs	r0, #0
 1065 003a FFF7FEFF 		bl	SIGMA_A_D_IsEndConversion
 394:.\moisture_measurement/moisture_measurements.c **** 
 395:.\moisture_measurement/moisture_measurements.c ****    // high_voltage = SIGMA_A_D_GetResult32();
 396:.\moisture_measurement/moisture_measurements.c ****     
 397:.\moisture_measurement/moisture_measurements.c **** 
 398:.\moisture_measurement/moisture_measurements.c **** 
 399:.\moisture_measurement/moisture_measurements.c ****     for( i = 0; i < MOISTURE_SENSOR_NUMBER; i++ )
 1066              		.loc 1 399 0
 1067 003e 0023     		movs	r3, #0
 1068 0040 7B61     		str	r3, [r7, #20]
 1069 0042 10E0     		b	.L67
 1070              	.L68:
 400:.\moisture_measurement/moisture_measurements.c ****     {
 401:.\moisture_measurement/moisture_measurements.c ****        Sink_Source_Setup_FastSelect(i);
 1071              		.loc 1 401 0 discriminator 3
 1072 0044 7B69     		ldr	r3, [r7, #20]
 1073 0046 DBB2     		uxtb	r3, r3
 1074 0048 1846     		mov	r0, r3
ARM GAS  C:\Users\glenn\AppData\Local\Temp\ccV9538d.s 			page 27


 1075 004a FFF7FEFF 		bl	Sink_Source_Setup_FastSelect
 402:.\moisture_measurement/moisture_measurements.c ****        SIGMA_A_D_SelectConfiguration( 1,1);
 1076              		.loc 1 402 0 discriminator 3
 1077 004e 0120     		movs	r0, #1
 1078 0050 0121     		movs	r1, #1
 1079 0052 FFF7FEFF 		bl	SIGMA_A_D_SelectConfiguration
 403:.\moisture_measurement/moisture_measurements.c ****        SIGMA_A_D_StartConvert();
 1080              		.loc 1 403 0 discriminator 3
 1081 0056 FFF7FEFF 		bl	SIGMA_A_D_StartConvert
 404:.\moisture_measurement/moisture_measurements.c ****        SIGMA_A_D_IsEndConversion( SIGMA_A_D_WAIT_FOR_RESULT );  // conversion is 3000/sec  max wait
 1082              		.loc 1 404 0 discriminator 3
 1083 005a 0020     		movs	r0, #0
 1084 005c FFF7FEFF 		bl	SIGMA_A_D_IsEndConversion
 399:.\moisture_measurement/moisture_measurements.c ****     {
 1085              		.loc 1 399 0 discriminator 3
 1086 0060 7B69     		ldr	r3, [r7, #20]
 1087 0062 0133     		adds	r3, r3, #1
 1088 0064 7B61     		str	r3, [r7, #20]
 1089              	.L67:
 399:.\moisture_measurement/moisture_measurements.c ****     {
 1090              		.loc 1 399 0 is_stmt 0 discriminator 1
 1091 0066 7B69     		ldr	r3, [r7, #20]
 1092 0068 082B     		cmp	r3, #8
 1093 006a EBD9     		bls	.L68
 405:.\moisture_measurement/moisture_measurements.c ****   
 406:.\moisture_measurement/moisture_measurements.c ****        //sensor_voltage = SIGMA_A_D_GetResult32();
 407:.\moisture_measurement/moisture_measurements.c ****        ; //store_moisture_data(i, high_voltage, low_voltage, sensor_voltage );
 408:.\moisture_measurement/moisture_measurements.c ****     
 409:.\moisture_measurement/moisture_measurements.c ****     }
 410:.\moisture_measurement/moisture_measurements.c ****     return 0;
 1094              		.loc 1 410 0 is_stmt 1
 1095 006c 0023     		movs	r3, #0
 411:.\moisture_measurement/moisture_measurements.c **** 
 412:.\moisture_measurement/moisture_measurements.c **** }
 1096              		.loc 1 412 0
 1097 006e 1846     		mov	r0, r3
 1098 0070 1837     		adds	r7, r7, #24
 1099              		.cfi_def_cfa_offset 8
 1100 0072 BD46     		mov	sp, r7
 1101              		.cfi_def_cfa_register 13
 1102              		@ sp needed
 1103 0074 80BD     		pop	{r7, pc}
 1104              		.cfi_endproc
 1105              	.LFE78:
 1106              		.size	make_dummy_measurement, .-make_dummy_measurement
 1107 0076 00BF     		.section	.text.update_new_measurement_available,"ax",%progbits
 1108              		.align	2
 1109              		.global	update_new_measurement_available
 1110              		.thumb
 1111              		.thumb_func
 1112              		.type	update_new_measurement_available, %function
 1113              	update_new_measurement_available:
 1114              	.LFB79:
 413:.\moisture_measurement/moisture_measurements.c **** 
 414:.\moisture_measurement/moisture_measurements.c **** 
 415:.\moisture_measurement/moisture_measurements.c **** 
 416:.\moisture_measurement/moisture_measurements.c **** 
ARM GAS  C:\Users\glenn\AppData\Local\Temp\ccV9538d.s 			page 28


 417:.\moisture_measurement/moisture_measurements.c **** 
 418:.\moisture_measurement/moisture_measurements.c **** 
 419:.\moisture_measurement/moisture_measurements.c **** 
 420:.\moisture_measurement/moisture_measurements.c **** 
 421:.\moisture_measurement/moisture_measurements.c **** 
 422:.\moisture_measurement/moisture_measurements.c **** /*
 423:.\moisture_measurement/moisture_measurements.c **** **  Tell Modbus Devices that moisture measurement is done
 424:.\moisture_measurement/moisture_measurements.c **** **
 425:.\moisture_measurement/moisture_measurements.c **** */
 426:.\moisture_measurement/moisture_measurements.c **** 
 427:.\moisture_measurement/moisture_measurements.c **** int update_new_measurement_available(unsigned link_id, unsigned param_1,
 428:.\moisture_measurement/moisture_measurements.c ****   unsigned param_2, unsigned param_3, unsigned event, unsigned data)
 429:.\moisture_measurement/moisture_measurements.c **** {
 1115              		.loc 1 429 0
 1116              		.cfi_startproc
 1117              		@ args = 8, pretend = 0, frame = 24
 1118              		@ frame_needed = 1, uses_anonymous_args = 0
 1119 0000 80B5     		push	{r7, lr}
 1120              		.cfi_def_cfa_offset 8
 1121              		.cfi_offset 7, -8
 1122              		.cfi_offset 14, -4
 1123 0002 86B0     		sub	sp, sp, #24
 1124              		.cfi_def_cfa_offset 32
 1125 0004 00AF     		add	r7, sp, #0
 1126              		.cfi_def_cfa_register 7
 1127 0006 F860     		str	r0, [r7, #12]
 1128 0008 B960     		str	r1, [r7, #8]
 1129 000a 7A60     		str	r2, [r7, #4]
 1130 000c 3B60     		str	r3, [r7]
 430:.\moisture_measurement/moisture_measurements.c ****     uint16 temp;
 431:.\moisture_measurement/moisture_measurements.c ****     store_modbus_data_registers( NEW_MOISTURE_DATA, 1, &temp );
 1131              		.loc 1 431 0
 1132 000e 07F11603 		add	r3, r7, #22
 1133 0012 2220     		movs	r0, #34
 1134 0014 0121     		movs	r1, #1
 1135 0016 1A46     		mov	r2, r3
 1136 0018 FFF7FEFF 		bl	store_modbus_data_registers
 432:.\moisture_measurement/moisture_measurements.c ****     store_modbus_data_registers( MOISTURE_SENSOR_1_FLOAT, MOISTURE_SENSOR_NUMBER*2, (uint16 *)moist
 1137              		.loc 1 432 0
 1138 001c 3220     		movs	r0, #50
 1139 001e 1221     		movs	r1, #18
 1140 0020 034A     		ldr	r2, .L72
 1141 0022 FFF7FEFF 		bl	store_modbus_data_registers
 433:.\moisture_measurement/moisture_measurements.c ****     return 0;
 1142              		.loc 1 433 0
 1143 0026 0023     		movs	r3, #0
 434:.\moisture_measurement/moisture_measurements.c ****     
 435:.\moisture_measurement/moisture_measurements.c ****     
 436:.\moisture_measurement/moisture_measurements.c **** } 
 1144              		.loc 1 436 0
 1145 0028 1846     		mov	r0, r3
 1146 002a 1837     		adds	r7, r7, #24
 1147              		.cfi_def_cfa_offset 8
 1148 002c BD46     		mov	sp, r7
 1149              		.cfi_def_cfa_register 13
 1150              		@ sp needed
 1151 002e 80BD     		pop	{r7, pc}
ARM GAS  C:\Users\glenn\AppData\Local\Temp\ccV9538d.s 			page 29


 1152              	.L73:
 1153              		.align	2
 1154              	.L72:
 1155 0030 0C000000 		.word	moisture_meaurements
 1156              		.cfi_endproc
 1157              	.LFE79:
 1158              		.size	update_new_measurement_available, .-update_new_measurement_available
 1159              		.section	.text.setup_soil_temperature_measurements,"ax",%progbits
 1160              		.align	2
 1161              		.global	setup_soil_temperature_measurements
 1162              		.thumb
 1163              		.thumb_func
 1164              		.type	setup_soil_temperature_measurements, %function
 1165              	setup_soil_temperature_measurements:
 1166              	.LFB80:
 437:.\moisture_measurement/moisture_measurements.c **** 
 438:.\moisture_measurement/moisture_measurements.c **** 
 439:.\moisture_measurement/moisture_measurements.c **** /*
 440:.\moisture_measurement/moisture_measurements.c **** **
 441:.\moisture_measurement/moisture_measurements.c **** ** Temp Soil and other a/d measurements
 442:.\moisture_measurement/moisture_measurements.c **** **
 443:.\moisture_measurement/moisture_measurements.c **** **
 444:.\moisture_measurement/moisture_measurements.c **** **
 445:.\moisture_measurement/moisture_measurements.c **** */
 446:.\moisture_measurement/moisture_measurements.c **** 
 447:.\moisture_measurement/moisture_measurements.c **** int setup_soil_temperature_measurements(unsigned link_id, unsigned param_1,
 448:.\moisture_measurement/moisture_measurements.c ****   unsigned param_2, unsigned param_3, unsigned event, unsigned data)
 449:.\moisture_measurement/moisture_measurements.c **** {
 1167              		.loc 1 449 0
 1168              		.cfi_startproc
 1169              		@ args = 8, pretend = 0, frame = 16
 1170              		@ frame_needed = 1, uses_anonymous_args = 0
 1171 0000 80B5     		push	{r7, lr}
 1172              		.cfi_def_cfa_offset 8
 1173              		.cfi_offset 7, -8
 1174              		.cfi_offset 14, -4
 1175 0002 84B0     		sub	sp, sp, #16
 1176              		.cfi_def_cfa_offset 24
 1177 0004 00AF     		add	r7, sp, #0
 1178              		.cfi_def_cfa_register 7
 1179 0006 F860     		str	r0, [r7, #12]
 1180 0008 B960     		str	r1, [r7, #8]
 1181 000a 7A60     		str	r2, [r7, #4]
 1182 000c 3B60     		str	r3, [r7]
 450:.\moisture_measurement/moisture_measurements.c **** 
 451:.\moisture_measurement/moisture_measurements.c ****     ad_setup_interrupt( );
 1183              		.loc 1 451 0
 1184 000e FFF7FEFF 		bl	ad_setup_interrupt
 452:.\moisture_measurement/moisture_measurements.c ****     ad_init_se( );
 1185              		.loc 1 452 0
 1186 0012 FFF7FEFF 		bl	ad_init_se
 453:.\moisture_measurement/moisture_measurements.c ****     return 0;
 1187              		.loc 1 453 0
 1188 0016 0023     		movs	r3, #0
 454:.\moisture_measurement/moisture_measurements.c **** }
 1189              		.loc 1 454 0
 1190 0018 1846     		mov	r0, r3
ARM GAS  C:\Users\glenn\AppData\Local\Temp\ccV9538d.s 			page 30


 1191 001a 1037     		adds	r7, r7, #16
 1192              		.cfi_def_cfa_offset 8
 1193 001c BD46     		mov	sp, r7
 1194              		.cfi_def_cfa_register 13
 1195              		@ sp needed
 1196 001e 80BD     		pop	{r7, pc}
 1197              		.cfi_endproc
 1198              	.LFE80:
 1199              		.size	setup_soil_temperature_measurements, .-setup_soil_temperature_measurements
 1200              		.section	.text.measure_soil_temperature,"ax",%progbits
 1201              		.align	2
 1202              		.global	measure_soil_temperature
 1203              		.thumb
 1204              		.thumb_func
 1205              		.type	measure_soil_temperature, %function
 1206              	measure_soil_temperature:
 1207              	.LFB81:
 455:.\moisture_measurement/moisture_measurements.c **** 
 456:.\moisture_measurement/moisture_measurements.c **** int measure_soil_temperature(unsigned link_id, unsigned param_1,
 457:.\moisture_measurement/moisture_measurements.c ****   unsigned param_2, unsigned param_3, unsigned event, unsigned data)
 458:.\moisture_measurement/moisture_measurements.c **** {
 1208              		.loc 1 458 0
 1209              		.cfi_startproc
 1210              		@ args = 8, pretend = 0, frame = 16
 1211              		@ frame_needed = 1, uses_anonymous_args = 0
 1212 0000 80B5     		push	{r7, lr}
 1213              		.cfi_def_cfa_offset 8
 1214              		.cfi_offset 7, -8
 1215              		.cfi_offset 14, -4
 1216 0002 84B0     		sub	sp, sp, #16
 1217              		.cfi_def_cfa_offset 24
 1218 0004 00AF     		add	r7, sp, #0
 1219              		.cfi_def_cfa_register 7
 1220 0006 F860     		str	r0, [r7, #12]
 1221 0008 B960     		str	r1, [r7, #8]
 1222 000a 7A60     		str	r2, [r7, #4]
 1223 000c 3B60     		str	r3, [r7]
 459:.\moisture_measurement/moisture_measurements.c ****    ad_process_se_second();
 1224              		.loc 1 459 0
 1225 000e FFF7FEFF 		bl	ad_process_se_second
 460:.\moisture_measurement/moisture_measurements.c ****    return 0;
 1226              		.loc 1 460 0
 1227 0012 0023     		movs	r3, #0
 461:.\moisture_measurement/moisture_measurements.c **** }
 1228              		.loc 1 461 0
 1229 0014 1846     		mov	r0, r3
 1230 0016 1037     		adds	r7, r7, #16
 1231              		.cfi_def_cfa_offset 8
 1232 0018 BD46     		mov	sp, r7
 1233              		.cfi_def_cfa_register 13
 1234              		@ sp needed
 1235 001a 80BD     		pop	{r7, pc}
 1236              		.cfi_endproc
 1237              	.LFE81:
 1238              		.size	measure_soil_temperature, .-measure_soil_temperature
 1239              		.section	.text.update_soil_temperature_minute,"ax",%progbits
 1240              		.align	2
ARM GAS  C:\Users\glenn\AppData\Local\Temp\ccV9538d.s 			page 31


 1241              		.global	update_soil_temperature_minute
 1242              		.thumb
 1243              		.thumb_func
 1244              		.type	update_soil_temperature_minute, %function
 1245              	update_soil_temperature_minute:
 1246              	.LFB82:
 462:.\moisture_measurement/moisture_measurements.c **** 
 463:.\moisture_measurement/moisture_measurements.c **** int update_soil_temperature_minute(unsigned link_id, unsigned param_1,
 464:.\moisture_measurement/moisture_measurements.c ****   unsigned param_2, unsigned param_3, unsigned event, unsigned data)
 465:.\moisture_measurement/moisture_measurements.c **** {
 1247              		.loc 1 465 0
 1248              		.cfi_startproc
 1249              		@ args = 8, pretend = 0, frame = 16
 1250              		@ frame_needed = 1, uses_anonymous_args = 0
 1251 0000 80B5     		push	{r7, lr}
 1252              		.cfi_def_cfa_offset 8
 1253              		.cfi_offset 7, -8
 1254              		.cfi_offset 14, -4
 1255 0002 84B0     		sub	sp, sp, #16
 1256              		.cfi_def_cfa_offset 24
 1257 0004 00AF     		add	r7, sp, #0
 1258              		.cfi_def_cfa_register 7
 1259 0006 F860     		str	r0, [r7, #12]
 1260 0008 B960     		str	r1, [r7, #8]
 1261 000a 7A60     		str	r2, [r7, #4]
 1262 000c 3B60     		str	r3, [r7]
 466:.\moisture_measurement/moisture_measurements.c ****     ad_process_minute_second();
 1263              		.loc 1 466 0
 1264 000e FFF7FEFF 		bl	ad_process_minute_second
 467:.\moisture_measurement/moisture_measurements.c ****     return 0;
 1265              		.loc 1 467 0
 1266 0012 0023     		movs	r3, #0
 468:.\moisture_measurement/moisture_measurements.c **** }
 1267              		.loc 1 468 0
 1268 0014 1846     		mov	r0, r3
 1269 0016 1037     		adds	r7, r7, #16
 1270              		.cfi_def_cfa_offset 8
 1271 0018 BD46     		mov	sp, r7
 1272              		.cfi_def_cfa_register 13
 1273              		@ sp needed
 1274 001a 80BD     		pop	{r7, pc}
 1275              		.cfi_endproc
 1276              	.LFE82:
 1277              		.size	update_soil_temperature_minute, .-update_soil_temperature_minute
 1278              		.text
 1279              	.Letext0:
 1280              		.file 2 "c:\\program files (x86)\\cypress\\psoc creator\\3.3\\psoc creator\\import\\gnu\\arm\\4.9.
 1281              		.file 3 "c:\\program files (x86)\\cypress\\psoc creator\\3.3\\psoc creator\\import\\gnu\\arm\\4.9.
 1282              		.file 4 "Generated_Source\\PSoC5/cytypes.h"
 1283              		.file 5 "Generated_Source\\PSoC5/core_cm3.h"
 1284              		.file 6 ".\\rtu_modbus/process_modbus_message.h"
 1285              		.file 7 ".\\moisture_measurement\\cb_logging.h"
 1286              		.section	.debug_info,"",%progbits
 1287              	.Ldebug_info0:
 1288 0000 86090000 		.4byte	0x986
 1289 0004 0400     		.2byte	0x4
 1290 0006 00000000 		.4byte	.Ldebug_abbrev0
ARM GAS  C:\Users\glenn\AppData\Local\Temp\ccV9538d.s 			page 32


 1291 000a 04       		.byte	0x4
 1292 000b 01       		.uleb128 0x1
 1293 000c 27000000 		.4byte	.LASF64
 1294 0010 01       		.byte	0x1
 1295 0011 0B020000 		.4byte	.LASF65
 1296 0015 0A030000 		.4byte	.LASF66
 1297 0019 00000000 		.4byte	.Ldebug_ranges0+0
 1298 001d 00000000 		.4byte	0
 1299 0021 00000000 		.4byte	.Ldebug_line0
 1300 0025 02       		.uleb128 0x2
 1301 0026 01       		.byte	0x1
 1302 0027 06       		.byte	0x6
 1303 0028 E7020000 		.4byte	.LASF0
 1304 002c 02       		.uleb128 0x2
 1305 002d 01       		.byte	0x1
 1306 002e 08       		.byte	0x8
 1307 002f B9020000 		.4byte	.LASF1
 1308 0033 02       		.uleb128 0x2
 1309 0034 02       		.byte	0x2
 1310 0035 05       		.byte	0x5
 1311 0036 F2000000 		.4byte	.LASF2
 1312 003a 02       		.uleb128 0x2
 1313 003b 02       		.byte	0x2
 1314 003c 07       		.byte	0x7
 1315 003d 8A030000 		.4byte	.LASF3
 1316 0041 03       		.uleb128 0x3
 1317 0042 95040000 		.4byte	.LASF9
 1318 0046 02       		.byte	0x2
 1319 0047 3F       		.byte	0x3f
 1320 0048 4C000000 		.4byte	0x4c
 1321 004c 02       		.uleb128 0x2
 1322 004d 04       		.byte	0x4
 1323 004e 05       		.byte	0x5
 1324 004f BC030000 		.4byte	.LASF4
 1325 0053 02       		.uleb128 0x2
 1326 0054 04       		.byte	0x4
 1327 0055 07       		.byte	0x7
 1328 0056 5F040000 		.4byte	.LASF5
 1329 005a 02       		.uleb128 0x2
 1330 005b 08       		.byte	0x8
 1331 005c 05       		.byte	0x5
 1332 005d FD010000 		.4byte	.LASF6
 1333 0061 02       		.uleb128 0x2
 1334 0062 08       		.byte	0x8
 1335 0063 07       		.byte	0x7
 1336 0064 F3020000 		.4byte	.LASF7
 1337 0068 04       		.uleb128 0x4
 1338 0069 04       		.byte	0x4
 1339 006a 05       		.byte	0x5
 1340 006b 696E7400 		.ascii	"int\000"
 1341 006f 02       		.uleb128 0x2
 1342 0070 04       		.byte	0x4
 1343 0071 07       		.byte	0x7
 1344 0072 5D030000 		.4byte	.LASF8
 1345 0076 03       		.uleb128 0x3
 1346 0077 D7030000 		.4byte	.LASF10
 1347 007b 03       		.byte	0x3
ARM GAS  C:\Users\glenn\AppData\Local\Temp\ccV9538d.s 			page 33


 1348 007c 2C       		.byte	0x2c
 1349 007d 41000000 		.4byte	0x41
 1350 0081 05       		.uleb128 0x5
 1351 0082 AC020000 		.4byte	.LASF11
 1352 0086 04       		.byte	0x4
 1353 0087 9201     		.2byte	0x192
 1354 0089 2C000000 		.4byte	0x2c
 1355 008d 05       		.uleb128 0x5
 1356 008e B1010000 		.4byte	.LASF12
 1357 0092 04       		.byte	0x4
 1358 0093 9301     		.2byte	0x193
 1359 0095 3A000000 		.4byte	0x3a
 1360 0099 05       		.uleb128 0x5
 1361 009a 71040000 		.4byte	.LASF13
 1362 009e 04       		.byte	0x4
 1363 009f 9401     		.2byte	0x194
 1364 00a1 53000000 		.4byte	0x53
 1365 00a5 02       		.uleb128 0x2
 1366 00a6 04       		.byte	0x4
 1367 00a7 04       		.byte	0x4
 1368 00a8 EA010000 		.4byte	.LASF14
 1369 00ac 02       		.uleb128 0x2
 1370 00ad 08       		.byte	0x8
 1371 00ae 04       		.byte	0x4
 1372 00af D2040000 		.4byte	.LASF15
 1373 00b3 02       		.uleb128 0x2
 1374 00b4 01       		.byte	0x1
 1375 00b5 08       		.byte	0x8
 1376 00b6 B7030000 		.4byte	.LASF16
 1377 00ba 02       		.uleb128 0x2
 1378 00bb 04       		.byte	0x4
 1379 00bc 07       		.byte	0x7
 1380 00bd 20010000 		.4byte	.LASF17
 1381 00c1 06       		.uleb128 0x6
 1382 00c2 01       		.byte	0x1
 1383 00c3 07       		.byte	0x7
 1384 00c4 1A       		.byte	0x1a
 1385 00c5 DC000000 		.4byte	0xdc
 1386 00c9 07       		.uleb128 0x7
 1387 00ca 19000000 		.4byte	.LASF18
 1388 00ce 00       		.sleb128 0
 1389 00cf 07       		.uleb128 0x7
 1390 00d0 3A020000 		.4byte	.LASF19
 1391 00d4 01       		.sleb128 1
 1392 00d5 07       		.uleb128 0x7
 1393 00d6 A6010000 		.4byte	.LASF20
 1394 00da 02       		.sleb128 2
 1395 00db 00       		.byte	0
 1396 00dc 08       		.uleb128 0x8
 1397 00dd 91010000 		.4byte	.LASF21
 1398 00e1 01       		.byte	0x1
 1399 00e2 1F       		.byte	0x1f
 1400 00e3 A5000000 		.4byte	0xa5
 1401 00e7 00000000 		.4byte	.LFB65
 1402 00eb 94000000 		.4byte	.LFE65-.LFB65
 1403 00ef 01       		.uleb128 0x1
 1404 00f0 9C       		.byte	0x9c
ARM GAS  C:\Users\glenn\AppData\Local\Temp\ccV9538d.s 			page 34


 1405 00f1 04010000 		.4byte	0x104
 1406 00f5 09       		.uleb128 0x9
 1407 00f6 C7020000 		.4byte	.LASF27
 1408 00fa 01       		.byte	0x1
 1409 00fb 21       		.byte	0x21
 1410 00fc A5000000 		.4byte	0xa5
 1411 0100 02       		.uleb128 0x2
 1412 0101 91       		.byte	0x91
 1413 0102 74       		.sleb128 -12
 1414 0103 00       		.byte	0
 1415 0104 08       		.uleb128 0x8
 1416 0105 6A030000 		.4byte	.LASF22
 1417 0109 01       		.byte	0x1
 1418 010a 39       		.byte	0x39
 1419 010b 68000000 		.4byte	0x68
 1420 010f 00000000 		.4byte	.LFB66
 1421 0113 6C010000 		.4byte	.LFE66-.LFB66
 1422 0117 01       		.uleb128 0x1
 1423 0118 9C       		.byte	0x9c
 1424 0119 AA010000 		.4byte	0x1aa
 1425 011d 0A       		.uleb128 0xa
 1426 011e 1D040000 		.4byte	.LASF23
 1427 0122 01       		.byte	0x1
 1428 0123 39       		.byte	0x39
 1429 0124 6F000000 		.4byte	0x6f
 1430 0128 02       		.uleb128 0x2
 1431 0129 91       		.byte	0x91
 1432 012a 4C       		.sleb128 -52
 1433 012b 0A       		.uleb128 0xa
 1434 012c F0010000 		.4byte	.LASF24
 1435 0130 01       		.byte	0x1
 1436 0131 39       		.byte	0x39
 1437 0132 A5000000 		.4byte	0xa5
 1438 0136 02       		.uleb128 0x2
 1439 0137 91       		.byte	0x91
 1440 0138 48       		.sleb128 -56
 1441 0139 0A       		.uleb128 0xa
 1442 013a 7E030000 		.4byte	.LASF25
 1443 013e 01       		.byte	0x1
 1444 013f 39       		.byte	0x39
 1445 0140 A5000000 		.4byte	0xa5
 1446 0144 02       		.uleb128 0x2
 1447 0145 91       		.byte	0x91
 1448 0146 44       		.sleb128 -60
 1449 0147 0A       		.uleb128 0xa
 1450 0148 4C010000 		.4byte	.LASF26
 1451 014c 01       		.byte	0x1
 1452 014d 39       		.byte	0x39
 1453 014e A5000000 		.4byte	0xa5
 1454 0152 02       		.uleb128 0x2
 1455 0153 91       		.byte	0x91
 1456 0154 40       		.sleb128 -64
 1457 0155 09       		.uleb128 0x9
 1458 0156 75010000 		.4byte	.LASF28
 1459 015a 01       		.byte	0x1
 1460 015b 3B       		.byte	0x3b
 1461 015c A5000000 		.4byte	0xa5
ARM GAS  C:\Users\glenn\AppData\Local\Temp\ccV9538d.s 			page 35


 1462 0160 02       		.uleb128 0x2
 1463 0161 91       		.byte	0x91
 1464 0162 64       		.sleb128 -28
 1465 0163 09       		.uleb128 0x9
 1466 0164 D1000000 		.4byte	.LASF29
 1467 0168 01       		.byte	0x1
 1468 0169 3C       		.byte	0x3c
 1469 016a A5000000 		.4byte	0xa5
 1470 016e 02       		.uleb128 0x2
 1471 016f 91       		.byte	0x91
 1472 0170 58       		.sleb128 -40
 1473 0171 09       		.uleb128 0x9
 1474 0172 C5030000 		.4byte	.LASF30
 1475 0176 01       		.byte	0x1
 1476 0177 3D       		.byte	0x3d
 1477 0178 A5000000 		.4byte	0xa5
 1478 017c 02       		.uleb128 0x2
 1479 017d 91       		.byte	0x91
 1480 017e 54       		.sleb128 -44
 1481 017f 09       		.uleb128 0x9
 1482 0180 E6040000 		.4byte	.LASF31
 1483 0184 01       		.byte	0x1
 1484 0185 3E       		.byte	0x3e
 1485 0186 A5000000 		.4byte	0xa5
 1486 018a 02       		.uleb128 0x2
 1487 018b 91       		.byte	0x91
 1488 018c 5C       		.sleb128 -36
 1489 018d 09       		.uleb128 0x9
 1490 018e 0C040000 		.4byte	.LASF32
 1491 0192 01       		.byte	0x1
 1492 0193 3F       		.byte	0x3f
 1493 0194 68000000 		.4byte	0x68
 1494 0198 02       		.uleb128 0x2
 1495 0199 91       		.byte	0x91
 1496 019a 60       		.sleb128 -32
 1497 019b 09       		.uleb128 0x9
 1498 019c 78040000 		.4byte	.LASF33
 1499 01a0 01       		.byte	0x1
 1500 01a1 40       		.byte	0x40
 1501 01a2 A5000000 		.4byte	0xa5
 1502 01a6 02       		.uleb128 0x2
 1503 01a7 91       		.byte	0x91
 1504 01a8 50       		.sleb128 -48
 1505 01a9 00       		.byte	0
 1506 01aa 0B       		.uleb128 0xb
 1507 01ab 00000000 		.4byte	.LASF40
 1508 01af 01       		.byte	0x1
 1509 01b0 72       		.byte	0x72
 1510 01b1 68000000 		.4byte	0x68
 1511 01b5 00000000 		.4byte	.LFB67
 1512 01b9 58000000 		.4byte	.LFE67-.LFB67
 1513 01bd 01       		.uleb128 0x1
 1514 01be 9C       		.byte	0x9c
 1515 01bf 18020000 		.4byte	0x218
 1516 01c3 0A       		.uleb128 0xa
 1517 01c4 44010000 		.4byte	.LASF34
 1518 01c8 01       		.byte	0x1
ARM GAS  C:\Users\glenn\AppData\Local\Temp\ccV9538d.s 			page 36


 1519 01c9 72       		.byte	0x72
 1520 01ca 6F000000 		.4byte	0x6f
 1521 01ce 02       		.uleb128 0x2
 1522 01cf 91       		.byte	0x91
 1523 01d0 74       		.sleb128 -12
 1524 01d1 0A       		.uleb128 0xa
 1525 01d2 81010000 		.4byte	.LASF35
 1526 01d6 01       		.byte	0x1
 1527 01d7 72       		.byte	0x72
 1528 01d8 6F000000 		.4byte	0x6f
 1529 01dc 02       		.uleb128 0x2
 1530 01dd 91       		.byte	0x91
 1531 01de 70       		.sleb128 -16
 1532 01df 0A       		.uleb128 0xa
 1533 01e0 89010000 		.4byte	.LASF36
 1534 01e4 01       		.byte	0x1
 1535 01e5 73       		.byte	0x73
 1536 01e6 6F000000 		.4byte	0x6f
 1537 01ea 02       		.uleb128 0x2
 1538 01eb 91       		.byte	0x91
 1539 01ec 6C       		.sleb128 -20
 1540 01ed 0A       		.uleb128 0xa
 1541 01ee C9000000 		.4byte	.LASF37
 1542 01f2 01       		.byte	0x1
 1543 01f3 73       		.byte	0x73
 1544 01f4 6F000000 		.4byte	0x6f
 1545 01f8 02       		.uleb128 0x2
 1546 01f9 91       		.byte	0x91
 1547 01fa 68       		.sleb128 -24
 1548 01fb 0A       		.uleb128 0xa
 1549 01fc E4010000 		.4byte	.LASF38
 1550 0200 01       		.byte	0x1
 1551 0201 73       		.byte	0x73
 1552 0202 6F000000 		.4byte	0x6f
 1553 0206 02       		.uleb128 0x2
 1554 0207 91       		.byte	0x91
 1555 0208 00       		.sleb128 0
 1556 0209 0A       		.uleb128 0xa
 1557 020a 18040000 		.4byte	.LASF39
 1558 020e 01       		.byte	0x1
 1559 020f 73       		.byte	0x73
 1560 0210 6F000000 		.4byte	0x6f
 1561 0214 02       		.uleb128 0x2
 1562 0215 91       		.byte	0x91
 1563 0216 04       		.sleb128 4
 1564 0217 00       		.byte	0
 1565 0218 0C       		.uleb128 0xc
 1566 0219 4C020000 		.4byte	.LASF67
 1567 021d 01       		.byte	0x1
 1568 021e 8B       		.byte	0x8b
 1569 021f 00000000 		.4byte	.LFB68
 1570 0223 12000000 		.4byte	.LFE68-.LFB68
 1571 0227 01       		.uleb128 0x1
 1572 0228 9C       		.byte	0x9c
 1573 0229 0B       		.uleb128 0xb
 1574 022a 9D030000 		.4byte	.LASF41
 1575 022e 01       		.byte	0x1
ARM GAS  C:\Users\glenn\AppData\Local\Temp\ccV9538d.s 			page 37


 1576 022f 95       		.byte	0x95
 1577 0230 68000000 		.4byte	0x68
 1578 0234 00000000 		.4byte	.LFB69
 1579 0238 28000000 		.4byte	.LFE69-.LFB69
 1580 023c 01       		.uleb128 0x1
 1581 023d 9C       		.byte	0x9c
 1582 023e 97020000 		.4byte	0x297
 1583 0242 0A       		.uleb128 0xa
 1584 0243 44010000 		.4byte	.LASF34
 1585 0247 01       		.byte	0x1
 1586 0248 95       		.byte	0x95
 1587 0249 6F000000 		.4byte	0x6f
 1588 024d 02       		.uleb128 0x2
 1589 024e 91       		.byte	0x91
 1590 024f 74       		.sleb128 -12
 1591 0250 0A       		.uleb128 0xa
 1592 0251 81010000 		.4byte	.LASF35
 1593 0255 01       		.byte	0x1
 1594 0256 95       		.byte	0x95
 1595 0257 6F000000 		.4byte	0x6f
 1596 025b 02       		.uleb128 0x2
 1597 025c 91       		.byte	0x91
 1598 025d 70       		.sleb128 -16
 1599 025e 0A       		.uleb128 0xa
 1600 025f 89010000 		.4byte	.LASF36
 1601 0263 01       		.byte	0x1
 1602 0264 96       		.byte	0x96
 1603 0265 6F000000 		.4byte	0x6f
 1604 0269 02       		.uleb128 0x2
 1605 026a 91       		.byte	0x91
 1606 026b 6C       		.sleb128 -20
 1607 026c 0A       		.uleb128 0xa
 1608 026d C9000000 		.4byte	.LASF37
 1609 0271 01       		.byte	0x1
 1610 0272 96       		.byte	0x96
 1611 0273 6F000000 		.4byte	0x6f
 1612 0277 02       		.uleb128 0x2
 1613 0278 91       		.byte	0x91
 1614 0279 68       		.sleb128 -24
 1615 027a 0A       		.uleb128 0xa
 1616 027b E4010000 		.4byte	.LASF38
 1617 027f 01       		.byte	0x1
 1618 0280 96       		.byte	0x96
 1619 0281 6F000000 		.4byte	0x6f
 1620 0285 02       		.uleb128 0x2
 1621 0286 91       		.byte	0x91
 1622 0287 00       		.sleb128 0
 1623 0288 0A       		.uleb128 0xa
 1624 0289 18040000 		.4byte	.LASF39
 1625 028d 01       		.byte	0x1
 1626 028e 96       		.byte	0x96
 1627 028f 6F000000 		.4byte	0x6f
 1628 0293 02       		.uleb128 0x2
 1629 0294 91       		.byte	0x91
 1630 0295 04       		.sleb128 4
 1631 0296 00       		.byte	0
 1632 0297 0B       		.uleb128 0xb
ARM GAS  C:\Users\glenn\AppData\Local\Temp\ccV9538d.s 			page 38


 1633 0298 29010000 		.4byte	.LASF42
 1634 029c 01       		.byte	0x1
 1635 029d AB       		.byte	0xab
 1636 029e 68000000 		.4byte	0x68
 1637 02a2 00000000 		.4byte	.LFB70
 1638 02a6 54000000 		.4byte	.LFE70-.LFB70
 1639 02aa 01       		.uleb128 0x1
 1640 02ab 9C       		.byte	0x9c
 1641 02ac 13030000 		.4byte	0x313
 1642 02b0 0A       		.uleb128 0xa
 1643 02b1 44010000 		.4byte	.LASF34
 1644 02b5 01       		.byte	0x1
 1645 02b6 AB       		.byte	0xab
 1646 02b7 6F000000 		.4byte	0x6f
 1647 02bb 02       		.uleb128 0x2
 1648 02bc 91       		.byte	0x91
 1649 02bd 6C       		.sleb128 -20
 1650 02be 0A       		.uleb128 0xa
 1651 02bf 81010000 		.4byte	.LASF35
 1652 02c3 01       		.byte	0x1
 1653 02c4 AB       		.byte	0xab
 1654 02c5 6F000000 		.4byte	0x6f
 1655 02c9 02       		.uleb128 0x2
 1656 02ca 91       		.byte	0x91
 1657 02cb 68       		.sleb128 -24
 1658 02cc 0A       		.uleb128 0xa
 1659 02cd 89010000 		.4byte	.LASF36
 1660 02d1 01       		.byte	0x1
 1661 02d2 AC       		.byte	0xac
 1662 02d3 6F000000 		.4byte	0x6f
 1663 02d7 02       		.uleb128 0x2
 1664 02d8 91       		.byte	0x91
 1665 02d9 64       		.sleb128 -28
 1666 02da 0A       		.uleb128 0xa
 1667 02db C9000000 		.4byte	.LASF37
 1668 02df 01       		.byte	0x1
 1669 02e0 AC       		.byte	0xac
 1670 02e1 6F000000 		.4byte	0x6f
 1671 02e5 02       		.uleb128 0x2
 1672 02e6 91       		.byte	0x91
 1673 02e7 60       		.sleb128 -32
 1674 02e8 0A       		.uleb128 0xa
 1675 02e9 E4010000 		.4byte	.LASF38
 1676 02ed 01       		.byte	0x1
 1677 02ee AC       		.byte	0xac
 1678 02ef 6F000000 		.4byte	0x6f
 1679 02f3 02       		.uleb128 0x2
 1680 02f4 91       		.byte	0x91
 1681 02f5 00       		.sleb128 0
 1682 02f6 0A       		.uleb128 0xa
 1683 02f7 18040000 		.4byte	.LASF39
 1684 02fb 01       		.byte	0x1
 1685 02fc AC       		.byte	0xac
 1686 02fd 6F000000 		.4byte	0x6f
 1687 0301 02       		.uleb128 0x2
 1688 0302 91       		.byte	0x91
 1689 0303 04       		.sleb128 4
ARM GAS  C:\Users\glenn\AppData\Local\Temp\ccV9538d.s 			page 39


 1690 0304 09       		.uleb128 0x9
 1691 0305 ED000000 		.4byte	.LASF43
 1692 0309 01       		.byte	0x1
 1693 030a AE       		.byte	0xae
 1694 030b 8D000000 		.4byte	0x8d
 1695 030f 02       		.uleb128 0x2
 1696 0310 91       		.byte	0x91
 1697 0311 76       		.sleb128 -10
 1698 0312 00       		.byte	0
 1699 0313 0B       		.uleb128 0xb
 1700 0314 5B010000 		.4byte	.LASF44
 1701 0318 01       		.byte	0x1
 1702 0319 C0       		.byte	0xc0
 1703 031a 68000000 		.4byte	0x68
 1704 031e 00000000 		.4byte	.LFB71
 1705 0322 4C000000 		.4byte	.LFE71-.LFB71
 1706 0326 01       		.uleb128 0x1
 1707 0327 9C       		.byte	0x9c
 1708 0328 8F030000 		.4byte	0x38f
 1709 032c 0A       		.uleb128 0xa
 1710 032d 44010000 		.4byte	.LASF34
 1711 0331 01       		.byte	0x1
 1712 0332 C0       		.byte	0xc0
 1713 0333 6F000000 		.4byte	0x6f
 1714 0337 02       		.uleb128 0x2
 1715 0338 91       		.byte	0x91
 1716 0339 6C       		.sleb128 -20
 1717 033a 0A       		.uleb128 0xa
 1718 033b 81010000 		.4byte	.LASF35
 1719 033f 01       		.byte	0x1
 1720 0340 C0       		.byte	0xc0
 1721 0341 6F000000 		.4byte	0x6f
 1722 0345 02       		.uleb128 0x2
 1723 0346 91       		.byte	0x91
 1724 0347 68       		.sleb128 -24
 1725 0348 0A       		.uleb128 0xa
 1726 0349 89010000 		.4byte	.LASF36
 1727 034d 01       		.byte	0x1
 1728 034e C1       		.byte	0xc1
 1729 034f 6F000000 		.4byte	0x6f
 1730 0353 02       		.uleb128 0x2
 1731 0354 91       		.byte	0x91
 1732 0355 64       		.sleb128 -28
 1733 0356 0A       		.uleb128 0xa
 1734 0357 C9000000 		.4byte	.LASF37
 1735 035b 01       		.byte	0x1
 1736 035c C1       		.byte	0xc1
 1737 035d 6F000000 		.4byte	0x6f
 1738 0361 02       		.uleb128 0x2
 1739 0362 91       		.byte	0x91
 1740 0363 60       		.sleb128 -32
 1741 0364 0A       		.uleb128 0xa
 1742 0365 E4010000 		.4byte	.LASF38
 1743 0369 01       		.byte	0x1
 1744 036a C1       		.byte	0xc1
 1745 036b 6F000000 		.4byte	0x6f
 1746 036f 02       		.uleb128 0x2
ARM GAS  C:\Users\glenn\AppData\Local\Temp\ccV9538d.s 			page 40


 1747 0370 91       		.byte	0x91
 1748 0371 00       		.sleb128 0
 1749 0372 0A       		.uleb128 0xa
 1750 0373 18040000 		.4byte	.LASF39
 1751 0377 01       		.byte	0x1
 1752 0378 C1       		.byte	0xc1
 1753 0379 6F000000 		.4byte	0x6f
 1754 037d 02       		.uleb128 0x2
 1755 037e 91       		.byte	0x91
 1756 037f 04       		.sleb128 4
 1757 0380 09       		.uleb128 0x9
 1758 0381 ED000000 		.4byte	.LASF43
 1759 0385 01       		.byte	0x1
 1760 0386 C3       		.byte	0xc3
 1761 0387 8D000000 		.4byte	0x8d
 1762 038b 02       		.uleb128 0x2
 1763 038c 91       		.byte	0x91
 1764 038d 76       		.sleb128 -10
 1765 038e 00       		.byte	0
 1766 038f 0B       		.uleb128 0xb
 1767 0390 40040000 		.4byte	.LASF45
 1768 0394 01       		.byte	0x1
 1769 0395 D6       		.byte	0xd6
 1770 0396 68000000 		.4byte	0x68
 1771 039a 00000000 		.4byte	.LFB72
 1772 039e 70000000 		.4byte	.LFE72-.LFB72
 1773 03a2 01       		.uleb128 0x1
 1774 03a3 9C       		.byte	0x9c
 1775 03a4 0B040000 		.4byte	0x40b
 1776 03a8 0A       		.uleb128 0xa
 1777 03a9 44010000 		.4byte	.LASF34
 1778 03ad 01       		.byte	0x1
 1779 03ae D6       		.byte	0xd6
 1780 03af 6F000000 		.4byte	0x6f
 1781 03b3 02       		.uleb128 0x2
 1782 03b4 91       		.byte	0x91
 1783 03b5 6C       		.sleb128 -20
 1784 03b6 0A       		.uleb128 0xa
 1785 03b7 81010000 		.4byte	.LASF35
 1786 03bb 01       		.byte	0x1
 1787 03bc D6       		.byte	0xd6
 1788 03bd 6F000000 		.4byte	0x6f
 1789 03c1 02       		.uleb128 0x2
 1790 03c2 91       		.byte	0x91
 1791 03c3 68       		.sleb128 -24
 1792 03c4 0A       		.uleb128 0xa
 1793 03c5 89010000 		.4byte	.LASF36
 1794 03c9 01       		.byte	0x1
 1795 03ca D7       		.byte	0xd7
 1796 03cb 6F000000 		.4byte	0x6f
 1797 03cf 02       		.uleb128 0x2
 1798 03d0 91       		.byte	0x91
 1799 03d1 64       		.sleb128 -28
 1800 03d2 0A       		.uleb128 0xa
 1801 03d3 C9000000 		.4byte	.LASF37
 1802 03d7 01       		.byte	0x1
 1803 03d8 D7       		.byte	0xd7
ARM GAS  C:\Users\glenn\AppData\Local\Temp\ccV9538d.s 			page 41


 1804 03d9 6F000000 		.4byte	0x6f
 1805 03dd 02       		.uleb128 0x2
 1806 03de 91       		.byte	0x91
 1807 03df 60       		.sleb128 -32
 1808 03e0 0A       		.uleb128 0xa
 1809 03e1 E4010000 		.4byte	.LASF38
 1810 03e5 01       		.byte	0x1
 1811 03e6 D7       		.byte	0xd7
 1812 03e7 6F000000 		.4byte	0x6f
 1813 03eb 02       		.uleb128 0x2
 1814 03ec 91       		.byte	0x91
 1815 03ed 00       		.sleb128 0
 1816 03ee 0A       		.uleb128 0xa
 1817 03ef 18040000 		.4byte	.LASF39
 1818 03f3 01       		.byte	0x1
 1819 03f4 D7       		.byte	0xd7
 1820 03f5 6F000000 		.4byte	0x6f
 1821 03f9 02       		.uleb128 0x2
 1822 03fa 91       		.byte	0x91
 1823 03fb 04       		.sleb128 4
 1824 03fc 09       		.uleb128 0x9
 1825 03fd D1010000 		.4byte	.LASF46
 1826 0401 01       		.byte	0x1
 1827 0402 DE       		.byte	0xde
 1828 0403 8D000000 		.4byte	0x8d
 1829 0407 02       		.uleb128 0x2
 1830 0408 91       		.byte	0x91
 1831 0409 76       		.sleb128 -10
 1832 040a 00       		.byte	0
 1833 040b 0D       		.uleb128 0xd
 1834 040c E0000000 		.4byte	.LASF47
 1835 0410 01       		.byte	0x1
 1836 0411 0701     		.2byte	0x107
 1837 0413 68000000 		.4byte	0x68
 1838 0417 00000000 		.4byte	.LFB73
 1839 041b 32000000 		.4byte	.LFE73-.LFB73
 1840 041f 01       		.uleb128 0x1
 1841 0420 9C       		.byte	0x9c
 1842 0421 80040000 		.4byte	0x480
 1843 0425 0E       		.uleb128 0xe
 1844 0426 44010000 		.4byte	.LASF34
 1845 042a 01       		.byte	0x1
 1846 042b 0701     		.2byte	0x107
 1847 042d 6F000000 		.4byte	0x6f
 1848 0431 02       		.uleb128 0x2
 1849 0432 91       		.byte	0x91
 1850 0433 74       		.sleb128 -12
 1851 0434 0E       		.uleb128 0xe
 1852 0435 81010000 		.4byte	.LASF35
 1853 0439 01       		.byte	0x1
 1854 043a 0701     		.2byte	0x107
 1855 043c 6F000000 		.4byte	0x6f
 1856 0440 02       		.uleb128 0x2
 1857 0441 91       		.byte	0x91
 1858 0442 70       		.sleb128 -16
 1859 0443 0E       		.uleb128 0xe
 1860 0444 89010000 		.4byte	.LASF36
ARM GAS  C:\Users\glenn\AppData\Local\Temp\ccV9538d.s 			page 42


 1861 0448 01       		.byte	0x1
 1862 0449 0801     		.2byte	0x108
 1863 044b 6F000000 		.4byte	0x6f
 1864 044f 02       		.uleb128 0x2
 1865 0450 91       		.byte	0x91
 1866 0451 6C       		.sleb128 -20
 1867 0452 0E       		.uleb128 0xe
 1868 0453 C9000000 		.4byte	.LASF37
 1869 0457 01       		.byte	0x1
 1870 0458 0801     		.2byte	0x108
 1871 045a 6F000000 		.4byte	0x6f
 1872 045e 02       		.uleb128 0x2
 1873 045f 91       		.byte	0x91
 1874 0460 68       		.sleb128 -24
 1875 0461 0E       		.uleb128 0xe
 1876 0462 E4010000 		.4byte	.LASF38
 1877 0466 01       		.byte	0x1
 1878 0467 0801     		.2byte	0x108
 1879 0469 6F000000 		.4byte	0x6f
 1880 046d 02       		.uleb128 0x2
 1881 046e 91       		.byte	0x91
 1882 046f 00       		.sleb128 0
 1883 0470 0E       		.uleb128 0xe
 1884 0471 18040000 		.4byte	.LASF39
 1885 0475 01       		.byte	0x1
 1886 0476 0801     		.2byte	0x108
 1887 0478 6F000000 		.4byte	0x6f
 1888 047c 02       		.uleb128 0x2
 1889 047d 91       		.byte	0x91
 1890 047e 04       		.sleb128 4
 1891 047f 00       		.byte	0
 1892 0480 0D       		.uleb128 0xd
 1893 0481 BE040000 		.4byte	.LASF48
 1894 0485 01       		.byte	0x1
 1895 0486 1401     		.2byte	0x114
 1896 0488 68000000 		.4byte	0x68
 1897 048c 00000000 		.4byte	.LFB74
 1898 0490 1C000000 		.4byte	.LFE74-.LFB74
 1899 0494 01       		.uleb128 0x1
 1900 0495 9C       		.byte	0x9c
 1901 0496 F5040000 		.4byte	0x4f5
 1902 049a 0E       		.uleb128 0xe
 1903 049b 44010000 		.4byte	.LASF34
 1904 049f 01       		.byte	0x1
 1905 04a0 1401     		.2byte	0x114
 1906 04a2 6F000000 		.4byte	0x6f
 1907 04a6 02       		.uleb128 0x2
 1908 04a7 91       		.byte	0x91
 1909 04a8 74       		.sleb128 -12
 1910 04a9 0E       		.uleb128 0xe
 1911 04aa 81010000 		.4byte	.LASF35
 1912 04ae 01       		.byte	0x1
 1913 04af 1401     		.2byte	0x114
 1914 04b1 6F000000 		.4byte	0x6f
 1915 04b5 02       		.uleb128 0x2
 1916 04b6 91       		.byte	0x91
 1917 04b7 70       		.sleb128 -16
ARM GAS  C:\Users\glenn\AppData\Local\Temp\ccV9538d.s 			page 43


 1918 04b8 0E       		.uleb128 0xe
 1919 04b9 89010000 		.4byte	.LASF36
 1920 04bd 01       		.byte	0x1
 1921 04be 1501     		.2byte	0x115
 1922 04c0 6F000000 		.4byte	0x6f
 1923 04c4 02       		.uleb128 0x2
 1924 04c5 91       		.byte	0x91
 1925 04c6 6C       		.sleb128 -20
 1926 04c7 0E       		.uleb128 0xe
 1927 04c8 C9000000 		.4byte	.LASF37
 1928 04cc 01       		.byte	0x1
 1929 04cd 1501     		.2byte	0x115
 1930 04cf 6F000000 		.4byte	0x6f
 1931 04d3 02       		.uleb128 0x2
 1932 04d4 91       		.byte	0x91
 1933 04d5 68       		.sleb128 -24
 1934 04d6 0E       		.uleb128 0xe
 1935 04d7 E4010000 		.4byte	.LASF38
 1936 04db 01       		.byte	0x1
 1937 04dc 1501     		.2byte	0x115
 1938 04de 6F000000 		.4byte	0x6f
 1939 04e2 02       		.uleb128 0x2
 1940 04e3 91       		.byte	0x91
 1941 04e4 00       		.sleb128 0
 1942 04e5 0E       		.uleb128 0xe
 1943 04e6 18040000 		.4byte	.LASF39
 1944 04ea 01       		.byte	0x1
 1945 04eb 1501     		.2byte	0x115
 1946 04ed 6F000000 		.4byte	0x6f
 1947 04f1 02       		.uleb128 0x2
 1948 04f2 91       		.byte	0x91
 1949 04f3 04       		.sleb128 4
 1950 04f4 00       		.byte	0
 1951 04f5 0D       		.uleb128 0xd
 1952 04f6 2D040000 		.4byte	.LASF49
 1953 04fa 01       		.byte	0x1
 1954 04fb 1C01     		.2byte	0x11c
 1955 04fd 68000000 		.4byte	0x68
 1956 0501 00000000 		.4byte	.LFB75
 1957 0505 28000000 		.4byte	.LFE75-.LFB75
 1958 0509 01       		.uleb128 0x1
 1959 050a 9C       		.byte	0x9c
 1960 050b 6A050000 		.4byte	0x56a
 1961 050f 0E       		.uleb128 0xe
 1962 0510 44010000 		.4byte	.LASF34
 1963 0514 01       		.byte	0x1
 1964 0515 1C01     		.2byte	0x11c
 1965 0517 6F000000 		.4byte	0x6f
 1966 051b 02       		.uleb128 0x2
 1967 051c 91       		.byte	0x91
 1968 051d 74       		.sleb128 -12
 1969 051e 0E       		.uleb128 0xe
 1970 051f 81010000 		.4byte	.LASF35
 1971 0523 01       		.byte	0x1
 1972 0524 1C01     		.2byte	0x11c
 1973 0526 6F000000 		.4byte	0x6f
 1974 052a 02       		.uleb128 0x2
ARM GAS  C:\Users\glenn\AppData\Local\Temp\ccV9538d.s 			page 44


 1975 052b 91       		.byte	0x91
 1976 052c 70       		.sleb128 -16
 1977 052d 0E       		.uleb128 0xe
 1978 052e 89010000 		.4byte	.LASF36
 1979 0532 01       		.byte	0x1
 1980 0533 1D01     		.2byte	0x11d
 1981 0535 6F000000 		.4byte	0x6f
 1982 0539 02       		.uleb128 0x2
 1983 053a 91       		.byte	0x91
 1984 053b 6C       		.sleb128 -20
 1985 053c 0E       		.uleb128 0xe
 1986 053d C9000000 		.4byte	.LASF37
 1987 0541 01       		.byte	0x1
 1988 0542 1D01     		.2byte	0x11d
 1989 0544 6F000000 		.4byte	0x6f
 1990 0548 02       		.uleb128 0x2
 1991 0549 91       		.byte	0x91
 1992 054a 68       		.sleb128 -24
 1993 054b 0E       		.uleb128 0xe
 1994 054c E4010000 		.4byte	.LASF38
 1995 0550 01       		.byte	0x1
 1996 0551 1D01     		.2byte	0x11d
 1997 0553 6F000000 		.4byte	0x6f
 1998 0557 02       		.uleb128 0x2
 1999 0558 91       		.byte	0x91
 2000 0559 00       		.sleb128 0
 2001 055a 0E       		.uleb128 0xe
 2002 055b 18040000 		.4byte	.LASF39
 2003 055f 01       		.byte	0x1
 2004 0560 1D01     		.2byte	0x11d
 2005 0562 6F000000 		.4byte	0x6f
 2006 0566 02       		.uleb128 0x2
 2007 0567 91       		.byte	0x91
 2008 0568 04       		.sleb128 4
 2009 0569 00       		.byte	0
 2010 056a 0D       		.uleb128 0xd
 2011 056b 87020000 		.4byte	.LASF50
 2012 056f 01       		.byte	0x1
 2013 0570 2601     		.2byte	0x126
 2014 0572 68000000 		.4byte	0x68
 2015 0576 00000000 		.4byte	.LFB76
 2016 057a D0000000 		.4byte	.LFE76-.LFB76
 2017 057e 01       		.uleb128 0x1
 2018 057f 9C       		.byte	0x9c
 2019 0580 19060000 		.4byte	0x619
 2020 0584 0E       		.uleb128 0xe
 2021 0585 44010000 		.4byte	.LASF34
 2022 0589 01       		.byte	0x1
 2023 058a 2601     		.2byte	0x126
 2024 058c 6F000000 		.4byte	0x6f
 2025 0590 02       		.uleb128 0x2
 2026 0591 91       		.byte	0x91
 2027 0592 64       		.sleb128 -28
 2028 0593 0E       		.uleb128 0xe
 2029 0594 81010000 		.4byte	.LASF35
 2030 0598 01       		.byte	0x1
 2031 0599 2601     		.2byte	0x126
ARM GAS  C:\Users\glenn\AppData\Local\Temp\ccV9538d.s 			page 45


 2032 059b 6F000000 		.4byte	0x6f
 2033 059f 02       		.uleb128 0x2
 2034 05a0 91       		.byte	0x91
 2035 05a1 60       		.sleb128 -32
 2036 05a2 0E       		.uleb128 0xe
 2037 05a3 89010000 		.4byte	.LASF36
 2038 05a7 01       		.byte	0x1
 2039 05a8 2701     		.2byte	0x127
 2040 05aa 6F000000 		.4byte	0x6f
 2041 05ae 02       		.uleb128 0x2
 2042 05af 91       		.byte	0x91
 2043 05b0 5C       		.sleb128 -36
 2044 05b1 0E       		.uleb128 0xe
 2045 05b2 C9000000 		.4byte	.LASF37
 2046 05b6 01       		.byte	0x1
 2047 05b7 2701     		.2byte	0x127
 2048 05b9 6F000000 		.4byte	0x6f
 2049 05bd 02       		.uleb128 0x2
 2050 05be 91       		.byte	0x91
 2051 05bf 58       		.sleb128 -40
 2052 05c0 0E       		.uleb128 0xe
 2053 05c1 E4010000 		.4byte	.LASF38
 2054 05c5 01       		.byte	0x1
 2055 05c6 2701     		.2byte	0x127
 2056 05c8 6F000000 		.4byte	0x6f
 2057 05cc 02       		.uleb128 0x2
 2058 05cd 91       		.byte	0x91
 2059 05ce 00       		.sleb128 0
 2060 05cf 0E       		.uleb128 0xe
 2061 05d0 18040000 		.4byte	.LASF39
 2062 05d4 01       		.byte	0x1
 2063 05d5 2701     		.2byte	0x127
 2064 05d7 6F000000 		.4byte	0x6f
 2065 05db 02       		.uleb128 0x2
 2066 05dc 91       		.byte	0x91
 2067 05dd 04       		.sleb128 4
 2068 05de 0F       		.uleb128 0xf
 2069 05df 6900     		.ascii	"i\000"
 2070 05e1 01       		.byte	0x1
 2071 05e2 2901     		.2byte	0x129
 2072 05e4 6F000000 		.4byte	0x6f
 2073 05e8 02       		.uleb128 0x2
 2074 05e9 91       		.byte	0x91
 2075 05ea 74       		.sleb128 -12
 2076 05eb 10       		.uleb128 0x10
 2077 05ec 7E030000 		.4byte	.LASF25
 2078 05f0 01       		.byte	0x1
 2079 05f1 2A01     		.2byte	0x12a
 2080 05f3 A5000000 		.4byte	0xa5
 2081 05f7 02       		.uleb128 0x2
 2082 05f8 91       		.byte	0x91
 2083 05f9 70       		.sleb128 -16
 2084 05fa 10       		.uleb128 0x10
 2085 05fb F0010000 		.4byte	.LASF24
 2086 05ff 01       		.byte	0x1
 2087 0600 2B01     		.2byte	0x12b
 2088 0602 A5000000 		.4byte	0xa5
ARM GAS  C:\Users\glenn\AppData\Local\Temp\ccV9538d.s 			page 46


 2089 0606 02       		.uleb128 0x2
 2090 0607 91       		.byte	0x91
 2091 0608 6C       		.sleb128 -20
 2092 0609 10       		.uleb128 0x10
 2093 060a 4C010000 		.4byte	.LASF26
 2094 060e 01       		.byte	0x1
 2095 060f 2C01     		.2byte	0x12c
 2096 0611 A5000000 		.4byte	0xa5
 2097 0615 02       		.uleb128 0x2
 2098 0616 91       		.byte	0x91
 2099 0617 68       		.sleb128 -24
 2100 0618 00       		.byte	0
 2101 0619 0D       		.uleb128 0xd
 2102 061a 84040000 		.4byte	.LASF51
 2103 061e 01       		.byte	0x1
 2104 061f 5F01     		.2byte	0x15f
 2105 0621 68000000 		.4byte	0x68
 2106 0625 00000000 		.4byte	.LFB77
 2107 0629 24000000 		.4byte	.LFE77-.LFB77
 2108 062d 01       		.uleb128 0x1
 2109 062e 9C       		.byte	0x9c
 2110 062f 8E060000 		.4byte	0x68e
 2111 0633 0E       		.uleb128 0xe
 2112 0634 44010000 		.4byte	.LASF34
 2113 0638 01       		.byte	0x1
 2114 0639 5F01     		.2byte	0x15f
 2115 063b 6F000000 		.4byte	0x6f
 2116 063f 02       		.uleb128 0x2
 2117 0640 91       		.byte	0x91
 2118 0641 74       		.sleb128 -12
 2119 0642 0E       		.uleb128 0xe
 2120 0643 81010000 		.4byte	.LASF35
 2121 0647 01       		.byte	0x1
 2122 0648 5F01     		.2byte	0x15f
 2123 064a 6F000000 		.4byte	0x6f
 2124 064e 02       		.uleb128 0x2
 2125 064f 91       		.byte	0x91
 2126 0650 70       		.sleb128 -16
 2127 0651 0E       		.uleb128 0xe
 2128 0652 89010000 		.4byte	.LASF36
 2129 0656 01       		.byte	0x1
 2130 0657 6001     		.2byte	0x160
 2131 0659 6F000000 		.4byte	0x6f
 2132 065d 02       		.uleb128 0x2
 2133 065e 91       		.byte	0x91
 2134 065f 6C       		.sleb128 -20
 2135 0660 0E       		.uleb128 0xe
 2136 0661 C9000000 		.4byte	.LASF37
 2137 0665 01       		.byte	0x1
 2138 0666 6001     		.2byte	0x160
 2139 0668 6F000000 		.4byte	0x6f
 2140 066c 02       		.uleb128 0x2
 2141 066d 91       		.byte	0x91
 2142 066e 68       		.sleb128 -24
 2143 066f 0E       		.uleb128 0xe
 2144 0670 E4010000 		.4byte	.LASF38
 2145 0674 01       		.byte	0x1
ARM GAS  C:\Users\glenn\AppData\Local\Temp\ccV9538d.s 			page 47


 2146 0675 6001     		.2byte	0x160
 2147 0677 6F000000 		.4byte	0x6f
 2148 067b 02       		.uleb128 0x2
 2149 067c 91       		.byte	0x91
 2150 067d 00       		.sleb128 0
 2151 067e 0E       		.uleb128 0xe
 2152 067f 18040000 		.4byte	.LASF39
 2153 0683 01       		.byte	0x1
 2154 0684 6001     		.2byte	0x160
 2155 0686 6F000000 		.4byte	0x6f
 2156 068a 02       		.uleb128 0x2
 2157 068b 91       		.byte	0x91
 2158 068c 04       		.sleb128 4
 2159 068d 00       		.byte	0
 2160 068e 0D       		.uleb128 0xd
 2161 068f 70020000 		.4byte	.LASF52
 2162 0693 01       		.byte	0x1
 2163 0694 7401     		.2byte	0x174
 2164 0696 68000000 		.4byte	0x68
 2165 069a 00000000 		.4byte	.LFB78
 2166 069e 76000000 		.4byte	.LFE78-.LFB78
 2167 06a2 01       		.uleb128 0x1
 2168 06a3 9C       		.byte	0x9c
 2169 06a4 10070000 		.4byte	0x710
 2170 06a8 0E       		.uleb128 0xe
 2171 06a9 44010000 		.4byte	.LASF34
 2172 06ad 01       		.byte	0x1
 2173 06ae 7401     		.2byte	0x174
 2174 06b0 6F000000 		.4byte	0x6f
 2175 06b4 02       		.uleb128 0x2
 2176 06b5 91       		.byte	0x91
 2177 06b6 6C       		.sleb128 -20
 2178 06b7 0E       		.uleb128 0xe
 2179 06b8 81010000 		.4byte	.LASF35
 2180 06bc 01       		.byte	0x1
 2181 06bd 7401     		.2byte	0x174
 2182 06bf 6F000000 		.4byte	0x6f
 2183 06c3 02       		.uleb128 0x2
 2184 06c4 91       		.byte	0x91
 2185 06c5 68       		.sleb128 -24
 2186 06c6 0E       		.uleb128 0xe
 2187 06c7 89010000 		.4byte	.LASF36
 2188 06cb 01       		.byte	0x1
 2189 06cc 7501     		.2byte	0x175
 2190 06ce 6F000000 		.4byte	0x6f
 2191 06d2 02       		.uleb128 0x2
 2192 06d3 91       		.byte	0x91
 2193 06d4 64       		.sleb128 -28
 2194 06d5 0E       		.uleb128 0xe
 2195 06d6 C9000000 		.4byte	.LASF37
 2196 06da 01       		.byte	0x1
 2197 06db 7501     		.2byte	0x175
 2198 06dd 6F000000 		.4byte	0x6f
 2199 06e1 02       		.uleb128 0x2
 2200 06e2 91       		.byte	0x91
 2201 06e3 60       		.sleb128 -32
 2202 06e4 0E       		.uleb128 0xe
ARM GAS  C:\Users\glenn\AppData\Local\Temp\ccV9538d.s 			page 48


 2203 06e5 E4010000 		.4byte	.LASF38
 2204 06e9 01       		.byte	0x1
 2205 06ea 7501     		.2byte	0x175
 2206 06ec 6F000000 		.4byte	0x6f
 2207 06f0 02       		.uleb128 0x2
 2208 06f1 91       		.byte	0x91
 2209 06f2 00       		.sleb128 0
 2210 06f3 0E       		.uleb128 0xe
 2211 06f4 18040000 		.4byte	.LASF39
 2212 06f8 01       		.byte	0x1
 2213 06f9 7501     		.2byte	0x175
 2214 06fb 6F000000 		.4byte	0x6f
 2215 06ff 02       		.uleb128 0x2
 2216 0700 91       		.byte	0x91
 2217 0701 04       		.sleb128 4
 2218 0702 0F       		.uleb128 0xf
 2219 0703 6900     		.ascii	"i\000"
 2220 0705 01       		.byte	0x1
 2221 0706 7701     		.2byte	0x177
 2222 0708 6F000000 		.4byte	0x6f
 2223 070c 02       		.uleb128 0x2
 2224 070d 91       		.byte	0x91
 2225 070e 74       		.sleb128 -12
 2226 070f 00       		.byte	0
 2227 0710 0D       		.uleb128 0xd
 2228 0711 EB030000 		.4byte	.LASF53
 2229 0715 01       		.byte	0x1
 2230 0716 AB01     		.2byte	0x1ab
 2231 0718 68000000 		.4byte	0x68
 2232 071c 00000000 		.4byte	.LFB79
 2233 0720 34000000 		.4byte	.LFE79-.LFB79
 2234 0724 01       		.uleb128 0x1
 2235 0725 9C       		.byte	0x9c
 2236 0726 94070000 		.4byte	0x794
 2237 072a 0E       		.uleb128 0xe
 2238 072b 44010000 		.4byte	.LASF34
 2239 072f 01       		.byte	0x1
 2240 0730 AB01     		.2byte	0x1ab
 2241 0732 6F000000 		.4byte	0x6f
 2242 0736 02       		.uleb128 0x2
 2243 0737 91       		.byte	0x91
 2244 0738 6C       		.sleb128 -20
 2245 0739 0E       		.uleb128 0xe
 2246 073a 81010000 		.4byte	.LASF35
 2247 073e 01       		.byte	0x1
 2248 073f AB01     		.2byte	0x1ab
 2249 0741 6F000000 		.4byte	0x6f
 2250 0745 02       		.uleb128 0x2
 2251 0746 91       		.byte	0x91
 2252 0747 68       		.sleb128 -24
 2253 0748 0E       		.uleb128 0xe
 2254 0749 89010000 		.4byte	.LASF36
 2255 074d 01       		.byte	0x1
 2256 074e AC01     		.2byte	0x1ac
 2257 0750 6F000000 		.4byte	0x6f
 2258 0754 02       		.uleb128 0x2
 2259 0755 91       		.byte	0x91
ARM GAS  C:\Users\glenn\AppData\Local\Temp\ccV9538d.s 			page 49


 2260 0756 64       		.sleb128 -28
 2261 0757 0E       		.uleb128 0xe
 2262 0758 C9000000 		.4byte	.LASF37
 2263 075c 01       		.byte	0x1
 2264 075d AC01     		.2byte	0x1ac
 2265 075f 6F000000 		.4byte	0x6f
 2266 0763 02       		.uleb128 0x2
 2267 0764 91       		.byte	0x91
 2268 0765 60       		.sleb128 -32
 2269 0766 0E       		.uleb128 0xe
 2270 0767 E4010000 		.4byte	.LASF38
 2271 076b 01       		.byte	0x1
 2272 076c AC01     		.2byte	0x1ac
 2273 076e 6F000000 		.4byte	0x6f
 2274 0772 02       		.uleb128 0x2
 2275 0773 91       		.byte	0x91
 2276 0774 00       		.sleb128 0
 2277 0775 0E       		.uleb128 0xe
 2278 0776 18040000 		.4byte	.LASF39
 2279 077a 01       		.byte	0x1
 2280 077b AC01     		.2byte	0x1ac
 2281 077d 6F000000 		.4byte	0x6f
 2282 0781 02       		.uleb128 0x2
 2283 0782 91       		.byte	0x91
 2284 0783 04       		.sleb128 4
 2285 0784 10       		.uleb128 0x10
 2286 0785 ED000000 		.4byte	.LASF43
 2287 0789 01       		.byte	0x1
 2288 078a AE01     		.2byte	0x1ae
 2289 078c 8D000000 		.4byte	0x8d
 2290 0790 02       		.uleb128 0x2
 2291 0791 91       		.byte	0x91
 2292 0792 76       		.sleb128 -10
 2293 0793 00       		.byte	0
 2294 0794 0D       		.uleb128 0xd
 2295 0795 FC000000 		.4byte	.LASF54
 2296 0799 01       		.byte	0x1
 2297 079a BF01     		.2byte	0x1bf
 2298 079c 68000000 		.4byte	0x68
 2299 07a0 00000000 		.4byte	.LFB80
 2300 07a4 20000000 		.4byte	.LFE80-.LFB80
 2301 07a8 01       		.uleb128 0x1
 2302 07a9 9C       		.byte	0x9c
 2303 07aa 09080000 		.4byte	0x809
 2304 07ae 0E       		.uleb128 0xe
 2305 07af 44010000 		.4byte	.LASF34
 2306 07b3 01       		.byte	0x1
 2307 07b4 BF01     		.2byte	0x1bf
 2308 07b6 6F000000 		.4byte	0x6f
 2309 07ba 02       		.uleb128 0x2
 2310 07bb 91       		.byte	0x91
 2311 07bc 74       		.sleb128 -12
 2312 07bd 0E       		.uleb128 0xe
 2313 07be 81010000 		.4byte	.LASF35
 2314 07c2 01       		.byte	0x1
 2315 07c3 BF01     		.2byte	0x1bf
 2316 07c5 6F000000 		.4byte	0x6f
ARM GAS  C:\Users\glenn\AppData\Local\Temp\ccV9538d.s 			page 50


 2317 07c9 02       		.uleb128 0x2
 2318 07ca 91       		.byte	0x91
 2319 07cb 70       		.sleb128 -16
 2320 07cc 0E       		.uleb128 0xe
 2321 07cd 89010000 		.4byte	.LASF36
 2322 07d1 01       		.byte	0x1
 2323 07d2 C001     		.2byte	0x1c0
 2324 07d4 6F000000 		.4byte	0x6f
 2325 07d8 02       		.uleb128 0x2
 2326 07d9 91       		.byte	0x91
 2327 07da 6C       		.sleb128 -20
 2328 07db 0E       		.uleb128 0xe
 2329 07dc C9000000 		.4byte	.LASF37
 2330 07e0 01       		.byte	0x1
 2331 07e1 C001     		.2byte	0x1c0
 2332 07e3 6F000000 		.4byte	0x6f
 2333 07e7 02       		.uleb128 0x2
 2334 07e8 91       		.byte	0x91
 2335 07e9 68       		.sleb128 -24
 2336 07ea 0E       		.uleb128 0xe
 2337 07eb E4010000 		.4byte	.LASF38
 2338 07ef 01       		.byte	0x1
 2339 07f0 C001     		.2byte	0x1c0
 2340 07f2 6F000000 		.4byte	0x6f
 2341 07f6 02       		.uleb128 0x2
 2342 07f7 91       		.byte	0x91
 2343 07f8 00       		.sleb128 0
 2344 07f9 0E       		.uleb128 0xe
 2345 07fa 18040000 		.4byte	.LASF39
 2346 07fe 01       		.byte	0x1
 2347 07ff C001     		.2byte	0x1c0
 2348 0801 6F000000 		.4byte	0x6f
 2349 0805 02       		.uleb128 0x2
 2350 0806 91       		.byte	0x91
 2351 0807 04       		.sleb128 4
 2352 0808 00       		.byte	0
 2353 0809 0D       		.uleb128 0xd
 2354 080a CE020000 		.4byte	.LASF55
 2355 080e 01       		.byte	0x1
 2356 080f C801     		.2byte	0x1c8
 2357 0811 68000000 		.4byte	0x68
 2358 0815 00000000 		.4byte	.LFB81
 2359 0819 1C000000 		.4byte	.LFE81-.LFB81
 2360 081d 01       		.uleb128 0x1
 2361 081e 9C       		.byte	0x9c
 2362 081f 7E080000 		.4byte	0x87e
 2363 0823 0E       		.uleb128 0xe
 2364 0824 44010000 		.4byte	.LASF34
 2365 0828 01       		.byte	0x1
 2366 0829 C801     		.2byte	0x1c8
 2367 082b 6F000000 		.4byte	0x6f
 2368 082f 02       		.uleb128 0x2
 2369 0830 91       		.byte	0x91
 2370 0831 74       		.sleb128 -12
 2371 0832 0E       		.uleb128 0xe
 2372 0833 81010000 		.4byte	.LASF35
 2373 0837 01       		.byte	0x1
ARM GAS  C:\Users\glenn\AppData\Local\Temp\ccV9538d.s 			page 51


 2374 0838 C801     		.2byte	0x1c8
 2375 083a 6F000000 		.4byte	0x6f
 2376 083e 02       		.uleb128 0x2
 2377 083f 91       		.byte	0x91
 2378 0840 70       		.sleb128 -16
 2379 0841 0E       		.uleb128 0xe
 2380 0842 89010000 		.4byte	.LASF36
 2381 0846 01       		.byte	0x1
 2382 0847 C901     		.2byte	0x1c9
 2383 0849 6F000000 		.4byte	0x6f
 2384 084d 02       		.uleb128 0x2
 2385 084e 91       		.byte	0x91
 2386 084f 6C       		.sleb128 -20
 2387 0850 0E       		.uleb128 0xe
 2388 0851 C9000000 		.4byte	.LASF37
 2389 0855 01       		.byte	0x1
 2390 0856 C901     		.2byte	0x1c9
 2391 0858 6F000000 		.4byte	0x6f
 2392 085c 02       		.uleb128 0x2
 2393 085d 91       		.byte	0x91
 2394 085e 68       		.sleb128 -24
 2395 085f 0E       		.uleb128 0xe
 2396 0860 E4010000 		.4byte	.LASF38
 2397 0864 01       		.byte	0x1
 2398 0865 C901     		.2byte	0x1c9
 2399 0867 6F000000 		.4byte	0x6f
 2400 086b 02       		.uleb128 0x2
 2401 086c 91       		.byte	0x91
 2402 086d 00       		.sleb128 0
 2403 086e 0E       		.uleb128 0xe
 2404 086f 18040000 		.4byte	.LASF39
 2405 0873 01       		.byte	0x1
 2406 0874 C901     		.2byte	0x1c9
 2407 0876 6F000000 		.4byte	0x6f
 2408 087a 02       		.uleb128 0x2
 2409 087b 91       		.byte	0x91
 2410 087c 04       		.sleb128 4
 2411 087d 00       		.byte	0
 2412 087e 0D       		.uleb128 0xd
 2413 087f 9F040000 		.4byte	.LASF56
 2414 0883 01       		.byte	0x1
 2415 0884 CF01     		.2byte	0x1cf
 2416 0886 68000000 		.4byte	0x68
 2417 088a 00000000 		.4byte	.LFB82
 2418 088e 1C000000 		.4byte	.LFE82-.LFB82
 2419 0892 01       		.uleb128 0x1
 2420 0893 9C       		.byte	0x9c
 2421 0894 F3080000 		.4byte	0x8f3
 2422 0898 0E       		.uleb128 0xe
 2423 0899 44010000 		.4byte	.LASF34
 2424 089d 01       		.byte	0x1
 2425 089e CF01     		.2byte	0x1cf
 2426 08a0 6F000000 		.4byte	0x6f
 2427 08a4 02       		.uleb128 0x2
 2428 08a5 91       		.byte	0x91
 2429 08a6 74       		.sleb128 -12
 2430 08a7 0E       		.uleb128 0xe
ARM GAS  C:\Users\glenn\AppData\Local\Temp\ccV9538d.s 			page 52


 2431 08a8 81010000 		.4byte	.LASF35
 2432 08ac 01       		.byte	0x1
 2433 08ad CF01     		.2byte	0x1cf
 2434 08af 6F000000 		.4byte	0x6f
 2435 08b3 02       		.uleb128 0x2
 2436 08b4 91       		.byte	0x91
 2437 08b5 70       		.sleb128 -16
 2438 08b6 0E       		.uleb128 0xe
 2439 08b7 89010000 		.4byte	.LASF36
 2440 08bb 01       		.byte	0x1
 2441 08bc D001     		.2byte	0x1d0
 2442 08be 6F000000 		.4byte	0x6f
 2443 08c2 02       		.uleb128 0x2
 2444 08c3 91       		.byte	0x91
 2445 08c4 6C       		.sleb128 -20
 2446 08c5 0E       		.uleb128 0xe
 2447 08c6 C9000000 		.4byte	.LASF37
 2448 08ca 01       		.byte	0x1
 2449 08cb D001     		.2byte	0x1d0
 2450 08cd 6F000000 		.4byte	0x6f
 2451 08d1 02       		.uleb128 0x2
 2452 08d2 91       		.byte	0x91
 2453 08d3 68       		.sleb128 -24
 2454 08d4 0E       		.uleb128 0xe
 2455 08d5 E4010000 		.4byte	.LASF38
 2456 08d9 01       		.byte	0x1
 2457 08da D001     		.2byte	0x1d0
 2458 08dc 6F000000 		.4byte	0x6f
 2459 08e0 02       		.uleb128 0x2
 2460 08e1 91       		.byte	0x91
 2461 08e2 00       		.sleb128 0
 2462 08e3 0E       		.uleb128 0xe
 2463 08e4 18040000 		.4byte	.LASF39
 2464 08e8 01       		.byte	0x1
 2465 08e9 D001     		.2byte	0x1d0
 2466 08eb 6F000000 		.4byte	0x6f
 2467 08ef 02       		.uleb128 0x2
 2468 08f0 91       		.byte	0x91
 2469 08f1 04       		.sleb128 4
 2470 08f2 00       		.byte	0
 2471 08f3 09       		.uleb128 0x9
 2472 08f4 9F020000 		.4byte	.LASF57
 2473 08f8 01       		.byte	0x1
 2474 08f9 14       		.byte	0x14
 2475 08fa 99000000 		.4byte	0x99
 2476 08fe 05       		.uleb128 0x5
 2477 08ff 03       		.byte	0x3
 2478 0900 00000000 		.4byte	logging_flag
 2479 0904 09       		.uleb128 0x9
 2480 0905 DF030000 		.4byte	.LASF58
 2481 0909 01       		.byte	0x1
 2482 090a 15       		.byte	0x15
 2483 090b 99000000 		.4byte	0x99
 2484 090f 05       		.uleb128 0x5
 2485 0910 03       		.byte	0x3
 2486 0911 04000000 		.4byte	active_flag
 2487 0915 09       		.uleb128 0x9
ARM GAS  C:\Users\glenn\AppData\Local\Temp\ccV9538d.s 			page 53


 2488 0916 B8010000 		.4byte	.LASF59
 2489 091a 01       		.byte	0x1
 2490 091b 16       		.byte	0x16
 2491 091c 99000000 		.4byte	0x99
 2492 0920 05       		.uleb128 0x5
 2493 0921 03       		.byte	0x3
 2494 0922 08000000 		.4byte	measurement_minute_count
 2495 0926 11       		.uleb128 0x11
 2496 0927 A5000000 		.4byte	0xa5
 2497 092b 36090000 		.4byte	0x936
 2498 092f 12       		.uleb128 0x12
 2499 0930 BA000000 		.4byte	0xba
 2500 0934 08       		.byte	0x8
 2501 0935 00       		.byte	0
 2502 0936 09       		.uleb128 0x9
 2503 0937 48030000 		.4byte	.LASF60
 2504 093b 01       		.byte	0x1
 2505 093c 1D       		.byte	0x1d
 2506 093d 26090000 		.4byte	0x926
 2507 0941 05       		.uleb128 0x5
 2508 0942 03       		.byte	0x3
 2509 0943 0C000000 		.4byte	moisture_meaurements
 2510 0947 09       		.uleb128 0x9
 2511 0948 B2020000 		.4byte	.LASF61
 2512 094c 01       		.byte	0x1
 2513 094d 1E       		.byte	0x1e
 2514 094e A5000000 		.4byte	0xa5
 2515 0952 05       		.uleb128 0x5
 2516 0953 03       		.byte	0x3
 2517 0954 30000000 		.4byte	temp_c
 2518 0958 13       		.uleb128 0x13
 2519 0959 D9040000 		.4byte	.LASF62
 2520 095d 05       		.byte	0x5
 2521 095e 9606     		.2byte	0x696
 2522 0960 64090000 		.4byte	0x964
 2523 0964 14       		.uleb128 0x14
 2524 0965 76000000 		.4byte	0x76
 2525 0969 11       		.uleb128 0x11
 2526 096a 8D000000 		.4byte	0x8d
 2527 096e 79090000 		.4byte	0x979
 2528 0972 12       		.uleb128 0x12
 2529 0973 BA000000 		.4byte	0xba
 2530 0977 01       		.byte	0x1
 2531 0978 00       		.byte	0
 2532 0979 15       		.uleb128 0x15
 2533 097a B5000000 		.4byte	.LASF63
 2534 097e 06       		.byte	0x6
 2535 097f 77       		.byte	0x77
 2536 0980 84090000 		.4byte	0x984
 2537 0984 16       		.uleb128 0x16
 2538 0985 69090000 		.4byte	0x969
 2539 0989 00       		.byte	0
 2540              		.section	.debug_abbrev,"",%progbits
 2541              	.Ldebug_abbrev0:
 2542 0000 01       		.uleb128 0x1
 2543 0001 11       		.uleb128 0x11
 2544 0002 01       		.byte	0x1
ARM GAS  C:\Users\glenn\AppData\Local\Temp\ccV9538d.s 			page 54


 2545 0003 25       		.uleb128 0x25
 2546 0004 0E       		.uleb128 0xe
 2547 0005 13       		.uleb128 0x13
 2548 0006 0B       		.uleb128 0xb
 2549 0007 03       		.uleb128 0x3
 2550 0008 0E       		.uleb128 0xe
 2551 0009 1B       		.uleb128 0x1b
 2552 000a 0E       		.uleb128 0xe
 2553 000b 55       		.uleb128 0x55
 2554 000c 17       		.uleb128 0x17
 2555 000d 11       		.uleb128 0x11
 2556 000e 01       		.uleb128 0x1
 2557 000f 10       		.uleb128 0x10
 2558 0010 17       		.uleb128 0x17
 2559 0011 00       		.byte	0
 2560 0012 00       		.byte	0
 2561 0013 02       		.uleb128 0x2
 2562 0014 24       		.uleb128 0x24
 2563 0015 00       		.byte	0
 2564 0016 0B       		.uleb128 0xb
 2565 0017 0B       		.uleb128 0xb
 2566 0018 3E       		.uleb128 0x3e
 2567 0019 0B       		.uleb128 0xb
 2568 001a 03       		.uleb128 0x3
 2569 001b 0E       		.uleb128 0xe
 2570 001c 00       		.byte	0
 2571 001d 00       		.byte	0
 2572 001e 03       		.uleb128 0x3
 2573 001f 16       		.uleb128 0x16
 2574 0020 00       		.byte	0
 2575 0021 03       		.uleb128 0x3
 2576 0022 0E       		.uleb128 0xe
 2577 0023 3A       		.uleb128 0x3a
 2578 0024 0B       		.uleb128 0xb
 2579 0025 3B       		.uleb128 0x3b
 2580 0026 0B       		.uleb128 0xb
 2581 0027 49       		.uleb128 0x49
 2582 0028 13       		.uleb128 0x13
 2583 0029 00       		.byte	0
 2584 002a 00       		.byte	0
 2585 002b 04       		.uleb128 0x4
 2586 002c 24       		.uleb128 0x24
 2587 002d 00       		.byte	0
 2588 002e 0B       		.uleb128 0xb
 2589 002f 0B       		.uleb128 0xb
 2590 0030 3E       		.uleb128 0x3e
 2591 0031 0B       		.uleb128 0xb
 2592 0032 03       		.uleb128 0x3
 2593 0033 08       		.uleb128 0x8
 2594 0034 00       		.byte	0
 2595 0035 00       		.byte	0
 2596 0036 05       		.uleb128 0x5
 2597 0037 16       		.uleb128 0x16
 2598 0038 00       		.byte	0
 2599 0039 03       		.uleb128 0x3
 2600 003a 0E       		.uleb128 0xe
 2601 003b 3A       		.uleb128 0x3a
ARM GAS  C:\Users\glenn\AppData\Local\Temp\ccV9538d.s 			page 55


 2602 003c 0B       		.uleb128 0xb
 2603 003d 3B       		.uleb128 0x3b
 2604 003e 05       		.uleb128 0x5
 2605 003f 49       		.uleb128 0x49
 2606 0040 13       		.uleb128 0x13
 2607 0041 00       		.byte	0
 2608 0042 00       		.byte	0
 2609 0043 06       		.uleb128 0x6
 2610 0044 04       		.uleb128 0x4
 2611 0045 01       		.byte	0x1
 2612 0046 0B       		.uleb128 0xb
 2613 0047 0B       		.uleb128 0xb
 2614 0048 3A       		.uleb128 0x3a
 2615 0049 0B       		.uleb128 0xb
 2616 004a 3B       		.uleb128 0x3b
 2617 004b 0B       		.uleb128 0xb
 2618 004c 01       		.uleb128 0x1
 2619 004d 13       		.uleb128 0x13
 2620 004e 00       		.byte	0
 2621 004f 00       		.byte	0
 2622 0050 07       		.uleb128 0x7
 2623 0051 28       		.uleb128 0x28
 2624 0052 00       		.byte	0
 2625 0053 03       		.uleb128 0x3
 2626 0054 0E       		.uleb128 0xe
 2627 0055 1C       		.uleb128 0x1c
 2628 0056 0D       		.uleb128 0xd
 2629 0057 00       		.byte	0
 2630 0058 00       		.byte	0
 2631 0059 08       		.uleb128 0x8
 2632 005a 2E       		.uleb128 0x2e
 2633 005b 01       		.byte	0x1
 2634 005c 03       		.uleb128 0x3
 2635 005d 0E       		.uleb128 0xe
 2636 005e 3A       		.uleb128 0x3a
 2637 005f 0B       		.uleb128 0xb
 2638 0060 3B       		.uleb128 0x3b
 2639 0061 0B       		.uleb128 0xb
 2640 0062 27       		.uleb128 0x27
 2641 0063 19       		.uleb128 0x19
 2642 0064 49       		.uleb128 0x49
 2643 0065 13       		.uleb128 0x13
 2644 0066 11       		.uleb128 0x11
 2645 0067 01       		.uleb128 0x1
 2646 0068 12       		.uleb128 0x12
 2647 0069 06       		.uleb128 0x6
 2648 006a 40       		.uleb128 0x40
 2649 006b 18       		.uleb128 0x18
 2650 006c 9642     		.uleb128 0x2116
 2651 006e 19       		.uleb128 0x19
 2652 006f 01       		.uleb128 0x1
 2653 0070 13       		.uleb128 0x13
 2654 0071 00       		.byte	0
 2655 0072 00       		.byte	0
 2656 0073 09       		.uleb128 0x9
 2657 0074 34       		.uleb128 0x34
 2658 0075 00       		.byte	0
ARM GAS  C:\Users\glenn\AppData\Local\Temp\ccV9538d.s 			page 56


 2659 0076 03       		.uleb128 0x3
 2660 0077 0E       		.uleb128 0xe
 2661 0078 3A       		.uleb128 0x3a
 2662 0079 0B       		.uleb128 0xb
 2663 007a 3B       		.uleb128 0x3b
 2664 007b 0B       		.uleb128 0xb
 2665 007c 49       		.uleb128 0x49
 2666 007d 13       		.uleb128 0x13
 2667 007e 02       		.uleb128 0x2
 2668 007f 18       		.uleb128 0x18
 2669 0080 00       		.byte	0
 2670 0081 00       		.byte	0
 2671 0082 0A       		.uleb128 0xa
 2672 0083 05       		.uleb128 0x5
 2673 0084 00       		.byte	0
 2674 0085 03       		.uleb128 0x3
 2675 0086 0E       		.uleb128 0xe
 2676 0087 3A       		.uleb128 0x3a
 2677 0088 0B       		.uleb128 0xb
 2678 0089 3B       		.uleb128 0x3b
 2679 008a 0B       		.uleb128 0xb
 2680 008b 49       		.uleb128 0x49
 2681 008c 13       		.uleb128 0x13
 2682 008d 02       		.uleb128 0x2
 2683 008e 18       		.uleb128 0x18
 2684 008f 00       		.byte	0
 2685 0090 00       		.byte	0
 2686 0091 0B       		.uleb128 0xb
 2687 0092 2E       		.uleb128 0x2e
 2688 0093 01       		.byte	0x1
 2689 0094 3F       		.uleb128 0x3f
 2690 0095 19       		.uleb128 0x19
 2691 0096 03       		.uleb128 0x3
 2692 0097 0E       		.uleb128 0xe
 2693 0098 3A       		.uleb128 0x3a
 2694 0099 0B       		.uleb128 0xb
 2695 009a 3B       		.uleb128 0x3b
 2696 009b 0B       		.uleb128 0xb
 2697 009c 27       		.uleb128 0x27
 2698 009d 19       		.uleb128 0x19
 2699 009e 49       		.uleb128 0x49
 2700 009f 13       		.uleb128 0x13
 2701 00a0 11       		.uleb128 0x11
 2702 00a1 01       		.uleb128 0x1
 2703 00a2 12       		.uleb128 0x12
 2704 00a3 06       		.uleb128 0x6
 2705 00a4 40       		.uleb128 0x40
 2706 00a5 18       		.uleb128 0x18
 2707 00a6 9642     		.uleb128 0x2116
 2708 00a8 19       		.uleb128 0x19
 2709 00a9 01       		.uleb128 0x1
 2710 00aa 13       		.uleb128 0x13
 2711 00ab 00       		.byte	0
 2712 00ac 00       		.byte	0
 2713 00ad 0C       		.uleb128 0xc
 2714 00ae 2E       		.uleb128 0x2e
 2715 00af 00       		.byte	0
ARM GAS  C:\Users\glenn\AppData\Local\Temp\ccV9538d.s 			page 57


 2716 00b0 3F       		.uleb128 0x3f
 2717 00b1 19       		.uleb128 0x19
 2718 00b2 03       		.uleb128 0x3
 2719 00b3 0E       		.uleb128 0xe
 2720 00b4 3A       		.uleb128 0x3a
 2721 00b5 0B       		.uleb128 0xb
 2722 00b6 3B       		.uleb128 0x3b
 2723 00b7 0B       		.uleb128 0xb
 2724 00b8 27       		.uleb128 0x27
 2725 00b9 19       		.uleb128 0x19
 2726 00ba 11       		.uleb128 0x11
 2727 00bb 01       		.uleb128 0x1
 2728 00bc 12       		.uleb128 0x12
 2729 00bd 06       		.uleb128 0x6
 2730 00be 40       		.uleb128 0x40
 2731 00bf 18       		.uleb128 0x18
 2732 00c0 9642     		.uleb128 0x2116
 2733 00c2 19       		.uleb128 0x19
 2734 00c3 00       		.byte	0
 2735 00c4 00       		.byte	0
 2736 00c5 0D       		.uleb128 0xd
 2737 00c6 2E       		.uleb128 0x2e
 2738 00c7 01       		.byte	0x1
 2739 00c8 3F       		.uleb128 0x3f
 2740 00c9 19       		.uleb128 0x19
 2741 00ca 03       		.uleb128 0x3
 2742 00cb 0E       		.uleb128 0xe
 2743 00cc 3A       		.uleb128 0x3a
 2744 00cd 0B       		.uleb128 0xb
 2745 00ce 3B       		.uleb128 0x3b
 2746 00cf 05       		.uleb128 0x5
 2747 00d0 27       		.uleb128 0x27
 2748 00d1 19       		.uleb128 0x19
 2749 00d2 49       		.uleb128 0x49
 2750 00d3 13       		.uleb128 0x13
 2751 00d4 11       		.uleb128 0x11
 2752 00d5 01       		.uleb128 0x1
 2753 00d6 12       		.uleb128 0x12
 2754 00d7 06       		.uleb128 0x6
 2755 00d8 40       		.uleb128 0x40
 2756 00d9 18       		.uleb128 0x18
 2757 00da 9642     		.uleb128 0x2116
 2758 00dc 19       		.uleb128 0x19
 2759 00dd 01       		.uleb128 0x1
 2760 00de 13       		.uleb128 0x13
 2761 00df 00       		.byte	0
 2762 00e0 00       		.byte	0
 2763 00e1 0E       		.uleb128 0xe
 2764 00e2 05       		.uleb128 0x5
 2765 00e3 00       		.byte	0
 2766 00e4 03       		.uleb128 0x3
 2767 00e5 0E       		.uleb128 0xe
 2768 00e6 3A       		.uleb128 0x3a
 2769 00e7 0B       		.uleb128 0xb
 2770 00e8 3B       		.uleb128 0x3b
 2771 00e9 05       		.uleb128 0x5
 2772 00ea 49       		.uleb128 0x49
ARM GAS  C:\Users\glenn\AppData\Local\Temp\ccV9538d.s 			page 58


 2773 00eb 13       		.uleb128 0x13
 2774 00ec 02       		.uleb128 0x2
 2775 00ed 18       		.uleb128 0x18
 2776 00ee 00       		.byte	0
 2777 00ef 00       		.byte	0
 2778 00f0 0F       		.uleb128 0xf
 2779 00f1 34       		.uleb128 0x34
 2780 00f2 00       		.byte	0
 2781 00f3 03       		.uleb128 0x3
 2782 00f4 08       		.uleb128 0x8
 2783 00f5 3A       		.uleb128 0x3a
 2784 00f6 0B       		.uleb128 0xb
 2785 00f7 3B       		.uleb128 0x3b
 2786 00f8 05       		.uleb128 0x5
 2787 00f9 49       		.uleb128 0x49
 2788 00fa 13       		.uleb128 0x13
 2789 00fb 02       		.uleb128 0x2
 2790 00fc 18       		.uleb128 0x18
 2791 00fd 00       		.byte	0
 2792 00fe 00       		.byte	0
 2793 00ff 10       		.uleb128 0x10
 2794 0100 34       		.uleb128 0x34
 2795 0101 00       		.byte	0
 2796 0102 03       		.uleb128 0x3
 2797 0103 0E       		.uleb128 0xe
 2798 0104 3A       		.uleb128 0x3a
 2799 0105 0B       		.uleb128 0xb
 2800 0106 3B       		.uleb128 0x3b
 2801 0107 05       		.uleb128 0x5
 2802 0108 49       		.uleb128 0x49
 2803 0109 13       		.uleb128 0x13
 2804 010a 02       		.uleb128 0x2
 2805 010b 18       		.uleb128 0x18
 2806 010c 00       		.byte	0
 2807 010d 00       		.byte	0
 2808 010e 11       		.uleb128 0x11
 2809 010f 01       		.uleb128 0x1
 2810 0110 01       		.byte	0x1
 2811 0111 49       		.uleb128 0x49
 2812 0112 13       		.uleb128 0x13
 2813 0113 01       		.uleb128 0x1
 2814 0114 13       		.uleb128 0x13
 2815 0115 00       		.byte	0
 2816 0116 00       		.byte	0
 2817 0117 12       		.uleb128 0x12
 2818 0118 21       		.uleb128 0x21
 2819 0119 00       		.byte	0
 2820 011a 49       		.uleb128 0x49
 2821 011b 13       		.uleb128 0x13
 2822 011c 2F       		.uleb128 0x2f
 2823 011d 0B       		.uleb128 0xb
 2824 011e 00       		.byte	0
 2825 011f 00       		.byte	0
 2826 0120 13       		.uleb128 0x13
 2827 0121 34       		.uleb128 0x34
 2828 0122 00       		.byte	0
 2829 0123 03       		.uleb128 0x3
ARM GAS  C:\Users\glenn\AppData\Local\Temp\ccV9538d.s 			page 59


 2830 0124 0E       		.uleb128 0xe
 2831 0125 3A       		.uleb128 0x3a
 2832 0126 0B       		.uleb128 0xb
 2833 0127 3B       		.uleb128 0x3b
 2834 0128 05       		.uleb128 0x5
 2835 0129 49       		.uleb128 0x49
 2836 012a 13       		.uleb128 0x13
 2837 012b 3F       		.uleb128 0x3f
 2838 012c 19       		.uleb128 0x19
 2839 012d 3C       		.uleb128 0x3c
 2840 012e 19       		.uleb128 0x19
 2841 012f 00       		.byte	0
 2842 0130 00       		.byte	0
 2843 0131 14       		.uleb128 0x14
 2844 0132 35       		.uleb128 0x35
 2845 0133 00       		.byte	0
 2846 0134 49       		.uleb128 0x49
 2847 0135 13       		.uleb128 0x13
 2848 0136 00       		.byte	0
 2849 0137 00       		.byte	0
 2850 0138 15       		.uleb128 0x15
 2851 0139 34       		.uleb128 0x34
 2852 013a 00       		.byte	0
 2853 013b 03       		.uleb128 0x3
 2854 013c 0E       		.uleb128 0xe
 2855 013d 3A       		.uleb128 0x3a
 2856 013e 0B       		.uleb128 0xb
 2857 013f 3B       		.uleb128 0x3b
 2858 0140 0B       		.uleb128 0xb
 2859 0141 49       		.uleb128 0x49
 2860 0142 13       		.uleb128 0x13
 2861 0143 3F       		.uleb128 0x3f
 2862 0144 19       		.uleb128 0x19
 2863 0145 3C       		.uleb128 0x3c
 2864 0146 19       		.uleb128 0x19
 2865 0147 00       		.byte	0
 2866 0148 00       		.byte	0
 2867 0149 16       		.uleb128 0x16
 2868 014a 26       		.uleb128 0x26
 2869 014b 00       		.byte	0
 2870 014c 49       		.uleb128 0x49
 2871 014d 13       		.uleb128 0x13
 2872 014e 00       		.byte	0
 2873 014f 00       		.byte	0
 2874 0150 00       		.byte	0
 2875              		.section	.debug_aranges,"",%progbits
 2876 0000 A4000000 		.4byte	0xa4
 2877 0004 0200     		.2byte	0x2
 2878 0006 00000000 		.4byte	.Ldebug_info0
 2879 000a 04       		.byte	0x4
 2880 000b 00       		.byte	0
 2881 000c 0000     		.2byte	0
 2882 000e 0000     		.2byte	0
 2883 0010 00000000 		.4byte	.LFB65
 2884 0014 94000000 		.4byte	.LFE65-.LFB65
 2885 0018 00000000 		.4byte	.LFB66
 2886 001c 6C010000 		.4byte	.LFE66-.LFB66
ARM GAS  C:\Users\glenn\AppData\Local\Temp\ccV9538d.s 			page 60


 2887 0020 00000000 		.4byte	.LFB67
 2888 0024 58000000 		.4byte	.LFE67-.LFB67
 2889 0028 00000000 		.4byte	.LFB68
 2890 002c 12000000 		.4byte	.LFE68-.LFB68
 2891 0030 00000000 		.4byte	.LFB69
 2892 0034 28000000 		.4byte	.LFE69-.LFB69
 2893 0038 00000000 		.4byte	.LFB70
 2894 003c 54000000 		.4byte	.LFE70-.LFB70
 2895 0040 00000000 		.4byte	.LFB71
 2896 0044 4C000000 		.4byte	.LFE71-.LFB71
 2897 0048 00000000 		.4byte	.LFB72
 2898 004c 70000000 		.4byte	.LFE72-.LFB72
 2899 0050 00000000 		.4byte	.LFB73
 2900 0054 32000000 		.4byte	.LFE73-.LFB73
 2901 0058 00000000 		.4byte	.LFB74
 2902 005c 1C000000 		.4byte	.LFE74-.LFB74
 2903 0060 00000000 		.4byte	.LFB75
 2904 0064 28000000 		.4byte	.LFE75-.LFB75
 2905 0068 00000000 		.4byte	.LFB76
 2906 006c D0000000 		.4byte	.LFE76-.LFB76
 2907 0070 00000000 		.4byte	.LFB77
 2908 0074 24000000 		.4byte	.LFE77-.LFB77
 2909 0078 00000000 		.4byte	.LFB78
 2910 007c 76000000 		.4byte	.LFE78-.LFB78
 2911 0080 00000000 		.4byte	.LFB79
 2912 0084 34000000 		.4byte	.LFE79-.LFB79
 2913 0088 00000000 		.4byte	.LFB80
 2914 008c 20000000 		.4byte	.LFE80-.LFB80
 2915 0090 00000000 		.4byte	.LFB81
 2916 0094 1C000000 		.4byte	.LFE81-.LFB81
 2917 0098 00000000 		.4byte	.LFB82
 2918 009c 1C000000 		.4byte	.LFE82-.LFB82
 2919 00a0 00000000 		.4byte	0
 2920 00a4 00000000 		.4byte	0
 2921              		.section	.debug_ranges,"",%progbits
 2922              	.Ldebug_ranges0:
 2923 0000 00000000 		.4byte	.LFB65
 2924 0004 94000000 		.4byte	.LFE65
 2925 0008 00000000 		.4byte	.LFB66
 2926 000c 6C010000 		.4byte	.LFE66
 2927 0010 00000000 		.4byte	.LFB67
 2928 0014 58000000 		.4byte	.LFE67
 2929 0018 00000000 		.4byte	.LFB68
 2930 001c 12000000 		.4byte	.LFE68
 2931 0020 00000000 		.4byte	.LFB69
 2932 0024 28000000 		.4byte	.LFE69
 2933 0028 00000000 		.4byte	.LFB70
 2934 002c 54000000 		.4byte	.LFE70
 2935 0030 00000000 		.4byte	.LFB71
 2936 0034 4C000000 		.4byte	.LFE71
 2937 0038 00000000 		.4byte	.LFB72
 2938 003c 70000000 		.4byte	.LFE72
 2939 0040 00000000 		.4byte	.LFB73
 2940 0044 32000000 		.4byte	.LFE73
 2941 0048 00000000 		.4byte	.LFB74
 2942 004c 1C000000 		.4byte	.LFE74
 2943 0050 00000000 		.4byte	.LFB75
ARM GAS  C:\Users\glenn\AppData\Local\Temp\ccV9538d.s 			page 61


 2944 0054 28000000 		.4byte	.LFE75
 2945 0058 00000000 		.4byte	.LFB76
 2946 005c D0000000 		.4byte	.LFE76
 2947 0060 00000000 		.4byte	.LFB77
 2948 0064 24000000 		.4byte	.LFE77
 2949 0068 00000000 		.4byte	.LFB78
 2950 006c 76000000 		.4byte	.LFE78
 2951 0070 00000000 		.4byte	.LFB79
 2952 0074 34000000 		.4byte	.LFE79
 2953 0078 00000000 		.4byte	.LFB80
 2954 007c 20000000 		.4byte	.LFE80
 2955 0080 00000000 		.4byte	.LFB81
 2956 0084 1C000000 		.4byte	.LFE81
 2957 0088 00000000 		.4byte	.LFB82
 2958 008c 1C000000 		.4byte	.LFE82
 2959 0090 00000000 		.4byte	0
 2960 0094 00000000 		.4byte	0
 2961              		.section	.debug_line,"",%progbits
 2962              	.Ldebug_line0:
 2963 0000 8C030000 		.section	.debug_str,"MS",%progbits,1
 2963      0200A801 
 2963      00000201 
 2963      FB0E0D00 
 2963      01010101 
 2964              	.LASF40:
 2965 0000 696E6974 		.ascii	"init_moisture_processing\000"
 2965      5F6D6F69 
 2965      73747572 
 2965      655F7072 
 2965      6F636573 
 2966              	.LASF18:
 2967 0019 4E4F545F 		.ascii	"NOT_POPULATED\000"
 2967      504F5055 
 2967      4C415445 
 2967      4400
 2968              	.LASF64:
 2969 0027 474E5520 		.ascii	"GNU C 4.9.3 20150303 (release) [ARM/embedded-4_9-br"
 2969      4320342E 
 2969      392E3320 
 2969      32303135 
 2969      30333033 
 2970 005a 616E6368 		.ascii	"anch revision 221220] -mcpu=cortex-m3 -mthumb -g -O"
 2970      20726576 
 2970      6973696F 
 2970      6E203232 
 2970      31323230 
 2971 008d 30202D66 		.ascii	"0 -ffunction-sections -ffat-lto-objects\000"
 2971      66756E63 
 2971      74696F6E 
 2971      2D736563 
 2971      74696F6E 
 2972              	.LASF63:
 2973 00b5 6D6F6462 		.ascii	"modbus_address_data\000"
 2973      75735F61 
 2973      64647265 
 2973      73735F64 
 2973      61746100 
ARM GAS  C:\Users\glenn\AppData\Local\Temp\ccV9538d.s 			page 62


 2974              	.LASF37:
 2975 00c9 70617261 		.ascii	"param_3\000"
 2975      6D5F3300 
 2976              	.LASF29:
 2977 00d1 736F7572 		.ascii	"source_current\000"
 2977      63655F63 
 2977      75727265 
 2977      6E7400
 2978              	.LASF47:
 2979 00e0 72656D6F 		.ascii	"remove_power\000"
 2979      76655F70 
 2979      6F776572 
 2979      00
 2980              	.LASF43:
 2981 00ed 74656D70 		.ascii	"temp\000"
 2981      00
 2982              	.LASF2:
 2983 00f2 73686F72 		.ascii	"short int\000"
 2983      7420696E 
 2983      7400
 2984              	.LASF54:
 2985 00fc 73657475 		.ascii	"setup_soil_temperature_measurements\000"
 2985      705F736F 
 2985      696C5F74 
 2985      656D7065 
 2985      72617475 
 2986              	.LASF17:
 2987 0120 73697A65 		.ascii	"sizetype\000"
 2987      74797065 
 2987      00
 2988              	.LASF42:
 2989 0129 63686563 		.ascii	"check_moisture_active_flag\000"
 2989      6B5F6D6F 
 2989      69737475 
 2989      72655F61 
 2989      63746976 
 2990              	.LASF34:
 2991 0144 6C696E6B 		.ascii	"link_id\000"
 2991      5F696400 
 2992              	.LASF26:
 2993 014c 73656E73 		.ascii	"sensor_voltage\000"
 2993      6F725F76 
 2993      6F6C7461 
 2993      676500
 2994              	.LASF44:
 2995 015b 63686563 		.ascii	"check_logging_active_flag\000"
 2995      6B5F6C6F 
 2995      6767696E 
 2995      675F6163 
 2995      74697665 
 2996              	.LASF28:
 2997 0175 6D656173 		.ascii	"measurement\000"
 2997      7572656D 
 2997      656E7400 
 2998              	.LASF35:
 2999 0181 70617261 		.ascii	"param_1\000"
 2999      6D5F3100 
ARM GAS  C:\Users\glenn\AppData\Local\Temp\ccV9538d.s 			page 63


 3000              	.LASF36:
 3001 0189 70617261 		.ascii	"param_2\000"
 3001      6D5F3200 
 3002              	.LASF21:
 3003 0191 6765745F 		.ascii	"get_soil_temperature\000"
 3003      736F696C 
 3003      5F74656D 
 3003      70657261 
 3003      74757265 
 3004              	.LASF20:
 3005 01a6 57415445 		.ascii	"WATER_MARK\000"
 3005      525F4D41 
 3005      524B00
 3006              	.LASF12:
 3007 01b1 75696E74 		.ascii	"uint16\000"
 3007      313600
 3008              	.LASF59:
 3009 01b8 6D656173 		.ascii	"measurement_minute_count\000"
 3009      7572656D 
 3009      656E745F 
 3009      6D696E75 
 3009      74655F63 
 3010              	.LASF46:
 3011 01d1 6D696E75 		.ascii	"minute_count_limit\000"
 3011      74655F63 
 3011      6F756E74 
 3011      5F6C696D 
 3011      697400
 3012              	.LASF38:
 3013 01e4 6576656E 		.ascii	"event\000"
 3013      7400
 3014              	.LASF14:
 3015 01ea 666C6F61 		.ascii	"float\000"
 3015      7400
 3016              	.LASF24:
 3017 01f0 68696768 		.ascii	"high_voltage\000"
 3017      5F766F6C 
 3017      74616765 
 3017      00
 3018              	.LASF6:
 3019 01fd 6C6F6E67 		.ascii	"long long int\000"
 3019      206C6F6E 
 3019      6720696E 
 3019      7400
 3020              	.LASF65:
 3021 020b 2E5C6D6F 		.ascii	".\\moisture_measurement\\moisture_measurements.c\000"
 3021      69737475 
 3021      72655F6D 
 3021      65617375 
 3021      72656D65 
 3022              	.LASF19:
 3023 023a 52455349 		.ascii	"RESISTIVE_ELEMENT\000"
 3023      53544956 
 3023      455F454C 
 3023      454D454E 
 3023      5400
 3024              	.LASF67:
ARM GAS  C:\Users\glenn\AppData\Local\Temp\ccV9538d.s 			page 64


 3025 024c 70726F63 		.ascii	"process_moisture_interval_interrupt\000"
 3025      6573735F 
 3025      6D6F6973 
 3025      74757265 
 3025      5F696E74 
 3026              	.LASF52:
 3027 0270 6D616B65 		.ascii	"make_dummy_measurement\000"
 3027      5F64756D 
 3027      6D795F6D 
 3027      65617375 
 3027      72656D65 
 3028              	.LASF50:
 3029 0287 6D616B65 		.ascii	"make_source_measurement\000"
 3029      5F736F75 
 3029      7263655F 
 3029      6D656173 
 3029      7572656D 
 3030              	.LASF57:
 3031 029f 6C6F6767 		.ascii	"logging_flag\000"
 3031      696E675F 
 3031      666C6167 
 3031      00
 3032              	.LASF11:
 3033 02ac 75696E74 		.ascii	"uint8\000"
 3033      3800
 3034              	.LASF61:
 3035 02b2 74656D70 		.ascii	"temp_c\000"
 3035      5F6300
 3036              	.LASF1:
 3037 02b9 756E7369 		.ascii	"unsigned char\000"
 3037      676E6564 
 3037      20636861 
 3037      7200
 3038              	.LASF27:
 3039 02c7 74656D70 		.ascii	"temp_f\000"
 3039      5F6600
 3040              	.LASF55:
 3041 02ce 6D656173 		.ascii	"measure_soil_temperature\000"
 3041      7572655F 
 3041      736F696C 
 3041      5F74656D 
 3041      70657261 
 3042              	.LASF0:
 3043 02e7 7369676E 		.ascii	"signed char\000"
 3043      65642063 
 3043      68617200 
 3044              	.LASF7:
 3045 02f3 6C6F6E67 		.ascii	"long long unsigned int\000"
 3045      206C6F6E 
 3045      6720756E 
 3045      7369676E 
 3045      65642069 
 3046              	.LASF66:
 3047 030a 433A5C55 		.ascii	"C:\\Users\\glenn\\OneDrive\\PSOC\\moisture_sensor\\"
 3047      73657273 
 3047      5C676C65 
 3047      6E6E5C4F 
ARM GAS  C:\Users\glenn\AppData\Local\Temp\ccV9538d.s 			page 65


 3047      6E654472 
 3048 0337 5553425F 		.ascii	"USB_UART01.cydsn\000"
 3048      55415254 
 3048      30312E63 
 3048      7964736E 
 3048      00
 3049              	.LASF60:
 3050 0348 6D6F6973 		.ascii	"moisture_meaurements\000"
 3050      74757265 
 3050      5F6D6561 
 3050      7572656D 
 3050      656E7473 
 3051              	.LASF8:
 3052 035d 756E7369 		.ascii	"unsigned int\000"
 3052      676E6564 
 3052      20696E74 
 3052      00
 3053              	.LASF22:
 3054 036a 73746F72 		.ascii	"store_moisture_data\000"
 3054      655F6D6F 
 3054      69737475 
 3054      72655F64 
 3054      61746100 
 3055              	.LASF25:
 3056 037e 6C6F775F 		.ascii	"low_voltage\000"
 3056      766F6C74 
 3056      61676500 
 3057              	.LASF3:
 3058 038a 73686F72 		.ascii	"short unsigned int\000"
 3058      7420756E 
 3058      7369676E 
 3058      65642069 
 3058      6E7400
 3059              	.LASF41:
 3060 039d 7365745F 		.ascii	"set_up_moisture_interrupt\000"
 3060      75705F6D 
 3060      6F697374 
 3060      7572655F 
 3060      696E7465 
 3061              	.LASF16:
 3062 03b7 63686172 		.ascii	"char\000"
 3062      00
 3063              	.LASF4:
 3064 03bc 6C6F6E67 		.ascii	"long int\000"
 3064      20696E74 
 3064      00
 3065              	.LASF30:
 3066 03c5 736F7572 		.ascii	"source_resistance\000"
 3066      63655F72 
 3066      65736973 
 3066      74616E63 
 3066      6500
 3067              	.LASF10:
 3068 03d7 696E7433 		.ascii	"int32_t\000"
 3068      325F7400 
 3069              	.LASF58:
 3070 03df 61637469 		.ascii	"active_flag\000"
ARM GAS  C:\Users\glenn\AppData\Local\Temp\ccV9538d.s 			page 66


 3070      76655F66 
 3070      6C616700 
 3071              	.LASF53:
 3072 03eb 75706461 		.ascii	"update_new_measurement_available\000"
 3072      74655F6E 
 3072      65775F6D 
 3072      65617375 
 3072      72656D65 
 3073              	.LASF32:
 3074 040c 73656E73 		.ascii	"sensor_type\000"
 3074      6F725F74 
 3074      79706500 
 3075              	.LASF39:
 3076 0418 64617461 		.ascii	"data\000"
 3076      00
 3077              	.LASF23:
 3078 041d 63757272 		.ascii	"current_channel\000"
 3078      656E745F 
 3078      6368616E 
 3078      6E656C00 
 3079              	.LASF49:
 3080 042d 7365745F 		.ascii	"set_source_channel\000"
 3080      736F7572 
 3080      63655F63 
 3080      68616E6E 
 3080      656C00
 3081              	.LASF45:
 3082 0440 63686563 		.ascii	"check_for_moisture_measurement\000"
 3082      6B5F666F 
 3082      725F6D6F 
 3082      69737475 
 3082      72655F6D 
 3083              	.LASF5:
 3084 045f 6C6F6E67 		.ascii	"long unsigned int\000"
 3084      20756E73 
 3084      69676E65 
 3084      6420696E 
 3084      7400
 3085              	.LASF13:
 3086 0471 75696E74 		.ascii	"uint32\000"
 3086      333200
 3087              	.LASF33:
 3088 0478 74656D70 		.ascii	"temperature\000"
 3088      65726174 
 3088      75726500 
 3089              	.LASF51:
 3090 0484 7365745F 		.ascii	"set_sink_channel\000"
 3090      73696E6B 
 3090      5F636861 
 3090      6E6E656C 
 3090      00
 3091              	.LASF9:
 3092 0495 5F5F696E 		.ascii	"__int32_t\000"
 3092      7433325F 
 3092      7400
 3093              	.LASF56:
 3094 049f 75706461 		.ascii	"update_soil_temperature_minute\000"
ARM GAS  C:\Users\glenn\AppData\Local\Temp\ccV9538d.s 			page 67


 3094      74655F73 
 3094      6F696C5F 
 3094      74656D70 
 3094      65726174 
 3095              	.LASF48:
 3096 04be 7475726E 		.ascii	"turn_on_timer_clock\000"
 3096      5F6F6E5F 
 3096      74696D65 
 3096      725F636C 
 3096      6F636B00 
 3097              	.LASF15:
 3098 04d2 646F7562 		.ascii	"double\000"
 3098      6C6500
 3099              	.LASF62:
 3100 04d9 49544D5F 		.ascii	"ITM_RxBuffer\000"
 3100      52784275 
 3100      66666572 
 3100      00
 3101              	.LASF31:
 3102 04e6 72656665 		.ascii	"reference_resistance\000"
 3102      72656E63 
 3102      655F7265 
 3102      73697374 
 3102      616E6365 
 3103              		.ident	"GCC: (GNU Tools for ARM Embedded Processors) 4.9.3 20150303 (release) [ARM/embedded-4_9-br
