ARM GAS  C:\Users\glenn\AppData\Local\Temp\ccV9538d.s 			page 1


   1              		.syntax unified
   2              		.cpu cortex-m3
   3              		.fpu softvfp
   4              		.eabi_attribute 20, 1
   5              		.eabi_attribute 21, 1
   6              		.eabi_attribute 23, 3
   7              		.eabi_attribute 24, 1
   8              		.eabi_attribute 25, 1
   9              		.eabi_attribute 26, 1
  10              		.eabi_attribute 30, 6
  11              		.eabi_attribute 34, 1
  12              		.eabi_attribute 18, 4
  13              		.thumb
  14              		.file	"moisture_measurements.c"
  15              		.text
  16              	.Ltext0:
  17              		.cfi_sections	.debug_frame
  18              		.bss
  19              		.align	2
  20              	logging_flag:
  21 0000 00000000 		.space	4
  22              		.align	2
  23              	active_flag:
  24 0004 00000000 		.space	4
  25              		.align	2
  26              	measurement_minute_count:
  27 0008 00000000 		.space	4
  28              		.align	2
  29              	moisture_meaurements:
  30 000c 00000000 		.space	36
  30      00000000 
  30      00000000 
  30      00000000 
  30      00000000 
  31              		.align	2
  32              	temp_c:
  33 0030 00000000 		.space	4
  34              		.global	__aeabi_fcmplt
  35              		.global	__aeabi_fsub
  36              		.global	__aeabi_f2d
  37              		.global	__aeabi_dmul
  38              		.global	__aeabi_ddiv
  39              		.global	__aeabi_d2f
  40              		.section	.text.get_soil_temperature,"ax",%progbits
  41              		.align	2
  42              		.thumb
  43              		.thumb_func
  44              		.type	get_soil_temperature, %function
  45              	get_soil_temperature:
  46              	.LFB65:
  47              		.file 1 ".\\moisture_measurement\\moisture_measurements.c"
   1:.\moisture_measurement/moisture_measurements.c **** /*
   2:.\moisture_measurement/moisture_measurements.c **** **
   3:.\moisture_measurement/moisture_measurements.c **** ** File: moisture_measurements.c
   4:.\moisture_measurement/moisture_measurements.c **** **
   5:.\moisture_measurement/moisture_measurements.c **** **
   6:.\moisture_measurement/moisture_measurements.c **** **
ARM GAS  C:\Users\glenn\AppData\Local\Temp\ccV9538d.s 			page 2


   7:.\moisture_measurement/moisture_measurements.c **** */
   8:.\moisture_measurement/moisture_measurements.c **** 
   9:.\moisture_measurement/moisture_measurements.c **** #include <device.h>
  10:.\moisture_measurement/moisture_measurements.c **** #include "cf_external_functions.h"
  11:.\moisture_measurement/moisture_measurements.c **** #include "moisture_measurements.h"
  12:.\moisture_measurement/moisture_measurements.c **** #include "a_to_d_functions.h"
  13:.\moisture_measurement/moisture_measurements.c **** #include "cf_events.h"
  14:.\moisture_measurement/moisture_measurements.c **** #include "cb_logging.h"
  15:.\moisture_measurement/moisture_measurements.c **** #include "process_modbus_message.h"
  16:.\moisture_measurement/moisture_measurements.c **** #include "digitial_io.h"
  17:.\moisture_measurement/moisture_measurements.c **** 
  18:.\moisture_measurement/moisture_measurements.c **** 
  19:.\moisture_measurement/moisture_measurements.c **** 
  20:.\moisture_measurement/moisture_measurements.c **** static uint32 logging_flag;
  21:.\moisture_measurement/moisture_measurements.c **** static uint32 active_flag = 0;
  22:.\moisture_measurement/moisture_measurements.c **** static uint32 measurement_minute_count = 0;
  23:.\moisture_measurement/moisture_measurements.c **** 
  24:.\moisture_measurement/moisture_measurements.c **** 
  25:.\moisture_measurement/moisture_measurements.c **** 
  26:.\moisture_measurement/moisture_measurements.c **** 
  27:.\moisture_measurement/moisture_measurements.c **** 
  28:.\moisture_measurement/moisture_measurements.c **** 
  29:.\moisture_measurement/moisture_measurements.c **** static float moisture_meaurements[ MOISTURE_SENSOR_NUMBER ];
  30:.\moisture_measurement/moisture_measurements.c **** static float temp_c;
  31:.\moisture_measurement/moisture_measurements.c **** static float inline get_soil_temperature( void )
  32:.\moisture_measurement/moisture_measurements.c **** {
  48              		.loc 1 32 0
  49              		.cfi_startproc
  50              		@ args = 0, pretend = 0, frame = 8
  51              		@ frame_needed = 1, uses_anonymous_args = 0
  52 0000 80B5     		push	{r7, lr}
  53              		.cfi_def_cfa_offset 8
  54              		.cfi_offset 7, -8
  55              		.cfi_offset 14, -4
  56 0002 82B0     		sub	sp, sp, #8
  57              		.cfi_def_cfa_offset 16
  58 0004 00AF     		add	r7, sp, #0
  59              		.cfi_def_cfa_register 7
  33:.\moisture_measurement/moisture_measurements.c ****     float temp_f;
  34:.\moisture_measurement/moisture_measurements.c ****     
  35:.\moisture_measurement/moisture_measurements.c ****     
  36:.\moisture_measurement/moisture_measurements.c ****     get_modbus_data_registers( MOISTURE_TEMP_DC_SEC_FLOAT , 2, (uint16 *)&temp_f );
  60              		.loc 1 36 0
  61 0006 3B1D     		adds	r3, r7, #4
  62 0008 2C20     		movs	r0, #44
  63 000a 0221     		movs	r1, #2
  64 000c 1A46     		mov	r2, r3
  65 000e FFF7FEFF 		bl	get_modbus_data_registers
  37:.\moisture_measurement/moisture_measurements.c ****     if( temp_f < 0 )
  66              		.loc 1 37 0
  67 0012 7B68     		ldr	r3, [r7, #4]	@ float
  68 0014 1846     		mov	r0, r3
  69 0016 4FF00001 		mov	r1, #0
  70 001a FFF7FEFF 		bl	__aeabi_fcmplt
  71 001e 0346     		mov	r3, r0
  72 0020 002B     		cmp	r3, #0
  73 0022 03D0     		beq	.L7
ARM GAS  C:\Users\glenn\AppData\Local\Temp\ccV9538d.s 			page 3


  38:.\moisture_measurement/moisture_measurements.c ****     {
  39:.\moisture_measurement/moisture_measurements.c ****         temp_c = 20.0;
  74              		.loc 1 39 0
  75 0024 174B     		ldr	r3, .L8
  76 0026 184A     		ldr	r2, .L8+4
  77 0028 1A60     		str	r2, [r3]	@ float
  78 002a 24E0     		b	.L4
  79              	.L7:
  40:.\moisture_measurement/moisture_measurements.c ****     }
  41:.\moisture_measurement/moisture_measurements.c ****     else
  42:.\moisture_measurement/moisture_measurements.c ****     {
  43:.\moisture_measurement/moisture_measurements.c ****         temp_c = (temp_f-32)*5.0/9.0;
  80              		.loc 1 43 0
  81 002c 7B68     		ldr	r3, [r7, #4]	@ float
  82 002e 1846     		mov	r0, r3
  83 0030 4FF08441 		mov	r1, #1107296256
  84 0034 FFF7FEFF 		bl	__aeabi_fsub
  85 0038 0346     		mov	r3, r0
  86 003a 1846     		mov	r0, r3
  87 003c FFF7FEFF 		bl	__aeabi_f2d
  88 0040 0246     		mov	r2, r0
  89 0042 0B46     		mov	r3, r1
  90 0044 1046     		mov	r0, r2
  91 0046 1946     		mov	r1, r3
  92 0048 4FF00002 		mov	r2, #0
  93 004c 0F4B     		ldr	r3, .L8+8
  94 004e FFF7FEFF 		bl	__aeabi_dmul
  95 0052 0246     		mov	r2, r0
  96 0054 0B46     		mov	r3, r1
  97 0056 1046     		mov	r0, r2
  98 0058 1946     		mov	r1, r3
  99 005a 4FF00002 		mov	r2, #0
 100 005e 0C4B     		ldr	r3, .L8+12
 101 0060 FFF7FEFF 		bl	__aeabi_ddiv
 102 0064 0246     		mov	r2, r0
 103 0066 0B46     		mov	r3, r1
 104 0068 1046     		mov	r0, r2
 105 006a 1946     		mov	r1, r3
 106 006c FFF7FEFF 		bl	__aeabi_d2f
 107 0070 0246     		mov	r2, r0
 108 0072 044B     		ldr	r3, .L8
 109 0074 1A60     		str	r2, [r3]	@ float
 110              	.L4:
  44:.\moisture_measurement/moisture_measurements.c ****     }
  45:.\moisture_measurement/moisture_measurements.c ****     return temp_c;
 111              		.loc 1 45 0
 112 0076 034B     		ldr	r3, .L8
 113 0078 1B68     		ldr	r3, [r3]	@ float
  46:.\moisture_measurement/moisture_measurements.c **** }
 114              		.loc 1 46 0
 115 007a 1846     		mov	r0, r3
 116 007c 0837     		adds	r7, r7, #8
 117              		.cfi_def_cfa_offset 8
 118 007e BD46     		mov	sp, r7
 119              		.cfi_def_cfa_register 13
 120              		@ sp needed
 121 0080 80BD     		pop	{r7, pc}
ARM GAS  C:\Users\glenn\AppData\Local\Temp\ccV9538d.s 			page 4


 122              	.L9:
 123 0082 00BF     		.align	2
 124              	.L8:
 125 0084 30000000 		.word	temp_c
 126 0088 0000A041 		.word	1101004800
 127 008c 00001440 		.word	1075052544
 128 0090 00002240 		.word	1075970048
 129              		.cfi_endproc
 130              	.LFE65:
 131              		.size	get_soil_temperature, .-get_soil_temperature
 132              		.global	__aeabi_fdiv
 133              		.global	__aeabi_dadd
 134              		.global	__aeabi_dsub
 135              		.section	.text.store_moisture_data,"ax",%progbits
 136              		.align	2
 137              		.thumb
 138              		.thumb_func
 139              		.type	store_moisture_data, %function
 140              	store_moisture_data:
 141              	.LFB66:
  47:.\moisture_measurement/moisture_measurements.c **** 
  48:.\moisture_measurement/moisture_measurements.c **** 
  49:.\moisture_measurement/moisture_measurements.c **** /*
  50:.\moisture_measurement/moisture_measurements.c **** **
  51:.\moisture_measurement/moisture_measurements.c **** ** Routines to store data
  52:.\moisture_measurement/moisture_measurements.c **** ** resistance unknow resistance equals
  53:.\moisture_measurement/moisture_measurements.c **** ** reference resistance is stored in modbus location REFERENECE_RESISTANCE
  54:.\moisture_measurement/moisture_measurements.c **** ** i = ( sigma_v_rail)/known_resistance
  55:.\moisture_measurement/moisture_measurements.c **** ** unknown resistance = v_measurement/i
  56:.\moisture_measurement/moisture_measurements.c **** */
  57:.\moisture_measurement/moisture_measurements.c **** static inline int store_moisture_data(unsigned current_channel, float high_voltage, float low_volta
  58:.\moisture_measurement/moisture_measurements.c **** {
 142              		.loc 1 58 0
 143              		.cfi_startproc
 144              		@ args = 0, pretend = 0, frame = 40
 145              		@ frame_needed = 1, uses_anonymous_args = 0
 146 0000 2DE9B043 		push	{r4, r5, r7, r8, r9, lr}
 147              		.cfi_def_cfa_offset 24
 148              		.cfi_offset 4, -24
 149              		.cfi_offset 5, -20
 150              		.cfi_offset 7, -16
 151              		.cfi_offset 8, -12
 152              		.cfi_offset 9, -8
 153              		.cfi_offset 14, -4
 154 0004 8AB0     		sub	sp, sp, #40
 155              		.cfi_def_cfa_offset 64
 156 0006 00AF     		add	r7, sp, #0
 157              		.cfi_def_cfa_register 7
 158 0008 F860     		str	r0, [r7, #12]
 159 000a B960     		str	r1, [r7, #8]	@ float
 160 000c 7A60     		str	r2, [r7, #4]	@ float
 161 000e 3B60     		str	r3, [r7]	@ float
  59:.\moisture_measurement/moisture_measurements.c ****     float measurement;
  60:.\moisture_measurement/moisture_measurements.c ****     float source_current;
  61:.\moisture_measurement/moisture_measurements.c ****     float source_resistance;
  62:.\moisture_measurement/moisture_measurements.c ****     float reference_resistance;
  63:.\moisture_measurement/moisture_measurements.c ****     int sensor_type;
ARM GAS  C:\Users\glenn\AppData\Local\Temp\ccV9538d.s 			page 5


  64:.\moisture_measurement/moisture_measurements.c ****     float temperature;
  65:.\moisture_measurement/moisture_measurements.c ****     
  66:.\moisture_measurement/moisture_measurements.c ****     sensor_type = get_moisture_sensor_configuration( current_channel );
 162              		.loc 1 66 0
 163 0010 F868     		ldr	r0, [r7, #12]
 164 0012 FFF7FEFF 		bl	get_moisture_sensor_configuration
 165 0016 0346     		mov	r3, r0
 166 0018 3B62     		str	r3, [r7, #32]
  67:.\moisture_measurement/moisture_measurements.c ****     
  68:.\moisture_measurement/moisture_measurements.c ****     reference_resistance = get_reference_resistor( current_channel );
 167              		.loc 1 68 0
 168 001a F868     		ldr	r0, [r7, #12]
 169 001c FFF7FEFF 		bl	get_reference_resistor
 170 0020 F861     		str	r0, [r7, #28]	@ float
  69:.\moisture_measurement/moisture_measurements.c ****     source_current = ((float) high_voltage -(float)sensor_voltage)/reference_resistance;
 171              		.loc 1 69 0
 172 0022 B868     		ldr	r0, [r7, #8]	@ float
 173 0024 3968     		ldr	r1, [r7]	@ float
 174 0026 FFF7FEFF 		bl	__aeabi_fsub
 175 002a 0346     		mov	r3, r0
 176 002c 1846     		mov	r0, r3
 177 002e F969     		ldr	r1, [r7, #28]	@ float
 178 0030 FFF7FEFF 		bl	__aeabi_fdiv
 179 0034 0346     		mov	r3, r0
 180 0036 BB61     		str	r3, [r7, #24]	@ float
  70:.\moisture_measurement/moisture_measurements.c ****     source_resistance = (sensor_voltage - low_voltage)/source_current;
 181              		.loc 1 70 0
 182 0038 3868     		ldr	r0, [r7]	@ float
 183 003a 7968     		ldr	r1, [r7, #4]	@ float
 184 003c FFF7FEFF 		bl	__aeabi_fsub
 185 0040 0346     		mov	r3, r0
 186 0042 1846     		mov	r0, r3
 187 0044 B969     		ldr	r1, [r7, #24]	@ float
 188 0046 FFF7FEFF 		bl	__aeabi_fdiv
 189 004a 0346     		mov	r3, r0
 190 004c 7B61     		str	r3, [r7, #20]	@ float
  71:.\moisture_measurement/moisture_measurements.c ****     switch( sensor_type )
 191              		.loc 1 71 0
 192 004e 3B6A     		ldr	r3, [r7, #32]
 193 0050 012B     		cmp	r3, #1
 194 0052 07D0     		beq	.L12
 195 0054 022B     		cmp	r3, #2
 196 0056 08D0     		beq	.L13
 197 0058 002B     		cmp	r3, #0
 198 005a 60D1     		bne	.L17
  72:.\moisture_measurement/moisture_measurements.c ****     {
  73:.\moisture_measurement/moisture_measurements.c ****         case NOT_POPULATED:  // not connected sensor -- should not reach this poi
  74:.\moisture_measurement/moisture_measurements.c ****            measurement = 0;
 199              		.loc 1 74 0
 200 005c 4FF00003 		mov	r3, #0
 201 0060 7B62     		str	r3, [r7, #36]	@ float
  75:.\moisture_measurement/moisture_measurements.c ****            break;
 202              		.loc 1 75 0
 203 0062 5FE0     		b	.L15
 204              	.L12:
  76:.\moisture_measurement/moisture_measurements.c ****         
  77:.\moisture_measurement/moisture_measurements.c ****         case RESISTIVE_ELEMENT:
ARM GAS  C:\Users\glenn\AppData\Local\Temp\ccV9538d.s 			page 6


  78:.\moisture_measurement/moisture_measurements.c ****             measurement = source_resistance;
 205              		.loc 1 78 0
 206 0064 7B69     		ldr	r3, [r7, #20]	@ float
 207 0066 7B62     		str	r3, [r7, #36]	@ float
  79:.\moisture_measurement/moisture_measurements.c ****             break;
 208              		.loc 1 79 0
 209 0068 5CE0     		b	.L15
 210              	.L13:
  80:.\moisture_measurement/moisture_measurements.c ****             
  81:.\moisture_measurement/moisture_measurements.c ****         case WATER_MARK:
  82:.\moisture_measurement/moisture_measurements.c ****             temperature = get_soil_temperature();
 211              		.loc 1 82 0
 212 006a FFF7FEFF 		bl	get_soil_temperature
 213 006e 3861     		str	r0, [r7, #16]	@ float
  83:.\moisture_measurement/moisture_measurements.c ****             source_resistance = source_resistance/1000.;
 214              		.loc 1 83 0
 215 0070 7869     		ldr	r0, [r7, #20]	@ float
 216 0072 3B49     		ldr	r1, .L18+32
 217 0074 FFF7FEFF 		bl	__aeabi_fdiv
 218 0078 0346     		mov	r3, r0
 219 007a 7B61     		str	r3, [r7, #20]	@ float
  84:.\moisture_measurement/moisture_measurements.c ****             //kPa=(4.093+3.213*R)/(1-0.009733*R-0.01205*T)
  85:.\moisture_measurement/moisture_measurements.c ****             measurement = ( 4.093 + 3.213* source_resistance  )/( 1. - .009733*source_resistance - 
 220              		.loc 1 85 0
 221 007c 7869     		ldr	r0, [r7, #20]	@ float
 222 007e FFF7FEFF 		bl	__aeabi_f2d
 223 0082 0246     		mov	r2, r0
 224 0084 0B46     		mov	r3, r1
 225 0086 1046     		mov	r0, r2
 226 0088 1946     		mov	r1, r3
 227 008a 2DA3     		adr	r3, .L18
 228 008c D3E90023 		ldrd	r2, [r3]
 229 0090 FFF7FEFF 		bl	__aeabi_dmul
 230 0094 0246     		mov	r2, r0
 231 0096 0B46     		mov	r3, r1
 232 0098 1046     		mov	r0, r2
 233 009a 1946     		mov	r1, r3
 234 009c 2AA3     		adr	r3, .L18+8
 235 009e D3E90023 		ldrd	r2, [r3]
 236 00a2 FFF7FEFF 		bl	__aeabi_dadd
 237 00a6 0246     		mov	r2, r0
 238 00a8 0B46     		mov	r3, r1
 239 00aa 1446     		mov	r4, r2
 240 00ac 1D46     		mov	r5, r3
 241 00ae 7869     		ldr	r0, [r7, #20]	@ float
 242 00b0 FFF7FEFF 		bl	__aeabi_f2d
 243 00b4 0246     		mov	r2, r0
 244 00b6 0B46     		mov	r3, r1
 245 00b8 1046     		mov	r0, r2
 246 00ba 1946     		mov	r1, r3
 247 00bc 24A3     		adr	r3, .L18+16
 248 00be D3E90023 		ldrd	r2, [r3]
 249 00c2 FFF7FEFF 		bl	__aeabi_dmul
 250 00c6 0246     		mov	r2, r0
 251 00c8 0B46     		mov	r3, r1
 252 00ca 4FF00000 		mov	r0, #0
 253 00ce 2549     		ldr	r1, .L18+36
ARM GAS  C:\Users\glenn\AppData\Local\Temp\ccV9538d.s 			page 7


 254 00d0 FFF7FEFF 		bl	__aeabi_dsub
 255 00d4 0246     		mov	r2, r0
 256 00d6 0B46     		mov	r3, r1
 257 00d8 9046     		mov	r8, r2
 258 00da 9946     		mov	r9, r3
 259 00dc 3869     		ldr	r0, [r7, #16]	@ float
 260 00de FFF7FEFF 		bl	__aeabi_f2d
 261 00e2 0246     		mov	r2, r0
 262 00e4 0B46     		mov	r3, r1
 263 00e6 1046     		mov	r0, r2
 264 00e8 1946     		mov	r1, r3
 265 00ea 1BA3     		adr	r3, .L18+24
 266 00ec D3E90023 		ldrd	r2, [r3]
 267 00f0 FFF7FEFF 		bl	__aeabi_dmul
 268 00f4 0246     		mov	r2, r0
 269 00f6 0B46     		mov	r3, r1
 270 00f8 4046     		mov	r0, r8
 271 00fa 4946     		mov	r1, r9
 272 00fc FFF7FEFF 		bl	__aeabi_dsub
 273 0100 0246     		mov	r2, r0
 274 0102 0B46     		mov	r3, r1
 275 0104 2046     		mov	r0, r4
 276 0106 2946     		mov	r1, r5
 277 0108 FFF7FEFF 		bl	__aeabi_ddiv
 278 010c 0246     		mov	r2, r0
 279 010e 0B46     		mov	r3, r1
 280 0110 1046     		mov	r0, r2
 281 0112 1946     		mov	r1, r3
 282 0114 FFF7FEFF 		bl	__aeabi_d2f
 283 0118 0346     		mov	r3, r0
 284 011a 7B62     		str	r3, [r7, #36]	@ float
  86:.\moisture_measurement/moisture_measurements.c ****             break;
 285              		.loc 1 86 0
 286 011c 02E0     		b	.L15
 287              	.L17:
  87:.\moisture_measurement/moisture_measurements.c ****        default:
  88:.\moisture_measurement/moisture_measurements.c ****             CYASSERT(0);
 288              		.loc 1 88 0
 289 011e 0020     		movs	r0, #0
 290 0120 FFF7FEFF 		bl	CyHalt
 291              	.L15:
  89:.\moisture_measurement/moisture_measurements.c ****     }
  90:.\moisture_measurement/moisture_measurements.c ****     
  91:.\moisture_measurement/moisture_measurements.c ****     moisture_meaurements[ current_channel ] = measurement;
 292              		.loc 1 91 0
 293 0124 1049     		ldr	r1, .L18+40
 294 0126 FB68     		ldr	r3, [r7, #12]
 295 0128 7A6A     		ldr	r2, [r7, #36]	@ float
 296 012a 41F82320 		str	r2, [r1, r3, lsl #2]	@ float
  92:.\moisture_measurement/moisture_measurements.c ****     return 0;
 297              		.loc 1 92 0
 298 012e 0023     		movs	r3, #0
  93:.\moisture_measurement/moisture_measurements.c **** }
 299              		.loc 1 93 0
 300 0130 1846     		mov	r0, r3
 301 0132 2837     		adds	r7, r7, #40
 302              		.cfi_def_cfa_offset 24
ARM GAS  C:\Users\glenn\AppData\Local\Temp\ccV9538d.s 			page 8


 303 0134 BD46     		mov	sp, r7
 304              		.cfi_def_cfa_register 13
 305              		@ sp needed
 306 0136 BDE8B083 		pop	{r4, r5, r7, r8, r9, pc}
 307              	.L19:
 308 013a 00BFAFF3 		.align	3
 308      0080
 309              	.L18:
 310 0140 4E621058 		.word	1477468750
 311 0144 39B40940 		.word	1074377785
 312 0148 AC1C5A64 		.word	1683627180
 313 014c 3B5F1040 		.word	1074814779
 314 0150 85268925 		.word	629745285
 315 0154 E5EE833F 		.word	1065610981
 316 0158 3D9B559F 		.word	-1621779651
 317 015c ABAD883F 		.word	1065921963
 318 0160 00007A44 		.word	1148846080
 319 0164 0000F03F 		.word	1072693248
 320 0168 0C000000 		.word	moisture_meaurements
 321              		.cfi_endproc
 322              	.LFE66:
 323              		.size	store_moisture_data, .-store_moisture_data
 324 016c AFF30080 		.section	.text.init_moisture_processing,"ax",%progbits
 325              		.align	2
 326              		.global	init_moisture_processing
 327              		.thumb
 328              		.thumb_func
 329              		.type	init_moisture_processing, %function
 330              	init_moisture_processing:
 331              	.LFB67:
  94:.\moisture_measurement/moisture_measurements.c **** 
  95:.\moisture_measurement/moisture_measurements.c **** 
  96:.\moisture_measurement/moisture_measurements.c **** 
  97:.\moisture_measurement/moisture_measurements.c **** 
  98:.\moisture_measurement/moisture_measurements.c **** 
  99:.\moisture_measurement/moisture_measurements.c **** /*
 100:.\moisture_measurement/moisture_measurements.c **** **
 101:.\moisture_measurement/moisture_measurements.c **** ** Public ChainFlow Functions
 102:.\moisture_measurement/moisture_measurements.c **** **
 103:.\moisture_measurement/moisture_measurements.c **** **
 104:.\moisture_measurement/moisture_measurements.c **** **
 105:.\moisture_measurement/moisture_measurements.c **** */
 106:.\moisture_measurement/moisture_measurements.c **** 
 107:.\moisture_measurement/moisture_measurements.c **** /*
 108:.\moisture_measurement/moisture_measurements.c **** ** Moisture Measurement Initialization Functions
 109:.\moisture_measurement/moisture_measurements.c **** **
 110:.\moisture_measurement/moisture_measurements.c **** **
 111:.\moisture_measurement/moisture_measurements.c **** **
 112:.\moisture_measurement/moisture_measurements.c **** */
 113:.\moisture_measurement/moisture_measurements.c **** 
 114:.\moisture_measurement/moisture_measurements.c **** int init_moisture_processing(unsigned link_id, unsigned param_1,
 115:.\moisture_measurement/moisture_measurements.c ****   unsigned param_2, unsigned param_3, unsigned event, unsigned data)
 116:.\moisture_measurement/moisture_measurements.c **** {
 332              		.loc 1 116 0
 333              		.cfi_startproc
 334              		@ args = 8, pretend = 0, frame = 16
 335              		@ frame_needed = 1, uses_anonymous_args = 0
ARM GAS  C:\Users\glenn\AppData\Local\Temp\ccV9538d.s 			page 9


 336 0000 80B5     		push	{r7, lr}
 337              		.cfi_def_cfa_offset 8
 338              		.cfi_offset 7, -8
 339              		.cfi_offset 14, -4
 340 0002 84B0     		sub	sp, sp, #16
 341              		.cfi_def_cfa_offset 24
 342 0004 00AF     		add	r7, sp, #0
 343              		.cfi_def_cfa_register 7
 344 0006 F860     		str	r0, [r7, #12]
 345 0008 B960     		str	r1, [r7, #8]
 346 000a 7A60     		str	r2, [r7, #4]
 347 000c 3B60     		str	r3, [r7]
 117:.\moisture_measurement/moisture_measurements.c ****    logging_flag     = 0;
 348              		.loc 1 117 0
 349 000e 0F4B     		ldr	r3, .L22
 350 0010 0022     		movs	r2, #0
 351 0012 1A60     		str	r2, [r3]
 118:.\moisture_measurement/moisture_measurements.c ****    active_flag      = 0;
 352              		.loc 1 118 0
 353 0014 0E4B     		ldr	r3, .L22+4
 354 0016 0022     		movs	r2, #0
 355 0018 1A60     		str	r2, [r3]
 119:.\moisture_measurement/moisture_measurements.c ****    measurement_minute_count = 0;
 356              		.loc 1 119 0
 357 001a 0E4B     		ldr	r3, .L22+8
 358 001c 0022     		movs	r2, #0
 359 001e 1A60     		str	r2, [r3]
 120:.\moisture_measurement/moisture_measurements.c **** 
 121:.\moisture_measurement/moisture_measurements.c ****    Source_Reg_Write(0);
 360              		.loc 1 121 0
 361 0020 0020     		movs	r0, #0
 362 0022 FFF7FEFF 		bl	Source_Reg_Write
 122:.\moisture_measurement/moisture_measurements.c ****    Sink_Reg_Write(0);
 363              		.loc 1 122 0
 364 0026 0020     		movs	r0, #0
 365 0028 FFF7FEFF 		bl	Sink_Reg_Write
 123:.\moisture_measurement/moisture_measurements.c ****    Sink_Source_Setup_Start();
 366              		.loc 1 123 0
 367 002c FFF7FEFF 		bl	Sink_Source_Setup_Start
 124:.\moisture_measurement/moisture_measurements.c ****    Sink_Source_Setup_FastSelect(MOISTURE_SENSOR_NUMBER);
 368              		.loc 1 124 0
 369 0030 0920     		movs	r0, #9
 370 0032 FFF7FEFF 		bl	Sink_Source_Setup_FastSelect
 125:.\moisture_measurement/moisture_measurements.c ****    SIGMA_A_D_Start();
 371              		.loc 1 125 0
 372 0036 FFF7FEFF 		bl	SIGMA_A_D_Start
 126:.\moisture_measurement/moisture_measurements.c ****    SIGMA_A_D_Sleep();
 373              		.loc 1 126 0
 374 003a FFF7FEFF 		bl	SIGMA_A_D_Sleep
 127:.\moisture_measurement/moisture_measurements.c ****    moisture_interval_clock_Stop();
 375              		.loc 1 127 0
 376 003e FFF7FEFF 		bl	moisture_interval_clock_Stop
 128:.\moisture_measurement/moisture_measurements.c ****    return 0;
 377              		.loc 1 128 0
 378 0042 0023     		movs	r3, #0
 129:.\moisture_measurement/moisture_measurements.c **** }
 379              		.loc 1 129 0
ARM GAS  C:\Users\glenn\AppData\Local\Temp\ccV9538d.s 			page 10


 380 0044 1846     		mov	r0, r3
 381 0046 1037     		adds	r7, r7, #16
 382              		.cfi_def_cfa_offset 8
 383 0048 BD46     		mov	sp, r7
 384              		.cfi_def_cfa_register 13
 385              		@ sp needed
 386 004a 80BD     		pop	{r7, pc}
 387              	.L23:
 388              		.align	2
 389              	.L22:
 390 004c 00000000 		.word	logging_flag
 391 0050 04000000 		.word	active_flag
 392 0054 08000000 		.word	measurement_minute_count
 393              		.cfi_endproc
 394              	.LFE67:
 395              		.size	init_moisture_processing, .-init_moisture_processing
 396              		.section	.text.process_moisture_interval_interrupt,"ax",%progbits
 397              		.align	2
 398              		.global	process_moisture_interval_interrupt
 399              		.thumb
 400              		.thumb_func
 401              		.type	process_moisture_interval_interrupt, %function
 402              	process_moisture_interval_interrupt:
 403              	.LFB68:
 130:.\moisture_measurement/moisture_measurements.c **** 
 131:.\moisture_measurement/moisture_measurements.c **** 
 132:.\moisture_measurement/moisture_measurements.c **** 
 133:.\moisture_measurement/moisture_measurements.c **** 
 134:.\moisture_measurement/moisture_measurements.c **** 
 135:.\moisture_measurement/moisture_measurements.c **** 
 136:.\moisture_measurement/moisture_measurements.c **** 
 137:.\moisture_measurement/moisture_measurements.c **** 
 138:.\moisture_measurement/moisture_measurements.c **** 
 139:.\moisture_measurement/moisture_measurements.c **** CY_ISR_PROTO(process_moisture_interval_interrupt)
 140:.\moisture_measurement/moisture_measurements.c **** {
 404              		.loc 1 140 0
 405              		.cfi_startproc
 406              		@ args = 0, pretend = 0, frame = 0
 407              		@ frame_needed = 1, uses_anonymous_args = 0
 408 0000 80B5     		push	{r7, lr}
 409              		.cfi_def_cfa_offset 8
 410              		.cfi_offset 7, -8
 411              		.cfi_offset 14, -4
 412 0002 00AF     		add	r7, sp, #0
 413              		.cfi_def_cfa_register 7
 141:.\moisture_measurement/moisture_measurements.c ****     ad_interrupt_1_ClearPending();
 414              		.loc 1 141 0
 415 0004 FFF7FEFF 		bl	ad_interrupt_1_ClearPending
 142:.\moisture_measurement/moisture_measurements.c ****     cf_send_event(  CF_120HZ_TICK,0 );
 416              		.loc 1 142 0
 417 0008 0A20     		movs	r0, #10
 418 000a 0021     		movs	r1, #0
 419 000c FFF7FEFF 		bl	cf_send_event
 143:.\moisture_measurement/moisture_measurements.c **** }
 420              		.loc 1 143 0
 421 0010 80BD     		pop	{r7, pc}
 422              		.cfi_endproc
ARM GAS  C:\Users\glenn\AppData\Local\Temp\ccV9538d.s 			page 11


 423              	.LFE68:
 424              		.size	process_moisture_interval_interrupt, .-process_moisture_interval_interrupt
 425 0012 00BF     		.section	.text.set_up_moisture_interrupt,"ax",%progbits
 426              		.align	2
 427              		.global	set_up_moisture_interrupt
 428              		.thumb
 429              		.thumb_func
 430              		.type	set_up_moisture_interrupt, %function
 431              	set_up_moisture_interrupt:
 432              	.LFB69:
 144:.\moisture_measurement/moisture_measurements.c **** 
 145:.\moisture_measurement/moisture_measurements.c **** 
 146:.\moisture_measurement/moisture_measurements.c **** 
 147:.\moisture_measurement/moisture_measurements.c **** 
 148:.\moisture_measurement/moisture_measurements.c **** 
 149:.\moisture_measurement/moisture_measurements.c **** int set_up_moisture_interrupt(unsigned link_id, unsigned param_1,
 150:.\moisture_measurement/moisture_measurements.c ****   unsigned param_2, unsigned param_3, unsigned event, unsigned data)
 151:.\moisture_measurement/moisture_measurements.c **** {
 433              		.loc 1 151 0
 434              		.cfi_startproc
 435              		@ args = 8, pretend = 0, frame = 16
 436              		@ frame_needed = 1, uses_anonymous_args = 0
 437 0000 80B5     		push	{r7, lr}
 438              		.cfi_def_cfa_offset 8
 439              		.cfi_offset 7, -8
 440              		.cfi_offset 14, -4
 441 0002 84B0     		sub	sp, sp, #16
 442              		.cfi_def_cfa_offset 24
 443 0004 00AF     		add	r7, sp, #0
 444              		.cfi_def_cfa_register 7
 445 0006 F860     		str	r0, [r7, #12]
 446 0008 B960     		str	r1, [r7, #8]
 447 000a 7A60     		str	r2, [r7, #4]
 448 000c 3B60     		str	r3, [r7]
 152:.\moisture_measurement/moisture_measurements.c ****     moisture_interval_clock_Stop();
 449              		.loc 1 152 0
 450 000e FFF7FEFF 		bl	moisture_interval_clock_Stop
 153:.\moisture_measurement/moisture_measurements.c ****     moisture_interval_interrupt_StartEx(process_moisture_interval_interrupt);
 451              		.loc 1 153 0
 452 0012 0448     		ldr	r0, .L27
 453 0014 FFF7FEFF 		bl	moisture_interval_interrupt_StartEx
 154:.\moisture_measurement/moisture_measurements.c ****     return 0;
 454              		.loc 1 154 0
 455 0018 0023     		movs	r3, #0
 155:.\moisture_measurement/moisture_measurements.c **** }
 456              		.loc 1 155 0
 457 001a 1846     		mov	r0, r3
 458 001c 1037     		adds	r7, r7, #16
 459              		.cfi_def_cfa_offset 8
 460 001e BD46     		mov	sp, r7
 461              		.cfi_def_cfa_register 13
 462              		@ sp needed
 463 0020 80BD     		pop	{r7, pc}
 464              	.L28:
 465 0022 00BF     		.align	2
 466              	.L27:
 467 0024 00000000 		.word	process_moisture_interval_interrupt
ARM GAS  C:\Users\glenn\AppData\Local\Temp\ccV9538d.s 			page 12


 468              		.cfi_endproc
 469              	.LFE69:
 470              		.size	set_up_moisture_interrupt, .-set_up_moisture_interrupt
 471              		.section	.text.check_moisture_active_flag,"ax",%progbits
 472              		.align	2
 473              		.global	check_moisture_active_flag
 474              		.thumb
 475              		.thumb_func
 476              		.type	check_moisture_active_flag, %function
 477              	check_moisture_active_flag:
 478              	.LFB70:
 156:.\moisture_measurement/moisture_measurements.c **** 
 157:.\moisture_measurement/moisture_measurements.c **** 
 158:.\moisture_measurement/moisture_measurements.c **** 
 159:.\moisture_measurement/moisture_measurements.c **** 
 160:.\moisture_measurement/moisture_measurements.c **** /*
 161:.\moisture_measurement/moisture_measurements.c **** **  Monitor Pins to determine if active or if logging
 162:.\moisture_measurement/moisture_measurements.c **** **  Check to see if it is time to measure moisture
 163:.\moisture_measurement/moisture_measurements.c **** **
 164:.\moisture_measurement/moisture_measurements.c **** **
 165:.\moisture_measurement/moisture_measurements.c **** */
 166:.\moisture_measurement/moisture_measurements.c **** 
 167:.\moisture_measurement/moisture_measurements.c **** 
 168:.\moisture_measurement/moisture_measurements.c **** 
 169:.\moisture_measurement/moisture_measurements.c **** 
 170:.\moisture_measurement/moisture_measurements.c **** 
 171:.\moisture_measurement/moisture_measurements.c **** int check_moisture_active_flag(unsigned link_id, unsigned param_1,
 172:.\moisture_measurement/moisture_measurements.c ****   unsigned param_2, unsigned param_3, unsigned event, unsigned data)
 173:.\moisture_measurement/moisture_measurements.c **** {
 479              		.loc 1 173 0
 480              		.cfi_startproc
 481              		@ args = 8, pretend = 0, frame = 24
 482              		@ frame_needed = 1, uses_anonymous_args = 0
 483 0000 80B5     		push	{r7, lr}
 484              		.cfi_def_cfa_offset 8
 485              		.cfi_offset 7, -8
 486              		.cfi_offset 14, -4
 487 0002 86B0     		sub	sp, sp, #24
 488              		.cfi_def_cfa_offset 32
 489 0004 00AF     		add	r7, sp, #0
 490              		.cfi_def_cfa_register 7
 491 0006 F860     		str	r0, [r7, #12]
 492 0008 B960     		str	r1, [r7, #8]
 493 000a 7A60     		str	r2, [r7, #4]
 494 000c 3B60     		str	r3, [r7]
 174:.\moisture_measurement/moisture_measurements.c ****       uint16 temp;
 175:.\moisture_measurement/moisture_measurements.c ****       temp =  Active_Pin_Read();
 495              		.loc 1 175 0
 496 000e FFF7FEFF 		bl	Active_Pin_Read
 497 0012 0346     		mov	r3, r0
 498 0014 9BB2     		uxth	r3, r3
 499 0016 FB82     		strh	r3, [r7, #22]	@ movhi
 176:.\moisture_measurement/moisture_measurements.c ****       if( read_active_pin() != 0 )
 500              		.loc 1 176 0
 501 0018 FFF7FEFF 		bl	read_active_pin
 502 001c 0346     		mov	r3, r0
 503 001e 002B     		cmp	r3, #0
ARM GAS  C:\Users\glenn\AppData\Local\Temp\ccV9538d.s 			page 13


 504 0020 03D0     		beq	.L30
 177:.\moisture_measurement/moisture_measurements.c ****       {
 178:.\moisture_measurement/moisture_measurements.c ****           active_flag = 0;
 505              		.loc 1 178 0
 506 0022 0B4B     		ldr	r3, .L33
 507 0024 0022     		movs	r2, #0
 508 0026 1A60     		str	r2, [r3]
 509 0028 02E0     		b	.L31
 510              	.L30:
 179:.\moisture_measurement/moisture_measurements.c ****       }
 180:.\moisture_measurement/moisture_measurements.c ****       else
 181:.\moisture_measurement/moisture_measurements.c ****       {  
 182:.\moisture_measurement/moisture_measurements.c ****           active_flag = 1;
 511              		.loc 1 182 0
 512 002a 094B     		ldr	r3, .L33
 513 002c 0122     		movs	r2, #1
 514 002e 1A60     		str	r2, [r3]
 515              	.L31:
 183:.\moisture_measurement/moisture_measurements.c ****       }
 184:.\moisture_measurement/moisture_measurements.c ****       temp = active_flag;
 516              		.loc 1 184 0
 517 0030 074B     		ldr	r3, .L33
 518 0032 1B68     		ldr	r3, [r3]
 519 0034 9BB2     		uxth	r3, r3
 520 0036 FB82     		strh	r3, [r7, #22]	@ movhi
 185:.\moisture_measurement/moisture_measurements.c ****       store_modbus_data_registers( LOGGING_FLAG, 1, &temp);
 521              		.loc 1 185 0
 522 0038 07F11603 		add	r3, r7, #22
 523 003c 1F20     		movs	r0, #31
 524 003e 0121     		movs	r1, #1
 525 0040 1A46     		mov	r2, r3
 526 0042 FFF7FEFF 		bl	store_modbus_data_registers
 186:.\moisture_measurement/moisture_measurements.c **** 
 187:.\moisture_measurement/moisture_measurements.c ****       return 0;
 527              		.loc 1 187 0
 528 0046 0023     		movs	r3, #0
 188:.\moisture_measurement/moisture_measurements.c **** 
 189:.\moisture_measurement/moisture_measurements.c **** }
 529              		.loc 1 189 0
 530 0048 1846     		mov	r0, r3
 531 004a 1837     		adds	r7, r7, #24
 532              		.cfi_def_cfa_offset 8
 533 004c BD46     		mov	sp, r7
 534              		.cfi_def_cfa_register 13
 535              		@ sp needed
 536 004e 80BD     		pop	{r7, pc}
 537              	.L34:
 538              		.align	2
 539              	.L33:
 540 0050 04000000 		.word	active_flag
 541              		.cfi_endproc
 542              	.LFE70:
 543              		.size	check_moisture_active_flag, .-check_moisture_active_flag
 544              		.section	.text.check_logging_active_flag,"ax",%progbits
 545              		.align	2
 546              		.global	check_logging_active_flag
 547              		.thumb
ARM GAS  C:\Users\glenn\AppData\Local\Temp\ccV9538d.s 			page 14


 548              		.thumb_func
 549              		.type	check_logging_active_flag, %function
 550              	check_logging_active_flag:
 551              	.LFB71:
 190:.\moisture_measurement/moisture_measurements.c **** 
 191:.\moisture_measurement/moisture_measurements.c **** 
 192:.\moisture_measurement/moisture_measurements.c **** int check_logging_active_flag(unsigned link_id, unsigned param_1,
 193:.\moisture_measurement/moisture_measurements.c ****   unsigned param_2, unsigned param_3, unsigned event, unsigned data)
 194:.\moisture_measurement/moisture_measurements.c **** {
 552              		.loc 1 194 0
 553              		.cfi_startproc
 554              		@ args = 8, pretend = 0, frame = 24
 555              		@ frame_needed = 1, uses_anonymous_args = 0
 556 0000 80B5     		push	{r7, lr}
 557              		.cfi_def_cfa_offset 8
 558              		.cfi_offset 7, -8
 559              		.cfi_offset 14, -4
 560 0002 86B0     		sub	sp, sp, #24
 561              		.cfi_def_cfa_offset 32
 562 0004 00AF     		add	r7, sp, #0
 563              		.cfi_def_cfa_register 7
 564 0006 F860     		str	r0, [r7, #12]
 565 0008 B960     		str	r1, [r7, #8]
 566 000a 7A60     		str	r2, [r7, #4]
 567 000c 3B60     		str	r3, [r7]
 195:.\moisture_measurement/moisture_measurements.c ****       uint16 temp;
 196:.\moisture_measurement/moisture_measurements.c ****       if( read_log_pin() != 0 )
 568              		.loc 1 196 0
 569 000e FFF7FEFF 		bl	read_log_pin
 570 0012 0346     		mov	r3, r0
 571 0014 002B     		cmp	r3, #0
 572 0016 03D0     		beq	.L36
 197:.\moisture_measurement/moisture_measurements.c ****       {
 198:.\moisture_measurement/moisture_measurements.c ****           logging_flag = 0;
 573              		.loc 1 198 0
 574 0018 0B4B     		ldr	r3, .L39
 575 001a 0022     		movs	r2, #0
 576 001c 1A60     		str	r2, [r3]
 577 001e 02E0     		b	.L37
 578              	.L36:
 199:.\moisture_measurement/moisture_measurements.c ****       }
 200:.\moisture_measurement/moisture_measurements.c ****       else
 201:.\moisture_measurement/moisture_measurements.c ****       {  
 202:.\moisture_measurement/moisture_measurements.c ****           logging_flag = 1;
 579              		.loc 1 202 0
 580 0020 094B     		ldr	r3, .L39
 581 0022 0122     		movs	r2, #1
 582 0024 1A60     		str	r2, [r3]
 583              	.L37:
 203:.\moisture_measurement/moisture_measurements.c ****       }
 204:.\moisture_measurement/moisture_measurements.c ****       temp = logging_flag;
 584              		.loc 1 204 0
 585 0026 084B     		ldr	r3, .L39
 586 0028 1B68     		ldr	r3, [r3]
 587 002a 9BB2     		uxth	r3, r3
 588 002c FB82     		strh	r3, [r7, #22]	@ movhi
 205:.\moisture_measurement/moisture_measurements.c ****       store_modbus_data_registers( ACTIVE_FLAG, 1, &temp);
ARM GAS  C:\Users\glenn\AppData\Local\Temp\ccV9538d.s 			page 15


 589              		.loc 1 205 0
 590 002e 07F11603 		add	r3, r7, #22
 591 0032 1E20     		movs	r0, #30
 592 0034 0121     		movs	r1, #1
 593 0036 1A46     		mov	r2, r3
 594 0038 FFF7FEFF 		bl	store_modbus_data_registers
 206:.\moisture_measurement/moisture_measurements.c **** 
 207:.\moisture_measurement/moisture_measurements.c ****       return 0;
 595              		.loc 1 207 0
 596 003c 0023     		movs	r3, #0
 208:.\moisture_measurement/moisture_measurements.c **** 
 209:.\moisture_measurement/moisture_measurements.c **** }
 597              		.loc 1 209 0
 598 003e 1846     		mov	r0, r3
 599 0040 1837     		adds	r7, r7, #24
 600              		.cfi_def_cfa_offset 8
 601 0042 BD46     		mov	sp, r7
 602              		.cfi_def_cfa_register 13
 603              		@ sp needed
 604 0044 80BD     		pop	{r7, pc}
 605              	.L40:
 606 0046 00BF     		.align	2
 607              	.L39:
 608 0048 00000000 		.word	logging_flag
 609              		.cfi_endproc
 610              	.LFE71:
 611              		.size	check_logging_active_flag, .-check_logging_active_flag
 612              		.section	.text.check_for_moisture_measurement,"ax",%progbits
 613              		.align	2
 614              		.global	check_for_moisture_measurement
 615              		.thumb
 616              		.thumb_func
 617              		.type	check_for_moisture_measurement, %function
 618              	check_for_moisture_measurement:
 619              	.LFB72:
 210:.\moisture_measurement/moisture_measurements.c **** 
 211:.\moisture_measurement/moisture_measurements.c **** 
 212:.\moisture_measurement/moisture_measurements.c **** 
 213:.\moisture_measurement/moisture_measurements.c **** 
 214:.\moisture_measurement/moisture_measurements.c **** int check_for_moisture_measurement(unsigned link_id, unsigned param_1,
 215:.\moisture_measurement/moisture_measurements.c ****   unsigned param_2, unsigned param_3, unsigned event, unsigned data)
 216:.\moisture_measurement/moisture_measurements.c **** 
 217:.\moisture_measurement/moisture_measurements.c **** 
 218:.\moisture_measurement/moisture_measurements.c **** 
 219:.\moisture_measurement/moisture_measurements.c **** 
 220:.\moisture_measurement/moisture_measurements.c **** 
 221:.\moisture_measurement/moisture_measurements.c **** {
 620              		.loc 1 221 0
 621              		.cfi_startproc
 622              		@ args = 8, pretend = 0, frame = 24
 623              		@ frame_needed = 1, uses_anonymous_args = 0
 624 0000 80B5     		push	{r7, lr}
 625              		.cfi_def_cfa_offset 8
 626              		.cfi_offset 7, -8
 627              		.cfi_offset 14, -4
 628 0002 86B0     		sub	sp, sp, #24
 629              		.cfi_def_cfa_offset 32
ARM GAS  C:\Users\glenn\AppData\Local\Temp\ccV9538d.s 			page 16


 630 0004 00AF     		add	r7, sp, #0
 631              		.cfi_def_cfa_register 7
 632 0006 F860     		str	r0, [r7, #12]
 633 0008 B960     		str	r1, [r7, #8]
 634 000a 7A60     		str	r2, [r7, #4]
 635 000c 3B60     		str	r3, [r7]
 222:.\moisture_measurement/moisture_measurements.c ****       uint16 minute_count_limit;
 223:.\moisture_measurement/moisture_measurements.c ****       
 224:.\moisture_measurement/moisture_measurements.c ****       if( active_flag == 0 )
 636              		.loc 1 224 0
 637 000e 164B     		ldr	r3, .L48
 638 0010 1B68     		ldr	r3, [r3]
 639 0012 002B     		cmp	r3, #0
 640 0014 04D1     		bne	.L42
 225:.\moisture_measurement/moisture_measurements.c ****       {
 226:.\moisture_measurement/moisture_measurements.c ****         measurement_minute_count = 0;
 641              		.loc 1 226 0
 642 0016 154B     		ldr	r3, .L48+4
 643 0018 0022     		movs	r2, #0
 644 001a 1A60     		str	r2, [r3]
 227:.\moisture_measurement/moisture_measurements.c ****         return 0;
 645              		.loc 1 227 0
 646 001c 0023     		movs	r3, #0
 647 001e 1FE0     		b	.L47
 648              	.L42:
 228:.\moisture_measurement/moisture_measurements.c ****       }
 229:.\moisture_measurement/moisture_measurements.c ****       else
 230:.\moisture_measurement/moisture_measurements.c ****       {
 231:.\moisture_measurement/moisture_measurements.c ****         ; // no else actions
 232:.\moisture_measurement/moisture_measurements.c ****       }
 233:.\moisture_measurement/moisture_measurements.c ****       get_modbus_data_registers( LOGGING_RATE, 1, &minute_count_limit);
 649              		.loc 1 233 0
 650 0020 07F11603 		add	r3, r7, #22
 651 0024 2120     		movs	r0, #33
 652 0026 0121     		movs	r1, #1
 653 0028 1A46     		mov	r2, r3
 654 002a FFF7FEFF 		bl	get_modbus_data_registers
 234:.\moisture_measurement/moisture_measurements.c ****       if( minute_count_limit == 0 )
 655              		.loc 1 234 0
 656 002e FB8A     		ldrh	r3, [r7, #22]
 657 0030 002B     		cmp	r3, #0
 658 0032 01D1     		bne	.L44
 235:.\moisture_measurement/moisture_measurements.c ****       {
 236:.\moisture_measurement/moisture_measurements.c ****         return 0;
 659              		.loc 1 236 0
 660 0034 0023     		movs	r3, #0
 661 0036 13E0     		b	.L47
 662              	.L44:
 237:.\moisture_measurement/moisture_measurements.c ****       }
 238:.\moisture_measurement/moisture_measurements.c ****       else
 239:.\moisture_measurement/moisture_measurements.c ****       {
 240:.\moisture_measurement/moisture_measurements.c ****         // no else actions
 241:.\moisture_measurement/moisture_measurements.c ****       }
 242:.\moisture_measurement/moisture_measurements.c ****       
 243:.\moisture_measurement/moisture_measurements.c ****       if( measurement_minute_count >= minute_count_limit)
 663              		.loc 1 243 0
 664 0038 FB8A     		ldrh	r3, [r7, #22]
ARM GAS  C:\Users\glenn\AppData\Local\Temp\ccV9538d.s 			page 17


 665 003a 1A46     		mov	r2, r3
 666 003c 0B4B     		ldr	r3, .L48+4
 667 003e 1B68     		ldr	r3, [r3]
 668 0040 9A42     		cmp	r2, r3
 669 0042 07D8     		bhi	.L45
 244:.\moisture_measurement/moisture_measurements.c ****       {
 245:.\moisture_measurement/moisture_measurements.c ****           measurement_minute_count = 0;
 670              		.loc 1 245 0
 671 0044 094B     		ldr	r3, .L48+4
 672 0046 0022     		movs	r2, #0
 673 0048 1A60     		str	r2, [r3]
 246:.\moisture_measurement/moisture_measurements.c ****           cf_send_event(CF_START_MOISTURE_READING, 0 );
 674              		.loc 1 246 0
 675 004a 0920     		movs	r0, #9
 676 004c 0021     		movs	r1, #0
 677 004e FFF7FEFF 		bl	cf_send_event
 678 0052 04E0     		b	.L46
 679              	.L45:
 247:.\moisture_measurement/moisture_measurements.c ****       }
 248:.\moisture_measurement/moisture_measurements.c ****       else
 249:.\moisture_measurement/moisture_measurements.c ****       {
 250:.\moisture_measurement/moisture_measurements.c ****         measurement_minute_count += 1;
 680              		.loc 1 250 0
 681 0054 054B     		ldr	r3, .L48+4
 682 0056 1B68     		ldr	r3, [r3]
 683 0058 0133     		adds	r3, r3, #1
 684 005a 044A     		ldr	r2, .L48+4
 685 005c 1360     		str	r3, [r2]
 686              	.L46:
 251:.\moisture_measurement/moisture_measurements.c ****       }
 252:.\moisture_measurement/moisture_measurements.c ****       return 0;
 687              		.loc 1 252 0
 688 005e 0023     		movs	r3, #0
 689              	.L47:
 253:.\moisture_measurement/moisture_measurements.c **** }
 690              		.loc 1 253 0 discriminator 1
 691 0060 1846     		mov	r0, r3
 692 0062 1837     		adds	r7, r7, #24
 693              		.cfi_def_cfa_offset 8
 694 0064 BD46     		mov	sp, r7
 695              		.cfi_def_cfa_register 13
 696              		@ sp needed
 697 0066 80BD     		pop	{r7, pc}
 698              	.L49:
 699              		.align	2
 700              	.L48:
 701 0068 04000000 		.word	active_flag
 702 006c 08000000 		.word	measurement_minute_count
 703              		.cfi_endproc
 704              	.LFE72:
 705              		.size	check_for_moisture_measurement, .-check_for_moisture_measurement
 706              		.section	.text.remove_power,"ax",%progbits
 707              		.align	2
 708              		.global	remove_power
 709              		.thumb
 710              		.thumb_func
 711              		.type	remove_power, %function
ARM GAS  C:\Users\glenn\AppData\Local\Temp\ccV9538d.s 			page 18


 712              	remove_power:
 713              	.LFB73:
 254:.\moisture_measurement/moisture_measurements.c **** 
 255:.\moisture_measurement/moisture_measurements.c **** /*
 256:.\moisture_measurement/moisture_measurements.c **** **
 257:.\moisture_measurement/moisture_measurements.c **** **  Functions to make measurements
 258:.\moisture_measurement/moisture_measurements.c **** **
 259:.\moisture_measurement/moisture_measurements.c **** **/
 260:.\moisture_measurement/moisture_measurements.c **** 
 261:.\moisture_measurement/moisture_measurements.c **** 
 262:.\moisture_measurement/moisture_measurements.c **** 
 263:.\moisture_measurement/moisture_measurements.c **** int remove_power(unsigned link_id, unsigned param_1,
 264:.\moisture_measurement/moisture_measurements.c ****   unsigned param_2, unsigned param_3, unsigned event, unsigned data)
 265:.\moisture_measurement/moisture_measurements.c **** {
 714              		.loc 1 265 0
 715              		.cfi_startproc
 716              		@ args = 8, pretend = 0, frame = 16
 717              		@ frame_needed = 1, uses_anonymous_args = 0
 718 0000 80B5     		push	{r7, lr}
 719              		.cfi_def_cfa_offset 8
 720              		.cfi_offset 7, -8
 721              		.cfi_offset 14, -4
 722 0002 84B0     		sub	sp, sp, #16
 723              		.cfi_def_cfa_offset 24
 724 0004 00AF     		add	r7, sp, #0
 725              		.cfi_def_cfa_register 7
 726 0006 F860     		str	r0, [r7, #12]
 727 0008 B960     		str	r1, [r7, #8]
 728 000a 7A60     		str	r2, [r7, #4]
 729 000c 3B60     		str	r3, [r7]
 266:.\moisture_measurement/moisture_measurements.c ****      Sink_Source_Setup_FastSelect(MOISTURE_SENSOR_NUMBER);
 730              		.loc 1 266 0
 731 000e 0920     		movs	r0, #9
 732 0010 FFF7FEFF 		bl	Sink_Source_Setup_FastSelect
 267:.\moisture_measurement/moisture_measurements.c ****      SIGMA_A_D_Sleep();
 733              		.loc 1 267 0
 734 0014 FFF7FEFF 		bl	SIGMA_A_D_Sleep
 268:.\moisture_measurement/moisture_measurements.c ****      Sink_Reg_Write(0);
 735              		.loc 1 268 0
 736 0018 0020     		movs	r0, #0
 737 001a FFF7FEFF 		bl	Sink_Reg_Write
 269:.\moisture_measurement/moisture_measurements.c ****      Source_Reg_Write( 0);
 738              		.loc 1 269 0
 739 001e 0020     		movs	r0, #0
 740 0020 FFF7FEFF 		bl	Source_Reg_Write
 270:.\moisture_measurement/moisture_measurements.c ****      moisture_interval_clock_Stop();
 741              		.loc 1 270 0
 742 0024 FFF7FEFF 		bl	moisture_interval_clock_Stop
 271:.\moisture_measurement/moisture_measurements.c ****     
 272:.\moisture_measurement/moisture_measurements.c ****      return 0;
 743              		.loc 1 272 0
 744 0028 0023     		movs	r3, #0
 273:.\moisture_measurement/moisture_measurements.c **** }
 745              		.loc 1 273 0
 746 002a 1846     		mov	r0, r3
 747 002c 1037     		adds	r7, r7, #16
 748              		.cfi_def_cfa_offset 8
ARM GAS  C:\Users\glenn\AppData\Local\Temp\ccV9538d.s 			page 19


 749 002e BD46     		mov	sp, r7
 750              		.cfi_def_cfa_register 13
 751              		@ sp needed
 752 0030 80BD     		pop	{r7, pc}
 753              		.cfi_endproc
 754              	.LFE73:
 755              		.size	remove_power, .-remove_power
 756 0032 00BF     		.section	.text.turn_on_timer_clock,"ax",%progbits
 757              		.align	2
 758              		.global	turn_on_timer_clock
 759              		.thumb
 760              		.thumb_func
 761              		.type	turn_on_timer_clock, %function
 762              	turn_on_timer_clock:
 763              	.LFB74:
 274:.\moisture_measurement/moisture_measurements.c **** 
 275:.\moisture_measurement/moisture_measurements.c **** 
 276:.\moisture_measurement/moisture_measurements.c **** int turn_on_timer_clock(unsigned link_id, unsigned param_1,
 277:.\moisture_measurement/moisture_measurements.c ****   unsigned param_2, unsigned param_3, unsigned event, unsigned data)
 278:.\moisture_measurement/moisture_measurements.c **** {
 764              		.loc 1 278 0
 765              		.cfi_startproc
 766              		@ args = 8, pretend = 0, frame = 16
 767              		@ frame_needed = 1, uses_anonymous_args = 0
 768 0000 80B5     		push	{r7, lr}
 769              		.cfi_def_cfa_offset 8
 770              		.cfi_offset 7, -8
 771              		.cfi_offset 14, -4
 772 0002 84B0     		sub	sp, sp, #16
 773              		.cfi_def_cfa_offset 24
 774 0004 00AF     		add	r7, sp, #0
 775              		.cfi_def_cfa_register 7
 776 0006 F860     		str	r0, [r7, #12]
 777 0008 B960     		str	r1, [r7, #8]
 778 000a 7A60     		str	r2, [r7, #4]
 779 000c 3B60     		str	r3, [r7]
 279:.\moisture_measurement/moisture_measurements.c **** 
 280:.\moisture_measurement/moisture_measurements.c ****     moisture_interval_clock_Start();
 780              		.loc 1 280 0
 781 000e FFF7FEFF 		bl	moisture_interval_clock_Start
 281:.\moisture_measurement/moisture_measurements.c ****     return 0;
 782              		.loc 1 281 0
 783 0012 0023     		movs	r3, #0
 282:.\moisture_measurement/moisture_measurements.c **** }
 784              		.loc 1 282 0
 785 0014 1846     		mov	r0, r3
 786 0016 1037     		adds	r7, r7, #16
 787              		.cfi_def_cfa_offset 8
 788 0018 BD46     		mov	sp, r7
 789              		.cfi_def_cfa_register 13
 790              		@ sp needed
 791 001a 80BD     		pop	{r7, pc}
 792              		.cfi_endproc
 793              	.LFE74:
 794              		.size	turn_on_timer_clock, .-turn_on_timer_clock
 795              		.section	.text.set_source_channel,"ax",%progbits
 796              		.align	2
ARM GAS  C:\Users\glenn\AppData\Local\Temp\ccV9538d.s 			page 20


 797              		.global	set_source_channel
 798              		.thumb
 799              		.thumb_func
 800              		.type	set_source_channel, %function
 801              	set_source_channel:
 802              	.LFB75:
 283:.\moisture_measurement/moisture_measurements.c **** 
 284:.\moisture_measurement/moisture_measurements.c **** int set_source_channel(unsigned link_id, unsigned param_1,
 285:.\moisture_measurement/moisture_measurements.c ****   unsigned param_2, unsigned param_3, unsigned event, unsigned data)
 286:.\moisture_measurement/moisture_measurements.c **** {
 803              		.loc 1 286 0
 804              		.cfi_startproc
 805              		@ args = 8, pretend = 0, frame = 16
 806              		@ frame_needed = 1, uses_anonymous_args = 0
 807 0000 80B5     		push	{r7, lr}
 808              		.cfi_def_cfa_offset 8
 809              		.cfi_offset 7, -8
 810              		.cfi_offset 14, -4
 811 0002 84B0     		sub	sp, sp, #16
 812              		.cfi_def_cfa_offset 24
 813 0004 00AF     		add	r7, sp, #0
 814              		.cfi_def_cfa_register 7
 815 0006 F860     		str	r0, [r7, #12]
 816 0008 B960     		str	r1, [r7, #8]
 817 000a 7A60     		str	r2, [r7, #4]
 818 000c 3B60     		str	r3, [r7]
 287:.\moisture_measurement/moisture_measurements.c ****     SIGMA_A_D_Wakeup();
 819              		.loc 1 287 0
 820 000e FFF7FEFF 		bl	SIGMA_A_D_Wakeup
 288:.\moisture_measurement/moisture_measurements.c ****    
 289:.\moisture_measurement/moisture_measurements.c ****     Sink_Reg_Write( 2 );
 821              		.loc 1 289 0
 822 0012 0220     		movs	r0, #2
 823 0014 FFF7FEFF 		bl	Sink_Reg_Write
 290:.\moisture_measurement/moisture_measurements.c ****     Source_Reg_Write( 3 ) ;
 824              		.loc 1 290 0
 825 0018 0320     		movs	r0, #3
 826 001a FFF7FEFF 		bl	Source_Reg_Write
 291:.\moisture_measurement/moisture_measurements.c ****     return 0;
 827              		.loc 1 291 0
 828 001e 0023     		movs	r3, #0
 292:.\moisture_measurement/moisture_measurements.c **** }
 829              		.loc 1 292 0
 830 0020 1846     		mov	r0, r3
 831 0022 1037     		adds	r7, r7, #16
 832              		.cfi_def_cfa_offset 8
 833 0024 BD46     		mov	sp, r7
 834              		.cfi_def_cfa_register 13
 835              		@ sp needed
 836 0026 80BD     		pop	{r7, pc}
 837              		.cfi_endproc
 838              	.LFE75:
 839              		.size	set_source_channel, .-set_source_channel
 840              		.global	__aeabi_i2f
 841              		.section	.text.make_source_measurement,"ax",%progbits
 842              		.align	2
 843              		.global	make_source_measurement
ARM GAS  C:\Users\glenn\AppData\Local\Temp\ccV9538d.s 			page 21


 844              		.thumb
 845              		.thumb_func
 846              		.type	make_source_measurement, %function
 847              	make_source_measurement:
 848              	.LFB76:
 293:.\moisture_measurement/moisture_measurements.c **** 
 294:.\moisture_measurement/moisture_measurements.c **** int make_source_measurement(unsigned link_id, unsigned param_1,
 295:.\moisture_measurement/moisture_measurements.c ****   unsigned param_2, unsigned param_3, unsigned event, unsigned data)
 296:.\moisture_measurement/moisture_measurements.c **** {
 849              		.loc 1 296 0
 850              		.cfi_startproc
 851              		@ args = 8, pretend = 0, frame = 32
 852              		@ frame_needed = 1, uses_anonymous_args = 0
 853 0000 80B5     		push	{r7, lr}
 854              		.cfi_def_cfa_offset 8
 855              		.cfi_offset 7, -8
 856              		.cfi_offset 14, -4
 857 0002 88B0     		sub	sp, sp, #32
 858              		.cfi_def_cfa_offset 40
 859 0004 00AF     		add	r7, sp, #0
 860              		.cfi_def_cfa_register 7
 861 0006 F860     		str	r0, [r7, #12]
 862 0008 B960     		str	r1, [r7, #8]
 863 000a 7A60     		str	r2, [r7, #4]
 864 000c 3B60     		str	r3, [r7]
 297:.\moisture_measurement/moisture_measurements.c ****     unsigned i;
 298:.\moisture_measurement/moisture_measurements.c ****     float    low_voltage;
 299:.\moisture_measurement/moisture_measurements.c ****     float    high_voltage;
 300:.\moisture_measurement/moisture_measurements.c ****     float    sensor_voltage;
 301:.\moisture_measurement/moisture_measurements.c ****     
 302:.\moisture_measurement/moisture_measurements.c **** 
 303:.\moisture_measurement/moisture_measurements.c ****     
 304:.\moisture_measurement/moisture_measurements.c ****     Sink_Source_Setup_FastSelect(MOISTURE_SENSOR_NUMBER);
 865              		.loc 1 304 0
 866 000e 0920     		movs	r0, #9
 867 0010 FFF7FEFF 		bl	Sink_Source_Setup_FastSelect
 305:.\moisture_measurement/moisture_measurements.c ****     SIGMA_A_D_SelectConfiguration( 1,1);
 868              		.loc 1 305 0
 869 0014 0120     		movs	r0, #1
 870 0016 0121     		movs	r1, #1
 871 0018 FFF7FEFF 		bl	SIGMA_A_D_SelectConfiguration
 306:.\moisture_measurement/moisture_measurements.c **** 
 307:.\moisture_measurement/moisture_measurements.c ****     SIGMA_A_D_StartConvert();
 872              		.loc 1 307 0
 873 001c FFF7FEFF 		bl	SIGMA_A_D_StartConvert
 308:.\moisture_measurement/moisture_measurements.c **** 
 309:.\moisture_measurement/moisture_measurements.c ****     SIGMA_A_D_IsEndConversion( SIGMA_A_D_WAIT_FOR_RESULT );  // conversion is 3000/sec  max wait ti
 874              		.loc 1 309 0
 875 0020 0020     		movs	r0, #0
 876 0022 FFF7FEFF 		bl	SIGMA_A_D_IsEndConversion
 310:.\moisture_measurement/moisture_measurements.c ****     
 311:.\moisture_measurement/moisture_measurements.c ****     low_voltage = SIGMA_A_D_GetResult32();
 877              		.loc 1 311 0
 878 0026 FFF7FEFF 		bl	SIGMA_A_D_GetResult32
 879 002a 0346     		mov	r3, r0
 880 002c 1846     		mov	r0, r3
 881 002e FFF7FEFF 		bl	__aeabi_i2f
ARM GAS  C:\Users\glenn\AppData\Local\Temp\ccV9538d.s 			page 22


 882 0032 0346     		mov	r3, r0
 883 0034 BB61     		str	r3, [r7, #24]	@ float
 312:.\moisture_measurement/moisture_measurements.c **** 
 313:.\moisture_measurement/moisture_measurements.c ****     Sink_Source_Setup_FastSelect(MOISTURE_SENSOR_NUMBER+1);
 884              		.loc 1 313 0
 885 0036 0A20     		movs	r0, #10
 886 0038 FFF7FEFF 		bl	Sink_Source_Setup_FastSelect
 314:.\moisture_measurement/moisture_measurements.c ****     SIGMA_A_D_SelectConfiguration( 1,1);
 887              		.loc 1 314 0
 888 003c 0120     		movs	r0, #1
 889 003e 0121     		movs	r1, #1
 890 0040 FFF7FEFF 		bl	SIGMA_A_D_SelectConfiguration
 315:.\moisture_measurement/moisture_measurements.c ****     SIGMA_A_D_StartConvert();
 891              		.loc 1 315 0
 892 0044 FFF7FEFF 		bl	SIGMA_A_D_StartConvert
 316:.\moisture_measurement/moisture_measurements.c **** 
 317:.\moisture_measurement/moisture_measurements.c ****     SIGMA_A_D_IsEndConversion( SIGMA_A_D_WAIT_FOR_RESULT );  // conversion is 3000/sec  max wait ti
 893              		.loc 1 317 0
 894 0048 0020     		movs	r0, #0
 895 004a FFF7FEFF 		bl	SIGMA_A_D_IsEndConversion
 318:.\moisture_measurement/moisture_measurements.c ****     
 319:.\moisture_measurement/moisture_measurements.c ****     high_voltage = SIGMA_A_D_GetResult32();
 896              		.loc 1 319 0
 897 004e FFF7FEFF 		bl	SIGMA_A_D_GetResult32
 898 0052 0346     		mov	r3, r0
 899 0054 1846     		mov	r0, r3
 900 0056 FFF7FEFF 		bl	__aeabi_i2f
 901 005a 0346     		mov	r3, r0
 902 005c 7B61     		str	r3, [r7, #20]	@ float
 320:.\moisture_measurement/moisture_measurements.c ****     
 321:.\moisture_measurement/moisture_measurements.c **** 
 322:.\moisture_measurement/moisture_measurements.c ****     
 323:.\moisture_measurement/moisture_measurements.c ****     for( i = 0; i < MOISTURE_SENSOR_NUMBER; i++ )
 903              		.loc 1 323 0
 904 005e 0023     		movs	r3, #0
 905 0060 FB61     		str	r3, [r7, #28]
 906 0062 2BE0     		b	.L57
 907              	.L60:
 324:.\moisture_measurement/moisture_measurements.c ****     {
 325:.\moisture_measurement/moisture_measurements.c ****        if( get_moisture_sensor_configuration( i) != NOT_POPULATED )
 908              		.loc 1 325 0
 909 0064 F869     		ldr	r0, [r7, #28]
 910 0066 FFF7FEFF 		bl	get_moisture_sensor_configuration
 911 006a 0346     		mov	r3, r0
 912 006c 002B     		cmp	r3, #0
 913 006e 1CD0     		beq	.L58
 326:.\moisture_measurement/moisture_measurements.c ****        {
 327:.\moisture_measurement/moisture_measurements.c ****           Sink_Source_Setup_FastSelect(i);
 914              		.loc 1 327 0
 915 0070 FB69     		ldr	r3, [r7, #28]
 916 0072 DBB2     		uxtb	r3, r3
 917 0074 1846     		mov	r0, r3
 918 0076 FFF7FEFF 		bl	Sink_Source_Setup_FastSelect
 328:.\moisture_measurement/moisture_measurements.c ****           SIGMA_A_D_SelectConfiguration( 1,1);
 919              		.loc 1 328 0
 920 007a 0120     		movs	r0, #1
 921 007c 0121     		movs	r1, #1
ARM GAS  C:\Users\glenn\AppData\Local\Temp\ccV9538d.s 			page 23


 922 007e FFF7FEFF 		bl	SIGMA_A_D_SelectConfiguration
 329:.\moisture_measurement/moisture_measurements.c ****           SIGMA_A_D_StartConvert();
 923              		.loc 1 329 0
 924 0082 FFF7FEFF 		bl	SIGMA_A_D_StartConvert
 330:.\moisture_measurement/moisture_measurements.c ****           SIGMA_A_D_IsEndConversion( SIGMA_A_D_WAIT_FOR_RESULT );  // conversion is 3000/sec  max w
 925              		.loc 1 330 0
 926 0086 0020     		movs	r0, #0
 927 0088 FFF7FEFF 		bl	SIGMA_A_D_IsEndConversion
 331:.\moisture_measurement/moisture_measurements.c ****          
 332:.\moisture_measurement/moisture_measurements.c ****           sensor_voltage = SIGMA_A_D_GetResult32();
 928              		.loc 1 332 0
 929 008c FFF7FEFF 		bl	SIGMA_A_D_GetResult32
 930 0090 0346     		mov	r3, r0
 931 0092 1846     		mov	r0, r3
 932 0094 FFF7FEFF 		bl	__aeabi_i2f
 933 0098 0346     		mov	r3, r0
 934 009a 3B61     		str	r3, [r7, #16]	@ float
 333:.\moisture_measurement/moisture_measurements.c ****           store_moisture_data(i, high_voltage, low_voltage, sensor_voltage );
 935              		.loc 1 333 0
 936 009c F869     		ldr	r0, [r7, #28]
 937 009e 7969     		ldr	r1, [r7, #20]	@ float
 938 00a0 BA69     		ldr	r2, [r7, #24]	@ float
 939 00a2 3B69     		ldr	r3, [r7, #16]	@ float
 940 00a4 FFF7FEFF 		bl	store_moisture_data
 941 00a8 05E0     		b	.L59
 942              	.L58:
 334:.\moisture_measurement/moisture_measurements.c ****        }
 335:.\moisture_measurement/moisture_measurements.c ****        else
 336:.\moisture_measurement/moisture_measurements.c ****        {
 337:.\moisture_measurement/moisture_measurements.c ****           moisture_meaurements[ i] = 0.0;
 943              		.loc 1 337 0
 944 00aa 084A     		ldr	r2, .L62
 945 00ac FB69     		ldr	r3, [r7, #28]
 946 00ae 4FF00001 		mov	r1, #0
 947 00b2 42F82310 		str	r1, [r2, r3, lsl #2]	@ float
 948              	.L59:
 323:.\moisture_measurement/moisture_measurements.c ****     {
 949              		.loc 1 323 0 discriminator 2
 950 00b6 FB69     		ldr	r3, [r7, #28]
 951 00b8 0133     		adds	r3, r3, #1
 952 00ba FB61     		str	r3, [r7, #28]
 953              	.L57:
 323:.\moisture_measurement/moisture_measurements.c ****     {
 954              		.loc 1 323 0 is_stmt 0 discriminator 1
 955 00bc FB69     		ldr	r3, [r7, #28]
 956 00be 082B     		cmp	r3, #8
 957 00c0 D0D9     		bls	.L60
 338:.\moisture_measurement/moisture_measurements.c ****        }
 339:.\moisture_measurement/moisture_measurements.c ****     
 340:.\moisture_measurement/moisture_measurements.c ****     }
 341:.\moisture_measurement/moisture_measurements.c ****     return 0;
 958              		.loc 1 341 0 is_stmt 1
 959 00c2 0023     		movs	r3, #0
 342:.\moisture_measurement/moisture_measurements.c **** 
 343:.\moisture_measurement/moisture_measurements.c **** }
 960              		.loc 1 343 0
 961 00c4 1846     		mov	r0, r3
ARM GAS  C:\Users\glenn\AppData\Local\Temp\ccV9538d.s 			page 24


 962 00c6 2037     		adds	r7, r7, #32
 963              		.cfi_def_cfa_offset 8
 964 00c8 BD46     		mov	sp, r7
 965              		.cfi_def_cfa_register 13
 966              		@ sp needed
 967 00ca 80BD     		pop	{r7, pc}
 968              	.L63:
 969              		.align	2
 970              	.L62:
 971 00cc 0C000000 		.word	moisture_meaurements
 972              		.cfi_endproc
 973              	.LFE76:
 974              		.size	make_source_measurement, .-make_source_measurement
 975              		.section	.text.set_sink_channel,"ax",%progbits
 976              		.align	2
 977              		.global	set_sink_channel
 978              		.thumb
 979              		.thumb_func
 980              		.type	set_sink_channel, %function
 981              	set_sink_channel:
 982              	.LFB77:
 344:.\moisture_measurement/moisture_measurements.c **** 
 345:.\moisture_measurement/moisture_measurements.c **** 
 346:.\moisture_measurement/moisture_measurements.c **** 
 347:.\moisture_measurement/moisture_measurements.c **** 
 348:.\moisture_measurement/moisture_measurements.c **** 
 349:.\moisture_measurement/moisture_measurements.c **** 
 350:.\moisture_measurement/moisture_measurements.c **** 
 351:.\moisture_measurement/moisture_measurements.c **** int set_sink_channel(unsigned link_id, unsigned param_1,
 352:.\moisture_measurement/moisture_measurements.c ****   unsigned param_2, unsigned param_3, unsigned event, unsigned data)
 353:.\moisture_measurement/moisture_measurements.c **** {
 983              		.loc 1 353 0
 984              		.cfi_startproc
 985              		@ args = 8, pretend = 0, frame = 16
 986              		@ frame_needed = 1, uses_anonymous_args = 0
 987 0000 80B5     		push	{r7, lr}
 988              		.cfi_def_cfa_offset 8
 989              		.cfi_offset 7, -8
 990              		.cfi_offset 14, -4
 991 0002 84B0     		sub	sp, sp, #16
 992              		.cfi_def_cfa_offset 24
 993 0004 00AF     		add	r7, sp, #0
 994              		.cfi_def_cfa_register 7
 995 0006 F860     		str	r0, [r7, #12]
 996 0008 B960     		str	r1, [r7, #8]
 997 000a 7A60     		str	r2, [r7, #4]
 998 000c 3B60     		str	r3, [r7]
 354:.\moisture_measurement/moisture_measurements.c ****    
 355:.\moisture_measurement/moisture_measurements.c ****     Sink_Reg_Write( 3 );
 999              		.loc 1 355 0
 1000 000e 0320     		movs	r0, #3
 1001 0010 FFF7FEFF 		bl	Sink_Reg_Write
 356:.\moisture_measurement/moisture_measurements.c ****     Source_Reg_Write (2 );
 1002              		.loc 1 356 0
 1003 0014 0220     		movs	r0, #2
 1004 0016 FFF7FEFF 		bl	Source_Reg_Write
 357:.\moisture_measurement/moisture_measurements.c ****     
ARM GAS  C:\Users\glenn\AppData\Local\Temp\ccV9538d.s 			page 25


 358:.\moisture_measurement/moisture_measurements.c ****     
 359:.\moisture_measurement/moisture_measurements.c ****     return 0;
 1005              		.loc 1 359 0
 1006 001a 0023     		movs	r3, #0
 360:.\moisture_measurement/moisture_measurements.c **** }
 1007              		.loc 1 360 0
 1008 001c 1846     		mov	r0, r3
 1009 001e 1037     		adds	r7, r7, #16
 1010              		.cfi_def_cfa_offset 8
 1011 0020 BD46     		mov	sp, r7
 1012              		.cfi_def_cfa_register 13
 1013              		@ sp needed
 1014 0022 80BD     		pop	{r7, pc}
 1015              		.cfi_endproc
 1016              	.LFE77:
 1017              		.size	set_sink_channel, .-set_sink_channel
 1018              		.section	.text.make_dummy_measurement,"ax",%progbits
 1019              		.align	2
 1020              		.global	make_dummy_measurement
 1021              		.thumb
 1022              		.thumb_func
 1023              		.type	make_dummy_measurement, %function
 1024              	make_dummy_measurement:
 1025              	.LFB78:
 361:.\moisture_measurement/moisture_measurements.c **** 
 362:.\moisture_measurement/moisture_measurements.c **** /*
 363:.\moisture_measurement/moisture_measurements.c **** **
 364:.\moisture_measurement/moisture_measurements.c **** **  This Routine is used to balance time on opposite leg but make no measurement
 365:.\moisture_measurement/moisture_measurements.c **** **
 366:.\moisture_measurement/moisture_measurements.c **** **
 367:.\moisture_measurement/moisture_measurements.c **** **
 368:.\moisture_measurement/moisture_measurements.c **** **
 369:.\moisture_measurement/moisture_measurements.c **** */
 370:.\moisture_measurement/moisture_measurements.c **** 
 371:.\moisture_measurement/moisture_measurements.c **** 
 372:.\moisture_measurement/moisture_measurements.c **** int make_dummy_measurement(unsigned link_id, unsigned param_1,
 373:.\moisture_measurement/moisture_measurements.c ****   unsigned param_2, unsigned param_3, unsigned event, unsigned data)
 374:.\moisture_measurement/moisture_measurements.c **** {
 1026              		.loc 1 374 0
 1027              		.cfi_startproc
 1028              		@ args = 8, pretend = 0, frame = 24
 1029              		@ frame_needed = 1, uses_anonymous_args = 0
 1030 0000 80B5     		push	{r7, lr}
 1031              		.cfi_def_cfa_offset 8
 1032              		.cfi_offset 7, -8
 1033              		.cfi_offset 14, -4
 1034 0002 86B0     		sub	sp, sp, #24
 1035              		.cfi_def_cfa_offset 32
 1036 0004 00AF     		add	r7, sp, #0
 1037              		.cfi_def_cfa_register 7
 1038 0006 F860     		str	r0, [r7, #12]
 1039 0008 B960     		str	r1, [r7, #8]
 1040 000a 7A60     		str	r2, [r7, #4]
 1041 000c 3B60     		str	r3, [r7]
 375:.\moisture_measurement/moisture_measurements.c ****     unsigned i;
 376:.\moisture_measurement/moisture_measurements.c ****     //float    low_voltage;
 377:.\moisture_measurement/moisture_measurements.c ****     //float    high_voltage;
ARM GAS  C:\Users\glenn\AppData\Local\Temp\ccV9538d.s 			page 26


 378:.\moisture_measurement/moisture_measurements.c ****     //float    sensor_voltage;
 379:.\moisture_measurement/moisture_measurements.c ****     
 380:.\moisture_measurement/moisture_measurements.c ****     
 381:.\moisture_measurement/moisture_measurements.c ****     
 382:.\moisture_measurement/moisture_measurements.c ****     Sink_Source_Setup_FastSelect(MOISTURE_SENSOR_NUMBER);
 1042              		.loc 1 382 0
 1043 000e 0920     		movs	r0, #9
 1044 0010 FFF7FEFF 		bl	Sink_Source_Setup_FastSelect
 383:.\moisture_measurement/moisture_measurements.c ****     SIGMA_A_D_SelectConfiguration( 1,1);
 1045              		.loc 1 383 0
 1046 0014 0120     		movs	r0, #1
 1047 0016 0121     		movs	r1, #1
 1048 0018 FFF7FEFF 		bl	SIGMA_A_D_SelectConfiguration
 384:.\moisture_measurement/moisture_measurements.c **** 
 385:.\moisture_measurement/moisture_measurements.c ****     SIGMA_A_D_StartConvert();
 1049              		.loc 1 385 0
 1050 001c FFF7FEFF 		bl	SIGMA_A_D_StartConvert
 386:.\moisture_measurement/moisture_measurements.c ****     SIGMA_A_D_IsEndConversion( SIGMA_A_D_WAIT_FOR_RESULT );  // conversion is 3000/sec  max wait ti
 1051              		.loc 1 386 0
 1052 0020 0020     		movs	r0, #0
 1053 0022 FFF7FEFF 		bl	SIGMA_A_D_IsEndConversion
 387:.\moisture_measurement/moisture_measurements.c ****  
 388:.\moisture_measurement/moisture_measurements.c ****     //low_voltage = SIGMA_A_D_GetResult32();
 389:.\moisture_measurement/moisture_measurements.c **** 
 390:.\moisture_measurement/moisture_measurements.c ****     Sink_Source_Setup_FastSelect(MOISTURE_SENSOR_NUMBER+1);
 1054              		.loc 1 390 0
 1055 0026 0A20     		movs	r0, #10
 1056 0028 FFF7FEFF 		bl	Sink_Source_Setup_FastSelect
 391:.\moisture_measurement/moisture_measurements.c ****     SIGMA_A_D_SelectConfiguration( 1,1);
 1057              		.loc 1 391 0
 1058 002c 0120     		movs	r0, #1
 1059 002e 0121     		movs	r1, #1
 1060 0030 FFF7FEFF 		bl	SIGMA_A_D_SelectConfiguration
 392:.\moisture_measurement/moisture_measurements.c ****     SIGMA_A_D_StartConvert();
 1061              		.loc 1 392 0
 1062 0034 FFF7FEFF 		bl	SIGMA_A_D_StartConvert
 393:.\moisture_measurement/moisture_measurements.c ****     SIGMA_A_D_IsEndConversion( SIGMA_A_D_WAIT_FOR_RESULT );  // conversion is 3000/sec  max wait ti
 1063              		.loc 1 393 0
 1064 0038 0020     		movs	r0, #0
 1065 003a FFF7FEFF 		bl	SIGMA_A_D_IsEndConversion
 394:.\moisture_measurement/moisture_measurements.c **** 
 395:.\moisture_measurement/moisture_measurements.c ****    // high_voltage = SIGMA_A_D_GetResult32();
 396:.\moisture_measurement/moisture_measurements.c ****     
 397:.\moisture_measurement/moisture_measurements.c **** 
 398:.\moisture_measurement/moisture_measurements.c **** 
 399:.\moisture_measurement/moisture_measurements.c ****     for( i = 0; i < MOISTURE_SENSOR_NUMBER; i++ )
 1066              		.loc 1 399 0
 1067 003e 0023     		movs	r3, #0
 1068 0040 7B61     		str	r3, [r7, #20]
 1069 0042 10E0     		b	.L67
 1070              	.L68:
 400:.\moisture_measurement/moisture_measurements.c ****     {
 401:.\moisture_measurement/moisture_measurements.c ****        Sink_Source_Setup_FastSelect(i);
 1071              		.loc 1 401 0 discriminator 3
 1072 0044 7B69     		ldr	r3, [r7, #20]
 1073 0046 DBB2     		uxtb	r3, r3
 1074 0048 1846     		mov	r0, r3
ARM GAS  C:\Users\glenn\AppData\Local\Temp\ccV9538d.s 			page 27


 1075 004a FFF7FEFF 		bl	Sink_Source_Setup_FastSelect
 402:.\moisture_measurement/moisture_measurements.c ****        SIGMA_A_D_SelectConfiguration( 1,1);
 1076              		.loc 1 402 0 discriminator 3
 1077 004e 0120     		movs	r0, #1
 1078 0050 0121     		movs	r1, #1
 1079 0052 FFF7FEFF 		bl	SIGMA_A_D_SelectConfiguration
 403:.\moisture_measurement/moisture_measurements.c ****        SIGMA_A_D_StartConvert();
 1080              		.loc 1 403 0 discriminator 3
 1081 0056 FFF7FEFF 		bl	SIGMA_A_D_StartConvert
 404:.\moisture_measurement/moisture_measurements.c ****        SIGMA_A_D_IsEndConversion( SIGMA_A_D_WAIT_FOR_RESULT );  // conversion is 3000/sec  max wait
 1082              		.loc 1 404 0 discriminator 3
 1083 005a 0020     		movs	r0, #0
 1084 005c FFF7FEFF 		bl	SIGMA_A_D_IsEndConversion
 399:.\moisture_measurement/moisture_measurements.c ****     {
 1085              		.loc 1 399 0 discriminator 3
 1086 0060 7B69     		ldr	r3, [r7, #20]
 1087 0062 0133     		adds	r3, r3, #1
 1088 0064 7B61     		str	r3, [r7, #20]
 1089              	.L67:
 399:.\moisture_measurement/moisture_measurements.c ****     {
 1090              		.loc 1 399 0 is_stmt 0 discriminator 1
 1091 0066 7B69     		ldr	r3, [r7, #20]
 1092 0068 082B     		cmp	r3, #8
 1093 006a EBD9     		bls	.L68
 405:.\moisture_measurement/moisture_measurements.c ****   
 406:.\moisture_measurement/moisture_measurements.c ****        //sensor_voltage = SIGMA_A_D_GetResult32();
 407:.\moisture_measurement/moisture_measurements.c ****        ; //store_moisture_data(i, high_voltage, low_voltage, sensor_voltage );
 408:.\moisture_measurement/moisture_measurements.c ****     
 409:.\moisture_measurement/moisture_measurements.c ****     }
 410:.\moisture_measurement/moisture_measurements.c ****     return 0;
 1094              		.loc 1 410 0 is_stmt 1
 1095 006c 0023     		movs	r3, #0
 411:.\moisture_measurement/moisture_measurements.c **** 
 412:.\moisture_measurement/moisture_measurements.c **** }
 1096              		.loc 1 412 0
 1097 006e 1846     		mov	r0, r3
 1098 0070 1837     		adds	r7, r7, #24
 1099              		.cfi_def_cfa_offset 8
 1100 0072 BD46     		mov	sp, r7
 1101              		.cfi_def_cfa_register 13
 1102              		@ sp needed
 1103 0074 80BD     		pop	{r7, pc}
 1104              		.cfi_endproc
 1105              	.LFE78:
 1106              		.size	make_dummy_measurement, .-make_dummy_measurement
 1107 0076 00BF     		.section	.text.update_new_measurement_available,"ax",%progbits
 1108              		.align	2
 1109              		.global	update_new_measurement_available
 1110              		.thumb
 1111              		.thumb_func
 1112              		.type	update_new_measurement_available, %function
 1113              	update_new_measurement_available:
 1114              	.LFB79:
 413:.\moisture_measurement/moisture_measurements.c **** 
 414:.\moisture_measurement/moisture_measurements.c **** 
 415:.\moisture_measurement/moisture_measurements.c **** 
 416:.\moisture_measurement/moisture_measurements.c **** 
ARM GAS  C:\Users\glenn\AppData\Local\Temp\ccV9538d.s 			page 28


 417:.\moisture_measurement/moisture_measurements.c **** 
 418:.\moisture_measurement/moisture_measurements.c **** 
 419:.\moisture_measurement/moisture_measurements.c **** 
 420:.\moisture_measurement/moisture_measurements.c **** 
 421:.\moisture_measurement/moisture_measurements.c **** 
 422:.\moisture_measurement/moisture_measurements.c **** /*
 423:.\moisture_measurement/moisture_measurements.c **** **  Tell Modbus Devices that moisture measurement is done
 424:.\moisture_measurement/moisture_measurements.c **** **
 425:.\moisture_measurement/moisture_measurements.c **** */
 426:.\moisture_measurement/moisture_measurements.c **** 
 427:.\moisture_measurement/moisture_measurements.c **** int update_new_measurement_available(unsigned link_id, unsigned param_1,
 428:.\moisture_measurement/moisture_measurements.c ****   unsigned param_2, unsigned param_3, unsigned event, unsigned data)
 429:.\moisture_measurement/moisture_measurements.c **** {
 1115              		.loc 1 429 0
 1116              		.cfi_startproc
 1117              		@ args = 8, pretend = 0, frame = 24
 1118              		@ frame_needed = 1, uses_anonymous_args = 0
 1119 0000 80B5     		push	{r7, lr}
 1120              		.cfi_def_cfa_offset 8
 1121              		.cfi_offset 7, -8
 1122              		.cfi_offset 14, -4
 1123 0002 86B0     		sub	sp, sp, #24
 1124              		.cfi_def_cfa_offset 32
 1125 0004 00AF     		add	r7, sp, #0
 1126              		.cfi_def_cfa_register 7
 1127 0006 F860     		str	r0, [r7, #12]
 1128 0008 B960     		str	r1, [r7, #8]
 1129 000a 7A60     		str	r2, [r7, #4]
 1130 000c 3B60     		str	r3, [r7]
 430:.\moisture_measurement/moisture_measurements.c ****     uint16 temp;
 431:.\moisture_measurement/moisture_measurements.c ****     store_modbus_data_registers( NEW_MOISTURE_DATA, 1, &temp );
 1131              		.loc 1 431 0
 1132 000e 07F11603 		add	r3, r7, #22
 1133 0012 2220     		movs	r0, #34
 1134 0014 0121     		movs	r1, #1
 1135 0016 1A46     		mov	r2, r3
 1136 0018 FFF7FEFF 		bl	store_modbus_data_registers
 432:.\moisture_measurement/moisture_measurements.c ****     store_modbus_data_registers( MOISTURE_SENSOR_1_FLOAT, MOISTURE_SENSOR_NUMBER*2, (uint16 *)moist
 1137              		.loc 1 432 0
 1138 001c 3220     		movs	r0, #50
 1139 001e 1221     		movs	r1, #18
 1140 0020 034A     		ldr	r2, .L72
 1141 0022 FFF7FEFF 		bl	store_modbus_data_registers
 433:.\moisture_measurement/moisture_measurements.c ****     return 0;
 1142              		.loc 1 433 0
 1143 0026 0023     		movs	r3, #0
 434:.\moisture_measurement/moisture_measurements.c ****     
 435:.\moisture_measurement/moisture_measurements.c ****     
 436:.\moisture_measurement/moisture_measurements.c **** } 
 1144              		.loc 1 436 0
 1145 0028 1846     		mov	r0, r3
 1146 002a 1837     		adds	r7, r7, #24
 1147              		.cfi_def_cfa_offset 8
 1148 002c BD46     		mov	sp, r7
 1149              		.cfi_def_cfa_register 13
 1150              		@ sp needed
 1151 002e 80BD     		pop	{r7, pc}
ARM GAS  C:\Users\glenn\AppData\Local\Temp\ccV9538d.s 			page 29


 1152              	.L73:
 1153              		.align	2
 1154              	.L72:
 1155 0030 0C000000 		.word	moisture_meaurements
 1156              		.cfi_endproc
 1157              	.LFE79:
 1158              		.size	update_new_measurement_available, .-update_new_measurement_available
 1159              		.section	.text.setup_soil_temperature_measurements,"ax",%progbits
 1160              		.align	2
 1161              		.global	setup_soil_temperature_measurements
 1162              		.thumb
 1163              		.thumb_func
 1164              		.type	setup_soil_temperature_measurements, %function
 1165              	setup_soil_temperature_measurements:
 1166              	.LFB80:
 437:.\moisture_measurement/moisture_measurements.c **** 
 438:.\moisture_measurement/moisture_measurements.c **** 
 439:.\moisture_measurement/moisture_measurements.c **** /*
 440:.\moisture_measurement/moisture_measurements.c **** **
 441:.\moisture_measurement/moisture_measurements.c **** ** Temp Soil and other a/d measurements
 442:.\moisture_measurement/moisture_measurements.c **** **
 443:.\moisture_measurement/moisture_measurements.c **** **
 444:.\moisture_measurement/moisture_measurements.c **** **
 445:.\moisture_measurement/moisture_measurements.c **** */
 446:.\moisture_measurement/moisture_measurements.c **** 
 447:.\moisture_measurement/moisture_measurements.c **** int setup_soil_temperature_measurements(unsigned link_id, unsigned param_1,
 448:.\moisture_measurement/moisture_measurements.c ****   unsigned param_2, unsigned param_3, unsigned event, unsigned data)
 449:.\moisture_measurement/moisture_measurements.c **** {
 1167              		.loc 1 449 0
 1168              		.cfi_startproc
 1169              		@ args = 8, pretend = 0, frame = 16
 1170              		@ frame_needed = 1, uses_anonymous_args = 0
 1171 0000 80B5     		push	{r7, lr}
 1172              		.cfi_def_cfa_offset 8
 1173              		.cfi_offset 7, -8
 1174              		.cfi_offset 14, -4
 1175 0002 84B0     		sub	sp, sp, #16
 1176              		.cfi_def_cfa_offset 24
 1177 0004 00AF     		add	r7, sp, #0
 1178              		.cfi_def_cfa_register 7
 1179 0006 F860     		str	r0, [r7, #12]
 1180 0008 B960     		str	r1, [r7, #8]
 1181 000a 7A60     		str	r2, [r7, #4]
 1182 000c 3B60     		str	r3, [r7]
 450:.\moisture_measurement/moisture_measurements.c **** 
 451:.\moisture_measurement/moisture_measurements.c ****     ad_setup_interrupt( );
 1183              		.loc 1 451 0
 1184 000e FFF7FEFF 		bl	ad_setup_interrupt
 452:.\moisture_measurement/moisture_measurements.c ****     ad_init_se( );
 1185              		.loc 1 452 0
 1186 0012 FFF7FEFF 		bl	ad_init_se
 453:.\moisture_measurement/moisture_measurements.c ****     return 0;
 1187              		.loc 1 453 0
 1188 0016 0023     		movs	r3, #0
 454:.\moisture_measurement/moisture_measurements.c **** }
 1189              		.loc 1 454 0
 1190 0018 1846     		mov	r0, r3
ARM GAS  C:\Users\glenn\AppData\Local\Temp\ccV9538d.s 			page 30


 1191 001a 1037     		adds	r7, r7, #16
 1192              		.cfi_def_cfa_offset 8
 1193 001c BD46     		mov	sp, r7
 1194              		.cfi_def_cfa_register 13
 1195              		@ sp needed
 1196 001e 80BD     		pop	{r7, pc}
 1197              		.cfi_endproc
 1198              	.LFE80:
 1199              		.size	setup_soil_temperature_measurements, .-setup_soil_temperature_measurements
 1200              		.section	.text.measure_soil_temperature,"ax",%progbits
 1201              		.align	2
 1202              		.global	measure_soil_temperature
 1203              		.thumb
 1204              		.thumb_func
 1205              		.type	measure_soil_temperature, %function
 1206              	measure_soil_temperature:
 1207              	.LFB81:
 455:.\moisture_measurement/moisture_measurements.c **** 
 456:.\moisture_measurement/moisture_measurements.c **** int measure_soil_temperature(unsigned link_id, unsigned param_1,
 457:.\moisture_measurement/moisture_measurements.c ****   unsigned param_2, unsigned param_3, unsigned event, unsigned data)
 458:.\moisture_measurement/moisture_measurements.c **** {
 1208              		.loc 1 458 0
 1209              		.cfi_startproc
 1210              		@ args = 8, pretend = 0, frame = 16
 1211              		@ frame_needed = 1, uses_anonymous_args = 0
 1212 0000 80B5     		push	{r7, lr}
 1213              		.cfi_def_cfa_offset 8
 1214              		.cfi_offset 7, -8
 1215              		.cfi_offset 14, -4
 1216 0002 84B0     		sub	sp, sp, #16
 1217              		.cfi_def_cfa_offset 24
 1218 0004 00AF     		add	r7, sp, #0
 1219              		.cfi_def_cfa_register 7
 1220 0006 F860     		str	r0, [r7, #12]
 1221 0008 B960     		str	r1, [r7, #8]
 1222 000a 7A60     		str	r2, [r7, #4]
 1223 000c 3B60     		str	r3, [r7]
 459:.\moisture_measurement/moisture_measurements.c ****    ad_process_se_second();
 1224              		.loc 1 459 0
 1225 000e FFF7FEFF 		bl	ad_process_se_second
 460:.\moisture_measurement/moisture_measurements.c ****    return 0;
 1226              		.loc 1 460 0
 1227 0012 0023     		movs	r3, #0
 461:.\moisture_measurement/moisture_measurements.c **** }
 1228              		.loc 1 461 0
 1229 0014 1846     		mov	r0, r3
 1230 0016 1037     		adds	r7, r7, #16
 1231              		.cfi_def_cfa_offset 8
 1232 0018 BD46     		mov	sp, r7
 1233              		.cfi_def_cfa_register 13
 1234              		@ sp needed
 1235 001a 80BD     		pop	{r7, pc}
 1236              		.cfi_endproc
 1237              	.LFE81:
 1238              		.size	measure_soil_temperature, .-measure_soil_temperature
 1239              		.section	.text.update_soil_temperature_minute,"ax",%progbits
 1240              		.align	2
ARM GAS  C:\Users\glenn\AppData\Local\Temp\ccV9538d.s 			page 31


 1241              		.global	update_soil_temperature_minute
 1242              		.thumb
 1243              		.thumb_func
 1244              		.type	update_soil_temperature_minute, %function
 1245              	update_soil_temperature_minute:
 1246              	.LFB82:
 462:.\moisture_measurement/moisture_measurements.c **** 
 463:.\moisture_measurement/moisture_measurements.c **** int update_soil_temperature_minute(unsigned link_id, unsigned param_1,
 464:.\moisture_measurement/moisture_measurements.c ****   unsigned param_2, unsigned param_3, unsigned event, unsigned data)
 465:.\moisture_measurement/moisture_measurements.c **** {
 1247              		.loc 1 465 0
 1248              		.cfi_startproc
 1249              		@ args = 8, pretend = 0, frame = 16
 1250              		@ frame_needed = 1, uses_anonymous_args = 0
 1251 0000 80B5     		push	{r7, lr}
 1252              		.cfi_def_cfa_offset 8
 1253              		.cfi_offset 7, -8
 1254              		.cfi_offset 14, -4
 1255 0002 84B0     		sub	sp, sp, #16
 1256              		.cfi_def_cfa_offset 24
 1257 0004 00AF     		add	r7, sp, #0
 1258              		.cfi_def_cfa_register 7
 1259 0006 F860     		str	r0, [r7, #12]
 1260 0008 B960     		str	r1, [r7, #8]
 1261 000a 7A60     		str	r2, [r7, #4]
 1262 000c 3B60     		str	r3, [r7]
 466:.\moisture_measurement/moisture_measurements.c ****     ad_process_minute_second();
 1263              		.loc 1 466 0
 1264 000e FFF7FEFF 		bl	ad_process_minute_second
 467:.\moisture_measurement/moisture_measurements.c ****     return 0;
 1265              		.loc 1 467 0
 1266 0012 0023     		movs	r3, #0
 468:.\moisture_measurement/moisture_measurements.c **** }
 1267              		.loc 1 468 0
 1268 0014 1846     		mov	r0, r3
 1269 0016 1037     		adds	r7, r7, #16
 1270              		.cfi_def_cfa_offset 8
 1271 0018 BD46     		mov	sp, r7
 1272              		.cfi_def_cfa_register 13
 1273              		@ sp needed
 1274 001a 80BD     		pop	{r7, pc}
 1275              		.cfi_endproc
 1276              	.LFE82:
 1277              		.size	update_soil_temperature_minute, .-update_soil_temperature_minute
 1278              		.text
 1279              	.Letext0:
 1280              		.file 2 "c:\\program files (x86)\\cypress\\psoc creator\\3.3\\psoc creator\\import\\gnu\\arm\\4.9.
 1281              		.file 3 "c:\\program files (x86)\\cypress\\psoc creator\\3.3\\psoc creator\\import\\gnu\\arm\\4.9.
 1282              		.file 4 "Generated_Source\\PSoC5/cytypes.h"
 1283              		.file 5 "Generated_Source\\PSoC5/core_cm3.h"
 1284              		.file 6 ".\\rtu_modbus/process_modbus_message.h"
 1285              		.file 7 ".\\moisture_measurement\\cb_logging.h"