ARM GAS  C:\Users\glenn\AppData\Local\Temp\ccCQ06T7.s 			page 1


   1              		.syntax unified
   2              		.cpu cortex-m3
   3              		.fpu softvfp
   4              		.eabi_attribute 20, 1
   5              		.eabi_attribute 21, 1
   6              		.eabi_attribute 23, 3
   7              		.eabi_attribute 24, 1
   8              		.eabi_attribute 25, 1
   9              		.eabi_attribute 26, 1
  10              		.eabi_attribute 30, 6
  11              		.eabi_attribute 34, 1
  12              		.eabi_attribute 18, 4
  13              		.thumb
  14              		.file	"Moisture_Drive_Pins_B.c"
  15              		.text
  16              	.Ltext0:
  17              		.cfi_sections	.debug_frame
  18              		.section	.text.Moisture_Drive_Pins_B_Write,"ax",%progbits
  19              		.align	2
  20              		.global	Moisture_Drive_Pins_B_Write
  21              		.thumb
  22              		.thumb_func
  23              		.type	Moisture_Drive_Pins_B_Write, %function
  24              	Moisture_Drive_Pins_B_Write:
  25              	.LFB0:
  26              		.file 1 ".\\Generated_Source\\PSoC5\\Moisture_Drive_Pins_B.c"
   1:.\Generated_Source\PSoC5/Moisture_Drive_Pins_B.c **** /*******************************************************************************
   2:.\Generated_Source\PSoC5/Moisture_Drive_Pins_B.c **** * File Name: Moisture_Drive_Pins_B.c  
   3:.\Generated_Source\PSoC5/Moisture_Drive_Pins_B.c **** * Version 2.20
   4:.\Generated_Source\PSoC5/Moisture_Drive_Pins_B.c **** *
   5:.\Generated_Source\PSoC5/Moisture_Drive_Pins_B.c **** * Description:
   6:.\Generated_Source\PSoC5/Moisture_Drive_Pins_B.c **** *  This file contains API to enable firmware control of a Pins component.
   7:.\Generated_Source\PSoC5/Moisture_Drive_Pins_B.c **** *
   8:.\Generated_Source\PSoC5/Moisture_Drive_Pins_B.c **** * Note:
   9:.\Generated_Source\PSoC5/Moisture_Drive_Pins_B.c **** *
  10:.\Generated_Source\PSoC5/Moisture_Drive_Pins_B.c **** ********************************************************************************
  11:.\Generated_Source\PSoC5/Moisture_Drive_Pins_B.c **** * Copyright 2008-2015, Cypress Semiconductor Corporation.  All rights reserved.
  12:.\Generated_Source\PSoC5/Moisture_Drive_Pins_B.c **** * You may use this file only in accordance with the license, terms, conditions, 
  13:.\Generated_Source\PSoC5/Moisture_Drive_Pins_B.c **** * disclaimers, and limitations in the end user license agreement accompanying 
  14:.\Generated_Source\PSoC5/Moisture_Drive_Pins_B.c **** * the software package with which this file was provided.
  15:.\Generated_Source\PSoC5/Moisture_Drive_Pins_B.c **** *******************************************************************************/
  16:.\Generated_Source\PSoC5/Moisture_Drive_Pins_B.c **** 
  17:.\Generated_Source\PSoC5/Moisture_Drive_Pins_B.c **** #include "cytypes.h"
  18:.\Generated_Source\PSoC5/Moisture_Drive_Pins_B.c **** #include "Moisture_Drive_Pins_B.h"
  19:.\Generated_Source\PSoC5/Moisture_Drive_Pins_B.c **** 
  20:.\Generated_Source\PSoC5/Moisture_Drive_Pins_B.c **** /* APIs are not generated for P15[7:6] on PSoC 5 */
  21:.\Generated_Source\PSoC5/Moisture_Drive_Pins_B.c **** #if !(CY_PSOC5A &&\
  22:.\Generated_Source\PSoC5/Moisture_Drive_Pins_B.c **** 	 Moisture_Drive_Pins_B__PORT == 15 && ((Moisture_Drive_Pins_B__MASK & 0xC0) != 0))
  23:.\Generated_Source\PSoC5/Moisture_Drive_Pins_B.c **** 
  24:.\Generated_Source\PSoC5/Moisture_Drive_Pins_B.c **** 
  25:.\Generated_Source\PSoC5/Moisture_Drive_Pins_B.c **** /*******************************************************************************
  26:.\Generated_Source\PSoC5/Moisture_Drive_Pins_B.c **** * Function Name: Moisture_Drive_Pins_B_Write
  27:.\Generated_Source\PSoC5/Moisture_Drive_Pins_B.c **** ****************************************************************************//**
  28:.\Generated_Source\PSoC5/Moisture_Drive_Pins_B.c **** *
  29:.\Generated_Source\PSoC5/Moisture_Drive_Pins_B.c **** * \brief Writes the value to the physical port (data output register), masking
  30:.\Generated_Source\PSoC5/Moisture_Drive_Pins_B.c **** *  and shifting the bits appropriately. 
  31:.\Generated_Source\PSoC5/Moisture_Drive_Pins_B.c **** *
ARM GAS  C:\Users\glenn\AppData\Local\Temp\ccCQ06T7.s 			page 2


  32:.\Generated_Source\PSoC5/Moisture_Drive_Pins_B.c **** * The data output register controls the signal applied to the physical pin in 
  33:.\Generated_Source\PSoC5/Moisture_Drive_Pins_B.c **** * conjunction with the drive mode parameter. This function avoids changing 
  34:.\Generated_Source\PSoC5/Moisture_Drive_Pins_B.c **** * other bits in the port by using the appropriate method (read-modify-write or
  35:.\Generated_Source\PSoC5/Moisture_Drive_Pins_B.c **** * bit banding).
  36:.\Generated_Source\PSoC5/Moisture_Drive_Pins_B.c **** *
  37:.\Generated_Source\PSoC5/Moisture_Drive_Pins_B.c **** * <b>Note</b> This function should not be used on a hardware digital output pin 
  38:.\Generated_Source\PSoC5/Moisture_Drive_Pins_B.c **** * as it is driven by the hardware signal attached to it.
  39:.\Generated_Source\PSoC5/Moisture_Drive_Pins_B.c **** *
  40:.\Generated_Source\PSoC5/Moisture_Drive_Pins_B.c **** * \param value
  41:.\Generated_Source\PSoC5/Moisture_Drive_Pins_B.c **** *  Value to write to the component instance.
  42:.\Generated_Source\PSoC5/Moisture_Drive_Pins_B.c **** *
  43:.\Generated_Source\PSoC5/Moisture_Drive_Pins_B.c **** * \return 
  44:.\Generated_Source\PSoC5/Moisture_Drive_Pins_B.c **** *  None 
  45:.\Generated_Source\PSoC5/Moisture_Drive_Pins_B.c **** *
  46:.\Generated_Source\PSoC5/Moisture_Drive_Pins_B.c **** * \sideeffect
  47:.\Generated_Source\PSoC5/Moisture_Drive_Pins_B.c **** *  If you use read-modify-write operations that are not atomic; the Interrupt 
  48:.\Generated_Source\PSoC5/Moisture_Drive_Pins_B.c **** *  Service Routines (ISR) can cause corruption of this function. An ISR that 
  49:.\Generated_Source\PSoC5/Moisture_Drive_Pins_B.c **** *  interrupts this function and performs writes to the Pins component data 
  50:.\Generated_Source\PSoC5/Moisture_Drive_Pins_B.c **** *  register can cause corrupted port data. To avoid this issue, you should 
  51:.\Generated_Source\PSoC5/Moisture_Drive_Pins_B.c **** *  either use the Per-Pin APIs (primary method) or disable interrupts around 
  52:.\Generated_Source\PSoC5/Moisture_Drive_Pins_B.c **** *  this function.
  53:.\Generated_Source\PSoC5/Moisture_Drive_Pins_B.c **** *
  54:.\Generated_Source\PSoC5/Moisture_Drive_Pins_B.c **** * \funcusage
  55:.\Generated_Source\PSoC5/Moisture_Drive_Pins_B.c **** *  \snippet Moisture_Drive_Pins_B_SUT.c usage_Moisture_Drive_Pins_B_Write
  56:.\Generated_Source\PSoC5/Moisture_Drive_Pins_B.c **** *******************************************************************************/
  57:.\Generated_Source\PSoC5/Moisture_Drive_Pins_B.c **** void Moisture_Drive_Pins_B_Write(uint8 value)
  58:.\Generated_Source\PSoC5/Moisture_Drive_Pins_B.c **** {
  27              		.loc 1 58 0
  28              		.cfi_startproc
  29              		@ args = 0, pretend = 0, frame = 16
  30              		@ frame_needed = 1, uses_anonymous_args = 0
  31              		@ link register save eliminated.
  32 0000 80B4     		push	{r7}
  33              		.cfi_def_cfa_offset 4
  34              		.cfi_offset 7, -4
  35 0002 85B0     		sub	sp, sp, #20
  36              		.cfi_def_cfa_offset 24
  37 0004 00AF     		add	r7, sp, #0
  38              		.cfi_def_cfa_register 7
  39 0006 0346     		mov	r3, r0
  40 0008 FB71     		strb	r3, [r7, #7]
  59:.\Generated_Source\PSoC5/Moisture_Drive_Pins_B.c ****     uint8 staticBits = (Moisture_Drive_Pins_B_DR & (uint8)(~Moisture_Drive_Pins_B_MASK));
  41              		.loc 1 59 0
  42 000a 0A4B     		ldr	r3, .L2
  43 000c 1B78     		ldrb	r3, [r3]
  44 000e DBB2     		uxtb	r3, r3
  45 0010 23F00F03 		bic	r3, r3, #15
  46 0014 FB73     		strb	r3, [r7, #15]
  60:.\Generated_Source\PSoC5/Moisture_Drive_Pins_B.c ****     Moisture_Drive_Pins_B_DR = staticBits | ((uint8)(value << Moisture_Drive_Pins_B_SHIFT) & Moistu
  47              		.loc 1 60 0
  48 0016 0749     		ldr	r1, .L2
  49 0018 FB79     		ldrb	r3, [r7, #7]
  50 001a 03F00F03 		and	r3, r3, #15
  51 001e DAB2     		uxtb	r2, r3
  52 0020 FB7B     		ldrb	r3, [r7, #15]
  53 0022 1343     		orrs	r3, r3, r2
  54 0024 DBB2     		uxtb	r3, r3
ARM GAS  C:\Users\glenn\AppData\Local\Temp\ccCQ06T7.s 			page 3


  55 0026 0B70     		strb	r3, [r1]
  61:.\Generated_Source\PSoC5/Moisture_Drive_Pins_B.c **** }
  56              		.loc 1 61 0
  57 0028 1437     		adds	r7, r7, #20
  58              		.cfi_def_cfa_offset 4
  59 002a BD46     		mov	sp, r7
  60              		.cfi_def_cfa_register 13
  61              		@ sp needed
  62 002c 5DF8047B 		ldr	r7, [sp], #4
  63              		.cfi_restore 7
  64              		.cfi_def_cfa_offset 0
  65 0030 7047     		bx	lr
  66              	.L3:
  67 0032 00BF     		.align	2
  68              	.L2:
  69 0034 00510040 		.word	1073762560
  70              		.cfi_endproc
  71              	.LFE0:
  72              		.size	Moisture_Drive_Pins_B_Write, .-Moisture_Drive_Pins_B_Write
  73              		.section	.text.Moisture_Drive_Pins_B_SetDriveMode,"ax",%progbits
  74              		.align	2
  75              		.global	Moisture_Drive_Pins_B_SetDriveMode
  76              		.thumb
  77              		.thumb_func
  78              		.type	Moisture_Drive_Pins_B_SetDriveMode, %function
  79              	Moisture_Drive_Pins_B_SetDriveMode:
  80              	.LFB1:
  62:.\Generated_Source\PSoC5/Moisture_Drive_Pins_B.c **** 
  63:.\Generated_Source\PSoC5/Moisture_Drive_Pins_B.c **** 
  64:.\Generated_Source\PSoC5/Moisture_Drive_Pins_B.c **** /*******************************************************************************
  65:.\Generated_Source\PSoC5/Moisture_Drive_Pins_B.c **** * Function Name: Moisture_Drive_Pins_B_SetDriveMode
  66:.\Generated_Source\PSoC5/Moisture_Drive_Pins_B.c **** ****************************************************************************//**
  67:.\Generated_Source\PSoC5/Moisture_Drive_Pins_B.c **** *
  68:.\Generated_Source\PSoC5/Moisture_Drive_Pins_B.c **** * \brief Sets the drive mode for each of the Pins component's pins.
  69:.\Generated_Source\PSoC5/Moisture_Drive_Pins_B.c **** * 
  70:.\Generated_Source\PSoC5/Moisture_Drive_Pins_B.c **** * <b>Note</b> This affects all pins in the Pins component instance. Use the
  71:.\Generated_Source\PSoC5/Moisture_Drive_Pins_B.c **** * Per-Pin APIs if you wish to control individual pin's drive modes.
  72:.\Generated_Source\PSoC5/Moisture_Drive_Pins_B.c **** *
  73:.\Generated_Source\PSoC5/Moisture_Drive_Pins_B.c **** * \param mode
  74:.\Generated_Source\PSoC5/Moisture_Drive_Pins_B.c **** *  Mode for the selected signals. Valid options are documented in 
  75:.\Generated_Source\PSoC5/Moisture_Drive_Pins_B.c **** *  \ref driveMode.
  76:.\Generated_Source\PSoC5/Moisture_Drive_Pins_B.c **** *
  77:.\Generated_Source\PSoC5/Moisture_Drive_Pins_B.c **** * \return
  78:.\Generated_Source\PSoC5/Moisture_Drive_Pins_B.c **** *  None
  79:.\Generated_Source\PSoC5/Moisture_Drive_Pins_B.c **** *
  80:.\Generated_Source\PSoC5/Moisture_Drive_Pins_B.c **** * \sideeffect
  81:.\Generated_Source\PSoC5/Moisture_Drive_Pins_B.c **** *  If you use read-modify-write operations that are not atomic, the ISR can
  82:.\Generated_Source\PSoC5/Moisture_Drive_Pins_B.c **** *  cause corruption of this function. An ISR that interrupts this function 
  83:.\Generated_Source\PSoC5/Moisture_Drive_Pins_B.c **** *  and performs writes to the Pins component Drive Mode registers can cause 
  84:.\Generated_Source\PSoC5/Moisture_Drive_Pins_B.c **** *  corrupted port data. To avoid this issue, you should either use the Per-Pin
  85:.\Generated_Source\PSoC5/Moisture_Drive_Pins_B.c **** *  APIs (primary method) or disable interrupts around this function.
  86:.\Generated_Source\PSoC5/Moisture_Drive_Pins_B.c **** *
  87:.\Generated_Source\PSoC5/Moisture_Drive_Pins_B.c **** * \funcusage
  88:.\Generated_Source\PSoC5/Moisture_Drive_Pins_B.c **** *  \snippet Moisture_Drive_Pins_B_SUT.c usage_Moisture_Drive_Pins_B_SetDriveMode
  89:.\Generated_Source\PSoC5/Moisture_Drive_Pins_B.c **** *******************************************************************************/
  90:.\Generated_Source\PSoC5/Moisture_Drive_Pins_B.c **** void Moisture_Drive_Pins_B_SetDriveMode(uint8 mode)
  91:.\Generated_Source\PSoC5/Moisture_Drive_Pins_B.c **** {
ARM GAS  C:\Users\glenn\AppData\Local\Temp\ccCQ06T7.s 			page 4


  81              		.loc 1 91 0
  82              		.cfi_startproc
  83              		@ args = 0, pretend = 0, frame = 8
  84              		@ frame_needed = 1, uses_anonymous_args = 0
  85              		@ link register save eliminated.
  86 0000 80B4     		push	{r7}
  87              		.cfi_def_cfa_offset 4
  88              		.cfi_offset 7, -4
  89 0002 83B0     		sub	sp, sp, #12
  90              		.cfi_def_cfa_offset 16
  91 0004 00AF     		add	r7, sp, #0
  92              		.cfi_def_cfa_register 7
  93 0006 0346     		mov	r3, r0
  94 0008 FB71     		strb	r3, [r7, #7]
  92:.\Generated_Source\PSoC5/Moisture_Drive_Pins_B.c **** 	CyPins_SetPinDriveMode(Moisture_Drive_Pins_B_0, mode);
  95              		.loc 1 92 0
  96 000a 224B     		ldr	r3, .L5
  97 000c 214A     		ldr	r2, .L5
  98 000e 1278     		ldrb	r2, [r2]
  99 0010 D2B2     		uxtb	r2, r2
 100 0012 D2B2     		uxtb	r2, r2
 101 0014 22F00E02 		bic	r2, r2, #14
 102 0018 D1B2     		uxtb	r1, r2
 103 001a FA79     		ldrb	r2, [r7, #7]	@ zero_extendqisi2
 104 001c 02F00E02 		and	r2, r2, #14
 105 0020 D2B2     		uxtb	r2, r2
 106 0022 0A43     		orrs	r2, r2, r1
 107 0024 D2B2     		uxtb	r2, r2
 108 0026 D2B2     		uxtb	r2, r2
 109 0028 1A70     		strb	r2, [r3]
  93:.\Generated_Source\PSoC5/Moisture_Drive_Pins_B.c **** 	CyPins_SetPinDriveMode(Moisture_Drive_Pins_B_1, mode);
 110              		.loc 1 93 0
 111 002a 1B4B     		ldr	r3, .L5+4
 112 002c 1A4A     		ldr	r2, .L5+4
 113 002e 1278     		ldrb	r2, [r2]
 114 0030 D2B2     		uxtb	r2, r2
 115 0032 D2B2     		uxtb	r2, r2
 116 0034 22F00E02 		bic	r2, r2, #14
 117 0038 D1B2     		uxtb	r1, r2
 118 003a FA79     		ldrb	r2, [r7, #7]	@ zero_extendqisi2
 119 003c 02F00E02 		and	r2, r2, #14
 120 0040 D2B2     		uxtb	r2, r2
 121 0042 0A43     		orrs	r2, r2, r1
 122 0044 D2B2     		uxtb	r2, r2
 123 0046 D2B2     		uxtb	r2, r2
 124 0048 1A70     		strb	r2, [r3]
  94:.\Generated_Source\PSoC5/Moisture_Drive_Pins_B.c **** 	CyPins_SetPinDriveMode(Moisture_Drive_Pins_B_2, mode);
 125              		.loc 1 94 0
 126 004a 144B     		ldr	r3, .L5+8
 127 004c 134A     		ldr	r2, .L5+8
 128 004e 1278     		ldrb	r2, [r2]
 129 0050 D2B2     		uxtb	r2, r2
 130 0052 D2B2     		uxtb	r2, r2
 131 0054 22F00E02 		bic	r2, r2, #14
 132 0058 D1B2     		uxtb	r1, r2
 133 005a FA79     		ldrb	r2, [r7, #7]	@ zero_extendqisi2
 134 005c 02F00E02 		and	r2, r2, #14
ARM GAS  C:\Users\glenn\AppData\Local\Temp\ccCQ06T7.s 			page 5


 135 0060 D2B2     		uxtb	r2, r2
 136 0062 0A43     		orrs	r2, r2, r1
 137 0064 D2B2     		uxtb	r2, r2
 138 0066 D2B2     		uxtb	r2, r2
 139 0068 1A70     		strb	r2, [r3]
  95:.\Generated_Source\PSoC5/Moisture_Drive_Pins_B.c **** 	CyPins_SetPinDriveMode(Moisture_Drive_Pins_B_3, mode);
 140              		.loc 1 95 0
 141 006a 0D4B     		ldr	r3, .L5+12
 142 006c 0C4A     		ldr	r2, .L5+12
 143 006e 1278     		ldrb	r2, [r2]
 144 0070 D2B2     		uxtb	r2, r2
 145 0072 D2B2     		uxtb	r2, r2
 146 0074 22F00E02 		bic	r2, r2, #14
 147 0078 D1B2     		uxtb	r1, r2
 148 007a FA79     		ldrb	r2, [r7, #7]	@ zero_extendqisi2
 149 007c 02F00E02 		and	r2, r2, #14
 150 0080 D2B2     		uxtb	r2, r2
 151 0082 0A43     		orrs	r2, r2, r1
 152 0084 D2B2     		uxtb	r2, r2
 153 0086 D2B2     		uxtb	r2, r2
 154 0088 1A70     		strb	r2, [r3]
  96:.\Generated_Source\PSoC5/Moisture_Drive_Pins_B.c **** }
 155              		.loc 1 96 0
 156 008a 0C37     		adds	r7, r7, #12
 157              		.cfi_def_cfa_offset 4
 158 008c BD46     		mov	sp, r7
 159              		.cfi_def_cfa_register 13
 160              		@ sp needed
 161 008e 5DF8047B 		ldr	r7, [sp], #4
 162              		.cfi_restore 7
 163              		.cfi_def_cfa_offset 0
 164 0092 7047     		bx	lr
 165              	.L6:
 166              		.align	2
 167              	.L5:
 168 0094 00500040 		.word	1073762304
 169 0098 01500040 		.word	1073762305
 170 009c 02500040 		.word	1073762306
 171 00a0 03500040 		.word	1073762307
 172              		.cfi_endproc
 173              	.LFE1:
 174              		.size	Moisture_Drive_Pins_B_SetDriveMode, .-Moisture_Drive_Pins_B_SetDriveMode
 175              		.section	.text.Moisture_Drive_Pins_B_Read,"ax",%progbits
 176              		.align	2
 177              		.global	Moisture_Drive_Pins_B_Read
 178              		.thumb
 179              		.thumb_func
 180              		.type	Moisture_Drive_Pins_B_Read, %function
 181              	Moisture_Drive_Pins_B_Read:
 182              	.LFB2:
  97:.\Generated_Source\PSoC5/Moisture_Drive_Pins_B.c **** 
  98:.\Generated_Source\PSoC5/Moisture_Drive_Pins_B.c **** 
  99:.\Generated_Source\PSoC5/Moisture_Drive_Pins_B.c **** /*******************************************************************************
 100:.\Generated_Source\PSoC5/Moisture_Drive_Pins_B.c **** * Function Name: Moisture_Drive_Pins_B_Read
 101:.\Generated_Source\PSoC5/Moisture_Drive_Pins_B.c **** ****************************************************************************//**
 102:.\Generated_Source\PSoC5/Moisture_Drive_Pins_B.c **** *
 103:.\Generated_Source\PSoC5/Moisture_Drive_Pins_B.c **** * \brief Reads the associated physical port (pin status register) and masks 
ARM GAS  C:\Users\glenn\AppData\Local\Temp\ccCQ06T7.s 			page 6


 104:.\Generated_Source\PSoC5/Moisture_Drive_Pins_B.c **** *  the required bits according to the width and bit position of the component
 105:.\Generated_Source\PSoC5/Moisture_Drive_Pins_B.c **** *  instance. 
 106:.\Generated_Source\PSoC5/Moisture_Drive_Pins_B.c **** *
 107:.\Generated_Source\PSoC5/Moisture_Drive_Pins_B.c **** * The pin's status register returns the current logic level present on the 
 108:.\Generated_Source\PSoC5/Moisture_Drive_Pins_B.c **** * physical pin.
 109:.\Generated_Source\PSoC5/Moisture_Drive_Pins_B.c **** *
 110:.\Generated_Source\PSoC5/Moisture_Drive_Pins_B.c **** * \return 
 111:.\Generated_Source\PSoC5/Moisture_Drive_Pins_B.c **** *  The current value for the pins in the component as a right justified number.
 112:.\Generated_Source\PSoC5/Moisture_Drive_Pins_B.c **** *
 113:.\Generated_Source\PSoC5/Moisture_Drive_Pins_B.c **** * \funcusage
 114:.\Generated_Source\PSoC5/Moisture_Drive_Pins_B.c **** *  \snippet Moisture_Drive_Pins_B_SUT.c usage_Moisture_Drive_Pins_B_Read  
 115:.\Generated_Source\PSoC5/Moisture_Drive_Pins_B.c **** *******************************************************************************/
 116:.\Generated_Source\PSoC5/Moisture_Drive_Pins_B.c **** uint8 Moisture_Drive_Pins_B_Read(void)
 117:.\Generated_Source\PSoC5/Moisture_Drive_Pins_B.c **** {
 183              		.loc 1 117 0
 184              		.cfi_startproc
 185              		@ args = 0, pretend = 0, frame = 0
 186              		@ frame_needed = 1, uses_anonymous_args = 0
 187              		@ link register save eliminated.
 188 0000 80B4     		push	{r7}
 189              		.cfi_def_cfa_offset 4
 190              		.cfi_offset 7, -4
 191 0002 00AF     		add	r7, sp, #0
 192              		.cfi_def_cfa_register 7
 118:.\Generated_Source\PSoC5/Moisture_Drive_Pins_B.c ****     return (Moisture_Drive_Pins_B_PS & Moisture_Drive_Pins_B_MASK) >> Moisture_Drive_Pins_B_SHIFT;
 193              		.loc 1 118 0
 194 0004 054B     		ldr	r3, .L9
 195 0006 1B78     		ldrb	r3, [r3]
 196 0008 DBB2     		uxtb	r3, r3
 197 000a 03F00F03 		and	r3, r3, #15
 198 000e DBB2     		uxtb	r3, r3
 119:.\Generated_Source\PSoC5/Moisture_Drive_Pins_B.c **** }
 199              		.loc 1 119 0
 200 0010 1846     		mov	r0, r3
 201 0012 BD46     		mov	sp, r7
 202              		.cfi_def_cfa_register 13
 203              		@ sp needed
 204 0014 5DF8047B 		ldr	r7, [sp], #4
 205              		.cfi_restore 7
 206              		.cfi_def_cfa_offset 0
 207 0018 7047     		bx	lr
 208              	.L10:
 209 001a 00BF     		.align	2
 210              	.L9:
 211 001c 01510040 		.word	1073762561
 212              		.cfi_endproc
 213              	.LFE2:
 214              		.size	Moisture_Drive_Pins_B_Read, .-Moisture_Drive_Pins_B_Read
 215              		.section	.text.Moisture_Drive_Pins_B_ReadDataReg,"ax",%progbits
 216              		.align	2
 217              		.global	Moisture_Drive_Pins_B_ReadDataReg
 218              		.thumb
 219              		.thumb_func
 220              		.type	Moisture_Drive_Pins_B_ReadDataReg, %function
 221              	Moisture_Drive_Pins_B_ReadDataReg:
 222              	.LFB3:
 120:.\Generated_Source\PSoC5/Moisture_Drive_Pins_B.c **** 
ARM GAS  C:\Users\glenn\AppData\Local\Temp\ccCQ06T7.s 			page 7


 121:.\Generated_Source\PSoC5/Moisture_Drive_Pins_B.c **** 
 122:.\Generated_Source\PSoC5/Moisture_Drive_Pins_B.c **** /*******************************************************************************
 123:.\Generated_Source\PSoC5/Moisture_Drive_Pins_B.c **** * Function Name: Moisture_Drive_Pins_B_ReadDataReg
 124:.\Generated_Source\PSoC5/Moisture_Drive_Pins_B.c **** ****************************************************************************//**
 125:.\Generated_Source\PSoC5/Moisture_Drive_Pins_B.c **** *
 126:.\Generated_Source\PSoC5/Moisture_Drive_Pins_B.c **** * \brief Reads the associated physical port's data output register and masks 
 127:.\Generated_Source\PSoC5/Moisture_Drive_Pins_B.c **** *  the correct bits according to the width and bit position of the component 
 128:.\Generated_Source\PSoC5/Moisture_Drive_Pins_B.c **** *  instance. 
 129:.\Generated_Source\PSoC5/Moisture_Drive_Pins_B.c **** *
 130:.\Generated_Source\PSoC5/Moisture_Drive_Pins_B.c **** * The data output register controls the signal applied to the physical pin in 
 131:.\Generated_Source\PSoC5/Moisture_Drive_Pins_B.c **** * conjunction with the drive mode parameter. This is not the same as the 
 132:.\Generated_Source\PSoC5/Moisture_Drive_Pins_B.c **** * preferred Moisture_Drive_Pins_B_Read() API because the 
 133:.\Generated_Source\PSoC5/Moisture_Drive_Pins_B.c **** * Moisture_Drive_Pins_B_ReadDataReg() reads the data register instead of the status 
 134:.\Generated_Source\PSoC5/Moisture_Drive_Pins_B.c **** * register. For output pins this is a useful function to determine the value 
 135:.\Generated_Source\PSoC5/Moisture_Drive_Pins_B.c **** * just written to the pin.
 136:.\Generated_Source\PSoC5/Moisture_Drive_Pins_B.c **** *
 137:.\Generated_Source\PSoC5/Moisture_Drive_Pins_B.c **** * \return 
 138:.\Generated_Source\PSoC5/Moisture_Drive_Pins_B.c **** *  The current value of the data register masked and shifted into a right 
 139:.\Generated_Source\PSoC5/Moisture_Drive_Pins_B.c **** *  justified number for the component instance.
 140:.\Generated_Source\PSoC5/Moisture_Drive_Pins_B.c **** *
 141:.\Generated_Source\PSoC5/Moisture_Drive_Pins_B.c **** * \funcusage
 142:.\Generated_Source\PSoC5/Moisture_Drive_Pins_B.c **** *  \snippet Moisture_Drive_Pins_B_SUT.c usage_Moisture_Drive_Pins_B_ReadDataReg 
 143:.\Generated_Source\PSoC5/Moisture_Drive_Pins_B.c **** *******************************************************************************/
 144:.\Generated_Source\PSoC5/Moisture_Drive_Pins_B.c **** uint8 Moisture_Drive_Pins_B_ReadDataReg(void)
 145:.\Generated_Source\PSoC5/Moisture_Drive_Pins_B.c **** {
 223              		.loc 1 145 0
 224              		.cfi_startproc
 225              		@ args = 0, pretend = 0, frame = 0
 226              		@ frame_needed = 1, uses_anonymous_args = 0
 227              		@ link register save eliminated.
 228 0000 80B4     		push	{r7}
 229              		.cfi_def_cfa_offset 4
 230              		.cfi_offset 7, -4
 231 0002 00AF     		add	r7, sp, #0
 232              		.cfi_def_cfa_register 7
 146:.\Generated_Source\PSoC5/Moisture_Drive_Pins_B.c ****     return (Moisture_Drive_Pins_B_DR & Moisture_Drive_Pins_B_MASK) >> Moisture_Drive_Pins_B_SHIFT;
 233              		.loc 1 146 0
 234 0004 054B     		ldr	r3, .L13
 235 0006 1B78     		ldrb	r3, [r3]
 236 0008 DBB2     		uxtb	r3, r3
 237 000a 03F00F03 		and	r3, r3, #15
 238 000e DBB2     		uxtb	r3, r3
 147:.\Generated_Source\PSoC5/Moisture_Drive_Pins_B.c **** }
 239              		.loc 1 147 0
 240 0010 1846     		mov	r0, r3
 241 0012 BD46     		mov	sp, r7
 242              		.cfi_def_cfa_register 13
 243              		@ sp needed
 244 0014 5DF8047B 		ldr	r7, [sp], #4
 245              		.cfi_restore 7
 246              		.cfi_def_cfa_offset 0
 247 0018 7047     		bx	lr
 248              	.L14:
 249 001a 00BF     		.align	2
 250              	.L13:
 251 001c 00510040 		.word	1073762560
 252              		.cfi_endproc
ARM GAS  C:\Users\glenn\AppData\Local\Temp\ccCQ06T7.s 			page 8


 253              	.LFE3:
 254              		.size	Moisture_Drive_Pins_B_ReadDataReg, .-Moisture_Drive_Pins_B_ReadDataReg
 255              		.text
 256              	.Letext0:
 257              		.file 2 ".\\Generated_Source\\PSoC5\\cytypes.h"