ARM GAS  C:\Users\glenn\AppData\Local\Temp\ccTO6QdJ.s 			page 1


   1              		.syntax unified
   2              		.cpu cortex-m3
   3              		.fpu softvfp
   4              		.eabi_attribute 20, 1
   5              		.eabi_attribute 21, 1
   6              		.eabi_attribute 23, 3
   7              		.eabi_attribute 24, 1
   8              		.eabi_attribute 25, 1
   9              		.eabi_attribute 26, 1
  10              		.eabi_attribute 30, 6
  11              		.eabi_attribute 34, 1
  12              		.eabi_attribute 18, 4
  13              		.thumb
  14              		.file	"moving_average.c"
  15              		.text
  16              	.Ltext0:
  17              		.cfi_sections	.debug_frame
  18              		.global	__aeabi_fsub
  19              		.section	.text.ma_initialize,"ax",%progbits
  20              		.align	2
  21              		.global	ma_initialize
  22              		.thumb
  23              		.thumb_func
  24              		.type	ma_initialize, %function
  25              	ma_initialize:
  26              	.LFB63:
  27              		.file 1 ".\\utilities\\moving_average.c"
   1:.\utilities/moving_average.c **** /*
   2:.\utilities/moving_average.c **** **
   3:.\utilities/moving_average.c **** ** File: moving_average.c
   4:.\utilities/moving_average.c **** **
   5:.\utilities/moving_average.c **** **
   6:.\utilities/moving_average.c **** */
   7:.\utilities/moving_average.c **** 
   8:.\utilities/moving_average.c **** #include "moving_average.h"
   9:.\utilities/moving_average.c **** 
  10:.\utilities/moving_average.c **** 
  11:.\utilities/moving_average.c **** 
  12:.\utilities/moving_average.c **** void ma_initialize( MOVING_AVERAGE_STRUCT *ma, float alpha , float init_average )
  13:.\utilities/moving_average.c **** {
  28              		.loc 1 13 0
  29              		.cfi_startproc
  30              		@ args = 0, pretend = 0, frame = 16
  31              		@ frame_needed = 1, uses_anonymous_args = 0
  32 0000 80B5     		push	{r7, lr}
  33              		.cfi_def_cfa_offset 8
  34              		.cfi_offset 7, -8
  35              		.cfi_offset 14, -4
  36 0002 84B0     		sub	sp, sp, #16
  37              		.cfi_def_cfa_offset 24
  38 0004 00AF     		add	r7, sp, #0
  39              		.cfi_def_cfa_register 7
  40 0006 F860     		str	r0, [r7, #12]
  41 0008 B960     		str	r1, [r7, #8]	@ float
  42 000a 7A60     		str	r2, [r7, #4]	@ float
  14:.\utilities/moving_average.c **** 	ma->alpha = alpha;
  43              		.loc 1 14 0
ARM GAS  C:\Users\glenn\AppData\Local\Temp\ccTO6QdJ.s 			page 2


  44 000c FB68     		ldr	r3, [r7, #12]
  45 000e BA68     		ldr	r2, [r7, #8]	@ float
  46 0010 1A60     		str	r2, [r3]	@ float
  15:.\utilities/moving_average.c ****     ma->minus_alpha = 1.0 - alpha;
  47              		.loc 1 15 0
  48 0012 4FF07E50 		mov	r0, #1065353216
  49 0016 B968     		ldr	r1, [r7, #8]	@ float
  50 0018 FFF7FEFF 		bl	__aeabi_fsub
  51 001c 0346     		mov	r3, r0
  52 001e 1A46     		mov	r2, r3
  53 0020 FB68     		ldr	r3, [r7, #12]
  54 0022 5A60     		str	r2, [r3, #4]	@ float
  16:.\utilities/moving_average.c ****     ma->average     = init_average;
  55              		.loc 1 16 0
  56 0024 FB68     		ldr	r3, [r7, #12]
  57 0026 7A68     		ldr	r2, [r7, #4]	@ float
  58 0028 9A60     		str	r2, [r3, #8]	@ float
  17:.\utilities/moving_average.c **** }
  59              		.loc 1 17 0
  60 002a 1037     		adds	r7, r7, #16
  61              		.cfi_def_cfa_offset 8
  62 002c BD46     		mov	sp, r7
  63              		.cfi_def_cfa_register 13
  64              		@ sp needed
  65 002e 80BD     		pop	{r7, pc}
  66              		.cfi_endproc
  67              	.LFE63:
  68              		.size	ma_initialize, .-ma_initialize
  69              		.global	__aeabi_fmul
  70              		.global	__aeabi_fadd
  71              		.section	.text.ma_update,"ax",%progbits
  72              		.align	2
  73              		.global	ma_update
  74              		.thumb
  75              		.thumb_func
  76              		.type	ma_update, %function
  77              	ma_update:
  78              	.LFB64:
  18:.\utilities/moving_average.c **** 
  19:.\utilities/moving_average.c **** float ma_update( MOVING_AVERAGE_STRUCT *ma, float new_sample)
  20:.\utilities/moving_average.c **** {
  79              		.loc 1 20 0
  80              		.cfi_startproc
  81              		@ args = 0, pretend = 0, frame = 8
  82              		@ frame_needed = 1, uses_anonymous_args = 0
  83 0000 90B5     		push	{r4, r7, lr}
  84              		.cfi_def_cfa_offset 12
  85              		.cfi_offset 4, -12
  86              		.cfi_offset 7, -8
  87              		.cfi_offset 14, -4
  88 0002 83B0     		sub	sp, sp, #12
  89              		.cfi_def_cfa_offset 24
  90 0004 00AF     		add	r7, sp, #0
  91              		.cfi_def_cfa_register 7
  92 0006 7860     		str	r0, [r7, #4]
  93 0008 3960     		str	r1, [r7]	@ float
  21:.\utilities/moving_average.c ****     ma->average *= ma->minus_alpha;
ARM GAS  C:\Users\glenn\AppData\Local\Temp\ccTO6QdJ.s 			page 3


  94              		.loc 1 21 0
  95 000a 7B68     		ldr	r3, [r7, #4]
  96 000c 9A68     		ldr	r2, [r3, #8]	@ float
  97 000e 7B68     		ldr	r3, [r7, #4]
  98 0010 5B68     		ldr	r3, [r3, #4]	@ float
  99 0012 1046     		mov	r0, r2
 100 0014 1946     		mov	r1, r3
 101 0016 FFF7FEFF 		bl	__aeabi_fmul
 102 001a 0346     		mov	r3, r0
 103 001c 1A46     		mov	r2, r3
 104 001e 7B68     		ldr	r3, [r7, #4]
 105 0020 9A60     		str	r2, [r3, #8]	@ float
  22:.\utilities/moving_average.c ****     ma->average += ((float) new_sample)*ma->alpha;
 106              		.loc 1 22 0
 107 0022 7B68     		ldr	r3, [r7, #4]
 108 0024 9C68     		ldr	r4, [r3, #8]	@ float
 109 0026 7B68     		ldr	r3, [r7, #4]
 110 0028 1B68     		ldr	r3, [r3]	@ float
 111 002a 1846     		mov	r0, r3
 112 002c 3968     		ldr	r1, [r7]	@ float
 113 002e FFF7FEFF 		bl	__aeabi_fmul
 114 0032 0346     		mov	r3, r0
 115 0034 2046     		mov	r0, r4
 116 0036 1946     		mov	r1, r3
 117 0038 FFF7FEFF 		bl	__aeabi_fadd
 118 003c 0346     		mov	r3, r0
 119 003e 1A46     		mov	r2, r3
 120 0040 7B68     		ldr	r3, [r7, #4]
 121 0042 9A60     		str	r2, [r3, #8]	@ float
  23:.\utilities/moving_average.c ****     return ma->average;
 122              		.loc 1 23 0
 123 0044 7B68     		ldr	r3, [r7, #4]
 124 0046 9B68     		ldr	r3, [r3, #8]	@ float
  24:.\utilities/moving_average.c ****  
  25:.\utilities/moving_average.c **** }
 125              		.loc 1 25 0
 126 0048 1846     		mov	r0, r3
 127 004a 0C37     		adds	r7, r7, #12
 128              		.cfi_def_cfa_offset 12
 129 004c BD46     		mov	sp, r7
 130              		.cfi_def_cfa_register 13
 131              		@ sp needed
 132 004e 90BD     		pop	{r4, r7, pc}
 133              		.cfi_endproc
 134              	.LFE64:
 135              		.size	ma_update, .-ma_update
 136              		.section	.text.ma_get_value,"ax",%progbits
 137              		.align	2
 138              		.global	ma_get_value
 139              		.thumb
 140              		.thumb_func
 141              		.type	ma_get_value, %function
 142              	ma_get_value:
 143              	.LFB65:
  26:.\utilities/moving_average.c **** 
  27:.\utilities/moving_average.c **** float ma_get_value( MOVING_AVERAGE_STRUCT *ma )
  28:.\utilities/moving_average.c **** {
ARM GAS  C:\Users\glenn\AppData\Local\Temp\ccTO6QdJ.s 			page 4


 144              		.loc 1 28 0
 145              		.cfi_startproc
 146              		@ args = 0, pretend = 0, frame = 8
 147              		@ frame_needed = 1, uses_anonymous_args = 0
 148              		@ link register save eliminated.
 149 0000 80B4     		push	{r7}
 150              		.cfi_def_cfa_offset 4
 151              		.cfi_offset 7, -4
 152 0002 83B0     		sub	sp, sp, #12
 153              		.cfi_def_cfa_offset 16
 154 0004 00AF     		add	r7, sp, #0
 155              		.cfi_def_cfa_register 7
 156 0006 7860     		str	r0, [r7, #4]
  29:.\utilities/moving_average.c ****     return ma->average;
 157              		.loc 1 29 0
 158 0008 7B68     		ldr	r3, [r7, #4]
 159 000a 9B68     		ldr	r3, [r3, #8]	@ float
  30:.\utilities/moving_average.c **** }
 160              		.loc 1 30 0
 161 000c 1846     		mov	r0, r3
 162 000e 0C37     		adds	r7, r7, #12
 163              		.cfi_def_cfa_offset 4
 164 0010 BD46     		mov	sp, r7
 165              		.cfi_def_cfa_register 13
 166              		@ sp needed
 167 0012 5DF8047B 		ldr	r7, [sp], #4
 168              		.cfi_restore 7
 169              		.cfi_def_cfa_offset 0
 170 0016 7047     		bx	lr
 171              		.cfi_endproc
 172              	.LFE65:
 173              		.size	ma_get_value, .-ma_get_value
 174              		.section	.text.ma_store_value,"ax",%progbits
 175              		.align	2
 176              		.global	ma_store_value
 177              		.thumb
 178              		.thumb_func
 179              		.type	ma_store_value, %function
 180              	ma_store_value:
 181              	.LFB66:
  31:.\utilities/moving_average.c **** 
  32:.\utilities/moving_average.c **** void  ma_store_value( MOVING_AVERAGE_STRUCT *ma, float new_sample )
  33:.\utilities/moving_average.c **** {
 182              		.loc 1 33 0
 183              		.cfi_startproc
 184              		@ args = 0, pretend = 0, frame = 8
 185              		@ frame_needed = 1, uses_anonymous_args = 0
 186              		@ link register save eliminated.
 187 0000 80B4     		push	{r7}
 188              		.cfi_def_cfa_offset 4
 189              		.cfi_offset 7, -4
 190 0002 83B0     		sub	sp, sp, #12
 191              		.cfi_def_cfa_offset 16
 192 0004 00AF     		add	r7, sp, #0
 193              		.cfi_def_cfa_register 7
 194 0006 7860     		str	r0, [r7, #4]
 195 0008 3960     		str	r1, [r7]	@ float
ARM GAS  C:\Users\glenn\AppData\Local\Temp\ccTO6QdJ.s 			page 5


  34:.\utilities/moving_average.c ****     ma->average = new_sample;
 196              		.loc 1 34 0
 197 000a 7B68     		ldr	r3, [r7, #4]
 198 000c 3A68     		ldr	r2, [r7]	@ float
 199 000e 9A60     		str	r2, [r3, #8]	@ float
  35:.\utilities/moving_average.c **** }...
 200              		.loc 1 35 0
 201 0010 0C37     		adds	r7, r7, #12
 202              		.cfi_def_cfa_offset 4
 203 0012 BD46     		mov	sp, r7
 204              		.cfi_def_cfa_register 13
 205              		@ sp needed
 206 0014 5DF8047B 		ldr	r7, [sp], #4
 207              		.cfi_restore 7
 208              		.cfi_def_cfa_offset 0
 209 0018 7047     		bx	lr
 210              		.cfi_endproc
 211              	.LFE66:
 212              		.size	ma_store_value, .-ma_store_value
 213 001a 00BF     		.text
 214              	.Letext0:
 215              		.file 2 "c:\\program files (x86)\\cypress\\psoc creator\\3.3\\psoc creator\\import\\gnu\\arm\\4.9.
 216              		.file 3 "c:\\program files (x86)\\cypress\\psoc creator\\3.3\\psoc creator\\import\\gnu\\arm\\4.9.
 217              		.file 4 ".\\utilities\\moving_average.h"
 218              		.file 5 "Generated_Source\\PSoC5/core_cm3.h"