ARM GAS  C:\Users\glenn\AppData\Local\Temp\ccbHRuJu.s 			page 1


   1              		.syntax unified
   2              		.cpu cortex-m3
   3              		.fpu softvfp
   4              		.eabi_attribute 20, 1
   5              		.eabi_attribute 21, 1
   6              		.eabi_attribute 23, 3
   7              		.eabi_attribute 24, 1
   8              		.eabi_attribute 25, 1
   9              		.eabi_attribute 26, 1
  10              		.eabi_attribute 30, 6
  11              		.eabi_attribute 34, 1
  12              		.eabi_attribute 18, 4
  13              		.thumb
  14              		.file	"process_type_16_message.c"
  15              		.text
  16              	.Ltext0:
  17              		.cfi_sections	.debug_frame
  18              		.section	.text.swap_16,"ax",%progbits
  19              		.align	2
  20              		.thumb
  21              		.thumb_func
  22              		.type	swap_16, %function
  23              	swap_16:
  24              	.LFB65:
  25              		.file 1 ".\\rtu_modbus\\modbus_utilities.h"
   1:.\rtu_modbus/modbus_utilities.h **** /*
   2:.\rtu_modbus/modbus_utilities.h **** **
   3:.\rtu_modbus/modbus_utilities.h **** ** File: modbus_utilities.h
   4:.\rtu_modbus/modbus_utilities.h **** ** File for shuffling bytes for network ordering
   5:.\rtu_modbus/modbus_utilities.h **** **
   6:.\rtu_modbus/modbus_utilities.h **** **
   7:.\rtu_modbus/modbus_utilities.h **** **
   8:.\rtu_modbus/modbus_utilities.h **** */
   9:.\rtu_modbus/modbus_utilities.h **** 
  10:.\rtu_modbus/modbus_utilities.h **** #ifndef _MODBUS_UTILITES_H_
  11:.\rtu_modbus/modbus_utilities.h **** #define _MODBUS_UTILITES_H_
  12:.\rtu_modbus/modbus_utilities.h **** 
  13:.\rtu_modbus/modbus_utilities.h **** #include <device.h>
  14:.\rtu_modbus/modbus_utilities.h ****   
  15:.\rtu_modbus/modbus_utilities.h **** 
  16:.\rtu_modbus/modbus_utilities.h **** 
  17:.\rtu_modbus/modbus_utilities.h ****     
  18:.\rtu_modbus/modbus_utilities.h **** static inline void swap_16( uint8 *input )
  19:.\rtu_modbus/modbus_utilities.h **** {
  26              		.loc 1 19 0
  27              		.cfi_startproc
  28              		@ args = 0, pretend = 0, frame = 16
  29              		@ frame_needed = 1, uses_anonymous_args = 0
  30              		@ link register save eliminated.
  31 0000 80B4     		push	{r7}
  32              		.cfi_def_cfa_offset 4
  33              		.cfi_offset 7, -4
  34 0002 85B0     		sub	sp, sp, #20
  35              		.cfi_def_cfa_offset 24
  36 0004 00AF     		add	r7, sp, #0
  37              		.cfi_def_cfa_register 7
  38 0006 7860     		str	r0, [r7, #4]
ARM GAS  C:\Users\glenn\AppData\Local\Temp\ccbHRuJu.s 			page 2


  20:.\rtu_modbus/modbus_utilities.h ****     
  21:.\rtu_modbus/modbus_utilities.h ****     uint16 *temp_ptr;
  22:.\rtu_modbus/modbus_utilities.h ****     uint16 temp;
  23:.\rtu_modbus/modbus_utilities.h ****     
  24:.\rtu_modbus/modbus_utilities.h ****     temp_ptr = (uint16*)input;
  39              		.loc 1 24 0
  40 0008 7B68     		ldr	r3, [r7, #4]
  41 000a FB60     		str	r3, [r7, #12]
  25:.\rtu_modbus/modbus_utilities.h ****     temp = *temp_ptr;   
  42              		.loc 1 25 0
  43 000c FB68     		ldr	r3, [r7, #12]
  44 000e 1B88     		ldrh	r3, [r3]	@ movhi
  45 0010 7B81     		strh	r3, [r7, #10]	@ movhi
  26:.\rtu_modbus/modbus_utilities.h ****     temp =  ((temp&0xff)<<8)|((temp>>8)&0xff);
  46              		.loc 1 26 0
  47 0012 7B89     		ldrh	r3, [r7, #10]
  48 0014 1B02     		lsls	r3, r3, #8
  49 0016 9AB2     		uxth	r2, r3
  50 0018 7B89     		ldrh	r3, [r7, #10]
  51 001a 1B0A     		lsrs	r3, r3, #8
  52 001c 9BB2     		uxth	r3, r3
  53 001e 9BB2     		uxth	r3, r3
  54 0020 1343     		orrs	r3, r3, r2
  55 0022 9BB2     		uxth	r3, r3
  56 0024 7B81     		strh	r3, [r7, #10]	@ movhi
  27:.\rtu_modbus/modbus_utilities.h ****     *temp_ptr = temp;
  57              		.loc 1 27 0
  58 0026 FB68     		ldr	r3, [r7, #12]
  59 0028 7A89     		ldrh	r2, [r7, #10]	@ movhi
  60 002a 1A80     		strh	r2, [r3]	@ movhi
  28:.\rtu_modbus/modbus_utilities.h ****       
  29:.\rtu_modbus/modbus_utilities.h ****    
  30:.\rtu_modbus/modbus_utilities.h **** }
  61              		.loc 1 30 0
  62 002c 1437     		adds	r7, r7, #20
  63              		.cfi_def_cfa_offset 4
  64 002e BD46     		mov	sp, r7
  65              		.cfi_def_cfa_register 13
  66              		@ sp needed
  67 0030 5DF8047B 		ldr	r7, [sp], #4
  68              		.cfi_restore 7
  69              		.cfi_def_cfa_offset 0
  70 0034 7047     		bx	lr
  71              		.cfi_endproc
  72              	.LFE65:
  73              		.size	swap_16, .-swap_16
  74 0036 00BF     		.section	.text.swap_32,"ax",%progbits
  75              		.align	2
  76              		.thumb
  77              		.thumb_func
  78              		.type	swap_32, %function
  79              	swap_32:
  80              	.LFB66:
  31:.\rtu_modbus/modbus_utilities.h **** 
  32:.\rtu_modbus/modbus_utilities.h **** static inline void swap_32( uint8 *input )
  33:.\rtu_modbus/modbus_utilities.h **** {
  81              		.loc 1 33 0
ARM GAS  C:\Users\glenn\AppData\Local\Temp\ccbHRuJu.s 			page 3


  82              		.cfi_startproc
  83              		@ args = 0, pretend = 0, frame = 16
  84              		@ frame_needed = 1, uses_anonymous_args = 0
  85              		@ link register save eliminated.
  86 0000 80B4     		push	{r7}
  87              		.cfi_def_cfa_offset 4
  88              		.cfi_offset 7, -4
  89 0002 85B0     		sub	sp, sp, #20
  90              		.cfi_def_cfa_offset 24
  91 0004 00AF     		add	r7, sp, #0
  92              		.cfi_def_cfa_register 7
  93 0006 7860     		str	r0, [r7, #4]
  34:.\rtu_modbus/modbus_utilities.h ****     uint32 *temp_ptr;
  35:.\rtu_modbus/modbus_utilities.h ****     uint32 temp;
  36:.\rtu_modbus/modbus_utilities.h ****     
  37:.\rtu_modbus/modbus_utilities.h ****     temp_ptr = (uint32*)input;
  94              		.loc 1 37 0
  95 0008 7B68     		ldr	r3, [r7, #4]
  96 000a FB60     		str	r3, [r7, #12]
  38:.\rtu_modbus/modbus_utilities.h ****     temp = *temp_ptr;   
  97              		.loc 1 38 0
  98 000c FB68     		ldr	r3, [r7, #12]
  99 000e 1B68     		ldr	r3, [r3]
 100 0010 BB60     		str	r3, [r7, #8]
  39:.\rtu_modbus/modbus_utilities.h ****   
  40:.\rtu_modbus/modbus_utilities.h ****     temp =  ((temp&0xff000000)>>24)|((temp&0x00ff0000)>>8)|((temp&0xff00)<<8)|((temp&0xff)<<24 );
 101              		.loc 1 40 0
 102 0012 BB68     		ldr	r3, [r7, #8]
 103 0014 1A0E     		lsrs	r2, r3, #24
 104 0016 BB68     		ldr	r3, [r7, #8]
 105 0018 03F47F03 		and	r3, r3, #16711680
 106 001c 1B0A     		lsrs	r3, r3, #8
 107 001e 1A43     		orrs	r2, r2, r3
 108 0020 BB68     		ldr	r3, [r7, #8]
 109 0022 03F47F43 		and	r3, r3, #65280
 110 0026 1B02     		lsls	r3, r3, #8
 111 0028 1A43     		orrs	r2, r2, r3
 112 002a BB68     		ldr	r3, [r7, #8]
 113 002c 1B06     		lsls	r3, r3, #24
 114 002e 1343     		orrs	r3, r3, r2
 115 0030 BB60     		str	r3, [r7, #8]
  41:.\rtu_modbus/modbus_utilities.h ****      *temp_ptr = temp;
 116              		.loc 1 41 0
 117 0032 FB68     		ldr	r3, [r7, #12]
 118 0034 BA68     		ldr	r2, [r7, #8]
 119 0036 1A60     		str	r2, [r3]
  42:.\rtu_modbus/modbus_utilities.h **** }
 120              		.loc 1 42 0
 121 0038 1437     		adds	r7, r7, #20
 122              		.cfi_def_cfa_offset 4
 123 003a BD46     		mov	sp, r7
 124              		.cfi_def_cfa_register 13
 125              		@ sp needed
 126 003c 5DF8047B 		ldr	r7, [sp], #4
 127              		.cfi_restore 7
 128              		.cfi_def_cfa_offset 0
 129 0040 7047     		bx	lr
ARM GAS  C:\Users\glenn\AppData\Local\Temp\ccbHRuJu.s 			page 4


 130              		.cfi_endproc
 131              	.LFE66:
 132              		.size	swap_32, .-swap_32
 133              		.comm	moisture_configuration_data,32,4
 134 0042 00BF     		.section	.text.clear_watch_dog_flags,"ax",%progbits
 135              		.align	2
 136              		.thumb
 137              		.thumb_func
 138              		.type	clear_watch_dog_flags, %function
 139              	clear_watch_dog_flags:
 140              	.LFB67:
 141              		.file 2 ".\\rtu_modbus\\process_type_16_message.c"
   1:.\rtu_modbus/process_type_16_message.c **** /*
   2:.\rtu_modbus/process_type_16_message.c **** **
   3:.\rtu_modbus/process_type_16_message.c **** ** File: process_type_16_message.c
   4:.\rtu_modbus/process_type_16_message.c **** **
   5:.\rtu_modbus/process_type_16_message.c **** **
   6:.\rtu_modbus/process_type_16_message.c **** Query
   7:.\rtu_modbus/process_type_16_message.c **** Slave Address 11
   8:.\rtu_modbus/process_type_16_message.c **** Function 10
   9:.\rtu_modbus/process_type_16_message.c **** Starting Address Hi 00
  10:.\rtu_modbus/process_type_16_message.c **** Starting Address Lo 01
  11:.\rtu_modbus/process_type_16_message.c **** No. of Registers Hi 00
  12:.\rtu_modbus/process_type_16_message.c **** No. of Registers Lo 02
  13:.\rtu_modbus/process_type_16_message.c **** Byte Count 04
  14:.\rtu_modbus/process_type_16_message.c **** Data Hi 00
  15:.\rtu_modbus/process_type_16_message.c **** Data Lo 0A
  16:.\rtu_modbus/process_type_16_message.c **** Data Hi 01
  17:.\rtu_modbus/process_type_16_message.c **** Data Lo 02
  18:.\rtu_modbus/process_type_16_message.c **** Error Check (LRC or CRC) ––    
  19:.\rtu_modbus/process_type_16_message.c ****     
  20:.\rtu_modbus/process_type_16_message.c **** Response
  21:.\rtu_modbus/process_type_16_message.c **** Slave Address 11
  22:.\rtu_modbus/process_type_16_message.c **** Function 10
  23:.\rtu_modbus/process_type_16_message.c **** Starting Address Hi 00
  24:.\rtu_modbus/process_type_16_message.c **** Starting Address Lo 01
  25:.\rtu_modbus/process_type_16_message.c **** No. of Registers Hi 00
  26:.\rtu_modbus/process_type_16_message.c **** No. of Registers Lo 02
  27:.\rtu_modbus/process_type_16_message.c **** Error Check (LRC or CRC) ––    
  28:.\rtu_modbus/process_type_16_message.c ****     
  29:.\rtu_modbus/process_type_16_message.c **** 
  30:.\rtu_modbus/process_type_16_message.c **** 
  31:.\rtu_modbus/process_type_16_message.c **** 
  32:.\rtu_modbus/process_type_16_message.c **** 
  33:.\rtu_modbus/process_type_16_message.c **** **
  34:.\rtu_modbus/process_type_16_message.c **** **
  35:.\rtu_modbus/process_type_16_message.c **** */
  36:.\rtu_modbus/process_type_16_message.c **** 
  37:.\rtu_modbus/process_type_16_message.c **** 
  38:.\rtu_modbus/process_type_16_message.c **** 
  39:.\rtu_modbus/process_type_16_message.c **** 
  40:.\rtu_modbus/process_type_16_message.c **** #include <device.h>
  41:.\rtu_modbus/process_type_16_message.c **** #include "process_modbus_message.h"
  42:.\rtu_modbus/process_type_16_message.c **** #include "process_type_16_message.h" 
  43:.\rtu_modbus/process_type_16_message.c **** #include "modbus_interface_functions.h"
  44:.\rtu_modbus/process_type_16_message.c **** #include "modbus_utilities.h"
  45:.\rtu_modbus/process_type_16_message.c **** 
ARM GAS  C:\Users\glenn\AppData\Local\Temp\ccbHRuJu.s 			page 5


  46:.\rtu_modbus/process_type_16_message.c **** 
  47:.\rtu_modbus/process_type_16_message.c **** #include "cf_events.h"
  48:.\rtu_modbus/process_type_16_message.c **** #include "cb_logging.h"
  49:.\rtu_modbus/process_type_16_message.c **** 
  50:.\rtu_modbus/process_type_16_message.c **** 
  51:.\rtu_modbus/process_type_16_message.c **** #define SWAP_16 0
  52:.\rtu_modbus/process_type_16_message.c **** #define SWAP_32 1
  53:.\rtu_modbus/process_type_16_message.c **** 
  54:.\rtu_modbus/process_type_16_message.c **** // message is 2 floating point numbers, so length is 2*2 or 4 modbus registers
  55:.\rtu_modbus/process_type_16_message.c **** #define TEMPERATURE_CALIBRATION_MSG_LEN  2*2
  56:.\rtu_modbus/process_type_16_message.c **** #define REFERENCE_RESISTOR_MSG_LEN    MOISTURE_SENSOR_NUMBER*2
  57:.\rtu_modbus/process_type_16_message.c **** 
  58:.\rtu_modbus/process_type_16_message.c **** typedef uint16 (*FN_16)( uint8 *buffer );
  59:.\rtu_modbus/process_type_16_message.c **** 
  60:.\rtu_modbus/process_type_16_message.c **** typedef struct
  61:.\rtu_modbus/process_type_16_message.c **** {
  62:.\rtu_modbus/process_type_16_message.c ****     unsigned start_register;
  63:.\rtu_modbus/process_type_16_message.c ****     unsigned register_count;
  64:.\rtu_modbus/process_type_16_message.c ****     unsigned swap_type;
  65:.\rtu_modbus/process_type_16_message.c ****     FN_16   access;
  66:.\rtu_modbus/process_type_16_message.c ****     
  67:.\rtu_modbus/process_type_16_message.c **** }TYPE_16_STRUCT;      
  68:.\rtu_modbus/process_type_16_message.c **** 
  69:.\rtu_modbus/process_type_16_message.c **** const uint16 moisture_configuration_data[ MOISTURE_SENSOR_NUMBER ];
  70:.\rtu_modbus/process_type_16_message.c **** 
  71:.\rtu_modbus/process_type_16_message.c **** static uint16 clear_watch_dog_flags( uint8 * buffer )
  72:.\rtu_modbus/process_type_16_message.c **** {
 142              		.loc 2 72 0
 143              		.cfi_startproc
 144              		@ args = 0, pretend = 0, frame = 16
 145              		@ frame_needed = 1, uses_anonymous_args = 0
 146 0000 80B5     		push	{r7, lr}
 147              		.cfi_def_cfa_offset 8
 148              		.cfi_offset 7, -8
 149              		.cfi_offset 14, -4
 150 0002 84B0     		sub	sp, sp, #16
 151              		.cfi_def_cfa_offset 24
 152 0004 00AF     		add	r7, sp, #0
 153              		.cfi_def_cfa_register 7
 154 0006 7860     		str	r0, [r7, #4]
  73:.\rtu_modbus/process_type_16_message.c ****     uint16 temp;
  74:.\rtu_modbus/process_type_16_message.c ****     
  75:.\rtu_modbus/process_type_16_message.c ****     temp =  0;
 155              		.loc 2 75 0
 156 0008 0023     		movs	r3, #0
 157 000a FB81     		strh	r3, [r7, #14]	@ movhi
  76:.\rtu_modbus/process_type_16_message.c ****     store_modbus_data_registers( MOD_RTU_WATCH_DOG_FLAG, 1 , &temp);
 158              		.loc 2 76 0
 159 000c 07F10E03 		add	r3, r7, #14
 160 0010 0220     		movs	r0, #2
 161 0012 0121     		movs	r1, #1
 162 0014 1A46     		mov	r2, r3
 163 0016 FFF7FEFF 		bl	store_modbus_data_registers
  77:.\rtu_modbus/process_type_16_message.c **** 
  78:.\rtu_modbus/process_type_16_message.c ****     return 1;
 164              		.loc 2 78 0
 165 001a 0123     		movs	r3, #1
ARM GAS  C:\Users\glenn\AppData\Local\Temp\ccbHRuJu.s 			page 6


  79:.\rtu_modbus/process_type_16_message.c **** }
 166              		.loc 2 79 0
 167 001c 1846     		mov	r0, r3
 168 001e 1037     		adds	r7, r7, #16
 169              		.cfi_def_cfa_offset 8
 170 0020 BD46     		mov	sp, r7
 171              		.cfi_def_cfa_register 13
 172              		@ sp needed
 173 0022 80BD     		pop	{r7, pc}
 174              		.cfi_endproc
 175              	.LFE67:
 176              		.size	clear_watch_dog_flags, .-clear_watch_dog_flags
 177              		.section	.text.clear_power_up_event,"ax",%progbits
 178              		.align	2
 179              		.thumb
 180              		.thumb_func
 181              		.type	clear_power_up_event, %function
 182              	clear_power_up_event:
 183              	.LFB68:
  80:.\rtu_modbus/process_type_16_message.c **** 
  81:.\rtu_modbus/process_type_16_message.c **** 
  82:.\rtu_modbus/process_type_16_message.c **** 
  83:.\rtu_modbus/process_type_16_message.c **** 
  84:.\rtu_modbus/process_type_16_message.c **** 
  85:.\rtu_modbus/process_type_16_message.c **** static uint16 clear_power_up_event( uint8 *buffer )
  86:.\rtu_modbus/process_type_16_message.c **** {
 184              		.loc 2 86 0
 185              		.cfi_startproc
 186              		@ args = 0, pretend = 0, frame = 16
 187              		@ frame_needed = 1, uses_anonymous_args = 0
 188 0000 80B5     		push	{r7, lr}
 189              		.cfi_def_cfa_offset 8
 190              		.cfi_offset 7, -8
 191              		.cfi_offset 14, -4
 192 0002 84B0     		sub	sp, sp, #16
 193              		.cfi_def_cfa_offset 24
 194 0004 00AF     		add	r7, sp, #0
 195              		.cfi_def_cfa_register 7
 196 0006 7860     		str	r0, [r7, #4]
  87:.\rtu_modbus/process_type_16_message.c ****     uint16 temp;
  88:.\rtu_modbus/process_type_16_message.c ****     
  89:.\rtu_modbus/process_type_16_message.c ****     temp = 0;
 197              		.loc 2 89 0
 198 0008 0023     		movs	r3, #0
 199 000a FB81     		strh	r3, [r7, #14]	@ movhi
  90:.\rtu_modbus/process_type_16_message.c ****     store_modbus_data_registers( MOD_POWER_UP_EVENT, 1 , &temp);
 200              		.loc 2 90 0
 201 000c 07F10E03 		add	r3, r7, #14
 202 0010 0520     		movs	r0, #5
 203 0012 0121     		movs	r1, #1
 204 0014 1A46     		mov	r2, r3
 205 0016 FFF7FEFF 		bl	store_modbus_data_registers
  91:.\rtu_modbus/process_type_16_message.c ****     return 1;
 206              		.loc 2 91 0
 207 001a 0123     		movs	r3, #1
  92:.\rtu_modbus/process_type_16_message.c **** }
 208              		.loc 2 92 0
ARM GAS  C:\Users\glenn\AppData\Local\Temp\ccbHRuJu.s 			page 7


 209 001c 1846     		mov	r0, r3
 210 001e 1037     		adds	r7, r7, #16
 211              		.cfi_def_cfa_offset 8
 212 0020 BD46     		mov	sp, r7
 213              		.cfi_def_cfa_register 13
 214              		@ sp needed
 215 0022 80BD     		pop	{r7, pc}
 216              		.cfi_endproc
 217              	.LFE68:
 218              		.size	clear_power_up_event, .-clear_power_up_event
 219              		.section	.text.clear_minute_rollover,"ax",%progbits
 220              		.align	2
 221              		.thumb
 222              		.thumb_func
 223              		.type	clear_minute_rollover, %function
 224              	clear_minute_rollover:
 225              	.LFB69:
  93:.\rtu_modbus/process_type_16_message.c **** 
  94:.\rtu_modbus/process_type_16_message.c **** 
  95:.\rtu_modbus/process_type_16_message.c **** static uint16 clear_minute_rollover( uint8 *buffer )
  96:.\rtu_modbus/process_type_16_message.c **** {
 226              		.loc 2 96 0
 227              		.cfi_startproc
 228              		@ args = 0, pretend = 0, frame = 16
 229              		@ frame_needed = 1, uses_anonymous_args = 0
 230 0000 80B5     		push	{r7, lr}
 231              		.cfi_def_cfa_offset 8
 232              		.cfi_offset 7, -8
 233              		.cfi_offset 14, -4
 234 0002 84B0     		sub	sp, sp, #16
 235              		.cfi_def_cfa_offset 24
 236 0004 00AF     		add	r7, sp, #0
 237              		.cfi_def_cfa_register 7
 238 0006 7860     		str	r0, [r7, #4]
  97:.\rtu_modbus/process_type_16_message.c ****     uint16 temp;
  98:.\rtu_modbus/process_type_16_message.c ****     
  99:.\rtu_modbus/process_type_16_message.c ****     temp = 0;
 239              		.loc 2 99 0
 240 0008 0023     		movs	r3, #0
 241 000a FB81     		strh	r3, [r7, #14]	@ movhi
 100:.\rtu_modbus/process_type_16_message.c ****     store_modbus_data_registers( MOD_MINUTE_ROLLOVER, 1 , &temp);
 242              		.loc 2 100 0
 243 000c 07F10E03 		add	r3, r7, #14
 244 0010 0620     		movs	r0, #6
 245 0012 0121     		movs	r1, #1
 246 0014 1A46     		mov	r2, r3
 247 0016 FFF7FEFF 		bl	store_modbus_data_registers
 101:.\rtu_modbus/process_type_16_message.c ****     return 1;
 248              		.loc 2 101 0
 249 001a 0123     		movs	r3, #1
 102:.\rtu_modbus/process_type_16_message.c **** }
 250              		.loc 2 102 0
 251 001c 1846     		mov	r0, r3
 252 001e 1037     		adds	r7, r7, #16
 253              		.cfi_def_cfa_offset 8
 254 0020 BD46     		mov	sp, r7
 255              		.cfi_def_cfa_register 13
ARM GAS  C:\Users\glenn\AppData\Local\Temp\ccbHRuJu.s 			page 8


 256              		@ sp needed
 257 0022 80BD     		pop	{r7, pc}
 258              		.cfi_endproc
 259              	.LFE69:
 260              		.size	clear_minute_rollover, .-clear_minute_rollover
 261              		.section	.text.set_controller_watch_dog_flags,"ax",%progbits
 262              		.align	2
 263              		.thumb
 264              		.thumb_func
 265              		.type	set_controller_watch_dog_flags, %function
 266              	set_controller_watch_dog_flags:
 267              	.LFB70:
 103:.\rtu_modbus/process_type_16_message.c **** 
 104:.\rtu_modbus/process_type_16_message.c **** static uint16 set_controller_watch_dog_flags( uint8 * buffer )
 105:.\rtu_modbus/process_type_16_message.c **** {
 268              		.loc 2 105 0
 269              		.cfi_startproc
 270              		@ args = 0, pretend = 0, frame = 16
 271              		@ frame_needed = 1, uses_anonymous_args = 0
 272 0000 80B5     		push	{r7, lr}
 273              		.cfi_def_cfa_offset 8
 274              		.cfi_offset 7, -8
 275              		.cfi_offset 14, -4
 276 0002 84B0     		sub	sp, sp, #16
 277              		.cfi_def_cfa_offset 24
 278 0004 00AF     		add	r7, sp, #0
 279              		.cfi_def_cfa_register 7
 280 0006 7860     		str	r0, [r7, #4]
 106:.\rtu_modbus/process_type_16_message.c ****     uint16 temp;
 107:.\rtu_modbus/process_type_16_message.c ****     
 108:.\rtu_modbus/process_type_16_message.c ****     temp =  1;
 281              		.loc 2 108 0
 282 0008 0123     		movs	r3, #1
 283 000a FB81     		strh	r3, [r7, #14]	@ movhi
 109:.\rtu_modbus/process_type_16_message.c ****     store_modbus_data_registers( MOD_RTU_WATCH_DOG_FLAG, 1 , &temp);
 284              		.loc 2 109 0
 285 000c 07F10E03 		add	r3, r7, #14
 286 0010 0220     		movs	r0, #2
 287 0012 0121     		movs	r1, #1
 288 0014 1A46     		mov	r2, r3
 289 0016 FFF7FEFF 		bl	store_modbus_data_registers
 110:.\rtu_modbus/process_type_16_message.c **** 
 111:.\rtu_modbus/process_type_16_message.c ****     return 1;
 290              		.loc 2 111 0
 291 001a 0123     		movs	r3, #1
 112:.\rtu_modbus/process_type_16_message.c **** }
 292              		.loc 2 112 0
 293 001c 1846     		mov	r0, r3
 294 001e 1037     		adds	r7, r7, #16
 295              		.cfi_def_cfa_offset 8
 296 0020 BD46     		mov	sp, r7
 297              		.cfi_def_cfa_register 13
 298              		@ sp needed
 299 0022 80BD     		pop	{r7, pc}
 300              		.cfi_endproc
 301              	.LFE70:
 302              		.size	set_controller_watch_dog_flags, .-set_controller_watch_dog_flags
ARM GAS  C:\Users\glenn\AppData\Local\Temp\ccbHRuJu.s 			page 9


 303              		.section	.text.change_time,"ax",%progbits
 304              		.align	2
 305              		.thumb
 306              		.thumb_func
 307              		.type	change_time, %function
 308              	change_time:
 309              	.LFB71:
 113:.\rtu_modbus/process_type_16_message.c **** 
 114:.\rtu_modbus/process_type_16_message.c **** 
 115:.\rtu_modbus/process_type_16_message.c **** 
 116:.\rtu_modbus/process_type_16_message.c **** 
 117:.\rtu_modbus/process_type_16_message.c **** static uint16 change_time( uint8 *buffer )
 118:.\rtu_modbus/process_type_16_message.c **** {
 310              		.loc 2 118 0
 311              		.cfi_startproc
 312              		@ args = 0, pretend = 0, frame = 24
 313              		@ frame_needed = 1, uses_anonymous_args = 0
 314 0000 80B5     		push	{r7, lr}
 315              		.cfi_def_cfa_offset 8
 316              		.cfi_offset 7, -8
 317              		.cfi_offset 14, -4
 318 0002 86B0     		sub	sp, sp, #24
 319              		.cfi_def_cfa_offset 32
 320 0004 00AF     		add	r7, sp, #0
 321              		.cfi_def_cfa_register 7
 322 0006 7860     		str	r0, [r7, #4]
 119:.\rtu_modbus/process_type_16_message.c ****     uint16 *data;
 120:.\rtu_modbus/process_type_16_message.c ****     uint16 second;
 121:.\rtu_modbus/process_type_16_message.c ****     uint16 minute;
 122:.\rtu_modbus/process_type_16_message.c ****     uint16 hour;
 123:.\rtu_modbus/process_type_16_message.c ****     uint16 day;
 124:.\rtu_modbus/process_type_16_message.c ****     uint16 month;
 125:.\rtu_modbus/process_type_16_message.c ****     uint16 year;
 126:.\rtu_modbus/process_type_16_message.c ****     data = (uint16 *)buffer;
 323              		.loc 2 126 0
 324 0008 7B68     		ldr	r3, [r7, #4]
 325 000a 7B61     		str	r3, [r7, #20]
 127:.\rtu_modbus/process_type_16_message.c ****     store_modbus_data_registers(MOD_YEAR, 6, data);
 326              		.loc 2 127 0
 327 000c 0820     		movs	r0, #8
 328 000e 0621     		movs	r1, #6
 329 0010 7A69     		ldr	r2, [r7, #20]
 330 0012 FFF7FEFF 		bl	store_modbus_data_registers
 128:.\rtu_modbus/process_type_16_message.c **** 
 129:.\rtu_modbus/process_type_16_message.c ****     year = *data++;
 331              		.loc 2 129 0
 332 0016 7B69     		ldr	r3, [r7, #20]
 333 0018 9A1C     		adds	r2, r3, #2
 334 001a 7A61     		str	r2, [r7, #20]
 335 001c 1B88     		ldrh	r3, [r3]	@ movhi
 336 001e 7B82     		strh	r3, [r7, #18]	@ movhi
 130:.\rtu_modbus/process_type_16_message.c ****     month = *data++;
 337              		.loc 2 130 0
 338 0020 7B69     		ldr	r3, [r7, #20]
 339 0022 9A1C     		adds	r2, r3, #2
 340 0024 7A61     		str	r2, [r7, #20]
 341 0026 1B88     		ldrh	r3, [r3]	@ movhi
ARM GAS  C:\Users\glenn\AppData\Local\Temp\ccbHRuJu.s 			page 10


 342 0028 3B82     		strh	r3, [r7, #16]	@ movhi
 131:.\rtu_modbus/process_type_16_message.c ****     day  = *data++;
 343              		.loc 2 131 0
 344 002a 7B69     		ldr	r3, [r7, #20]
 345 002c 9A1C     		adds	r2, r3, #2
 346 002e 7A61     		str	r2, [r7, #20]
 347 0030 1B88     		ldrh	r3, [r3]	@ movhi
 348 0032 FB81     		strh	r3, [r7, #14]	@ movhi
 132:.\rtu_modbus/process_type_16_message.c ****     hour = *data++;
 349              		.loc 2 132 0
 350 0034 7B69     		ldr	r3, [r7, #20]
 351 0036 9A1C     		adds	r2, r3, #2
 352 0038 7A61     		str	r2, [r7, #20]
 353 003a 1B88     		ldrh	r3, [r3]	@ movhi
 354 003c BB81     		strh	r3, [r7, #12]	@ movhi
 133:.\rtu_modbus/process_type_16_message.c ****     minute = *data++;
 355              		.loc 2 133 0
 356 003e 7B69     		ldr	r3, [r7, #20]
 357 0040 9A1C     		adds	r2, r3, #2
 358 0042 7A61     		str	r2, [r7, #20]
 359 0044 1B88     		ldrh	r3, [r3]	@ movhi
 360 0046 7B81     		strh	r3, [r7, #10]	@ movhi
 134:.\rtu_modbus/process_type_16_message.c ****     second = *data++;
 361              		.loc 2 134 0
 362 0048 7B69     		ldr	r3, [r7, #20]
 363 004a 9A1C     		adds	r2, r3, #2
 364 004c 7A61     		str	r2, [r7, #20]
 365 004e 1B88     		ldrh	r3, [r3]	@ movhi
 366 0050 3B81     		strh	r3, [r7, #8]	@ movhi
 135:.\rtu_modbus/process_type_16_message.c ****     
 136:.\rtu_modbus/process_type_16_message.c ****     
 137:.\rtu_modbus/process_type_16_message.c ****     RTC_1_WriteSecond(second);   
 367              		.loc 2 137 0
 368 0052 3B89     		ldrh	r3, [r7, #8]	@ movhi
 369 0054 DBB2     		uxtb	r3, r3
 370 0056 1846     		mov	r0, r3
 371 0058 FFF7FEFF 		bl	RTC_1_WriteSecond
 138:.\rtu_modbus/process_type_16_message.c ****     RTC_1_WriteMinute(minute);  
 372              		.loc 2 138 0
 373 005c 7B89     		ldrh	r3, [r7, #10]	@ movhi
 374 005e DBB2     		uxtb	r3, r3
 375 0060 1846     		mov	r0, r3
 376 0062 FFF7FEFF 		bl	RTC_1_WriteMinute
 139:.\rtu_modbus/process_type_16_message.c ****     RTC_1_WriteHour( hour );
 377              		.loc 2 139 0
 378 0066 BB89     		ldrh	r3, [r7, #12]	@ movhi
 379 0068 DBB2     		uxtb	r3, r3
 380 006a 1846     		mov	r0, r3
 381 006c FFF7FEFF 		bl	RTC_1_WriteHour
 140:.\rtu_modbus/process_type_16_message.c ****     RTC_1_WriteDayOfMonth(day);
 382              		.loc 2 140 0
 383 0070 FB89     		ldrh	r3, [r7, #14]	@ movhi
 384 0072 DBB2     		uxtb	r3, r3
 385 0074 1846     		mov	r0, r3
 386 0076 FFF7FEFF 		bl	RTC_1_WriteDayOfMonth
 141:.\rtu_modbus/process_type_16_message.c ****     RTC_1_WriteMonth(month);
 387              		.loc 2 141 0
ARM GAS  C:\Users\glenn\AppData\Local\Temp\ccbHRuJu.s 			page 11


 388 007a 3B8A     		ldrh	r3, [r7, #16]	@ movhi
 389 007c DBB2     		uxtb	r3, r3
 390 007e 1846     		mov	r0, r3
 391 0080 FFF7FEFF 		bl	RTC_1_WriteMonth
 142:.\rtu_modbus/process_type_16_message.c ****     RTC_1_WriteYear( year );
 392              		.loc 2 142 0
 393 0084 7B8A     		ldrh	r3, [r7, #18]
 394 0086 1846     		mov	r0, r3
 395 0088 FFF7FEFF 		bl	RTC_1_WriteYear
 143:.\rtu_modbus/process_type_16_message.c ****     return 1;
 396              		.loc 2 143 0
 397 008c 0123     		movs	r3, #1
 144:.\rtu_modbus/process_type_16_message.c **** 
 145:.\rtu_modbus/process_type_16_message.c **** }
 398              		.loc 2 145 0
 399 008e 1846     		mov	r0, r3
 400 0090 1837     		adds	r7, r7, #24
 401              		.cfi_def_cfa_offset 8
 402 0092 BD46     		mov	sp, r7
 403              		.cfi_def_cfa_register 13
 404              		@ sp needed
 405 0094 80BD     		pop	{r7, pc}
 406              		.cfi_endproc
 407              	.LFE71:
 408              		.size	change_time, .-change_time
 409 0096 00BF     		.section	.text.change_modbus_address,"ax",%progbits
 410              		.align	2
 411              		.thumb
 412              		.thumb_func
 413              		.type	change_modbus_address, %function
 414              	change_modbus_address:
 415              	.LFB72:
 146:.\rtu_modbus/process_type_16_message.c **** 
 147:.\rtu_modbus/process_type_16_message.c **** static uint16 change_modbus_address( uint8 *buffer )
 148:.\rtu_modbus/process_type_16_message.c **** {
 416              		.loc 2 148 0
 417              		.cfi_startproc
 418              		@ args = 0, pretend = 0, frame = 16
 419              		@ frame_needed = 1, uses_anonymous_args = 0
 420 0000 80B5     		push	{r7, lr}
 421              		.cfi_def_cfa_offset 8
 422              		.cfi_offset 7, -8
 423              		.cfi_offset 14, -4
 424 0002 84B0     		sub	sp, sp, #16
 425              		.cfi_def_cfa_offset 24
 426 0004 00AF     		add	r7, sp, #0
 427              		.cfi_def_cfa_register 7
 428 0006 7860     		str	r0, [r7, #4]
 149:.\rtu_modbus/process_type_16_message.c ****     uint16 mod_commission_flag;
 150:.\rtu_modbus/process_type_16_message.c ****     uint16 return_value;
 151:.\rtu_modbus/process_type_16_message.c ****     
 152:.\rtu_modbus/process_type_16_message.c ****     get_modbus_data_registers( MOD_COMMISSIONING_FLAG, 1, &mod_commission_flag );
 429              		.loc 2 152 0
 430 0008 07F10C03 		add	r3, r7, #12
 431 000c 0420     		movs	r0, #4
 432 000e 0121     		movs	r1, #1
 433 0010 1A46     		mov	r2, r3
ARM GAS  C:\Users\glenn\AppData\Local\Temp\ccbHRuJu.s 			page 12


 434 0012 FFF7FEFF 		bl	get_modbus_data_registers
 153:.\rtu_modbus/process_type_16_message.c ****     
 154:.\rtu_modbus/process_type_16_message.c ****     if( mod_commission_flag != 0  )
 435              		.loc 2 154 0
 436 0016 BB89     		ldrh	r3, [r7, #12]
 437 0018 002B     		cmp	r3, #0
 438 001a 0BD0     		beq	.L14
 155:.\rtu_modbus/process_type_16_message.c ****     {
 156:.\rtu_modbus/process_type_16_message.c ****         return_value = 1;
 439              		.loc 2 156 0
 440 001c 0123     		movs	r3, #1
 441 001e FB81     		strh	r3, [r7, #14]	@ movhi
 157:.\rtu_modbus/process_type_16_message.c ****         Em_EEPROM_1_Write( (const uint8* )buffer, (const uint8*)modbus_address_data , sizeof(modbus
 442              		.loc 2 157 0
 443 0020 7868     		ldr	r0, [r7, #4]
 444 0022 0849     		ldr	r1, .L17
 445 0024 0422     		movs	r2, #4
 446 0026 FFF7FEFF 		bl	Em_EEPROM_1_Write
 158:.\rtu_modbus/process_type_16_message.c ****         cf_send_event(  CF_COMMISSIONING_DONE, 0 );
 447              		.loc 2 158 0
 448 002a 0820     		movs	r0, #8
 449 002c 0021     		movs	r1, #0
 450 002e FFF7FEFF 		bl	cf_send_event
 451 0032 01E0     		b	.L15
 452              	.L14:
 159:.\rtu_modbus/process_type_16_message.c ****     }
 160:.\rtu_modbus/process_type_16_message.c ****     else
 161:.\rtu_modbus/process_type_16_message.c ****     {
 162:.\rtu_modbus/process_type_16_message.c ****         return_value = 0;
 453              		.loc 2 162 0
 454 0034 0023     		movs	r3, #0
 455 0036 FB81     		strh	r3, [r7, #14]	@ movhi
 456              	.L15:
 163:.\rtu_modbus/process_type_16_message.c ****     }    
 164:.\rtu_modbus/process_type_16_message.c ****     return return_value;
 457              		.loc 2 164 0
 458 0038 FB89     		ldrh	r3, [r7, #14]
 165:.\rtu_modbus/process_type_16_message.c **** }
 459              		.loc 2 165 0
 460 003a 1846     		mov	r0, r3
 461 003c 1037     		adds	r7, r7, #16
 462              		.cfi_def_cfa_offset 8
 463 003e BD46     		mov	sp, r7
 464              		.cfi_def_cfa_register 13
 465              		@ sp needed
 466 0040 80BD     		pop	{r7, pc}
 467              	.L18:
 468 0042 00BF     		.align	2
 469              	.L17:
 470 0044 00000000 		.word	modbus_address_data
 471              		.cfi_endproc
 472              	.LFE72:
 473              		.size	change_modbus_address, .-change_modbus_address
 474              		.section	.text.set_moisture_sampling_rate,"ax",%progbits
 475              		.align	2
 476              		.thumb
 477              		.thumb_func
ARM GAS  C:\Users\glenn\AppData\Local\Temp\ccbHRuJu.s 			page 13


 478              		.type	set_moisture_sampling_rate, %function
 479              	set_moisture_sampling_rate:
 480              	.LFB73:
 166:.\rtu_modbus/process_type_16_message.c **** /*
 167:.\rtu_modbus/process_type_16_message.c **** static uint16 store_calibration_variables( uint8 *buffer )
 168:.\rtu_modbus/process_type_16_message.c **** {
 169:.\rtu_modbus/process_type_16_message.c ****     uint16 *temp;
 170:.\rtu_modbus/process_type_16_message.c ****     CyGlobalIntDisable
 171:.\rtu_modbus/process_type_16_message.c ****     temp = (uint16*) buffer;
 172:.\rtu_modbus/process_type_16_message.c ****     store_modbus_data_registers( MAIN_FLOW_RATE_CALIBRATION, CALIBRATION_ARRAY_LENGTH *2 , temp);
 173:.\rtu_modbus/process_type_16_message.c ****     Em_EEPROM_1_Write( (const uint8*)buffer,(uint8*) calibration_factors, CALIBRATION_ARRAY_LENGTH*
 174:.\rtu_modbus/process_type_16_message.c ****     CYGlobalIntEnable
 175:.\rtu_modbus/process_type_16_message.c ****     return 1;
 176:.\rtu_modbus/process_type_16_message.c ****  
 177:.\rtu_modbus/process_type_16_message.c **** }
 178:.\rtu_modbus/process_type_16_message.c **** */
 179:.\rtu_modbus/process_type_16_message.c **** 
 180:.\rtu_modbus/process_type_16_message.c **** static uint16 set_moisture_sampling_rate( uint8 *buffer )
 181:.\rtu_modbus/process_type_16_message.c **** {
 481              		.loc 2 181 0
 482              		.cfi_startproc
 483              		@ args = 0, pretend = 0, frame = 16
 484              		@ frame_needed = 1, uses_anonymous_args = 0
 485 0000 80B5     		push	{r7, lr}
 486              		.cfi_def_cfa_offset 8
 487              		.cfi_offset 7, -8
 488              		.cfi_offset 14, -4
 489 0002 84B0     		sub	sp, sp, #16
 490              		.cfi_def_cfa_offset 24
 491 0004 00AF     		add	r7, sp, #0
 492              		.cfi_def_cfa_register 7
 493 0006 7860     		str	r0, [r7, #4]
 182:.\rtu_modbus/process_type_16_message.c ****     uint16 temp16;
 183:.\rtu_modbus/process_type_16_message.c ****     
 184:.\rtu_modbus/process_type_16_message.c ****     store_modbus_data_registers( LOGGING_RATE, 1, (uint16 *)buffer);
 494              		.loc 2 184 0
 495 0008 2120     		movs	r0, #33
 496 000a 0121     		movs	r1, #1
 497 000c 7A68     		ldr	r2, [r7, #4]
 498 000e FFF7FEFF 		bl	store_modbus_data_registers
 185:.\rtu_modbus/process_type_16_message.c ****     get_modbus_data_registers( LOGGING_RATE,1, &temp16 );
 499              		.loc 2 185 0
 500 0012 07F10E03 		add	r3, r7, #14
 501 0016 2120     		movs	r0, #33
 502 0018 0121     		movs	r1, #1
 503 001a 1A46     		mov	r2, r3
 504 001c FFF7FEFF 		bl	get_modbus_data_registers
 186:.\rtu_modbus/process_type_16_message.c ****     cf_send_event( CF_MEASUREMENT_RATE, temp16 );
 505              		.loc 2 186 0
 506 0020 FB89     		ldrh	r3, [r7, #14]
 507 0022 1020     		movs	r0, #16
 508 0024 1946     		mov	r1, r3
 509 0026 FFF7FEFF 		bl	cf_send_event
 187:.\rtu_modbus/process_type_16_message.c ****     return 0;
 510              		.loc 2 187 0
 511 002a 0023     		movs	r3, #0
 188:.\rtu_modbus/process_type_16_message.c **** }
ARM GAS  C:\Users\glenn\AppData\Local\Temp\ccbHRuJu.s 			page 14


 512              		.loc 2 188 0
 513 002c 1846     		mov	r0, r3
 514 002e 1037     		adds	r7, r7, #16
 515              		.cfi_def_cfa_offset 8
 516 0030 BD46     		mov	sp, r7
 517              		.cfi_def_cfa_register 13
 518              		@ sp needed
 519 0032 80BD     		pop	{r7, pc}
 520              		.cfi_endproc
 521              	.LFE73:
 522              		.size	set_moisture_sampling_rate, .-set_moisture_sampling_rate
 523              		.section	.text.clear_moisture_log_data,"ax",%progbits
 524              		.align	2
 525              		.thumb
 526              		.thumb_func
 527              		.type	clear_moisture_log_data, %function
 528              	clear_moisture_log_data:
 529              	.LFB74:
 189:.\rtu_modbus/process_type_16_message.c **** 
 190:.\rtu_modbus/process_type_16_message.c ****     
 191:.\rtu_modbus/process_type_16_message.c **** static uint16 clear_moisture_log_data( uint8 *buffer )
 192:.\rtu_modbus/process_type_16_message.c **** {
 530              		.loc 2 192 0
 531              		.cfi_startproc
 532              		@ args = 0, pretend = 0, frame = 16
 533              		@ frame_needed = 1, uses_anonymous_args = 0
 534 0000 80B5     		push	{r7, lr}
 535              		.cfi_def_cfa_offset 8
 536              		.cfi_offset 7, -8
 537              		.cfi_offset 14, -4
 538 0002 84B0     		sub	sp, sp, #16
 539              		.cfi_def_cfa_offset 24
 540 0004 00AF     		add	r7, sp, #0
 541              		.cfi_def_cfa_register 7
 542 0006 7860     		str	r0, [r7, #4]
 193:.\rtu_modbus/process_type_16_message.c **** 
 194:.\rtu_modbus/process_type_16_message.c ****     uint16 temp16;
 195:.\rtu_modbus/process_type_16_message.c ****     temp16 = 0;
 543              		.loc 2 195 0
 544 0008 0023     		movs	r3, #0
 545 000a FB81     		strh	r3, [r7, #14]	@ movhi
 196:.\rtu_modbus/process_type_16_message.c ****     store_modbus_data_registers( LOGGING_INDEX, 1,&temp16 );
 546              		.loc 2 196 0
 547 000c 07F10E03 		add	r3, r7, #14
 548 0010 2020     		movs	r0, #32
 549 0012 0121     		movs	r1, #1
 550 0014 1A46     		mov	r2, r3
 551 0016 FFF7FEFF 		bl	store_modbus_data_registers
 197:.\rtu_modbus/process_type_16_message.c ****     cf_send_event( CF_RESET_LOG, 0 );
 552              		.loc 2 197 0
 553 001a 0F20     		movs	r0, #15
 554 001c 0021     		movs	r1, #0
 555 001e FFF7FEFF 		bl	cf_send_event
 198:.\rtu_modbus/process_type_16_message.c ****     return 1;
 556              		.loc 2 198 0
 557 0022 0123     		movs	r3, #1
 199:.\rtu_modbus/process_type_16_message.c **** }
ARM GAS  C:\Users\glenn\AppData\Local\Temp\ccbHRuJu.s 			page 15


 558              		.loc 2 199 0
 559 0024 1846     		mov	r0, r3
 560 0026 1037     		adds	r7, r7, #16
 561              		.cfi_def_cfa_offset 8
 562 0028 BD46     		mov	sp, r7
 563              		.cfi_def_cfa_register 13
 564              		@ sp needed
 565 002a 80BD     		pop	{r7, pc}
 566              		.cfi_endproc
 567              	.LFE74:
 568              		.size	clear_moisture_log_data, .-clear_moisture_log_data
 569              		.section	.text.update_moisture_sensor_configuration,"ax",%progbits
 570              		.align	2
 571              		.thumb
 572              		.thumb_func
 573              		.type	update_moisture_sensor_configuration, %function
 574              	update_moisture_sensor_configuration:
 575              	.LFB75:
 200:.\rtu_modbus/process_type_16_message.c **** 
 201:.\rtu_modbus/process_type_16_message.c **** 
 202:.\rtu_modbus/process_type_16_message.c **** 
 203:.\rtu_modbus/process_type_16_message.c **** static uint16 update_moisture_sensor_configuration( uint8 *buffer )
 204:.\rtu_modbus/process_type_16_message.c **** {
 576              		.loc 2 204 0
 577              		.cfi_startproc
 578              		@ args = 0, pretend = 0, frame = 8
 579              		@ frame_needed = 1, uses_anonymous_args = 0
 580 0000 80B5     		push	{r7, lr}
 581              		.cfi_def_cfa_offset 8
 582              		.cfi_offset 7, -8
 583              		.cfi_offset 14, -4
 584 0002 82B0     		sub	sp, sp, #8
 585              		.cfi_def_cfa_offset 16
 586 0004 00AF     		add	r7, sp, #0
 587              		.cfi_def_cfa_register 7
 588 0006 7860     		str	r0, [r7, #4]
 205:.\rtu_modbus/process_type_16_message.c **** 
 206:.\rtu_modbus/process_type_16_message.c ****    
 207:.\rtu_modbus/process_type_16_message.c **** 
 208:.\rtu_modbus/process_type_16_message.c **** 
 209:.\rtu_modbus/process_type_16_message.c ****     store_modbus_data_registers( MOISTURE_SENSOR_1_CONFIGURATION , sizeof(moisture_configuration_da
 589              		.loc 2 209 0
 590 0008 5020     		movs	r0, #80
 591 000a 1021     		movs	r1, #16
 592 000c 7A68     		ldr	r2, [r7, #4]
 593 000e FFF7FEFF 		bl	store_modbus_data_registers
 210:.\rtu_modbus/process_type_16_message.c ****     cf_send_event( CF_UPDATE_MOISTURE_CONFIGURATION, 0 );
 594              		.loc 2 210 0
 595 0012 1120     		movs	r0, #17
 596 0014 0021     		movs	r1, #0
 597 0016 FFF7FEFF 		bl	cf_send_event
 211:.\rtu_modbus/process_type_16_message.c **** 
 212:.\rtu_modbus/process_type_16_message.c ****     return 1;
 598              		.loc 2 212 0
 599 001a 0123     		movs	r3, #1
 213:.\rtu_modbus/process_type_16_message.c **** 
 214:.\rtu_modbus/process_type_16_message.c **** }
ARM GAS  C:\Users\glenn\AppData\Local\Temp\ccbHRuJu.s 			page 16


 600              		.loc 2 214 0
 601 001c 1846     		mov	r0, r3
 602 001e 0837     		adds	r7, r7, #8
 603              		.cfi_def_cfa_offset 8
 604 0020 BD46     		mov	sp, r7
 605              		.cfi_def_cfa_register 13
 606              		@ sp needed
 607 0022 80BD     		pop	{r7, pc}
 608              		.cfi_endproc
 609              	.LFE75:
 610              		.size	update_moisture_sensor_configuration, .-update_moisture_sensor_configuration
 611              		.section	.text.force_moisture_reading,"ax",%progbits
 612              		.align	2
 613              		.thumb
 614              		.thumb_func
 615              		.type	force_moisture_reading, %function
 616              	force_moisture_reading:
 617              	.LFB76:
 215:.\rtu_modbus/process_type_16_message.c **** 
 216:.\rtu_modbus/process_type_16_message.c **** static uint16 force_moisture_reading( uint8 *buffer )
 217:.\rtu_modbus/process_type_16_message.c **** {
 618              		.loc 2 217 0
 619              		.cfi_startproc
 620              		@ args = 0, pretend = 0, frame = 8
 621              		@ frame_needed = 1, uses_anonymous_args = 0
 622 0000 80B5     		push	{r7, lr}
 623              		.cfi_def_cfa_offset 8
 624              		.cfi_offset 7, -8
 625              		.cfi_offset 14, -4
 626 0002 82B0     		sub	sp, sp, #8
 627              		.cfi_def_cfa_offset 16
 628 0004 00AF     		add	r7, sp, #0
 629              		.cfi_def_cfa_register 7
 630 0006 7860     		str	r0, [r7, #4]
 218:.\rtu_modbus/process_type_16_message.c ****     cf_send_event( CF_START_MOISTURE_READING, 0 );
 631              		.loc 2 218 0
 632 0008 0920     		movs	r0, #9
 633 000a 0021     		movs	r1, #0
 634 000c FFF7FEFF 		bl	cf_send_event
 219:.\rtu_modbus/process_type_16_message.c ****     return 1;
 635              		.loc 2 219 0
 636 0010 0123     		movs	r3, #1
 220:.\rtu_modbus/process_type_16_message.c **** }
 637              		.loc 2 220 0
 638 0012 1846     		mov	r0, r3
 639 0014 0837     		adds	r7, r7, #8
 640              		.cfi_def_cfa_offset 8
 641 0016 BD46     		mov	sp, r7
 642              		.cfi_def_cfa_register 13
 643              		@ sp needed
 644 0018 80BD     		pop	{r7, pc}
 645              		.cfi_endproc
 646              	.LFE76:
 647              		.size	force_moisture_reading, .-force_moisture_reading
 648 001a 00BF     		.section	.text.update_temperature_configuration,"ax",%progbits
 649              		.align	2
 650              		.thumb
ARM GAS  C:\Users\glenn\AppData\Local\Temp\ccbHRuJu.s 			page 17


 651              		.thumb_func
 652              		.type	update_temperature_configuration, %function
 653              	update_temperature_configuration:
 654              	.LFB77:
 221:.\rtu_modbus/process_type_16_message.c **** 
 222:.\rtu_modbus/process_type_16_message.c **** static uint16 update_temperature_configuration(  uint8 *buffer )
 223:.\rtu_modbus/process_type_16_message.c **** {
 655              		.loc 2 223 0
 656              		.cfi_startproc
 657              		@ args = 0, pretend = 0, frame = 8
 658              		@ frame_needed = 1, uses_anonymous_args = 0
 659 0000 80B5     		push	{r7, lr}
 660              		.cfi_def_cfa_offset 8
 661              		.cfi_offset 7, -8
 662              		.cfi_offset 14, -4
 663 0002 82B0     		sub	sp, sp, #8
 664              		.cfi_def_cfa_offset 16
 665 0004 00AF     		add	r7, sp, #0
 666              		.cfi_def_cfa_register 7
 667 0006 7860     		str	r0, [r7, #4]
 224:.\rtu_modbus/process_type_16_message.c **** 
 225:.\rtu_modbus/process_type_16_message.c ****     
 226:.\rtu_modbus/process_type_16_message.c **** 
 227:.\rtu_modbus/process_type_16_message.c ****     
 228:.\rtu_modbus/process_type_16_message.c ****     store_modbus_data_registers( MOISTURE_TEMP_CALIBRATION_A ,TEMPERATURE_CALIBRATION_MSG_LEN ,(uin
 668              		.loc 2 228 0
 669 0008 6420     		movs	r0, #100
 670 000a 0421     		movs	r1, #4
 671 000c 7A68     		ldr	r2, [r7, #4]
 672 000e FFF7FEFF 		bl	store_modbus_data_registers
 229:.\rtu_modbus/process_type_16_message.c ****     cf_send_event( CF_UPDATE_TEMPERATURE_PARAMETERS, 0 );
 673              		.loc 2 229 0
 674 0012 1220     		movs	r0, #18
 675 0014 0021     		movs	r1, #0
 676 0016 FFF7FEFF 		bl	cf_send_event
 230:.\rtu_modbus/process_type_16_message.c **** 
 231:.\rtu_modbus/process_type_16_message.c ****     return 1;
 677              		.loc 2 231 0
 678 001a 0123     		movs	r3, #1
 232:.\rtu_modbus/process_type_16_message.c **** 
 233:.\rtu_modbus/process_type_16_message.c **** }
 679              		.loc 2 233 0
 680 001c 1846     		mov	r0, r3
 681 001e 0837     		adds	r7, r7, #8
 682              		.cfi_def_cfa_offset 8
 683 0020 BD46     		mov	sp, r7
 684              		.cfi_def_cfa_register 13
 685              		@ sp needed
 686 0022 80BD     		pop	{r7, pc}
 687              		.cfi_endproc
 688              	.LFE77:
 689              		.size	update_temperature_configuration, .-update_temperature_configuration
 690              		.section	.text.update_reference_resistor,"ax",%progbits
 691              		.align	2
 692              		.thumb
 693              		.thumb_func
 694              		.type	update_reference_resistor, %function
ARM GAS  C:\Users\glenn\AppData\Local\Temp\ccbHRuJu.s 			page 18


 695              	update_reference_resistor:
 696              	.LFB78:
 234:.\rtu_modbus/process_type_16_message.c **** 
 235:.\rtu_modbus/process_type_16_message.c **** static uint16 update_reference_resistor( uint8 *buffer )
 236:.\rtu_modbus/process_type_16_message.c **** {
 697              		.loc 2 236 0
 698              		.cfi_startproc
 699              		@ args = 0, pretend = 0, frame = 8
 700              		@ frame_needed = 1, uses_anonymous_args = 0
 701 0000 80B5     		push	{r7, lr}
 702              		.cfi_def_cfa_offset 8
 703              		.cfi_offset 7, -8
 704              		.cfi_offset 14, -4
 705 0002 82B0     		sub	sp, sp, #8
 706              		.cfi_def_cfa_offset 16
 707 0004 00AF     		add	r7, sp, #0
 708              		.cfi_def_cfa_register 7
 709 0006 7860     		str	r0, [r7, #4]
 237:.\rtu_modbus/process_type_16_message.c **** 
 238:.\rtu_modbus/process_type_16_message.c ****     
 239:.\rtu_modbus/process_type_16_message.c **** 
 240:.\rtu_modbus/process_type_16_message.c ****     
 241:.\rtu_modbus/process_type_16_message.c ****     store_modbus_data_registers( REFERENCE_RESISTOR_1_FLOAT ,REFERENCE_RESISTOR_MSG_LEN ,(uint16 *)
 710              		.loc 2 241 0
 711 0008 6E20     		movs	r0, #110
 712 000a 2021     		movs	r1, #32
 713 000c 7A68     		ldr	r2, [r7, #4]
 714 000e FFF7FEFF 		bl	store_modbus_data_registers
 242:.\rtu_modbus/process_type_16_message.c ****     cf_send_event( CF_UPDATE_REFERENCE_RESISTOR, 0 );
 715              		.loc 2 242 0
 716 0012 1320     		movs	r0, #19
 717 0014 0021     		movs	r1, #0
 718 0016 FFF7FEFF 		bl	cf_send_event
 243:.\rtu_modbus/process_type_16_message.c **** 
 244:.\rtu_modbus/process_type_16_message.c ****     return 1;
 719              		.loc 2 244 0
 720 001a 0123     		movs	r3, #1
 245:.\rtu_modbus/process_type_16_message.c **** 
 246:.\rtu_modbus/process_type_16_message.c **** }   
 721              		.loc 2 246 0
 722 001c 1846     		mov	r0, r3
 723 001e 0837     		adds	r7, r7, #8
 724              		.cfi_def_cfa_offset 8
 725 0020 BD46     		mov	sp, r7
 726              		.cfi_def_cfa_register 13
 727              		@ sp needed
 728 0022 80BD     		pop	{r7, pc}
 729              		.cfi_endproc
 730              	.LFE78:
 731              		.size	update_reference_resistor, .-update_reference_resistor
 732              		.section	.rodata
 733              		.align	2
 734              		.type	type_16_access_functions, %object
 735              		.size	type_16_access_functions, 192
 736              	type_16_access_functions:
 737 0000 14000000 		.word	20
 738 0004 06000000 		.word	6
ARM GAS  C:\Users\glenn\AppData\Local\Temp\ccbHRuJu.s 			page 19


 739 0008 00000000 		.word	0
 740 000c 00000000 		.word	change_time
 741 0010 15000000 		.word	21
 742 0014 01000000 		.word	1
 743 0018 00000000 		.word	0
 744 001c 00000000 		.word	change_modbus_address
 745 0020 16000000 		.word	22
 746 0024 01000000 		.word	1
 747 0028 00000000 		.word	0
 748 002c 00000000 		.word	clear_watch_dog_flags
 749 0030 17000000 		.word	23
 750 0034 01000000 		.word	1
 751 0038 00000000 		.word	0
 752 003c 00000000 		.word	clear_power_up_event
 753 0040 19000000 		.word	25
 754 0044 01000000 		.word	1
 755 0048 00000000 		.word	0
 756 004c 00000000 		.word	clear_minute_rollover
 757 0050 1A000000 		.word	26
 758 0054 01000000 		.word	1
 759 0058 00000000 		.word	0
 760 005c 00000000 		.word	set_controller_watch_dog_flags
 761 0060 1E000000 		.word	30
 762 0064 01000000 		.word	1
 763 0068 00000000 		.word	0
 764 006c 00000000 		.word	set_moisture_sampling_rate
 765 0070 1F000000 		.word	31
 766 0074 01000000 		.word	1
 767 0078 00000000 		.word	0
 768 007c 00000000 		.word	clear_moisture_log_data
 769 0080 20000000 		.word	32
 770 0084 10000000 		.word	16
 771 0088 00000000 		.word	0
 772 008c 00000000 		.word	update_moisture_sensor_configuration
 773 0090 21000000 		.word	33
 774 0094 01000000 		.word	1
 775 0098 00000000 		.word	0
 776 009c 00000000 		.word	force_moisture_reading
 777 00a0 22000000 		.word	34
 778 00a4 04000000 		.word	4
 779 00a8 00000000 		.word	0
 780 00ac 00000000 		.word	update_temperature_configuration
 781 00b0 23000000 		.word	35
 782 00b4 20000000 		.word	32
 783 00b8 00000000 		.word	0
 784 00bc 00000000 		.word	update_reference_resistor
 785              		.section	.text.process_type_16_message,"ax",%progbits
 786              		.align	2
 787              		.global	process_type_16_message
 788              		.thumb
 789              		.thumb_func
 790              		.type	process_type_16_message, %function
 791              	process_type_16_message:
 792              	.LFB79:
 247:.\rtu_modbus/process_type_16_message.c **** 
 248:.\rtu_modbus/process_type_16_message.c **** #define TABLE_LENGTH 12
 249:.\rtu_modbus/process_type_16_message.c **** static const TYPE_16_STRUCT type_16_access_functions[TABLE_LENGTH] = 
ARM GAS  C:\Users\glenn\AppData\Local\Temp\ccbHRuJu.s 			page 20


 250:.\rtu_modbus/process_type_16_message.c **** {
 251:.\rtu_modbus/process_type_16_message.c ****     // System Level Writes
 252:.\rtu_modbus/process_type_16_message.c ****     { 20,    6,                                                 SWAP_16,  change_time              
 253:.\rtu_modbus/process_type_16_message.c ****     { 21,    MODBUS_ARRAY_LENGTH,                               SWAP_16,  change_modbus_address    
 254:.\rtu_modbus/process_type_16_message.c ****     { 22,    1,                                                 SWAP_16,  clear_watch_dog_flags    
 255:.\rtu_modbus/process_type_16_message.c ****     { 23,    1,                                                 SWAP_16,  clear_power_up_event     
 256:.\rtu_modbus/process_type_16_message.c ****     { 25,    1,                                                 SWAP_16,  clear_minute_rollover    
 257:.\rtu_modbus/process_type_16_message.c ****     { 26,    1,                                                 SWAP_16,  set_controller_watch_dog_
 258:.\rtu_modbus/process_type_16_message.c ****     // Moisture Sensor Related Writes
 259:.\rtu_modbus/process_type_16_message.c ****     // 30 write sampling index
 260:.\rtu_modbus/process_type_16_message.c ****     { 30,    1,                                                 SWAP_16,  set_moisture_sampling_rat
 261:.\rtu_modbus/process_type_16_message.c ****     // 31 write clear logging data
 262:.\rtu_modbus/process_type_16_message.c ****     { 31,    1,                                                 SWAP_16,  clear_moisture_log_data  
 263:.\rtu_modbus/process_type_16_message.c ****     // 33 update moisture configuration
 264:.\rtu_modbus/process_type_16_message.c ****     { 32,     MOISTURE_SENSOR_NUMBER,                           SWAP_16,  update_moisture_sensor_co
 265:.\rtu_modbus/process_type_16_message.c ****     // 33 force mositure reading
 266:.\rtu_modbus/process_type_16_message.c ****     { 33,    1,                                                 SWAP_16, force_moisture_reading    
 267:.\rtu_modbus/process_type_16_message.c ****     { 34,    TEMPERATURE_CALIBRATION_MSG_LEN,                   SWAP_16, update_temperature_configu
 268:.\rtu_modbus/process_type_16_message.c ****     { 35,    REFERENCE_RESISTOR_MSG_LEN,                       SWAP_16 , update_reference_resistor 
 269:.\rtu_modbus/process_type_16_message.c ****    
 270:.\rtu_modbus/process_type_16_message.c **** };
 271:.\rtu_modbus/process_type_16_message.c ****         
 272:.\rtu_modbus/process_type_16_message.c **** 
 273:.\rtu_modbus/process_type_16_message.c **** 
 274:.\rtu_modbus/process_type_16_message.c **** static  const TYPE_16_STRUCT *find_access_function( unsigned start_register, unsigned number );
 275:.\rtu_modbus/process_type_16_message.c **** 
 276:.\rtu_modbus/process_type_16_message.c **** 
 277:.\rtu_modbus/process_type_16_message.c **** int process_type_16_message( int in_length, uint8 *in, int out_length, uint8 *out )
 278:.\rtu_modbus/process_type_16_message.c **** {
 793              		.loc 2 278 0
 794              		.cfi_startproc
 795              		@ args = 0, pretend = 0, frame = 56
 796              		@ frame_needed = 1, uses_anonymous_args = 0
 797 0000 80B5     		push	{r7, lr}
 798              		.cfi_def_cfa_offset 8
 799              		.cfi_offset 7, -8
 800              		.cfi_offset 14, -4
 801 0002 8EB0     		sub	sp, sp, #56
 802              		.cfi_def_cfa_offset 64
 803 0004 00AF     		add	r7, sp, #0
 804              		.cfi_def_cfa_register 7
 805 0006 F860     		str	r0, [r7, #12]
 806 0008 B960     		str	r1, [r7, #8]
 807 000a 7A60     		str	r2, [r7, #4]
 808 000c 3B60     		str	r3, [r7]
 279:.\rtu_modbus/process_type_16_message.c ****     int       return_value;
 280:.\rtu_modbus/process_type_16_message.c ****     unsigned working_register;
 281:.\rtu_modbus/process_type_16_message.c ****     unsigned number_of_registers;
 282:.\rtu_modbus/process_type_16_message.c ****     unsigned count;
 283:.\rtu_modbus/process_type_16_message.c ****     unsigned i;
 284:.\rtu_modbus/process_type_16_message.c ****     unsigned swap_inc;
 285:.\rtu_modbus/process_type_16_message.c ****     unsigned swap_type;
 286:.\rtu_modbus/process_type_16_message.c ****     const TYPE_16_STRUCT     *acc_struct;
 287:.\rtu_modbus/process_type_16_message.c ****     uint8                    *ref_pointer;
 288:.\rtu_modbus/process_type_16_message.c **** 
 289:.\rtu_modbus/process_type_16_message.c ****     
 290:.\rtu_modbus/process_type_16_message.c ****     
ARM GAS  C:\Users\glenn\AppData\Local\Temp\ccbHRuJu.s 			page 21


 291:.\rtu_modbus/process_type_16_message.c ****     return_value = 0;
 809              		.loc 2 291 0
 810 000e 0023     		movs	r3, #0
 811 0010 7B63     		str	r3, [r7, #52]
 292:.\rtu_modbus/process_type_16_message.c ****     *out++           = *in;
 812              		.loc 2 292 0
 813 0012 3B68     		ldr	r3, [r7]
 814 0014 5A1C     		adds	r2, r3, #1
 815 0016 3A60     		str	r2, [r7]
 816 0018 BA68     		ldr	r2, [r7, #8]
 817 001a 1278     		ldrb	r2, [r2]	@ zero_extendqisi2
 818 001c 1A70     		strb	r2, [r3]
 293:.\rtu_modbus/process_type_16_message.c ****     working_register = (*in++)*256;
 819              		.loc 2 293 0
 820 001e BB68     		ldr	r3, [r7, #8]
 821 0020 5A1C     		adds	r2, r3, #1
 822 0022 BA60     		str	r2, [r7, #8]
 823 0024 1B78     		ldrb	r3, [r3]	@ zero_extendqisi2
 824 0026 1B02     		lsls	r3, r3, #8
 825 0028 7B62     		str	r3, [r7, #36]
 294:.\rtu_modbus/process_type_16_message.c ****     *out++           = *in;
 826              		.loc 2 294 0
 827 002a 3B68     		ldr	r3, [r7]
 828 002c 5A1C     		adds	r2, r3, #1
 829 002e 3A60     		str	r2, [r7]
 830 0030 BA68     		ldr	r2, [r7, #8]
 831 0032 1278     		ldrb	r2, [r2]	@ zero_extendqisi2
 832 0034 1A70     		strb	r2, [r3]
 295:.\rtu_modbus/process_type_16_message.c ****     working_register += (*in++);
 833              		.loc 2 295 0
 834 0036 BB68     		ldr	r3, [r7, #8]
 835 0038 5A1C     		adds	r2, r3, #1
 836 003a BA60     		str	r2, [r7, #8]
 837 003c 1B78     		ldrb	r3, [r3]	@ zero_extendqisi2
 838 003e 1A46     		mov	r2, r3
 839 0040 7B6A     		ldr	r3, [r7, #36]
 840 0042 1344     		add	r3, r3, r2
 841 0044 7B62     		str	r3, [r7, #36]
 296:.\rtu_modbus/process_type_16_message.c ****     *out++           = *in;
 842              		.loc 2 296 0
 843 0046 3B68     		ldr	r3, [r7]
 844 0048 5A1C     		adds	r2, r3, #1
 845 004a 3A60     		str	r2, [r7]
 846 004c BA68     		ldr	r2, [r7, #8]
 847 004e 1278     		ldrb	r2, [r2]	@ zero_extendqisi2
 848 0050 1A70     		strb	r2, [r3]
 297:.\rtu_modbus/process_type_16_message.c ****     number_of_registers = (*in++)*256;
 849              		.loc 2 297 0
 850 0052 BB68     		ldr	r3, [r7, #8]
 851 0054 5A1C     		adds	r2, r3, #1
 852 0056 BA60     		str	r2, [r7, #8]
 853 0058 1B78     		ldrb	r3, [r3]	@ zero_extendqisi2
 854 005a 1B02     		lsls	r3, r3, #8
 855 005c 3B62     		str	r3, [r7, #32]
 298:.\rtu_modbus/process_type_16_message.c ****     *out++           = *in;
 856              		.loc 2 298 0
 857 005e 3B68     		ldr	r3, [r7]
ARM GAS  C:\Users\glenn\AppData\Local\Temp\ccbHRuJu.s 			page 22


 858 0060 5A1C     		adds	r2, r3, #1
 859 0062 3A60     		str	r2, [r7]
 860 0064 BA68     		ldr	r2, [r7, #8]
 861 0066 1278     		ldrb	r2, [r2]	@ zero_extendqisi2
 862 0068 1A70     		strb	r2, [r3]
 299:.\rtu_modbus/process_type_16_message.c ****     number_of_registers += (*in++);
 863              		.loc 2 299 0
 864 006a BB68     		ldr	r3, [r7, #8]
 865 006c 5A1C     		adds	r2, r3, #1
 866 006e BA60     		str	r2, [r7, #8]
 867 0070 1B78     		ldrb	r3, [r3]	@ zero_extendqisi2
 868 0072 1A46     		mov	r2, r3
 869 0074 3B6A     		ldr	r3, [r7, #32]
 870 0076 1344     		add	r3, r3, r2
 871 0078 3B62     		str	r3, [r7, #32]
 300:.\rtu_modbus/process_type_16_message.c ****     count       = 4;
 872              		.loc 2 300 0
 873 007a 0423     		movs	r3, #4
 874 007c FB61     		str	r3, [r7, #28]
 301:.\rtu_modbus/process_type_16_message.c ****     in++;   // skip byte count;
 875              		.loc 2 301 0
 876 007e BB68     		ldr	r3, [r7, #8]
 877 0080 0133     		adds	r3, r3, #1
 878 0082 BB60     		str	r3, [r7, #8]
 302:.\rtu_modbus/process_type_16_message.c **** 
 303:.\rtu_modbus/process_type_16_message.c ****     ref_pointer =  in;
 879              		.loc 2 303 0
 880 0084 BB68     		ldr	r3, [r7, #8]
 881 0086 BB61     		str	r3, [r7, #24]
 304:.\rtu_modbus/process_type_16_message.c ****     acc_struct = find_access_function( working_register, number_of_registers );
 882              		.loc 2 304 0
 883 0088 786A     		ldr	r0, [r7, #36]
 884 008a 396A     		ldr	r1, [r7, #32]
 885 008c FFF7FEFF 		bl	find_access_function
 886 0090 7861     		str	r0, [r7, #20]
 305:.\rtu_modbus/process_type_16_message.c ****     
 306:.\rtu_modbus/process_type_16_message.c ****     if( acc_struct != NULL )
 887              		.loc 2 306 0
 888 0092 7B69     		ldr	r3, [r7, #20]
 889 0094 002B     		cmp	r3, #0
 890 0096 03D0     		beq	.L32
 307:.\rtu_modbus/process_type_16_message.c ****     {
 308:.\rtu_modbus/process_type_16_message.c ****         swap_type = acc_struct->swap_type;
 891              		.loc 2 308 0
 892 0098 7B69     		ldr	r3, [r7, #20]
 893 009a 9B68     		ldr	r3, [r3, #8]
 894 009c BB62     		str	r3, [r7, #40]
 895 009e 01E0     		b	.L33
 896              	.L32:
 309:.\rtu_modbus/process_type_16_message.c ****     }
 310:.\rtu_modbus/process_type_16_message.c ****     else
 311:.\rtu_modbus/process_type_16_message.c ****     {
 312:.\rtu_modbus/process_type_16_message.c ****         swap_type = SWAP_16;
 897              		.loc 2 312 0
 898 00a0 0023     		movs	r3, #0
 899 00a2 BB62     		str	r3, [r7, #40]
 900              	.L33:
ARM GAS  C:\Users\glenn\AppData\Local\Temp\ccbHRuJu.s 			page 23


 313:.\rtu_modbus/process_type_16_message.c ****     }
 314:.\rtu_modbus/process_type_16_message.c ****         
 315:.\rtu_modbus/process_type_16_message.c ****     switch( swap_type)
 901              		.loc 2 315 0
 902 00a4 BB6A     		ldr	r3, [r7, #40]
 903 00a6 002B     		cmp	r3, #0
 904 00a8 02D0     		beq	.L35
 905 00aa 012B     		cmp	r3, #1
 906 00ac 03D0     		beq	.L36
 907 00ae 05E0     		b	.L50
 908              	.L35:
 316:.\rtu_modbus/process_type_16_message.c ****     {
 317:.\rtu_modbus/process_type_16_message.c ****             case SWAP_16:
 318:.\rtu_modbus/process_type_16_message.c ****                 swap_inc = 2;
 909              		.loc 2 318 0
 910 00b0 0223     		movs	r3, #2
 911 00b2 FB62     		str	r3, [r7, #44]
 319:.\rtu_modbus/process_type_16_message.c ****                 break;
 912              		.loc 2 319 0
 913 00b4 06E0     		b	.L37
 914              	.L36:
 320:.\rtu_modbus/process_type_16_message.c ****             case SWAP_32:
 321:.\rtu_modbus/process_type_16_message.c ****                 swap_inc = 4;
 915              		.loc 2 321 0
 916 00b6 0423     		movs	r3, #4
 917 00b8 FB62     		str	r3, [r7, #44]
 322:.\rtu_modbus/process_type_16_message.c ****                 break;
 918              		.loc 2 322 0
 919 00ba 03E0     		b	.L37
 920              	.L50:
 323:.\rtu_modbus/process_type_16_message.c ****             default:
 324:.\rtu_modbus/process_type_16_message.c ****                 // should not happen
 325:.\rtu_modbus/process_type_16_message.c ****                 count = 0;
 921              		.loc 2 325 0
 922 00bc 0023     		movs	r3, #0
 923 00be FB61     		str	r3, [r7, #28]
 326:.\rtu_modbus/process_type_16_message.c ****                 return 0;
 924              		.loc 2 326 0
 925 00c0 0023     		movs	r3, #0
 926 00c2 3AE0     		b	.L38
 927              	.L37:
 327:.\rtu_modbus/process_type_16_message.c ****     }
 328:.\rtu_modbus/process_type_16_message.c ****     for( i = 0; i< number_of_registers*2; i+= swap_inc )
 928              		.loc 2 328 0
 929 00c4 0023     		movs	r3, #0
 930 00c6 3B63     		str	r3, [r7, #48]
 931 00c8 19E0     		b	.L39
 932              	.L44:
 329:.\rtu_modbus/process_type_16_message.c ****     {
 330:.\rtu_modbus/process_type_16_message.c ****             switch( swap_type)
 933              		.loc 2 330 0
 934 00ca BB6A     		ldr	r3, [r7, #40]
 935 00cc 002B     		cmp	r3, #0
 936 00ce 02D0     		beq	.L41
 937 00d0 012B     		cmp	r3, #1
 938 00d2 04D0     		beq	.L42
 939 00d4 07E0     		b	.L51
ARM GAS  C:\Users\glenn\AppData\Local\Temp\ccbHRuJu.s 			page 24


 940              	.L41:
 331:.\rtu_modbus/process_type_16_message.c ****             {
 332:.\rtu_modbus/process_type_16_message.c ****                case SWAP_16:
 333:.\rtu_modbus/process_type_16_message.c ****                   swap_16( in );
 941              		.loc 2 333 0
 942 00d6 B868     		ldr	r0, [r7, #8]
 943 00d8 FFF7FEFF 		bl	swap_16
 334:.\rtu_modbus/process_type_16_message.c ****                   break;
 944              		.loc 2 334 0
 945 00dc 07E0     		b	.L43
 946              	.L42:
 335:.\rtu_modbus/process_type_16_message.c ****                case SWAP_32:
 336:.\rtu_modbus/process_type_16_message.c ****                  swap_32( in);
 947              		.loc 2 336 0
 948 00de B868     		ldr	r0, [r7, #8]
 949 00e0 FFF7FEFF 		bl	swap_32
 337:.\rtu_modbus/process_type_16_message.c ****                  break;
 950              		.loc 2 337 0
 951 00e4 03E0     		b	.L43
 952              	.L51:
 338:.\rtu_modbus/process_type_16_message.c ****             default:
 339:.\rtu_modbus/process_type_16_message.c ****                 // should not happen
 340:.\rtu_modbus/process_type_16_message.c ****                 count = 0;
 953              		.loc 2 340 0
 954 00e6 0023     		movs	r3, #0
 955 00e8 FB61     		str	r3, [r7, #28]
 341:.\rtu_modbus/process_type_16_message.c ****                 return 0;
 956              		.loc 2 341 0
 957 00ea 0023     		movs	r3, #0
 958 00ec 25E0     		b	.L38
 959              	.L43:
 342:.\rtu_modbus/process_type_16_message.c ****              }
 343:.\rtu_modbus/process_type_16_message.c ****              in += swap_inc;
 960              		.loc 2 343 0 discriminator 2
 961 00ee BA68     		ldr	r2, [r7, #8]
 962 00f0 FB6A     		ldr	r3, [r7, #44]
 963 00f2 1344     		add	r3, r3, r2
 964 00f4 BB60     		str	r3, [r7, #8]
 328:.\rtu_modbus/process_type_16_message.c ****     {
 965              		.loc 2 328 0 discriminator 2
 966 00f6 3A6B     		ldr	r2, [r7, #48]
 967 00f8 FB6A     		ldr	r3, [r7, #44]
 968 00fa 1344     		add	r3, r3, r2
 969 00fc 3B63     		str	r3, [r7, #48]
 970              	.L39:
 328:.\rtu_modbus/process_type_16_message.c ****     {
 971              		.loc 2 328 0 is_stmt 0 discriminator 1
 972 00fe 3B6A     		ldr	r3, [r7, #32]
 973 0100 5A00     		lsls	r2, r3, #1
 974 0102 3B6B     		ldr	r3, [r7, #48]
 975 0104 9A42     		cmp	r2, r3
 976 0106 E0D8     		bhi	.L44
 344:.\rtu_modbus/process_type_16_message.c ****      }
 345:.\rtu_modbus/process_type_16_message.c ****          
 346:.\rtu_modbus/process_type_16_message.c ****      if( acc_struct != NULL )
 977              		.loc 2 346 0 is_stmt 1
 978 0108 7B69     		ldr	r3, [r7, #20]
ARM GAS  C:\Users\glenn\AppData\Local\Temp\ccbHRuJu.s 			page 25


 979 010a 002B     		cmp	r3, #0
 980 010c 0CD0     		beq	.L45
 347:.\rtu_modbus/process_type_16_message.c ****      {
 348:.\rtu_modbus/process_type_16_message.c ****         if( acc_struct->access( ref_pointer ) )
 981              		.loc 2 348 0
 982 010e 7B69     		ldr	r3, [r7, #20]
 983 0110 DB68     		ldr	r3, [r3, #12]
 984 0112 B869     		ldr	r0, [r7, #24]
 985 0114 9847     		blx	r3
 986 0116 0346     		mov	r3, r0
 987 0118 002B     		cmp	r3, #0
 988 011a 02D0     		beq	.L46
 349:.\rtu_modbus/process_type_16_message.c ****         {
 350:.\rtu_modbus/process_type_16_message.c ****             return_value = count;
 989              		.loc 2 350 0
 990 011c FB69     		ldr	r3, [r7, #28]
 991 011e 7B63     		str	r3, [r7, #52]
 992 0120 04E0     		b	.L48
 993              	.L46:
 351:.\rtu_modbus/process_type_16_message.c ****         }
 352:.\rtu_modbus/process_type_16_message.c ****         else
 353:.\rtu_modbus/process_type_16_message.c ****         {
 354:.\rtu_modbus/process_type_16_message.c ****            return_value = 0;
 994              		.loc 2 354 0
 995 0122 0023     		movs	r3, #0
 996 0124 7B63     		str	r3, [r7, #52]
 997 0126 01E0     		b	.L48
 998              	.L45:
 355:.\rtu_modbus/process_type_16_message.c ****         }
 356:.\rtu_modbus/process_type_16_message.c ****     }
 357:.\rtu_modbus/process_type_16_message.c ****     else
 358:.\rtu_modbus/process_type_16_message.c ****     {
 359:.\rtu_modbus/process_type_16_message.c ****         return_value = 0;
 999              		.loc 2 359 0
 1000 0128 0023     		movs	r3, #0
 1001 012a 7B63     		str	r3, [r7, #52]
 1002              	.L48:
 360:.\rtu_modbus/process_type_16_message.c ****  #if 0
 361:.\rtu_modbus/process_type_16_message.c ****       if( store_modbus_data_registers( working_register, number_of_registers, (uint16 *) ref_pointe
 362:.\rtu_modbus/process_type_16_message.c ****       {
 363:.\rtu_modbus/process_type_16_message.c ****         return_value = count;
 364:.\rtu_modbus/process_type_16_message.c ****       }
 365:.\rtu_modbus/process_type_16_message.c ****       else
 366:.\rtu_modbus/process_type_16_message.c ****       {
 367:.\rtu_modbus/process_type_16_message.c ****         return_value = 0;
 368:.\rtu_modbus/process_type_16_message.c ****       }
 369:.\rtu_modbus/process_type_16_message.c **** #endif
 370:.\rtu_modbus/process_type_16_message.c ****     }
 371:.\rtu_modbus/process_type_16_message.c ****     if( return_value > 200 )
 1003              		.loc 2 371 0
 1004 012c 7B6B     		ldr	r3, [r7, #52]
 1005 012e C82B     		cmp	r3, #200
 1006 0130 02DD     		ble	.L49
 372:.\rtu_modbus/process_type_16_message.c ****     {
 373:.\rtu_modbus/process_type_16_message.c ****         CYASSERT(0);
 1007              		.loc 2 373 0 discriminator 1
 1008 0132 0020     		movs	r0, #0
ARM GAS  C:\Users\glenn\AppData\Local\Temp\ccbHRuJu.s 			page 26


 1009 0134 FFF7FEFF 		bl	CyHalt
 1010              	.L49:
 374:.\rtu_modbus/process_type_16_message.c ****     }
 375:.\rtu_modbus/process_type_16_message.c ****     return return_value;
 1011              		.loc 2 375 0
 1012 0138 7B6B     		ldr	r3, [r7, #52]
 1013              	.L38:
 376:.\rtu_modbus/process_type_16_message.c ****    
 377:.\rtu_modbus/process_type_16_message.c **** }    
 1014              		.loc 2 377 0
 1015 013a 1846     		mov	r0, r3
 1016 013c 3837     		adds	r7, r7, #56
 1017              		.cfi_def_cfa_offset 8
 1018 013e BD46     		mov	sp, r7
 1019              		.cfi_def_cfa_register 13
 1020              		@ sp needed
 1021 0140 80BD     		pop	{r7, pc}
 1022              		.cfi_endproc
 1023              	.LFE79:
 1024              		.size	process_type_16_message, .-process_type_16_message
 1025 0142 00BF     		.section	.text.find_access_function,"ax",%progbits
 1026              		.align	2
 1027              		.thumb
 1028              		.thumb_func
 1029              		.type	find_access_function, %function
 1030              	find_access_function:
 1031              	.LFB80:
 378:.\rtu_modbus/process_type_16_message.c ****                                                     
 379:.\rtu_modbus/process_type_16_message.c **** const TYPE_16_STRUCT * find_access_function( unsigned start_register, unsigned number )
 380:.\rtu_modbus/process_type_16_message.c **** {
 1032              		.loc 2 380 0
 1033              		.cfi_startproc
 1034              		@ args = 0, pretend = 0, frame = 16
 1035              		@ frame_needed = 1, uses_anonymous_args = 0
 1036              		@ link register save eliminated.
 1037 0000 80B4     		push	{r7}
 1038              		.cfi_def_cfa_offset 4
 1039              		.cfi_offset 7, -4
 1040 0002 85B0     		sub	sp, sp, #20
 1041              		.cfi_def_cfa_offset 24
 1042 0004 00AF     		add	r7, sp, #0
 1043              		.cfi_def_cfa_register 7
 1044 0006 7860     		str	r0, [r7, #4]
 1045 0008 3960     		str	r1, [r7]
 381:.\rtu_modbus/process_type_16_message.c ****    unsigned i;
 382:.\rtu_modbus/process_type_16_message.c ****    const TYPE_16_STRUCT *access_ptr;
 383:.\rtu_modbus/process_type_16_message.c ****    
 384:.\rtu_modbus/process_type_16_message.c ****    access_ptr = &type_16_access_functions[0];
 1046              		.loc 2 384 0
 1047 000a 104B     		ldr	r3, .L57
 1048 000c BB60     		str	r3, [r7, #8]
 385:.\rtu_modbus/process_type_16_message.c ****    for( i = 0; i < TABLE_LENGTH; i++ )
 1049              		.loc 2 385 0
 1050 000e 0023     		movs	r3, #0
 1051 0010 FB60     		str	r3, [r7, #12]
 1052 0012 11E0     		b	.L53
 1053              	.L56:
ARM GAS  C:\Users\glenn\AppData\Local\Temp\ccbHRuJu.s 			page 27


 386:.\rtu_modbus/process_type_16_message.c ****    {
 387:.\rtu_modbus/process_type_16_message.c ****        if( (  access_ptr->start_register == start_register ) && (access_ptr->register_count == numb
 1054              		.loc 2 387 0
 1055 0014 BB68     		ldr	r3, [r7, #8]
 1056 0016 1A68     		ldr	r2, [r3]
 1057 0018 7B68     		ldr	r3, [r7, #4]
 1058 001a 9A42     		cmp	r2, r3
 1059 001c 06D1     		bne	.L54
 1060              		.loc 2 387 0 is_stmt 0 discriminator 1
 1061 001e BB68     		ldr	r3, [r7, #8]
 1062 0020 5A68     		ldr	r2, [r3, #4]
 1063 0022 3B68     		ldr	r3, [r7]
 1064 0024 9A42     		cmp	r2, r3
 1065 0026 01D1     		bne	.L54
 388:.\rtu_modbus/process_type_16_message.c ****        {
 389:.\rtu_modbus/process_type_16_message.c ****           return access_ptr;
 1066              		.loc 2 389 0 is_stmt 1
 1067 0028 BB68     		ldr	r3, [r7, #8]
 1068 002a 09E0     		b	.L55
 1069              	.L54:
 390:.\rtu_modbus/process_type_16_message.c ****        }
 391:.\rtu_modbus/process_type_16_message.c ****        else
 392:.\rtu_modbus/process_type_16_message.c ****        {
 393:.\rtu_modbus/process_type_16_message.c ****           access_ptr++;
 1070              		.loc 2 393 0 discriminator 2
 1071 002c BB68     		ldr	r3, [r7, #8]
 1072 002e 1033     		adds	r3, r3, #16
 1073 0030 BB60     		str	r3, [r7, #8]
 385:.\rtu_modbus/process_type_16_message.c ****    {
 1074              		.loc 2 385 0 discriminator 2
 1075 0032 FB68     		ldr	r3, [r7, #12]
 1076 0034 0133     		adds	r3, r3, #1
 1077 0036 FB60     		str	r3, [r7, #12]
 1078              	.L53:
 385:.\rtu_modbus/process_type_16_message.c ****    {
 1079              		.loc 2 385 0 is_stmt 0 discriminator 1
 1080 0038 FB68     		ldr	r3, [r7, #12]
 1081 003a 0B2B     		cmp	r3, #11
 1082 003c EAD9     		bls	.L56
 394:.\rtu_modbus/process_type_16_message.c ****        }
 395:.\rtu_modbus/process_type_16_message.c ****     }
 396:.\rtu_modbus/process_type_16_message.c ****     return NULL;
 1083              		.loc 2 396 0 is_stmt 1
 1084 003e 0023     		movs	r3, #0
 1085              	.L55:
 397:.\rtu_modbus/process_type_16_message.c ****     
 398:.\rtu_modbus/process_type_16_message.c ****     
 399:.\rtu_modbus/process_type_16_message.c **** } ...
 1086              		.loc 2 399 0
 1087 0040 1846     		mov	r0, r3
 1088 0042 1437     		adds	r7, r7, #20
 1089              		.cfi_def_cfa_offset 4
 1090 0044 BD46     		mov	sp, r7
 1091              		.cfi_def_cfa_register 13
 1092              		@ sp needed
 1093 0046 5DF8047B 		ldr	r7, [sp], #4
 1094              		.cfi_restore 7
ARM GAS  C:\Users\glenn\AppData\Local\Temp\ccbHRuJu.s 			page 28


 1095              		.cfi_def_cfa_offset 0
 1096 004a 7047     		bx	lr
 1097              	.L58:
 1098              		.align	2
 1099              	.L57:
 1100 004c 00000000 		.word	type_16_access_functions
 1101              		.cfi_endproc
 1102              	.LFE80:
 1103              		.size	find_access_function, .-find_access_function
 1104              		.text
 1105              	.Letext0:
 1106              		.file 3 "c:\\program files (x86)\\cypress\\psoc creator\\3.3\\psoc creator\\import\\gnu\\arm\\4.9.
 1107              		.file 4 "c:\\program files (x86)\\cypress\\psoc creator\\3.3\\psoc creator\\import\\gnu\\arm\\4.9.
 1108              		.file 5 "Generated_Source\\PSoC5/cytypes.h"
 1109              		.file 6 "Generated_Source\\PSoC5/core_cm3.h"
 1110              		.file 7 ".\\rtu_modbus\\process_modbus_message.h"