ARM GAS  C:\Users\glenn\AppData\Local\Temp\ccuUPfYS.s 			page 1


   1              		.syntax unified
   2              		.cpu cortex-m3
   3              		.fpu softvfp
   4              		.eabi_attribute 20, 1
   5              		.eabi_attribute 21, 1
   6              		.eabi_attribute 23, 3
   7              		.eabi_attribute 24, 1
   8              		.eabi_attribute 25, 1
   9              		.eabi_attribute 26, 1
  10              		.eabi_attribute 30, 6
  11              		.eabi_attribute 34, 1
  12              		.eabi_attribute 18, 4
  13              		.thumb
  14              		.file	"process_modbus_message.c"
  15              		.text
  16              	.Ltext0:
  17              		.cfi_sections	.debug_frame
  18              		.section	.rodata
  19              		.align	1
  20              		.type	software_id, %object
  21              		.size	software_id, 2
  22              	software_id:
  23 0000 0102     		.short	513
  24              		.bss
  25              		.align	2
  26              	modbus_registers:
  27 0000 00000000 		.space	512
  27      00000000 
  27      00000000 
  27      00000000 
  27      00000000 
  28              		.global	modbus_address_data
  29              		.section	.rodata
  30 0002 0000     		.align	2
  31              		.type	modbus_address_data, %object
  32              		.size	modbus_address_data, 4
  33              	modbus_address_data:
  34 0004 1E00     		.short	30
  35 0006 C000     		.short	192
  36              		.section	.text.get_modbus_register_address,"ax",%progbits
  37              		.align	2
  38              		.global	get_modbus_register_address
  39              		.thumb
  40              		.thumb_func
  41              		.type	get_modbus_register_address, %function
  42              	get_modbus_register_address:
  43              	.LFB65:
  44              		.file 1 ".\\rtu_modbus\\process_modbus_message.c"
   1:.\rtu_modbus/process_modbus_message.c **** /*
   2:.\rtu_modbus/process_modbus_message.c **** **
   3:.\rtu_modbus/process_modbus_message.c **** ** File: process_modbus_message.c
   4:.\rtu_modbus/process_modbus_message.c **** ** This file processes the modbus message from
   5:.\rtu_modbus/process_modbus_message.c **** ** either the usb or serial handler
   6:.\rtu_modbus/process_modbus_message.c **** **
   7:.\rtu_modbus/process_modbus_message.c **** */
   8:.\rtu_modbus/process_modbus_message.c **** 
   9:.\rtu_modbus/process_modbus_message.c **** 
ARM GAS  C:\Users\glenn\AppData\Local\Temp\ccuUPfYS.s 			page 2


  10:.\rtu_modbus/process_modbus_message.c **** #include <device.h>
  11:.\rtu_modbus/process_modbus_message.c **** #include <assert.h>
  12:.\rtu_modbus/process_modbus_message.c **** 
  13:.\rtu_modbus/process_modbus_message.c **** #include "process_crc.h"
  14:.\rtu_modbus/process_modbus_message.c **** #include "process_type_3_message.h"
  15:.\rtu_modbus/process_modbus_message.c **** #include "process_type_16_message.h"
  16:.\rtu_modbus/process_modbus_message.c **** #include "process_type_24_message.h"
  17:.\rtu_modbus/process_modbus_message.c **** 
  18:.\rtu_modbus/process_modbus_message.c **** #include "process_modbus_message.h"
  19:.\rtu_modbus/process_modbus_message.c **** 
  20:.\rtu_modbus/process_modbus_message.c **** 
  21:.\rtu_modbus/process_modbus_message.c **** 
  22:.\rtu_modbus/process_modbus_message.c **** // logging interval is in minutes
  23:.\rtu_modbus/process_modbus_message.c **** // default sampling Interval is one hour
  24:.\rtu_modbus/process_modbus_message.c **** 
  25:.\rtu_modbus/process_modbus_message.c **** #define SAMPLING_INTERVAL   60 
  26:.\rtu_modbus/process_modbus_message.c **** static const uint16 software_id  = 0x0201;
  27:.\rtu_modbus/process_modbus_message.c **** static uint16 modbus_registers[ MODBUS_REGISTER_LENGTH ];
  28:.\rtu_modbus/process_modbus_message.c **** 
  29:.\rtu_modbus/process_modbus_message.c **** 
  30:.\rtu_modbus/process_modbus_message.c **** 
  31:.\rtu_modbus/process_modbus_message.c **** 
  32:.\rtu_modbus/process_modbus_message.c **** 
  33:.\rtu_modbus/process_modbus_message.c **** const uint16 modbus_address_data[2] =
  34:.\rtu_modbus/process_modbus_message.c **** {
  35:.\rtu_modbus/process_modbus_message.c ****     30,     // modbus address 
  36:.\rtu_modbus/process_modbus_message.c ****     0xc0    // commissioning address
  37:.\rtu_modbus/process_modbus_message.c **** };
  38:.\rtu_modbus/process_modbus_message.c **** 
  39:.\rtu_modbus/process_modbus_message.c **** uint16 *get_modbus_register_address( void )
  40:.\rtu_modbus/process_modbus_message.c **** {
  45              		.loc 1 40 0
  46              		.cfi_startproc
  47              		@ args = 0, pretend = 0, frame = 0
  48              		@ frame_needed = 1, uses_anonymous_args = 0
  49              		@ link register save eliminated.
  50 0000 80B4     		push	{r7}
  51              		.cfi_def_cfa_offset 4
  52              		.cfi_offset 7, -4
  53 0002 00AF     		add	r7, sp, #0
  54              		.cfi_def_cfa_register 7
  41:.\rtu_modbus/process_modbus_message.c ****     return modbus_registers;
  55              		.loc 1 41 0
  56 0004 024B     		ldr	r3, .L3
  42:.\rtu_modbus/process_modbus_message.c **** }
  57              		.loc 1 42 0
  58 0006 1846     		mov	r0, r3
  59 0008 BD46     		mov	sp, r7
  60              		.cfi_def_cfa_register 13
  61              		@ sp needed
  62 000a 5DF8047B 		ldr	r7, [sp], #4
  63              		.cfi_restore 7
  64              		.cfi_def_cfa_offset 0
  65 000e 7047     		bx	lr
  66              	.L4:
  67              		.align	2
  68              	.L3:
ARM GAS  C:\Users\glenn\AppData\Local\Temp\ccuUPfYS.s 			page 3


  69 0010 00000000 		.word	modbus_registers
  70              		.cfi_endproc
  71              	.LFE65:
  72              		.size	get_modbus_register_address, .-get_modbus_register_address
  73              		.section	.text.initialize_modbus_registers,"ax",%progbits
  74              		.align	2
  75              		.global	initialize_modbus_registers
  76              		.thumb
  77              		.thumb_func
  78              		.type	initialize_modbus_registers, %function
  79              	initialize_modbus_registers:
  80              	.LFB66:
  43:.\rtu_modbus/process_modbus_message.c **** 
  44:.\rtu_modbus/process_modbus_message.c **** void initialize_modbus_registers( void )
  45:.\rtu_modbus/process_modbus_message.c **** {
  81              		.loc 1 45 0
  82              		.cfi_startproc
  83              		@ args = 0, pretend = 0, frame = 8
  84              		@ frame_needed = 1, uses_anonymous_args = 0
  85 0000 80B5     		push	{r7, lr}
  86              		.cfi_def_cfa_offset 8
  87              		.cfi_offset 7, -8
  88              		.cfi_offset 14, -4
  89 0002 82B0     		sub	sp, sp, #8
  90              		.cfi_def_cfa_offset 16
  91 0004 00AF     		add	r7, sp, #0
  92              		.cfi_def_cfa_register 7
  46:.\rtu_modbus/process_modbus_message.c ****     uint16 temp;
  47:.\rtu_modbus/process_modbus_message.c **** 
  48:.\rtu_modbus/process_modbus_message.c ****  
  49:.\rtu_modbus/process_modbus_message.c ****     memset( modbus_registers, 0, sizeof(modbus_registers));
  93              		.loc 1 49 0
  94 0006 0B48     		ldr	r0, .L6
  95 0008 0021     		movs	r1, #0
  96 000a 4FF40072 		mov	r2, #512
  97 000e FFF7FEFF 		bl	memset
  50:.\rtu_modbus/process_modbus_message.c **** 
  51:.\rtu_modbus/process_modbus_message.c ****     temp = 1;
  98              		.loc 1 51 0
  99 0012 0123     		movs	r3, #1
 100 0014 FB80     		strh	r3, [r7, #6]	@ movhi
  52:.\rtu_modbus/process_modbus_message.c ****     store_modbus_data_registers( MOD_RTU_WATCH_DOG_FLAG, 1, &temp);
 101              		.loc 1 52 0
 102 0016 BB1D     		adds	r3, r7, #6
 103 0018 0220     		movs	r0, #2
 104 001a 0121     		movs	r1, #1
 105 001c 1A46     		mov	r2, r3
 106 001e FFF7FEFF 		bl	store_modbus_data_registers
  53:.\rtu_modbus/process_modbus_message.c ****     store_modbus_data_registers( MOD_UNIT_ID, 1,(uint16 *) &software_id ); 
 107              		.loc 1 53 0
 108 0022 0020     		movs	r0, #0
 109 0024 0121     		movs	r1, #1
 110 0026 044A     		ldr	r2, .L6+4
 111 0028 FFF7FEFF 		bl	store_modbus_data_registers
  54:.\rtu_modbus/process_modbus_message.c ****     
  55:.\rtu_modbus/process_modbus_message.c **** }
 112              		.loc 1 55 0
ARM GAS  C:\Users\glenn\AppData\Local\Temp\ccuUPfYS.s 			page 4


 113 002c 0837     		adds	r7, r7, #8
 114              		.cfi_def_cfa_offset 8
 115 002e BD46     		mov	sp, r7
 116              		.cfi_def_cfa_register 13
 117              		@ sp needed
 118 0030 80BD     		pop	{r7, pc}
 119              	.L7:
 120 0032 00BF     		.align	2
 121              	.L6:
 122 0034 00000000 		.word	modbus_registers
 123 0038 00000000 		.word	software_id
 124              		.cfi_endproc
 125              	.LFE66:
 126              		.size	initialize_modbus_registers, .-initialize_modbus_registers
 127              		.section	.text.store_modbus_data_registers,"ax",%progbits
 128              		.align	2
 129              		.global	store_modbus_data_registers
 130              		.thumb
 131              		.thumb_func
 132              		.type	store_modbus_data_registers, %function
 133              	store_modbus_data_registers:
 134              	.LFB67:
  56:.\rtu_modbus/process_modbus_message.c ****   
  57:.\rtu_modbus/process_modbus_message.c **** 
  58:.\rtu_modbus/process_modbus_message.c **** 
  59:.\rtu_modbus/process_modbus_message.c **** int store_modbus_data_registers( unsigned index, unsigned length, uint16 *buffer)
  60:.\rtu_modbus/process_modbus_message.c **** {
 135              		.loc 1 60 0
 136              		.cfi_startproc
 137              		@ args = 0, pretend = 0, frame = 24
 138              		@ frame_needed = 1, uses_anonymous_args = 0
 139 0000 80B5     		push	{r7, lr}
 140              		.cfi_def_cfa_offset 8
 141              		.cfi_offset 7, -8
 142              		.cfi_offset 14, -4
 143 0002 86B0     		sub	sp, sp, #24
 144              		.cfi_def_cfa_offset 32
 145 0004 00AF     		add	r7, sp, #0
 146              		.cfi_def_cfa_register 7
 147 0006 F860     		str	r0, [r7, #12]
 148 0008 B960     		str	r1, [r7, #8]
 149 000a 7A60     		str	r2, [r7, #4]
  61:.\rtu_modbus/process_modbus_message.c ****     int return_value;
  62:.\rtu_modbus/process_modbus_message.c ****     if( (index + length ) < MODBUS_REGISTER_LENGTH )
 150              		.loc 1 62 0
 151 000c FA68     		ldr	r2, [r7, #12]
 152 000e BB68     		ldr	r3, [r7, #8]
 153 0010 1344     		add	r3, r3, r2
 154 0012 FF2B     		cmp	r3, #255
 155 0014 0DD8     		bhi	.L9
  63:.\rtu_modbus/process_modbus_message.c ****     {
  64:.\rtu_modbus/process_modbus_message.c ****         memcpy(  modbus_registers+index,buffer, length*sizeof(uint16));
 156              		.loc 1 64 0
 157 0016 FB68     		ldr	r3, [r7, #12]
 158 0018 5B00     		lsls	r3, r3, #1
 159 001a 094A     		ldr	r2, .L12
 160 001c 1A44     		add	r2, r2, r3
ARM GAS  C:\Users\glenn\AppData\Local\Temp\ccuUPfYS.s 			page 5


 161 001e BB68     		ldr	r3, [r7, #8]
 162 0020 5B00     		lsls	r3, r3, #1
 163 0022 1046     		mov	r0, r2
 164 0024 7968     		ldr	r1, [r7, #4]
 165 0026 1A46     		mov	r2, r3
 166 0028 FFF7FEFF 		bl	memcpy
  65:.\rtu_modbus/process_modbus_message.c ****         return_value = 1;
 167              		.loc 1 65 0
 168 002c 0123     		movs	r3, #1
 169 002e 7B61     		str	r3, [r7, #20]
 170 0030 01E0     		b	.L10
 171              	.L9:
  66:.\rtu_modbus/process_modbus_message.c ****     }
  67:.\rtu_modbus/process_modbus_message.c ****     else
  68:.\rtu_modbus/process_modbus_message.c ****     {
  69:.\rtu_modbus/process_modbus_message.c ****         return_value = 0;
 172              		.loc 1 69 0
 173 0032 0023     		movs	r3, #0
 174 0034 7B61     		str	r3, [r7, #20]
 175              	.L10:
  70:.\rtu_modbus/process_modbus_message.c ****     }
  71:.\rtu_modbus/process_modbus_message.c ****     return return_value;
 176              		.loc 1 71 0
 177 0036 7B69     		ldr	r3, [r7, #20]
  72:.\rtu_modbus/process_modbus_message.c **** }
 178              		.loc 1 72 0
 179 0038 1846     		mov	r0, r3
 180 003a 1837     		adds	r7, r7, #24
 181              		.cfi_def_cfa_offset 8
 182 003c BD46     		mov	sp, r7
 183              		.cfi_def_cfa_register 13
 184              		@ sp needed
 185 003e 80BD     		pop	{r7, pc}
 186              	.L13:
 187              		.align	2
 188              	.L12:
 189 0040 00000000 		.word	modbus_registers
 190              		.cfi_endproc
 191              	.LFE67:
 192              		.size	store_modbus_data_registers, .-store_modbus_data_registers
 193              		.section	.text.get_modbus_data_registers,"ax",%progbits
 194              		.align	2
 195              		.global	get_modbus_data_registers
 196              		.thumb
 197              		.thumb_func
 198              		.type	get_modbus_data_registers, %function
 199              	get_modbus_data_registers:
 200              	.LFB68:
  73:.\rtu_modbus/process_modbus_message.c ****     
  74:.\rtu_modbus/process_modbus_message.c ****     
  75:.\rtu_modbus/process_modbus_message.c **** int get_modbus_data_registers( unsigned index, unsigned length, uint16 *buffer )
  76:.\rtu_modbus/process_modbus_message.c **** {
 201              		.loc 1 76 0
 202              		.cfi_startproc
 203              		@ args = 0, pretend = 0, frame = 24
 204              		@ frame_needed = 1, uses_anonymous_args = 0
 205 0000 80B5     		push	{r7, lr}
ARM GAS  C:\Users\glenn\AppData\Local\Temp\ccuUPfYS.s 			page 6


 206              		.cfi_def_cfa_offset 8
 207              		.cfi_offset 7, -8
 208              		.cfi_offset 14, -4
 209 0002 86B0     		sub	sp, sp, #24
 210              		.cfi_def_cfa_offset 32
 211 0004 00AF     		add	r7, sp, #0
 212              		.cfi_def_cfa_register 7
 213 0006 F860     		str	r0, [r7, #12]
 214 0008 B960     		str	r1, [r7, #8]
 215 000a 7A60     		str	r2, [r7, #4]
  77:.\rtu_modbus/process_modbus_message.c ****     int return_value;
  78:.\rtu_modbus/process_modbus_message.c ****     if( (index + length ) < MODBUS_REGISTER_LENGTH )
 216              		.loc 1 78 0
 217 000c FA68     		ldr	r2, [r7, #12]
 218 000e BB68     		ldr	r3, [r7, #8]
 219 0010 1344     		add	r3, r3, r2
 220 0012 FF2B     		cmp	r3, #255
 221 0014 0DD8     		bhi	.L15
  79:.\rtu_modbus/process_modbus_message.c ****     {
  80:.\rtu_modbus/process_modbus_message.c ****         memcpy( buffer, modbus_registers+index, length*sizeof(uint16));
 222              		.loc 1 80 0
 223 0016 FB68     		ldr	r3, [r7, #12]
 224 0018 5B00     		lsls	r3, r3, #1
 225 001a 094A     		ldr	r2, .L18
 226 001c 1A44     		add	r2, r2, r3
 227 001e BB68     		ldr	r3, [r7, #8]
 228 0020 5B00     		lsls	r3, r3, #1
 229 0022 7868     		ldr	r0, [r7, #4]
 230 0024 1146     		mov	r1, r2
 231 0026 1A46     		mov	r2, r3
 232 0028 FFF7FEFF 		bl	memcpy
  81:.\rtu_modbus/process_modbus_message.c ****         return_value = 1;
 233              		.loc 1 81 0
 234 002c 0123     		movs	r3, #1
 235 002e 7B61     		str	r3, [r7, #20]
 236 0030 01E0     		b	.L16
 237              	.L15:
  82:.\rtu_modbus/process_modbus_message.c ****         
  83:.\rtu_modbus/process_modbus_message.c ****     }
  84:.\rtu_modbus/process_modbus_message.c ****     else
  85:.\rtu_modbus/process_modbus_message.c ****     {
  86:.\rtu_modbus/process_modbus_message.c ****         return_value = 0;
 238              		.loc 1 86 0
 239 0032 0023     		movs	r3, #0
 240 0034 7B61     		str	r3, [r7, #20]
 241              	.L16:
  87:.\rtu_modbus/process_modbus_message.c ****     }
  88:.\rtu_modbus/process_modbus_message.c ****     return return_value;
 242              		.loc 1 88 0
 243 0036 7B69     		ldr	r3, [r7, #20]
  89:.\rtu_modbus/process_modbus_message.c **** }
 244              		.loc 1 89 0
 245 0038 1846     		mov	r0, r3
 246 003a 1837     		adds	r7, r7, #24
 247              		.cfi_def_cfa_offset 8
 248 003c BD46     		mov	sp, r7
 249              		.cfi_def_cfa_register 13
ARM GAS  C:\Users\glenn\AppData\Local\Temp\ccuUPfYS.s 			page 7


 250              		@ sp needed
 251 003e 80BD     		pop	{r7, pc}
 252              	.L19:
 253              		.align	2
 254              	.L18:
 255 0040 00000000 		.word	modbus_registers
 256              		.cfi_endproc
 257              	.LFE68:
 258              		.size	get_modbus_data_registers, .-get_modbus_data_registers
 259              		.section	.text.process_modbus_message,"ax",%progbits
 260              		.align	2
 261              		.global	process_modbus_message
 262              		.thumb
 263              		.thumb_func
 264              		.type	process_modbus_message, %function
 265              	process_modbus_message:
 266              	.LFB69:
  90:.\rtu_modbus/process_modbus_message.c **** 
  91:.\rtu_modbus/process_modbus_message.c **** 
  92:.\rtu_modbus/process_modbus_message.c **** 
  93:.\rtu_modbus/process_modbus_message.c **** int process_modbus_message( int in_length, uint8 *in_buffer, 
  94:.\rtu_modbus/process_modbus_message.c ****                             int out_buffer_length, uint8 *out_buffer )
  95:.\rtu_modbus/process_modbus_message.c **** {
 267              		.loc 1 95 0
 268              		.cfi_startproc
 269              		@ args = 0, pretend = 0, frame = 32
 270              		@ frame_needed = 1, uses_anonymous_args = 0
 271 0000 90B5     		push	{r4, r7, lr}
 272              		.cfi_def_cfa_offset 12
 273              		.cfi_offset 4, -12
 274              		.cfi_offset 7, -8
 275              		.cfi_offset 14, -4
 276 0002 8BB0     		sub	sp, sp, #44
 277              		.cfi_def_cfa_offset 56
 278 0004 02AF     		add	r7, sp, #8
 279              		.cfi_def_cfa 7, 48
 280 0006 F860     		str	r0, [r7, #12]
 281 0008 B960     		str	r1, [r7, #8]
 282 000a 7A60     		str	r2, [r7, #4]
 283 000c 3B60     		str	r3, [r7]
  96:.\rtu_modbus/process_modbus_message.c **** 	
  97:.\rtu_modbus/process_modbus_message.c **** 	int function_code    = 0;
 284              		.loc 1 97 0
 285 000e 0023     		movs	r3, #0
 286 0010 BB61     		str	r3, [r7, #24]
  98:.\rtu_modbus/process_modbus_message.c ****     int crc_ok           = 0;
 287              		.loc 1 98 0
 288 0012 0023     		movs	r3, #0
 289 0014 7B61     		str	r3, [r7, #20]
  99:.\rtu_modbus/process_modbus_message.c ****     int out_length       = 0;
 290              		.loc 1 99 0
 291 0016 0023     		movs	r3, #0
 292 0018 FB61     		str	r3, [r7, #28]
 100:.\rtu_modbus/process_modbus_message.c **** 
 101:.\rtu_modbus/process_modbus_message.c ****     if( in_length < 5 ){ return 0; }
 293              		.loc 1 101 0
 294 001a FB68     		ldr	r3, [r7, #12]
ARM GAS  C:\Users\glenn\AppData\Local\Temp\ccuUPfYS.s 			page 8


 295 001c 042B     		cmp	r3, #4
 296 001e 01DC     		bgt	.L21
 297              		.loc 1 101 0 is_stmt 0 discriminator 1
 298 0020 0023     		movs	r3, #0
 299 0022 ADE0     		b	.L22
 300              	.L21:
 102:.\rtu_modbus/process_modbus_message.c ****     
 103:.\rtu_modbus/process_modbus_message.c **** 	
 104:.\rtu_modbus/process_modbus_message.c ****     crc_ok =  compute_crc( in_length, in_buffer);
 301              		.loc 1 104 0 is_stmt 1
 302 0024 F868     		ldr	r0, [r7, #12]
 303 0026 B968     		ldr	r1, [r7, #8]
 304 0028 FFF7FEFF 		bl	compute_crc
 305 002c 7861     		str	r0, [r7, #20]
 105:.\rtu_modbus/process_modbus_message.c **** 
 106:.\rtu_modbus/process_modbus_message.c **** 	if( crc_ok != 0)
 306              		.loc 1 106 0
 307 002e 7B69     		ldr	r3, [r7, #20]
 308 0030 002B     		cmp	r3, #0
 309 0032 00F08F80 		beq	.L23
 107:.\rtu_modbus/process_modbus_message.c **** 	{
 108:.\rtu_modbus/process_modbus_message.c **** 		function_code = in_buffer[1];
 310              		.loc 1 108 0
 311 0036 BB68     		ldr	r3, [r7, #8]
 312 0038 0133     		adds	r3, r3, #1
 313 003a 1B78     		ldrb	r3, [r3]	@ zero_extendqisi2
 314 003c BB61     		str	r3, [r7, #24]
 109:.\rtu_modbus/process_modbus_message.c ****         out_buffer[0] = in_buffer[0];  // returning slave address
 315              		.loc 1 109 0
 316 003e BB68     		ldr	r3, [r7, #8]
 317 0040 1A78     		ldrb	r2, [r3]	@ zero_extendqisi2
 318 0042 3B68     		ldr	r3, [r7]
 319 0044 1A70     		strb	r2, [r3]
 110:.\rtu_modbus/process_modbus_message.c ****         out_buffer[1] = in_buffer[1]; // returning function code
 320              		.loc 1 110 0
 321 0046 3B68     		ldr	r3, [r7]
 322 0048 0133     		adds	r3, r3, #1
 323 004a BA68     		ldr	r2, [r7, #8]
 324 004c 5278     		ldrb	r2, [r2, #1]	@ zero_extendqisi2
 325 004e 1A70     		strb	r2, [r3]
 111:.\rtu_modbus/process_modbus_message.c ****         out_buffer_length -=2;
 326              		.loc 1 111 0
 327 0050 7B68     		ldr	r3, [r7, #4]
 328 0052 023B     		subs	r3, r3, #2
 329 0054 7B60     		str	r3, [r7, #4]
 112:.\rtu_modbus/process_modbus_message.c ****         in_length         -=4;  // removing slave address, function code and 16 bit crc
 330              		.loc 1 112 0
 331 0056 FB68     		ldr	r3, [r7, #12]
 332 0058 043B     		subs	r3, r3, #4
 333 005a FB60     		str	r3, [r7, #12]
 113:.\rtu_modbus/process_modbus_message.c **** 		// extract function code
 114:.\rtu_modbus/process_modbus_message.c **** 		switch( function_code )
 334              		.loc 1 114 0
 335 005c BB69     		ldr	r3, [r7, #24]
 336 005e 033B     		subs	r3, r3, #3
 337 0060 1F2B     		cmp	r3, #31
 338 0062 73D8     		bhi	.L24
ARM GAS  C:\Users\glenn\AppData\Local\Temp\ccuUPfYS.s 			page 9


 339 0064 01A2     		adr	r2, .L26
 340 0066 52F823F0 		ldr	pc, [r2, r3, lsl #2]
 341 006a 00BF     		.p2align 2
 342              	.L26:
 343 006c ED000000 		.word	.L25+1
 344 0070 4D010000 		.word	.L24+1
 345 0074 4D010000 		.word	.L24+1
 346 0078 4D010000 		.word	.L24+1
 347 007c 4D010000 		.word	.L24+1
 348 0080 4D010000 		.word	.L24+1
 349 0084 4D010000 		.word	.L24+1
 350 0088 4D010000 		.word	.L24+1
 351 008c 4D010000 		.word	.L24+1
 352 0090 4D010000 		.word	.L24+1
 353 0094 4D010000 		.word	.L24+1
 354 0098 4D010000 		.word	.L24+1
 355 009c 4D010000 		.word	.L24+1
 356 00a0 09010000 		.word	.L27+1
 357 00a4 4D010000 		.word	.L24+1
 358 00a8 4D010000 		.word	.L24+1
 359 00ac 4D010000 		.word	.L24+1
 360 00b0 4D010000 		.word	.L24+1
 361 00b4 4D010000 		.word	.L24+1
 362 00b8 4D010000 		.word	.L24+1
 363 00bc 4D010000 		.word	.L24+1
 364 00c0 1F010000 		.word	.L28+1
 365 00c4 4D010000 		.word	.L24+1
 366 00c8 4D010000 		.word	.L24+1
 367 00cc 4D010000 		.word	.L24+1
 368 00d0 4D010000 		.word	.L24+1
 369 00d4 4D010000 		.word	.L24+1
 370 00d8 4D010000 		.word	.L24+1
 371 00dc 4D010000 		.word	.L24+1
 372 00e0 4D010000 		.word	.L24+1
 373 00e4 4D010000 		.word	.L24+1
 374 00e8 35010000 		.word	.L29+1
 375              		.p2align 1
 376              	.L25:
 115:.\rtu_modbus/process_modbus_message.c **** 		{
 116:.\rtu_modbus/process_modbus_message.c ****             case 3:
 117:.\rtu_modbus/process_modbus_message.c ****                     out_length = process_type_3_34_message( function_code, in_length, &in_buffer[2]
 377              		.loc 1 117 0
 378 00ec BB68     		ldr	r3, [r7, #8]
 379 00ee 9A1C     		adds	r2, r3, #2
 380 00f0 7B68     		ldr	r3, [r7, #4]
 381 00f2 9C1E     		subs	r4, r3, #2
 382 00f4 3B68     		ldr	r3, [r7]
 383 00f6 0233     		adds	r3, r3, #2
 384 00f8 0093     		str	r3, [sp]
 385 00fa B869     		ldr	r0, [r7, #24]
 386 00fc F968     		ldr	r1, [r7, #12]
 387 00fe 2346     		mov	r3, r4
 388 0100 FFF7FEFF 		bl	process_type_3_34_message
 389 0104 F861     		str	r0, [r7, #28]
 118:.\rtu_modbus/process_modbus_message.c ****                                                      &out_buffer[2]);
 119:.\rtu_modbus/process_modbus_message.c ****                     break;
 390              		.loc 1 119 0
ARM GAS  C:\Users\glenn\AppData\Local\Temp\ccuUPfYS.s 			page 10


 391 0106 24E0     		b	.L30
 392              	.L27:
 120:.\rtu_modbus/process_modbus_message.c ****             
 121:.\rtu_modbus/process_modbus_message.c ****             case 16:
 122:.\rtu_modbus/process_modbus_message.c ****                     out_length = process_type_16_message( in_length, &in_buffer[2],out_buffer_lengt
 393              		.loc 1 122 0
 394 0108 BB68     		ldr	r3, [r7, #8]
 395 010a 991C     		adds	r1, r3, #2
 396 010c 7B68     		ldr	r3, [r7, #4]
 397 010e 9A1E     		subs	r2, r3, #2
 398 0110 3B68     		ldr	r3, [r7]
 399 0112 0233     		adds	r3, r3, #2
 400 0114 F868     		ldr	r0, [r7, #12]
 401 0116 FFF7FEFF 		bl	process_type_16_message
 402 011a F861     		str	r0, [r7, #28]
 123:.\rtu_modbus/process_modbus_message.c ****                                                      &out_buffer[2]);
 124:.\rtu_modbus/process_modbus_message.c ****                     
 125:.\rtu_modbus/process_modbus_message.c ****                     break;
 403              		.loc 1 125 0
 404 011c 19E0     		b	.L30
 405              	.L28:
 126:.\rtu_modbus/process_modbus_message.c ****             
 127:.\rtu_modbus/process_modbus_message.c ****             case 24:
 128:.\rtu_modbus/process_modbus_message.c ****                     out_length = process_type_24_message( in_length, &in_buffer[2], out_buffer_leng
 406              		.loc 1 128 0
 407 011e BB68     		ldr	r3, [r7, #8]
 408 0120 9A1C     		adds	r2, r3, #2
 409 0122 3B68     		ldr	r3, [r7]
 410 0124 0233     		adds	r3, r3, #2
 411 0126 F868     		ldr	r0, [r7, #12]
 412 0128 1146     		mov	r1, r2
 413 012a 7A68     		ldr	r2, [r7, #4]
 414 012c FFF7FEFF 		bl	process_type_24_message
 415 0130 F861     		str	r0, [r7, #28]
 129:.\rtu_modbus/process_modbus_message.c ****                                    &out_buffer[2]);
 130:.\rtu_modbus/process_modbus_message.c ****                     break;
 416              		.loc 1 130 0
 417 0132 0EE0     		b	.L30
 418              	.L29:
 131:.\rtu_modbus/process_modbus_message.c ****             case 34:
 132:.\rtu_modbus/process_modbus_message.c ****                     out_length = process_type_3_34_message( function_code, in_length, &in_buffer[2]
 419              		.loc 1 132 0
 420 0134 BB68     		ldr	r3, [r7, #8]
 421 0136 9A1C     		adds	r2, r3, #2
 422 0138 3B68     		ldr	r3, [r7]
 423 013a 0233     		adds	r3, r3, #2
 424 013c 0093     		str	r3, [sp]
 425 013e B869     		ldr	r0, [r7, #24]
 426 0140 F968     		ldr	r1, [r7, #12]
 427 0142 7B68     		ldr	r3, [r7, #4]
 428 0144 FFF7FEFF 		bl	process_type_3_34_message
 429 0148 F861     		str	r0, [r7, #28]
 133:.\rtu_modbus/process_modbus_message.c ****                                    &out_buffer[2]);
 134:.\rtu_modbus/process_modbus_message.c ****                     break;
 430              		.loc 1 134 0
 431 014a 02E0     		b	.L30
 432              	.L24:
ARM GAS  C:\Users\glenn\AppData\Local\Temp\ccuUPfYS.s 			page 11


 135:.\rtu_modbus/process_modbus_message.c **** 
 136:.\rtu_modbus/process_modbus_message.c ****                     
 137:.\rtu_modbus/process_modbus_message.c ****                      
 138:.\rtu_modbus/process_modbus_message.c ****             default:
 139:.\rtu_modbus/process_modbus_message.c ****                     out_length = 0; // unrecognized function code
 433              		.loc 1 139 0
 434 014c 0023     		movs	r3, #0
 435 014e FB61     		str	r3, [r7, #28]
 436 0150 02E0     		b	.L31
 437              	.L30:
 438 0152 01E0     		b	.L31
 439              	.L23:
 140:.\rtu_modbus/process_modbus_message.c ****      
 141:.\rtu_modbus/process_modbus_message.c ****            }         
 142:.\rtu_modbus/process_modbus_message.c ****         
 143:.\rtu_modbus/process_modbus_message.c ****         }
 144:.\rtu_modbus/process_modbus_message.c ****         else
 145:.\rtu_modbus/process_modbus_message.c ****         {
 146:.\rtu_modbus/process_modbus_message.c ****             out_length = 0; // bad crc
 440              		.loc 1 146 0
 441 0154 0023     		movs	r3, #0
 442 0156 FB61     		str	r3, [r7, #28]
 443              	.L31:
 147:.\rtu_modbus/process_modbus_message.c ****         }
 148:.\rtu_modbus/process_modbus_message.c ****         if( out_length > 200 )
 444              		.loc 1 148 0
 445 0158 FB69     		ldr	r3, [r7, #28]
 446 015a C82B     		cmp	r3, #200
 447 015c 02DD     		ble	.L32
 149:.\rtu_modbus/process_modbus_message.c ****          {
 150:.\rtu_modbus/process_modbus_message.c ****             CYASSERT(0);
 448              		.loc 1 150 0 discriminator 1
 449 015e 0020     		movs	r0, #0
 450 0160 FFF7FEFF 		bl	CyHalt
 451              	.L32:
 151:.\rtu_modbus/process_modbus_message.c ****          }
 152:.\rtu_modbus/process_modbus_message.c **** 
 153:.\rtu_modbus/process_modbus_message.c ****         if(  out_length > 0 )
 452              		.loc 1 153 0
 453 0164 FB69     		ldr	r3, [r7, #28]
 454 0166 002B     		cmp	r3, #0
 455 0168 09DD     		ble	.L33
 154:.\rtu_modbus/process_modbus_message.c ****         {
 155:.\rtu_modbus/process_modbus_message.c ****             out_length += 2; // putting back slave and function id into count
 456              		.loc 1 155 0
 457 016a FB69     		ldr	r3, [r7, #28]
 458 016c 0233     		adds	r3, r3, #2
 459 016e FB61     		str	r3, [r7, #28]
 156:.\rtu_modbus/process_modbus_message.c ****             append_crc( out_length,out_buffer);
 460              		.loc 1 156 0
 461 0170 F869     		ldr	r0, [r7, #28]
 462 0172 3968     		ldr	r1, [r7]
 463 0174 FFF7FEFF 		bl	append_crc
 157:.\rtu_modbus/process_modbus_message.c ****             out_length += 2; // adding crc
 464              		.loc 1 157 0
 465 0178 FB69     		ldr	r3, [r7, #28]
 466 017a 0233     		adds	r3, r3, #2
ARM GAS  C:\Users\glenn\AppData\Local\Temp\ccuUPfYS.s 			page 12


 467 017c FB61     		str	r3, [r7, #28]
 468              	.L33:
 158:.\rtu_modbus/process_modbus_message.c ****         }
 159:.\rtu_modbus/process_modbus_message.c ****         
 160:.\rtu_modbus/process_modbus_message.c ****         
 161:.\rtu_modbus/process_modbus_message.c ****     
 162:.\rtu_modbus/process_modbus_message.c **** 
 163:.\rtu_modbus/process_modbus_message.c ****          return out_length;
 469              		.loc 1 163 0
 470 017e FB69     		ldr	r3, [r7, #28]
 471              	.L22:
 164:.\rtu_modbus/process_modbus_message.c ****     
 165:.\rtu_modbus/process_modbus_message.c **** }    
 472              		.loc 1 165 0
 473 0180 1846     		mov	r0, r3
 474 0182 2437     		adds	r7, r7, #36
 475              		.cfi_def_cfa_offset 12
 476 0184 BD46     		mov	sp, r7
 477              		.cfi_def_cfa_register 13
 478              		@ sp needed
 479 0186 90BD     		pop	{r4, r7, pc}
 480              		.cfi_endproc
 481              	.LFE69:
 482              		.size	process_modbus_message, .-process_modbus_message
 483              		.text
 484              	.Letext0:
 485              		.file 2 "c:\\program files (x86)\\cypress\\psoc creator\\3.3\\psoc creator\\import\\gnu\\arm\\4.9.
 486              		.file 3 "c:\\program files (x86)\\cypress\\psoc creator\\3.3\\psoc creator\\import\\gnu\\arm\\4.9.
 487              		.file 4 "Generated_Source\\PSoC5/cytypes.h"
 488              		.file 5 "Generated_Source\\PSoC5/core_cm3.h"