ARM GAS  C:\Users\glenn\AppData\Local\Temp\ccPIHEU1.s 			page 1


   1              		.syntax unified
   2              		.cpu cortex-m3
   3              		.fpu softvfp
   4              		.eabi_attribute 20, 1
   5              		.eabi_attribute 21, 1
   6              		.eabi_attribute 23, 3
   7              		.eabi_attribute 24, 1
   8              		.eabi_attribute 25, 1
   9              		.eabi_attribute 26, 1
  10              		.eabi_attribute 30, 6
  11              		.eabi_attribute 34, 1
  12              		.eabi_attribute 18, 4
  13              		.thumb
  14              		.file	"RTC_1.c"
  15              		.text
  16              	.Ltext0:
  17              		.cfi_sections	.debug_frame
  18              		.global	RTC_1_initVar
  19              		.bss
  20              		.type	RTC_1_initVar, %object
  21              		.size	RTC_1_initVar, 1
  22              	RTC_1_initVar:
  23 0000 00       		.space	1
  24              		.global	RTC_1_currentTimeDate
  25              		.data
  26              		.align	2
  27              		.type	RTC_1_currentTimeDate, %object
  28              		.size	RTC_1_currentTimeDate, 12
  29              	RTC_1_currentTimeDate:
  30 0000 00       		.byte	0
  31 0001 00       		.byte	0
  32 0002 00       		.byte	0
  33 0003 01       		.byte	1
  34 0004 01       		.byte	1
  35 0005 00       		.space	1
  36 0006 0100     		.short	1
  37 0008 01       		.byte	1
  38 0009 00       		.space	1
  39 000a 6C07     		.short	1900
  40              		.global	RTC_1_alarmCfgTimeDate
  41              		.align	2
  42              		.type	RTC_1_alarmCfgTimeDate, %object
  43              		.size	RTC_1_alarmCfgTimeDate, 12
  44              	RTC_1_alarmCfgTimeDate:
  45 000c 00       		.byte	0
  46 000d 00       		.byte	0
  47 000e 00       		.byte	0
  48 000f 01       		.byte	1
  49 0010 01       		.byte	1
  50 0011 00       		.space	1
  51 0012 0100     		.short	1
  52 0014 01       		.byte	1
  53 0015 00       		.space	1
  54 0016 6C07     		.short	1900
  55              		.global	RTC_1_dstModeType
  56              		.bss
  57              		.type	RTC_1_dstModeType, %object
ARM GAS  C:\Users\glenn\AppData\Local\Temp\ccPIHEU1.s 			page 2


  58              		.size	RTC_1_dstModeType, 1
  59              	RTC_1_dstModeType:
  60 0001 00       		.space	1
  61              		.global	RTC_1_dstTimeDateStart
  62              		.data
  63              		.align	2
  64              		.type	RTC_1_dstTimeDateStart, %object
  65              		.size	RTC_1_dstTimeDateStart, 5
  66              	RTC_1_dstTimeDateStart:
  67 0018 00       		.byte	0
  68 0019 01       		.byte	1
  69 001a 01       		.byte	1
  70 001b 01       		.byte	1
  71 001c 01       		.byte	1
  72              		.global	RTC_1_dstTimeDateStop
  73 001d 000000   		.align	2
  74              		.type	RTC_1_dstTimeDateStop, %object
  75              		.size	RTC_1_dstTimeDateStop, 5
  76              	RTC_1_dstTimeDateStop:
  77 0020 00       		.byte	0
  78 0021 01       		.byte	1
  79 0022 01       		.byte	1
  80 0023 01       		.byte	1
  81 0024 01       		.byte	1
  82              		.global	RTC_1_dstOffsetMin
  83 0025 000000   		.bss
  84              		.type	RTC_1_dstOffsetMin, %object
  85              		.size	RTC_1_dstOffsetMin, 1
  86              	RTC_1_dstOffsetMin:
  87 0002 00       		.space	1
  88              		.global	RTC_1_dstStartStatus
  89              		.type	RTC_1_dstStartStatus, %object
  90              		.size	RTC_1_dstStartStatus, 1
  91              	RTC_1_dstStartStatus:
  92 0003 00       		.space	1
  93              		.global	RTC_1_dstStopStatus
  94              		.type	RTC_1_dstStopStatus, %object
  95              		.size	RTC_1_dstStopStatus, 1
  96              	RTC_1_dstStopStatus:
  97 0004 00       		.space	1
  98              		.global	RTC_1_alarmCfgMask
  99              		.type	RTC_1_alarmCfgMask, %object
 100              		.size	RTC_1_alarmCfgMask, 1
 101              	RTC_1_alarmCfgMask:
 102 0005 00       		.space	1
 103              		.global	RTC_1_alarmCurStatus
 104              		.type	RTC_1_alarmCurStatus, %object
 105              		.size	RTC_1_alarmCurStatus, 1
 106              	RTC_1_alarmCurStatus:
 107 0006 00       		.space	1
 108              		.global	RTC_1_intervalCfgMask
 109              		.type	RTC_1_intervalCfgMask, %object
 110              		.size	RTC_1_intervalCfgMask, 1
 111              	RTC_1_intervalCfgMask:
 112 0007 00       		.space	1
 113              		.global	RTC_1_statusDateTime
 114              		.type	RTC_1_statusDateTime, %object
ARM GAS  C:\Users\glenn\AppData\Local\Temp\ccPIHEU1.s 			page 3


 115              		.size	RTC_1_statusDateTime, 1
 116              	RTC_1_statusDateTime:
 117 0008 00       		.space	1
 118              		.global	RTC_1_daysInMonths
 119              		.section	.rodata
 120              		.align	2
 121              		.type	RTC_1_daysInMonths, %object
 122              		.size	RTC_1_daysInMonths, 12
 123              	RTC_1_daysInMonths:
 124 0000 1F       		.byte	31
 125 0001 1C       		.byte	28
 126 0002 1F       		.byte	31
 127 0003 1E       		.byte	30
 128 0004 1F       		.byte	31
 129 0005 1E       		.byte	30
 130 0006 1F       		.byte	31
 131 0007 1F       		.byte	31
 132 0008 1E       		.byte	30
 133 0009 1F       		.byte	31
 134 000a 1E       		.byte	30
 135 000b 1F       		.byte	31
 136              		.section	.text.RTC_1_Start,"ax",%progbits
 137              		.align	2
 138              		.global	RTC_1_Start
 139              		.thumb
 140              		.thumb_func
 141              		.type	RTC_1_Start, %function
 142              	RTC_1_Start:
 143              	.LFB0:
 144              		.file 1 ".\\Generated_Source\\PSoC5\\RTC_1.c"
   1:.\Generated_Source\PSoC5/RTC_1.c **** /*******************************************************************************
   2:.\Generated_Source\PSoC5/RTC_1.c **** * File Name: RTC_1.c
   3:.\Generated_Source\PSoC5/RTC_1.c **** * Version 2.0
   4:.\Generated_Source\PSoC5/RTC_1.c **** *
   5:.\Generated_Source\PSoC5/RTC_1.c **** * Description:
   6:.\Generated_Source\PSoC5/RTC_1.c **** *  This file provides the source code to the API for the RTC Component.
   7:.\Generated_Source\PSoC5/RTC_1.c **** *
   8:.\Generated_Source\PSoC5/RTC_1.c **** ********************************************************************************
   9:.\Generated_Source\PSoC5/RTC_1.c **** * Copyright 2008-2013, Cypress Semiconductor Corporation.  All rights reserved.
  10:.\Generated_Source\PSoC5/RTC_1.c **** * You may use this file only in accordance with the license, terms, conditions,
  11:.\Generated_Source\PSoC5/RTC_1.c **** * disclaimers, and limitations in the end user license agreement accompanying
  12:.\Generated_Source\PSoC5/RTC_1.c **** * the software package with which this file was provided.
  13:.\Generated_Source\PSoC5/RTC_1.c **** *******************************************************************************/
  14:.\Generated_Source\PSoC5/RTC_1.c **** 
  15:.\Generated_Source\PSoC5/RTC_1.c **** #include "RTC_1.h"
  16:.\Generated_Source\PSoC5/RTC_1.c **** #include "CyLib.h"
  17:.\Generated_Source\PSoC5/RTC_1.c **** 
  18:.\Generated_Source\PSoC5/RTC_1.c **** /* Function Prototypes */
  19:.\Generated_Source\PSoC5/RTC_1.c **** static void  RTC_1_SetInitValues(void)     ;
  20:.\Generated_Source\PSoC5/RTC_1.c **** static uint8 RTC_1_DayOfWeek(uint8 dayOfMonth, uint8 month, uint16 year)
  21:.\Generated_Source\PSoC5/RTC_1.c ****                                                       ;
  22:.\Generated_Source\PSoC5/RTC_1.c **** #if (1u == RTC_1_DST_FUNC_ENABLE)
  23:.\Generated_Source\PSoC5/RTC_1.c ****     static void  RTC_1_DSTDateConversion(void) ;
  24:.\Generated_Source\PSoC5/RTC_1.c **** #endif /* 1u == RTC_1_DST_FUNC_ENABLE */
  25:.\Generated_Source\PSoC5/RTC_1.c **** 
  26:.\Generated_Source\PSoC5/RTC_1.c **** 
  27:.\Generated_Source\PSoC5/RTC_1.c **** /* Variables were not initialized */
ARM GAS  C:\Users\glenn\AppData\Local\Temp\ccPIHEU1.s 			page 4


  28:.\Generated_Source\PSoC5/RTC_1.c **** uint8 RTC_1_initVar = 0u;
  29:.\Generated_Source\PSoC5/RTC_1.c **** 
  30:.\Generated_Source\PSoC5/RTC_1.c **** /* Time and date variables
  31:.\Generated_Source\PSoC5/RTC_1.c **** * Initial value are: Second = 0-59, Minute = 0-59, Hour = 0-23, DayOfWeek = 1-7,
  32:.\Generated_Source\PSoC5/RTC_1.c **** * DayOfMonth = 1-31, DayOfYear = 1-366, Month = 1-12, Year = 1900-2200.
  33:.\Generated_Source\PSoC5/RTC_1.c **** */
  34:.\Generated_Source\PSoC5/RTC_1.c **** RTC_1_TIME_DATE RTC_1_currentTimeDate = {0u, 0u, 0u, 1u, 1u, 1u, 1u, 1900u};
  35:.\Generated_Source\PSoC5/RTC_1.c **** 
  36:.\Generated_Source\PSoC5/RTC_1.c **** /* Alarm time and date variables
  37:.\Generated_Source\PSoC5/RTC_1.c **** * Initial value are: Second = 0-59, Minute = 0-59, Hour = 0-23, DayOfWeek = 1-7,
  38:.\Generated_Source\PSoC5/RTC_1.c **** * DayOfMonth = 1-31, DayOfYear = 1-366, Month = 1-12, Year = 1900-2200.
  39:.\Generated_Source\PSoC5/RTC_1.c **** */
  40:.\Generated_Source\PSoC5/RTC_1.c **** RTC_1_TIME_DATE RTC_1_alarmCfgTimeDate = {0u, 0u, 0u, 1u, 1u, 1u, 1u, 1900u};
  41:.\Generated_Source\PSoC5/RTC_1.c **** 
  42:.\Generated_Source\PSoC5/RTC_1.c **** #if (1u == RTC_1_DST_FUNC_ENABLE) /* DST enabled */
  43:.\Generated_Source\PSoC5/RTC_1.c **** 
  44:.\Generated_Source\PSoC5/RTC_1.c ****     /* Define DST format: '0' - fixed, '1' - relative */
  45:.\Generated_Source\PSoC5/RTC_1.c ****     volatile uint8 RTC_1_dstModeType = 0u;
  46:.\Generated_Source\PSoC5/RTC_1.c **** 
  47:.\Generated_Source\PSoC5/RTC_1.c ****     /* Hour 0-23, DayOfWeek 1-7, Week 1-5, DayOfMonth 1-31, Month 1-12 */
  48:.\Generated_Source\PSoC5/RTC_1.c ****     RTC_1_DSTIME RTC_1_dstTimeDateStart = {0u, 1u, 1u, 1u, 1u};
  49:.\Generated_Source\PSoC5/RTC_1.c ****     RTC_1_DSTIME RTC_1_dstTimeDateStop = {0u, 1u, 1u, 1u, 1u};
  50:.\Generated_Source\PSoC5/RTC_1.c **** 
  51:.\Generated_Source\PSoC5/RTC_1.c ****     /* Number of Hours to add/dec to time */
  52:.\Generated_Source\PSoC5/RTC_1.c ****     volatile uint8 RTC_1_dstOffsetMin = 0u;
  53:.\Generated_Source\PSoC5/RTC_1.c ****     volatile uint8 RTC_1_dstStartStatus = 0u;
  54:.\Generated_Source\PSoC5/RTC_1.c ****     volatile uint8 RTC_1_dstStopStatus = 0u;
  55:.\Generated_Source\PSoC5/RTC_1.c **** 
  56:.\Generated_Source\PSoC5/RTC_1.c **** #endif /* 1u == RTC_1_DST_FUNC_ENABLE*/
  57:.\Generated_Source\PSoC5/RTC_1.c **** 
  58:.\Generated_Source\PSoC5/RTC_1.c **** /* Mask Registers */
  59:.\Generated_Source\PSoC5/RTC_1.c **** volatile uint8 RTC_1_alarmCfgMask = 0u;
  60:.\Generated_Source\PSoC5/RTC_1.c **** volatile uint8 RTC_1_alarmCurStatus = 0u;
  61:.\Generated_Source\PSoC5/RTC_1.c **** volatile uint8 RTC_1_intervalCfgMask = 0u;
  62:.\Generated_Source\PSoC5/RTC_1.c **** 
  63:.\Generated_Source\PSoC5/RTC_1.c **** /* Status & Control Variables */
  64:.\Generated_Source\PSoC5/RTC_1.c **** volatile uint8 RTC_1_statusDateTime = 0u;
  65:.\Generated_Source\PSoC5/RTC_1.c **** 
  66:.\Generated_Source\PSoC5/RTC_1.c **** /* Month Day Array - number of days in the months */
  67:.\Generated_Source\PSoC5/RTC_1.c **** const uint8 CYCODE RTC_1_daysInMonths[RTC_1_MONTHS_IN_YEAR] = {
  68:.\Generated_Source\PSoC5/RTC_1.c ****     RTC_1_DAYS_IN_JANUARY,
  69:.\Generated_Source\PSoC5/RTC_1.c ****     RTC_1_DAYS_IN_FEBRUARY,
  70:.\Generated_Source\PSoC5/RTC_1.c ****     RTC_1_DAYS_IN_MARCH,
  71:.\Generated_Source\PSoC5/RTC_1.c ****     RTC_1_DAYS_IN_APRIL,
  72:.\Generated_Source\PSoC5/RTC_1.c ****     RTC_1_DAYS_IN_MAY,
  73:.\Generated_Source\PSoC5/RTC_1.c ****     RTC_1_DAYS_IN_JUNE,
  74:.\Generated_Source\PSoC5/RTC_1.c ****     RTC_1_DAYS_IN_JULY,
  75:.\Generated_Source\PSoC5/RTC_1.c ****     RTC_1_DAYS_IN_AUGUST,
  76:.\Generated_Source\PSoC5/RTC_1.c ****     RTC_1_DAYS_IN_SEPTEMBER,
  77:.\Generated_Source\PSoC5/RTC_1.c ****     RTC_1_DAYS_IN_OCTOBER,
  78:.\Generated_Source\PSoC5/RTC_1.c ****     RTC_1_DAYS_IN_NOVEMBER,
  79:.\Generated_Source\PSoC5/RTC_1.c ****     RTC_1_DAYS_IN_DECEMBER};
  80:.\Generated_Source\PSoC5/RTC_1.c **** 
  81:.\Generated_Source\PSoC5/RTC_1.c **** 
  82:.\Generated_Source\PSoC5/RTC_1.c **** /*******************************************************************************
  83:.\Generated_Source\PSoC5/RTC_1.c **** * Function Name:   RTC_1_Start
  84:.\Generated_Source\PSoC5/RTC_1.c **** ********************************************************************************
ARM GAS  C:\Users\glenn\AppData\Local\Temp\ccPIHEU1.s 			page 5


  85:.\Generated_Source\PSoC5/RTC_1.c **** *
  86:.\Generated_Source\PSoC5/RTC_1.c **** * Summary:
  87:.\Generated_Source\PSoC5/RTC_1.c **** *  Enables RTC component: configures counter, setup interrupts, done all
  88:.\Generated_Source\PSoC5/RTC_1.c **** *  required calculation and starts counter.
  89:.\Generated_Source\PSoC5/RTC_1.c **** *
  90:.\Generated_Source\PSoC5/RTC_1.c **** * Parameters:
  91:.\Generated_Source\PSoC5/RTC_1.c **** *  None.
  92:.\Generated_Source\PSoC5/RTC_1.c **** *
  93:.\Generated_Source\PSoC5/RTC_1.c **** * Return:
  94:.\Generated_Source\PSoC5/RTC_1.c **** *  None.
  95:.\Generated_Source\PSoC5/RTC_1.c **** *
  96:.\Generated_Source\PSoC5/RTC_1.c **** * Global variables:
  97:.\Generated_Source\PSoC5/RTC_1.c **** *  RTC_1_initVar: global variable is used to indicate initial
  98:.\Generated_Source\PSoC5/RTC_1.c **** *  configuration of this component.  The variable is initialized to zero and set
  99:.\Generated_Source\PSoC5/RTC_1.c **** *  to 1 the first time RTC_1_Start() is called. This allows for
 100:.\Generated_Source\PSoC5/RTC_1.c **** *  component initialization without re-initialization in all subsequent calls
 101:.\Generated_Source\PSoC5/RTC_1.c **** *  to the RTC_1_Start() routine.
 102:.\Generated_Source\PSoC5/RTC_1.c **** *
 103:.\Generated_Source\PSoC5/RTC_1.c **** *  RTC_1_currentTimeDate, RTC_1_dstTimeDateStart,
 104:.\Generated_Source\PSoC5/RTC_1.c **** *  RTC_1_dstTimeDateStop, RTC_1_dstTimeDateStart,
 105:.\Generated_Source\PSoC5/RTC_1.c **** *  RTC_1_alarmCfgTimeDate, RTC_1_statusDateTime,
 106:.\Generated_Source\PSoC5/RTC_1.c **** *  RTC_1_dstStartStatus, RTC_1_dstStopStatus,
 107:.\Generated_Source\PSoC5/RTC_1.c **** *  RTC_1_alarmCurStatus: global variables are modified by the
 108:.\Generated_Source\PSoC5/RTC_1.c **** *  functions called from RTC_1_Init().
 109:.\Generated_Source\PSoC5/RTC_1.c **** *
 110:.\Generated_Source\PSoC5/RTC_1.c **** * Reentrant:
 111:.\Generated_Source\PSoC5/RTC_1.c **** *  No.
 112:.\Generated_Source\PSoC5/RTC_1.c **** *
 113:.\Generated_Source\PSoC5/RTC_1.c **** * Side Effects:
 114:.\Generated_Source\PSoC5/RTC_1.c **** *  Enables for the one pulse per second (for the RTC component) and
 115:.\Generated_Source\PSoC5/RTC_1.c **** *  Central Time Wheel (for the Sleep Timer component) signals to wake up device
 116:.\Generated_Source\PSoC5/RTC_1.c **** *  from the low power (Sleep and Alternate Active) modes and leaves them
 117:.\Generated_Source\PSoC5/RTC_1.c **** *  enabled.
 118:.\Generated_Source\PSoC5/RTC_1.c **** *
 119:.\Generated_Source\PSoC5/RTC_1.c **** *  The Power Manager API has the higher priority on resource usage: it is NOT
 120:.\Generated_Source\PSoC5/RTC_1.c **** *  guaranteed that the Sleep Timer's configuration will be the same on exit
 121:.\Generated_Source\PSoC5/RTC_1.c **** *  from the Power Manager APIs as on the entry. To prevent this use the Sleep
 122:.\Generated_Source\PSoC5/RTC_1.c **** *  Timer's Sleep() - to save configuration and stop the component and Wakeup()
 123:.\Generated_Source\PSoC5/RTC_1.c **** *  function to restore configuration and enable the component.
 124:.\Generated_Source\PSoC5/RTC_1.c **** *
 125:.\Generated_Source\PSoC5/RTC_1.c **** *  The Sleep Timer and Real Time Clock (RTC) components could be configured as
 126:.\Generated_Source\PSoC5/RTC_1.c **** *  a wake up source from the low power modes only both at once.
 127:.\Generated_Source\PSoC5/RTC_1.c **** *
 128:.\Generated_Source\PSoC5/RTC_1.c **** *******************************************************************************/
 129:.\Generated_Source\PSoC5/RTC_1.c **** void RTC_1_Start(void) 
 130:.\Generated_Source\PSoC5/RTC_1.c **** {
 145              		.loc 1 130 0
 146              		.cfi_startproc
 147              		@ args = 0, pretend = 0, frame = 0
 148              		@ frame_needed = 1, uses_anonymous_args = 0
 149 0000 80B5     		push	{r7, lr}
 150              		.cfi_def_cfa_offset 8
 151              		.cfi_offset 7, -8
 152              		.cfi_offset 14, -4
 153 0002 00AF     		add	r7, sp, #0
 154              		.cfi_def_cfa_register 7
 131:.\Generated_Source\PSoC5/RTC_1.c ****     /* Execute once in normal flow */
ARM GAS  C:\Users\glenn\AppData\Local\Temp\ccPIHEU1.s 			page 6


 132:.\Generated_Source\PSoC5/RTC_1.c ****     if(0u == RTC_1_initVar)
 155              		.loc 1 132 0
 156 0004 054B     		ldr	r3, .L3
 157 0006 1B78     		ldrb	r3, [r3]	@ zero_extendqisi2
 158 0008 002B     		cmp	r3, #0
 159 000a 04D1     		bne	.L2
 133:.\Generated_Source\PSoC5/RTC_1.c ****     {
 134:.\Generated_Source\PSoC5/RTC_1.c ****         RTC_1_Init();
 160              		.loc 1 134 0
 161 000c FFF7FEFF 		bl	RTC_1_Init
 135:.\Generated_Source\PSoC5/RTC_1.c ****         RTC_1_initVar = 1u;
 162              		.loc 1 135 0
 163 0010 024B     		ldr	r3, .L3
 164 0012 0122     		movs	r2, #1
 165 0014 1A70     		strb	r2, [r3]
 166              	.L2:
 136:.\Generated_Source\PSoC5/RTC_1.c ****     }
 137:.\Generated_Source\PSoC5/RTC_1.c **** 
 138:.\Generated_Source\PSoC5/RTC_1.c ****     /* Enable component's operation */
 139:.\Generated_Source\PSoC5/RTC_1.c ****     RTC_1_Enable();
 167              		.loc 1 139 0
 168 0016 FFF7FEFF 		bl	RTC_1_Enable
 140:.\Generated_Source\PSoC5/RTC_1.c **** }
 169              		.loc 1 140 0
 170 001a 80BD     		pop	{r7, pc}
 171              	.L4:
 172              		.align	2
 173              	.L3:
 174 001c 00000000 		.word	RTC_1_initVar
 175              		.cfi_endproc
 176              	.LFE0:
 177              		.size	RTC_1_Start, .-RTC_1_Start
 178              		.section	.text.RTC_1_Stop,"ax",%progbits
 179              		.align	2
 180              		.global	RTC_1_Stop
 181              		.thumb
 182              		.thumb_func
 183              		.type	RTC_1_Stop, %function
 184              	RTC_1_Stop:
 185              	.LFB1:
 141:.\Generated_Source\PSoC5/RTC_1.c **** 
 142:.\Generated_Source\PSoC5/RTC_1.c **** 
 143:.\Generated_Source\PSoC5/RTC_1.c **** /*******************************************************************************
 144:.\Generated_Source\PSoC5/RTC_1.c **** * Function Name: RTC_1_Stop
 145:.\Generated_Source\PSoC5/RTC_1.c **** ********************************************************************************
 146:.\Generated_Source\PSoC5/RTC_1.c **** *
 147:.\Generated_Source\PSoC5/RTC_1.c **** * Summary:
 148:.\Generated_Source\PSoC5/RTC_1.c **** *  Stops the RTC component.
 149:.\Generated_Source\PSoC5/RTC_1.c **** *
 150:.\Generated_Source\PSoC5/RTC_1.c **** * Parameters:
 151:.\Generated_Source\PSoC5/RTC_1.c **** *  None.
 152:.\Generated_Source\PSoC5/RTC_1.c **** *
 153:.\Generated_Source\PSoC5/RTC_1.c **** * Return:
 154:.\Generated_Source\PSoC5/RTC_1.c **** *  None.
 155:.\Generated_Source\PSoC5/RTC_1.c **** *
 156:.\Generated_Source\PSoC5/RTC_1.c **** * Side Effects:
 157:.\Generated_Source\PSoC5/RTC_1.c **** *  Leaves the one pulse per second (for the RTC component) and the Central Time
ARM GAS  C:\Users\glenn\AppData\Local\Temp\ccPIHEU1.s 			page 7


 158:.\Generated_Source\PSoC5/RTC_1.c **** *  Wheel (for the Sleep Timer component) signals to wake up device from the low
 159:.\Generated_Source\PSoC5/RTC_1.c **** *  power (Sleep and Alternate Active) modes enabled after Sleep Time component
 160:.\Generated_Source\PSoC5/RTC_1.c **** *  is stopped.
 161:.\Generated_Source\PSoC5/RTC_1.c **** *
 162:.\Generated_Source\PSoC5/RTC_1.c **** *******************************************************************************/
 163:.\Generated_Source\PSoC5/RTC_1.c **** void RTC_1_Stop(void) 
 164:.\Generated_Source\PSoC5/RTC_1.c **** {
 186              		.loc 1 164 0
 187              		.cfi_startproc
 188              		@ args = 0, pretend = 0, frame = 8
 189              		@ frame_needed = 1, uses_anonymous_args = 0
 190 0000 80B5     		push	{r7, lr}
 191              		.cfi_def_cfa_offset 8
 192              		.cfi_offset 7, -8
 193              		.cfi_offset 14, -4
 194 0002 82B0     		sub	sp, sp, #8
 195              		.cfi_def_cfa_offset 16
 196 0004 00AF     		add	r7, sp, #0
 197              		.cfi_def_cfa_register 7
 165:.\Generated_Source\PSoC5/RTC_1.c ****     uint8 interruptState;
 166:.\Generated_Source\PSoC5/RTC_1.c **** 
 167:.\Generated_Source\PSoC5/RTC_1.c ****     /* Disable the interrupt. */
 168:.\Generated_Source\PSoC5/RTC_1.c ****     CyIntDisable(RTC_1_ISR_NUMBER);
 198              		.loc 1 168 0
 199 0006 0B4B     		ldr	r3, .L6
 200 0008 0822     		movs	r2, #8
 201 000a 1A60     		str	r2, [r3]
 169:.\Generated_Source\PSoC5/RTC_1.c **** 
 170:.\Generated_Source\PSoC5/RTC_1.c ****     /* Enter critical section */
 171:.\Generated_Source\PSoC5/RTC_1.c ****     interruptState = CyEnterCriticalSection();
 202              		.loc 1 171 0
 203 000c FFF7FEFF 		bl	CyEnterCriticalSection
 204 0010 0346     		mov	r3, r0
 205 0012 FB71     		strb	r3, [r7, #7]
 172:.\Generated_Source\PSoC5/RTC_1.c **** 
 173:.\Generated_Source\PSoC5/RTC_1.c ****     /* Stop one pulse per second counter and interrupt */
 174:.\Generated_Source\PSoC5/RTC_1.c ****     RTC_1_OPPS_CFG_REG &= (uint8)(~(RTC_1_OPPSIE_EN_MASK | RTC_1_OPPS_EN_MASK));
 206              		.loc 1 174 0
 207 0014 084A     		ldr	r2, .L6+4
 208 0016 084B     		ldr	r3, .L6+4
 209 0018 1B78     		ldrb	r3, [r3]
 210 001a DBB2     		uxtb	r3, r3
 211 001c 23F03003 		bic	r3, r3, #48
 212 0020 DBB2     		uxtb	r3, r3
 213 0022 1370     		strb	r3, [r2]
 175:.\Generated_Source\PSoC5/RTC_1.c **** 
 176:.\Generated_Source\PSoC5/RTC_1.c ****     /* Exit critical section */
 177:.\Generated_Source\PSoC5/RTC_1.c ****     CyExitCriticalSection(interruptState);
 214              		.loc 1 177 0
 215 0024 FB79     		ldrb	r3, [r7, #7]	@ zero_extendqisi2
 216 0026 1846     		mov	r0, r3
 217 0028 FFF7FEFF 		bl	CyExitCriticalSection
 178:.\Generated_Source\PSoC5/RTC_1.c **** }
 218              		.loc 1 178 0
 219 002c 0837     		adds	r7, r7, #8
 220              		.cfi_def_cfa_offset 8
 221 002e BD46     		mov	sp, r7
ARM GAS  C:\Users\glenn\AppData\Local\Temp\ccPIHEU1.s 			page 8


 222              		.cfi_def_cfa_register 13
 223              		@ sp needed
 224 0030 80BD     		pop	{r7, pc}
 225              	.L7:
 226 0032 00BF     		.align	2
 227              	.L6:
 228 0034 80E100E0 		.word	-536813184
 229 0038 82430040 		.word	1073759106
 230              		.cfi_endproc
 231              	.LFE1:
 232              		.size	RTC_1_Stop, .-RTC_1_Stop
 233              		.section	.text.RTC_1_EnableInt,"ax",%progbits
 234              		.align	2
 235              		.global	RTC_1_EnableInt
 236              		.thumb
 237              		.thumb_func
 238              		.type	RTC_1_EnableInt, %function
 239              	RTC_1_EnableInt:
 240              	.LFB2:
 179:.\Generated_Source\PSoC5/RTC_1.c **** 
 180:.\Generated_Source\PSoC5/RTC_1.c **** 
 181:.\Generated_Source\PSoC5/RTC_1.c **** /*******************************************************************************
 182:.\Generated_Source\PSoC5/RTC_1.c **** * Function Name:   RTC_1_EnableInt
 183:.\Generated_Source\PSoC5/RTC_1.c **** ********************************************************************************
 184:.\Generated_Source\PSoC5/RTC_1.c **** *
 185:.\Generated_Source\PSoC5/RTC_1.c **** * Summary:
 186:.\Generated_Source\PSoC5/RTC_1.c **** *  Enables interrupts of RTC Component.
 187:.\Generated_Source\PSoC5/RTC_1.c **** *
 188:.\Generated_Source\PSoC5/RTC_1.c **** * Parameters:
 189:.\Generated_Source\PSoC5/RTC_1.c **** *  None.
 190:.\Generated_Source\PSoC5/RTC_1.c **** *
 191:.\Generated_Source\PSoC5/RTC_1.c **** * Return:
 192:.\Generated_Source\PSoC5/RTC_1.c **** *  None.
 193:.\Generated_Source\PSoC5/RTC_1.c **** *
 194:.\Generated_Source\PSoC5/RTC_1.c **** *******************************************************************************/
 195:.\Generated_Source\PSoC5/RTC_1.c **** void RTC_1_EnableInt(void) 
 196:.\Generated_Source\PSoC5/RTC_1.c **** {
 241              		.loc 1 196 0
 242              		.cfi_startproc
 243              		@ args = 0, pretend = 0, frame = 0
 244              		@ frame_needed = 1, uses_anonymous_args = 0
 245              		@ link register save eliminated.
 246 0000 80B4     		push	{r7}
 247              		.cfi_def_cfa_offset 4
 248              		.cfi_offset 7, -4
 249 0002 00AF     		add	r7, sp, #0
 250              		.cfi_def_cfa_register 7
 197:.\Generated_Source\PSoC5/RTC_1.c ****     /* Enable the interrupt */
 198:.\Generated_Source\PSoC5/RTC_1.c ****     CyIntEnable(RTC_1_ISR_NUMBER);
 251              		.loc 1 198 0
 252 0004 034B     		ldr	r3, .L9
 253 0006 0822     		movs	r2, #8
 254 0008 1A60     		str	r2, [r3]
 199:.\Generated_Source\PSoC5/RTC_1.c **** }
 255              		.loc 1 199 0
 256 000a BD46     		mov	sp, r7
 257              		.cfi_def_cfa_register 13
ARM GAS  C:\Users\glenn\AppData\Local\Temp\ccPIHEU1.s 			page 9


 258              		@ sp needed
 259 000c 5DF8047B 		ldr	r7, [sp], #4
 260              		.cfi_restore 7
 261              		.cfi_def_cfa_offset 0
 262 0010 7047     		bx	lr
 263              	.L10:
 264 0012 00BF     		.align	2
 265              	.L9:
 266 0014 00E100E0 		.word	-536813312
 267              		.cfi_endproc
 268              	.LFE2:
 269              		.size	RTC_1_EnableInt, .-RTC_1_EnableInt
 270              		.section	.text.RTC_1_DisableInt,"ax",%progbits
 271              		.align	2
 272              		.global	RTC_1_DisableInt
 273              		.thumb
 274              		.thumb_func
 275              		.type	RTC_1_DisableInt, %function
 276              	RTC_1_DisableInt:
 277              	.LFB3:
 200:.\Generated_Source\PSoC5/RTC_1.c **** 
 201:.\Generated_Source\PSoC5/RTC_1.c **** 
 202:.\Generated_Source\PSoC5/RTC_1.c **** /*******************************************************************************
 203:.\Generated_Source\PSoC5/RTC_1.c **** * Function Name:   RTC_1_DisableInt
 204:.\Generated_Source\PSoC5/RTC_1.c **** ********************************************************************************
 205:.\Generated_Source\PSoC5/RTC_1.c **** *
 206:.\Generated_Source\PSoC5/RTC_1.c **** * Summary:
 207:.\Generated_Source\PSoC5/RTC_1.c **** *  Disables interrupts of RTC Component, time and date stop running.
 208:.\Generated_Source\PSoC5/RTC_1.c **** *
 209:.\Generated_Source\PSoC5/RTC_1.c **** * Parameters:
 210:.\Generated_Source\PSoC5/RTC_1.c **** *  None.
 211:.\Generated_Source\PSoC5/RTC_1.c **** *
 212:.\Generated_Source\PSoC5/RTC_1.c **** * Return:
 213:.\Generated_Source\PSoC5/RTC_1.c **** *  None.
 214:.\Generated_Source\PSoC5/RTC_1.c **** *
 215:.\Generated_Source\PSoC5/RTC_1.c **** *******************************************************************************/
 216:.\Generated_Source\PSoC5/RTC_1.c **** void RTC_1_DisableInt(void) 
 217:.\Generated_Source\PSoC5/RTC_1.c **** {
 278              		.loc 1 217 0
 279              		.cfi_startproc
 280              		@ args = 0, pretend = 0, frame = 0
 281              		@ frame_needed = 1, uses_anonymous_args = 0
 282              		@ link register save eliminated.
 283 0000 80B4     		push	{r7}
 284              		.cfi_def_cfa_offset 4
 285              		.cfi_offset 7, -4
 286 0002 00AF     		add	r7, sp, #0
 287              		.cfi_def_cfa_register 7
 218:.\Generated_Source\PSoC5/RTC_1.c ****     /* Disable the interrupt. */
 219:.\Generated_Source\PSoC5/RTC_1.c ****     CyIntDisable(RTC_1_ISR_NUMBER);
 288              		.loc 1 219 0
 289 0004 034B     		ldr	r3, .L12
 290 0006 0822     		movs	r2, #8
 291 0008 1A60     		str	r2, [r3]
 220:.\Generated_Source\PSoC5/RTC_1.c **** }
 292              		.loc 1 220 0
 293 000a BD46     		mov	sp, r7
ARM GAS  C:\Users\glenn\AppData\Local\Temp\ccPIHEU1.s 			page 10


 294              		.cfi_def_cfa_register 13
 295              		@ sp needed
 296 000c 5DF8047B 		ldr	r7, [sp], #4
 297              		.cfi_restore 7
 298              		.cfi_def_cfa_offset 0
 299 0010 7047     		bx	lr
 300              	.L13:
 301 0012 00BF     		.align	2
 302              	.L12:
 303 0014 80E100E0 		.word	-536813184
 304              		.cfi_endproc
 305              	.LFE3:
 306              		.size	RTC_1_DisableInt, .-RTC_1_DisableInt
 307              		.section	.text.RTC_1_DSTDateConversion,"ax",%progbits
 308              		.align	2
 309              		.thumb
 310              		.thumb_func
 311              		.type	RTC_1_DSTDateConversion, %function
 312              	RTC_1_DSTDateConversion:
 313              	.LFB4:
 221:.\Generated_Source\PSoC5/RTC_1.c **** 
 222:.\Generated_Source\PSoC5/RTC_1.c **** 
 223:.\Generated_Source\PSoC5/RTC_1.c **** #if (1u == RTC_1_DST_FUNC_ENABLE)
 224:.\Generated_Source\PSoC5/RTC_1.c ****     /*******************************************************************************
 225:.\Generated_Source\PSoC5/RTC_1.c ****     * Function Name:   RTC_1_DSTDateConversion
 226:.\Generated_Source\PSoC5/RTC_1.c ****     ********************************************************************************
 227:.\Generated_Source\PSoC5/RTC_1.c ****     *
 228:.\Generated_Source\PSoC5/RTC_1.c ****     * Summary:
 229:.\Generated_Source\PSoC5/RTC_1.c ****     * Converts relative to absolute date.
 230:.\Generated_Source\PSoC5/RTC_1.c ****     *
 231:.\Generated_Source\PSoC5/RTC_1.c ****     * Parameters:
 232:.\Generated_Source\PSoC5/RTC_1.c ****     *  None.
 233:.\Generated_Source\PSoC5/RTC_1.c ****     *
 234:.\Generated_Source\PSoC5/RTC_1.c ****     * Return:
 235:.\Generated_Source\PSoC5/RTC_1.c ****     *  None.
 236:.\Generated_Source\PSoC5/RTC_1.c ****     *
 237:.\Generated_Source\PSoC5/RTC_1.c ****     * Global variables:
 238:.\Generated_Source\PSoC5/RTC_1.c ****     *  RTC_1_dstTimeDateStart.Month,
 239:.\Generated_Source\PSoC5/RTC_1.c ****     *  RTC_1_dstTimeDateStart.DayOfWeek,
 240:.\Generated_Source\PSoC5/RTC_1.c ****     *  RTC_1_dstTimeDateStart.Week,
 241:.\Generated_Source\PSoC5/RTC_1.c ****     *  RTC_1_dstTimeDateStop.Month,
 242:.\Generated_Source\PSoC5/RTC_1.c ****     *  RTC_1_dstTimeDateStop.DayOfWeek,
 243:.\Generated_Source\PSoC5/RTC_1.c ****     *  RTC_1_dstTimeDateStop.Week,
 244:.\Generated_Source\PSoC5/RTC_1.c ****     *  RTC_1_currentTimeDate.Year: these global variables are
 245:.\Generated_Source\PSoC5/RTC_1.c ****     *  used to correct day of week.
 246:.\Generated_Source\PSoC5/RTC_1.c ****     *
 247:.\Generated_Source\PSoC5/RTC_1.c ****     *  RTC_1_dstTimeDateStart.DayOfMonth,
 248:.\Generated_Source\PSoC5/RTC_1.c ****     *  RTC_1_dstTimeDateStop.DayOfMonth: these global variables are
 249:.\Generated_Source\PSoC5/RTC_1.c ****     *  modified after convertion.
 250:.\Generated_Source\PSoC5/RTC_1.c ****     *
 251:.\Generated_Source\PSoC5/RTC_1.c ****     * Reentrant:
 252:.\Generated_Source\PSoC5/RTC_1.c ****     *  No.
 253:.\Generated_Source\PSoC5/RTC_1.c ****     *
 254:.\Generated_Source\PSoC5/RTC_1.c ****     *******************************************************************************/
 255:.\Generated_Source\PSoC5/RTC_1.c ****     static void RTC_1_DSTDateConversion(void) 
 256:.\Generated_Source\PSoC5/RTC_1.c ****     {
 314              		.loc 1 256 0
ARM GAS  C:\Users\glenn\AppData\Local\Temp\ccPIHEU1.s 			page 11


 315              		.cfi_startproc
 316              		@ args = 0, pretend = 0, frame = 8
 317              		@ frame_needed = 1, uses_anonymous_args = 0
 318 0000 80B5     		push	{r7, lr}
 319              		.cfi_def_cfa_offset 8
 320              		.cfi_offset 7, -8
 321              		.cfi_offset 14, -4
 322 0002 82B0     		sub	sp, sp, #8
 323              		.cfi_def_cfa_offset 16
 324 0004 00AF     		add	r7, sp, #0
 325              		.cfi_def_cfa_register 7
 257:.\Generated_Source\PSoC5/RTC_1.c ****         uint8 week = 1u;
 326              		.loc 1 257 0
 327 0006 0123     		movs	r3, #1
 328 0008 FB71     		strb	r3, [r7, #7]
 258:.\Generated_Source\PSoC5/RTC_1.c ****         uint8 day = 1u;
 329              		.loc 1 258 0
 330 000a 0123     		movs	r3, #1
 331 000c BB71     		strb	r3, [r7, #6]
 259:.\Generated_Source\PSoC5/RTC_1.c ****         uint8 dayOfWeek;
 260:.\Generated_Source\PSoC5/RTC_1.c **** 
 261:.\Generated_Source\PSoC5/RTC_1.c ****         /* Get day of week */
 262:.\Generated_Source\PSoC5/RTC_1.c ****         dayOfWeek = RTC_1_DayOfWeek(day, RTC_1_dstTimeDateStart.Month,
 332              		.loc 1 262 0
 333 000e 374B     		ldr	r3, .L23
 334 0010 1B79     		ldrb	r3, [r3, #4]
 335 0012 DAB2     		uxtb	r2, r3
 336 0014 364B     		ldr	r3, .L23+4
 337 0016 5B89     		ldrh	r3, [r3, #10]	@ movhi
 338 0018 9BB2     		uxth	r3, r3
 339 001a B979     		ldrb	r1, [r7, #6]	@ zero_extendqisi2
 340 001c 0846     		mov	r0, r1
 341 001e 1146     		mov	r1, r2
 342 0020 1A46     		mov	r2, r3
 343 0022 FFF7FEFF 		bl	RTC_1_DayOfWeek
 344 0026 0346     		mov	r3, r0
 345 0028 0133     		adds	r3, r3, #1
 346 002a 7B71     		strb	r3, [r7, #5]
 263:.\Generated_Source\PSoC5/RTC_1.c ****                                                     RTC_1_currentTimeDate.Year) + 1u;
 264:.\Generated_Source\PSoC5/RTC_1.c **** 
 265:.\Generated_Source\PSoC5/RTC_1.c ****         #if (0u != RTC_1_START_OF_WEEK)
 266:.\Generated_Source\PSoC5/RTC_1.c ****         /* Normalize day of week if Start of week is not Sunday */
 267:.\Generated_Source\PSoC5/RTC_1.c ****         if(dayOfWeek > RTC_1_START_OF_WEEK)
 268:.\Generated_Source\PSoC5/RTC_1.c ****         {
 269:.\Generated_Source\PSoC5/RTC_1.c ****             #if (6u != RTC_1_START_OF_WEEK)
 270:.\Generated_Source\PSoC5/RTC_1.c ****                 /* Start of week is not Saturday  */
 271:.\Generated_Source\PSoC5/RTC_1.c ****                 dayOfWeek -= RTC_1_START_OF_WEEK;
 272:.\Generated_Source\PSoC5/RTC_1.c ****             #else /* 6u == RTC_1_START_OF_WEEK */
 273:.\Generated_Source\PSoC5/RTC_1.c ****                 /* Start of week is Saturday  */
 274:.\Generated_Source\PSoC5/RTC_1.c ****                 dayOfWeek = 1u; /* Set day of week to Monday */
 275:.\Generated_Source\PSoC5/RTC_1.c ****             #endif /* 6u != RTC_1_START_OF_WEEK */
 276:.\Generated_Source\PSoC5/RTC_1.c ****         }
 277:.\Generated_Source\PSoC5/RTC_1.c ****         else
 278:.\Generated_Source\PSoC5/RTC_1.c ****         {
 279:.\Generated_Source\PSoC5/RTC_1.c ****             #if (1u != RTC_1_START_OF_WEEK)
 280:.\Generated_Source\PSoC5/RTC_1.c ****                 /* Start of week is not Monday  */
 281:.\Generated_Source\PSoC5/RTC_1.c ****                 dayOfWeek = (RTC_1_DAYS_IN_WEEK - RTC_1_START_OF_WEEK) - dayOfWeek;
ARM GAS  C:\Users\glenn\AppData\Local\Temp\ccPIHEU1.s 			page 12


 282:.\Generated_Source\PSoC5/RTC_1.c ****             #else /* 1u == RTC_1_START_OF_WEEK */
 283:.\Generated_Source\PSoC5/RTC_1.c ****                 /* Start of week is Monday  */
 284:.\Generated_Source\PSoC5/RTC_1.c ****                 dayOfWeek = 5u; /* Set day of week to Friday */
 285:.\Generated_Source\PSoC5/RTC_1.c ****             #endif /* 1u != RTC_1_START_OF_WEEK */
 286:.\Generated_Source\PSoC5/RTC_1.c ****         }
 287:.\Generated_Source\PSoC5/RTC_1.c ****         #endif /* 0u != RTC_1_START_OF_WEEK */
 288:.\Generated_Source\PSoC5/RTC_1.c **** 
 289:.\Generated_Source\PSoC5/RTC_1.c ****         /* Correct if out of DST range */
 290:.\Generated_Source\PSoC5/RTC_1.c ****         while(dayOfWeek != RTC_1_dstTimeDateStart.DayOfWeek)
 347              		.loc 1 290 0
 348 002c 0DE0     		b	.L15
 349              	.L16:
 291:.\Generated_Source\PSoC5/RTC_1.c ****         {
 292:.\Generated_Source\PSoC5/RTC_1.c ****             day++;
 350              		.loc 1 292 0
 351 002e BB79     		ldrb	r3, [r7, #6]	@ zero_extendqisi2
 352 0030 0133     		adds	r3, r3, #1
 353 0032 BB71     		strb	r3, [r7, #6]
 293:.\Generated_Source\PSoC5/RTC_1.c ****             dayOfWeek++;
 354              		.loc 1 293 0
 355 0034 7B79     		ldrb	r3, [r7, #5]	@ zero_extendqisi2
 356 0036 0133     		adds	r3, r3, #1
 357 0038 7B71     		strb	r3, [r7, #5]
 294:.\Generated_Source\PSoC5/RTC_1.c ****             if(dayOfWeek > RTC_1_WEEK_ELAPSED)
 358              		.loc 1 294 0
 359 003a 7B79     		ldrb	r3, [r7, #5]	@ zero_extendqisi2
 360 003c 072B     		cmp	r3, #7
 361 003e 04D9     		bls	.L15
 295:.\Generated_Source\PSoC5/RTC_1.c ****             {
 296:.\Generated_Source\PSoC5/RTC_1.c ****                 dayOfWeek = 1u;
 362              		.loc 1 296 0
 363 0040 0123     		movs	r3, #1
 364 0042 7B71     		strb	r3, [r7, #5]
 297:.\Generated_Source\PSoC5/RTC_1.c ****                 week++;
 365              		.loc 1 297 0
 366 0044 FB79     		ldrb	r3, [r7, #7]	@ zero_extendqisi2
 367 0046 0133     		adds	r3, r3, #1
 368 0048 FB71     		strb	r3, [r7, #7]
 369              	.L15:
 290:.\Generated_Source\PSoC5/RTC_1.c ****         {
 370              		.loc 1 290 0
 371 004a 284B     		ldr	r3, .L23
 372 004c 5B78     		ldrb	r3, [r3, #1]
 373 004e DBB2     		uxtb	r3, r3
 374 0050 7A79     		ldrb	r2, [r7, #5]	@ zero_extendqisi2
 375 0052 9A42     		cmp	r2, r3
 376 0054 EBD1     		bne	.L16
 298:.\Generated_Source\PSoC5/RTC_1.c ****             }
 299:.\Generated_Source\PSoC5/RTC_1.c ****         }
 300:.\Generated_Source\PSoC5/RTC_1.c **** 
 301:.\Generated_Source\PSoC5/RTC_1.c ****         while(week != RTC_1_dstTimeDateStart.Week)
 377              		.loc 1 301 0
 378 0056 05E0     		b	.L17
 379              	.L18:
 302:.\Generated_Source\PSoC5/RTC_1.c ****         {
 303:.\Generated_Source\PSoC5/RTC_1.c ****             day += RTC_1_DAYS_IN_WEEK;
 380              		.loc 1 303 0
ARM GAS  C:\Users\glenn\AppData\Local\Temp\ccPIHEU1.s 			page 13


 381 0058 BB79     		ldrb	r3, [r7, #6]
 382 005a 0733     		adds	r3, r3, #7
 383 005c BB71     		strb	r3, [r7, #6]
 304:.\Generated_Source\PSoC5/RTC_1.c ****             week++;
 384              		.loc 1 304 0
 385 005e FB79     		ldrb	r3, [r7, #7]	@ zero_extendqisi2
 386 0060 0133     		adds	r3, r3, #1
 387 0062 FB71     		strb	r3, [r7, #7]
 388              	.L17:
 301:.\Generated_Source\PSoC5/RTC_1.c ****         {
 389              		.loc 1 301 0
 390 0064 214B     		ldr	r3, .L23
 391 0066 9B78     		ldrb	r3, [r3, #2]
 392 0068 DBB2     		uxtb	r3, r3
 393 006a FA79     		ldrb	r2, [r7, #7]	@ zero_extendqisi2
 394 006c 9A42     		cmp	r2, r3
 395 006e F3D1     		bne	.L18
 305:.\Generated_Source\PSoC5/RTC_1.c ****         }
 306:.\Generated_Source\PSoC5/RTC_1.c ****         RTC_1_dstTimeDateStart.DayOfMonth = day;
 396              		.loc 1 306 0
 397 0070 1E4A     		ldr	r2, .L23
 398 0072 BB79     		ldrb	r3, [r7, #6]
 399 0074 D370     		strb	r3, [r2, #3]
 307:.\Generated_Source\PSoC5/RTC_1.c **** 
 308:.\Generated_Source\PSoC5/RTC_1.c ****         /* Stop of DST time */
 309:.\Generated_Source\PSoC5/RTC_1.c ****         week = 1u;
 400              		.loc 1 309 0
 401 0076 0123     		movs	r3, #1
 402 0078 FB71     		strb	r3, [r7, #7]
 310:.\Generated_Source\PSoC5/RTC_1.c ****         day = 1u;
 403              		.loc 1 310 0
 404 007a 0123     		movs	r3, #1
 405 007c BB71     		strb	r3, [r7, #6]
 311:.\Generated_Source\PSoC5/RTC_1.c **** 
 312:.\Generated_Source\PSoC5/RTC_1.c ****         dayOfWeek = RTC_1_DayOfWeek(day, RTC_1_dstTimeDateStop.Month,
 406              		.loc 1 312 0
 407 007e 1D4B     		ldr	r3, .L23+8
 408 0080 1B79     		ldrb	r3, [r3, #4]
 409 0082 DAB2     		uxtb	r2, r3
 410 0084 1A4B     		ldr	r3, .L23+4
 411 0086 5B89     		ldrh	r3, [r3, #10]	@ movhi
 412 0088 9BB2     		uxth	r3, r3
 413 008a B979     		ldrb	r1, [r7, #6]	@ zero_extendqisi2
 414 008c 0846     		mov	r0, r1
 415 008e 1146     		mov	r1, r2
 416 0090 1A46     		mov	r2, r3
 417 0092 FFF7FEFF 		bl	RTC_1_DayOfWeek
 418 0096 0346     		mov	r3, r0
 419 0098 0133     		adds	r3, r3, #1
 420 009a 7B71     		strb	r3, [r7, #5]
 313:.\Generated_Source\PSoC5/RTC_1.c ****                                                     RTC_1_currentTimeDate.Year) + 1u;
 314:.\Generated_Source\PSoC5/RTC_1.c ****         #if (0u != RTC_1_START_OF_WEEK)
 315:.\Generated_Source\PSoC5/RTC_1.c ****         /* Normalize day of week if Start of week is not Sunday */
 316:.\Generated_Source\PSoC5/RTC_1.c ****         if(dayOfWeek > RTC_1_START_OF_WEEK)
 317:.\Generated_Source\PSoC5/RTC_1.c ****         {
 318:.\Generated_Source\PSoC5/RTC_1.c ****             #if (6u != RTC_1_START_OF_WEEK)
 319:.\Generated_Source\PSoC5/RTC_1.c ****                 /* Start of week is not Saturday  */
ARM GAS  C:\Users\glenn\AppData\Local\Temp\ccPIHEU1.s 			page 14


 320:.\Generated_Source\PSoC5/RTC_1.c ****                 dayOfWeek -= RTC_1_START_OF_WEEK;
 321:.\Generated_Source\PSoC5/RTC_1.c ****             #else /* 6u == RTC_1_START_OF_WEEK */
 322:.\Generated_Source\PSoC5/RTC_1.c ****                 /* Start of week is Saturday  */
 323:.\Generated_Source\PSoC5/RTC_1.c ****                 dayOfWeek = 1u; /* Set day of week to Monday */
 324:.\Generated_Source\PSoC5/RTC_1.c ****             #endif /* 6u != RTC_1_START_OF_WEEK */
 325:.\Generated_Source\PSoC5/RTC_1.c ****         }
 326:.\Generated_Source\PSoC5/RTC_1.c ****         else
 327:.\Generated_Source\PSoC5/RTC_1.c ****         {
 328:.\Generated_Source\PSoC5/RTC_1.c ****             #if (1u != RTC_1_START_OF_WEEK)
 329:.\Generated_Source\PSoC5/RTC_1.c ****                 /* Start of week is not Monday  */
 330:.\Generated_Source\PSoC5/RTC_1.c ****                 dayOfWeek = (RTC_1_DAYS_IN_WEEK - RTC_1_START_OF_WEEK) - dayOfWeek;
 331:.\Generated_Source\PSoC5/RTC_1.c ****             #else /* 1u == RTC_1_START_OF_WEEK */
 332:.\Generated_Source\PSoC5/RTC_1.c ****                 /* Start of week is Monday  */
 333:.\Generated_Source\PSoC5/RTC_1.c ****                 dayOfWeek = 5u; /* Set day of week to Friday */
 334:.\Generated_Source\PSoC5/RTC_1.c ****             #endif /* 1u != RTC_1_START_OF_WEEK */
 335:.\Generated_Source\PSoC5/RTC_1.c ****         }
 336:.\Generated_Source\PSoC5/RTC_1.c ****         #endif /* 0u != RTC_1_START_OF_WEEK */
 337:.\Generated_Source\PSoC5/RTC_1.c **** 
 338:.\Generated_Source\PSoC5/RTC_1.c ****         while(dayOfWeek != RTC_1_dstTimeDateStop.DayOfWeek)
 421              		.loc 1 338 0
 422 009c 0DE0     		b	.L19
 423              	.L20:
 339:.\Generated_Source\PSoC5/RTC_1.c ****         {
 340:.\Generated_Source\PSoC5/RTC_1.c ****             day++;
 424              		.loc 1 340 0
 425 009e BB79     		ldrb	r3, [r7, #6]	@ zero_extendqisi2
 426 00a0 0133     		adds	r3, r3, #1
 427 00a2 BB71     		strb	r3, [r7, #6]
 341:.\Generated_Source\PSoC5/RTC_1.c ****             dayOfWeek++;
 428              		.loc 1 341 0
 429 00a4 7B79     		ldrb	r3, [r7, #5]	@ zero_extendqisi2
 430 00a6 0133     		adds	r3, r3, #1
 431 00a8 7B71     		strb	r3, [r7, #5]
 342:.\Generated_Source\PSoC5/RTC_1.c ****             if(dayOfWeek > RTC_1_WEEK_ELAPSED)
 432              		.loc 1 342 0
 433 00aa 7B79     		ldrb	r3, [r7, #5]	@ zero_extendqisi2
 434 00ac 072B     		cmp	r3, #7
 435 00ae 04D9     		bls	.L19
 343:.\Generated_Source\PSoC5/RTC_1.c ****             {
 344:.\Generated_Source\PSoC5/RTC_1.c ****                 dayOfWeek = 1u;
 436              		.loc 1 344 0
 437 00b0 0123     		movs	r3, #1
 438 00b2 7B71     		strb	r3, [r7, #5]
 345:.\Generated_Source\PSoC5/RTC_1.c ****                 week++;
 439              		.loc 1 345 0
 440 00b4 FB79     		ldrb	r3, [r7, #7]	@ zero_extendqisi2
 441 00b6 0133     		adds	r3, r3, #1
 442 00b8 FB71     		strb	r3, [r7, #7]
 443              	.L19:
 338:.\Generated_Source\PSoC5/RTC_1.c ****         {
 444              		.loc 1 338 0
 445 00ba 0E4B     		ldr	r3, .L23+8
 446 00bc 5B78     		ldrb	r3, [r3, #1]
 447 00be DBB2     		uxtb	r3, r3
 448 00c0 7A79     		ldrb	r2, [r7, #5]	@ zero_extendqisi2
 449 00c2 9A42     		cmp	r2, r3
 450 00c4 EBD1     		bne	.L20
ARM GAS  C:\Users\glenn\AppData\Local\Temp\ccPIHEU1.s 			page 15


 346:.\Generated_Source\PSoC5/RTC_1.c ****             }
 347:.\Generated_Source\PSoC5/RTC_1.c ****         }
 348:.\Generated_Source\PSoC5/RTC_1.c **** 
 349:.\Generated_Source\PSoC5/RTC_1.c ****         while(week != RTC_1_dstTimeDateStop.Week)
 451              		.loc 1 349 0
 452 00c6 05E0     		b	.L21
 453              	.L22:
 350:.\Generated_Source\PSoC5/RTC_1.c ****         {
 351:.\Generated_Source\PSoC5/RTC_1.c ****             day += RTC_1_DAYS_IN_WEEK;
 454              		.loc 1 351 0
 455 00c8 BB79     		ldrb	r3, [r7, #6]
 456 00ca 0733     		adds	r3, r3, #7
 457 00cc BB71     		strb	r3, [r7, #6]
 352:.\Generated_Source\PSoC5/RTC_1.c ****             week++;
 458              		.loc 1 352 0
 459 00ce FB79     		ldrb	r3, [r7, #7]	@ zero_extendqisi2
 460 00d0 0133     		adds	r3, r3, #1
 461 00d2 FB71     		strb	r3, [r7, #7]
 462              	.L21:
 349:.\Generated_Source\PSoC5/RTC_1.c ****         {
 463              		.loc 1 349 0
 464 00d4 074B     		ldr	r3, .L23+8
 465 00d6 9B78     		ldrb	r3, [r3, #2]
 466 00d8 DBB2     		uxtb	r3, r3
 467 00da FA79     		ldrb	r2, [r7, #7]	@ zero_extendqisi2
 468 00dc 9A42     		cmp	r2, r3
 469 00de F3D1     		bne	.L22
 353:.\Generated_Source\PSoC5/RTC_1.c ****         }
 354:.\Generated_Source\PSoC5/RTC_1.c **** 
 355:.\Generated_Source\PSoC5/RTC_1.c ****         RTC_1_dstTimeDateStop.DayOfMonth = day;
 470              		.loc 1 355 0
 471 00e0 044A     		ldr	r2, .L23+8
 472 00e2 BB79     		ldrb	r3, [r7, #6]
 473 00e4 D370     		strb	r3, [r2, #3]
 356:.\Generated_Source\PSoC5/RTC_1.c ****     }
 474              		.loc 1 356 0
 475 00e6 0837     		adds	r7, r7, #8
 476              		.cfi_def_cfa_offset 8
 477 00e8 BD46     		mov	sp, r7
 478              		.cfi_def_cfa_register 13
 479              		@ sp needed
 480 00ea 80BD     		pop	{r7, pc}
 481              	.L24:
 482              		.align	2
 483              	.L23:
 484 00ec 00000000 		.word	RTC_1_dstTimeDateStart
 485 00f0 00000000 		.word	RTC_1_currentTimeDate
 486 00f4 00000000 		.word	RTC_1_dstTimeDateStop
 487              		.cfi_endproc
 488              	.LFE4:
 489              		.size	RTC_1_DSTDateConversion, .-RTC_1_DSTDateConversion
 490              		.section	.text.RTC_1_Init,"ax",%progbits
 491              		.align	2
 492              		.global	RTC_1_Init
 493              		.thumb
 494              		.thumb_func
 495              		.type	RTC_1_Init, %function
ARM GAS  C:\Users\glenn\AppData\Local\Temp\ccPIHEU1.s 			page 16


 496              	RTC_1_Init:
 497              	.LFB5:
 357:.\Generated_Source\PSoC5/RTC_1.c **** #endif /* 1u == RTC_1_DST_FUNC_ENABLE */
 358:.\Generated_Source\PSoC5/RTC_1.c **** 
 359:.\Generated_Source\PSoC5/RTC_1.c **** 
 360:.\Generated_Source\PSoC5/RTC_1.c **** /*******************************************************************************
 361:.\Generated_Source\PSoC5/RTC_1.c **** * Function Name:   RTC_1_Init
 362:.\Generated_Source\PSoC5/RTC_1.c **** ********************************************************************************
 363:.\Generated_Source\PSoC5/RTC_1.c **** *
 364:.\Generated_Source\PSoC5/RTC_1.c **** * Summary:
 365:.\Generated_Source\PSoC5/RTC_1.c **** *  Calculates required date and flags, sets interrupt vector and priority.
 366:.\Generated_Source\PSoC5/RTC_1.c **** *
 367:.\Generated_Source\PSoC5/RTC_1.c **** * Parameters:
 368:.\Generated_Source\PSoC5/RTC_1.c **** *  None.
 369:.\Generated_Source\PSoC5/RTC_1.c **** *
 370:.\Generated_Source\PSoC5/RTC_1.c **** * Return:
 371:.\Generated_Source\PSoC5/RTC_1.c **** *  None.
 372:.\Generated_Source\PSoC5/RTC_1.c **** *
 373:.\Generated_Source\PSoC5/RTC_1.c **** * Global variables:
 374:.\Generated_Source\PSoC5/RTC_1.c **** *  RTC_1_currentTimeDate, RTC_1_dstTimeDateStart,
 375:.\Generated_Source\PSoC5/RTC_1.c **** *  RTC_1_dstTimeDateStop, RTC_1_dstTimeDateStart,
 376:.\Generated_Source\PSoC5/RTC_1.c **** *  RTC_1_alarmCfgTimeDate, RTC_1_statusDateTime,
 377:.\Generated_Source\PSoC5/RTC_1.c **** *  RTC_1_dstStartStatus, RTC_1_dstStartStatus,
 378:.\Generated_Source\PSoC5/RTC_1.c **** *  RTC_1_dstStopStatus, RTC_1_alarmCurStatus:
 379:.\Generated_Source\PSoC5/RTC_1.c **** *  global variables are used by the RTC_1_SetInitValues().
 380:.\Generated_Source\PSoC5/RTC_1.c **** *
 381:.\Generated_Source\PSoC5/RTC_1.c **** *  RTC_1_dstTimeDateStart, RTC_1_currentTimeDate:
 382:.\Generated_Source\PSoC5/RTC_1.c **** *  RTC_1_statusDateTime, RTC_1_dstStartStatus,
 383:.\Generated_Source\PSoC5/RTC_1.c **** *  RTC_1_dstStartStatus, RTC_1_dstStopStatus,
 384:.\Generated_Source\PSoC5/RTC_1.c **** *  RTC_1_alarmCurStatus: are modified by the
 385:.\Generated_Source\PSoC5/RTC_1.c **** *  RTC_1_SetInitValues() function.
 386:.\Generated_Source\PSoC5/RTC_1.c **** *
 387:.\Generated_Source\PSoC5/RTC_1.c **** * Reentrant:
 388:.\Generated_Source\PSoC5/RTC_1.c **** *  No.
 389:.\Generated_Source\PSoC5/RTC_1.c **** *
 390:.\Generated_Source\PSoC5/RTC_1.c **** *******************************************************************************/
 391:.\Generated_Source\PSoC5/RTC_1.c **** void RTC_1_Init(void) 
 392:.\Generated_Source\PSoC5/RTC_1.c **** {
 498              		.loc 1 392 0
 499              		.cfi_startproc
 500              		@ args = 0, pretend = 0, frame = 0
 501              		@ frame_needed = 1, uses_anonymous_args = 0
 502 0000 80B5     		push	{r7, lr}
 503              		.cfi_def_cfa_offset 8
 504              		.cfi_offset 7, -8
 505              		.cfi_offset 14, -4
 506 0002 00AF     		add	r7, sp, #0
 507              		.cfi_def_cfa_register 7
 393:.\Generated_Source\PSoC5/RTC_1.c ****     /* Start calculation of required date and flags */
 394:.\Generated_Source\PSoC5/RTC_1.c ****     RTC_1_SetInitValues();
 508              		.loc 1 394 0
 509 0004 FFF7FEFF 		bl	RTC_1_SetInitValues
 395:.\Generated_Source\PSoC5/RTC_1.c **** 
 396:.\Generated_Source\PSoC5/RTC_1.c ****     /* Disable Interrupt. */
 397:.\Generated_Source\PSoC5/RTC_1.c ****     CyIntDisable(RTC_1_ISR_NUMBER);
 510              		.loc 1 397 0
 511 0008 054B     		ldr	r3, .L26
ARM GAS  C:\Users\glenn\AppData\Local\Temp\ccPIHEU1.s 			page 17


 512 000a 0822     		movs	r2, #8
 513 000c 1A60     		str	r2, [r3]
 398:.\Generated_Source\PSoC5/RTC_1.c **** 
 399:.\Generated_Source\PSoC5/RTC_1.c ****     /* Set the ISR to point to the RTC_SUT_isr Interrupt. */
 400:.\Generated_Source\PSoC5/RTC_1.c ****     (void) CyIntSetVector(RTC_1_ISR_NUMBER, & RTC_1_ISR);
 514              		.loc 1 400 0
 515 000e 0320     		movs	r0, #3
 516 0010 0449     		ldr	r1, .L26+4
 517 0012 FFF7FEFF 		bl	CyIntSetVector
 401:.\Generated_Source\PSoC5/RTC_1.c **** 
 402:.\Generated_Source\PSoC5/RTC_1.c ****     /* Set the priority. */
 403:.\Generated_Source\PSoC5/RTC_1.c ****     CyIntSetPriority(RTC_1_ISR_NUMBER, RTC_1_ISR_PRIORITY);
 518              		.loc 1 403 0
 519 0016 0320     		movs	r0, #3
 520 0018 0721     		movs	r1, #7
 521 001a FFF7FEFF 		bl	CyIntSetPriority
 404:.\Generated_Source\PSoC5/RTC_1.c **** }
 522              		.loc 1 404 0
 523 001e 80BD     		pop	{r7, pc}
 524              	.L27:
 525              		.align	2
 526              	.L26:
 527 0020 80E100E0 		.word	-536813184
 528 0024 00000000 		.word	RTC_1_ISR
 529              		.cfi_endproc
 530              	.LFE5:
 531              		.size	RTC_1_Init, .-RTC_1_Init
 532              		.section	.text.RTC_1_Enable,"ax",%progbits
 533              		.align	2
 534              		.global	RTC_1_Enable
 535              		.thumb
 536              		.thumb_func
 537              		.type	RTC_1_Enable, %function
 538              	RTC_1_Enable:
 539              	.LFB6:
 405:.\Generated_Source\PSoC5/RTC_1.c **** 
 406:.\Generated_Source\PSoC5/RTC_1.c **** 
 407:.\Generated_Source\PSoC5/RTC_1.c **** /*******************************************************************************
 408:.\Generated_Source\PSoC5/RTC_1.c **** * Function Name: RTC_1_Enable
 409:.\Generated_Source\PSoC5/RTC_1.c **** ********************************************************************************
 410:.\Generated_Source\PSoC5/RTC_1.c **** *
 411:.\Generated_Source\PSoC5/RTC_1.c **** * Summary:
 412:.\Generated_Source\PSoC5/RTC_1.c **** *  Enables the interrupts, one pulse per second and interrupt generation on OPPS
 413:.\Generated_Source\PSoC5/RTC_1.c **** *  event.
 414:.\Generated_Source\PSoC5/RTC_1.c **** *
 415:.\Generated_Source\PSoC5/RTC_1.c **** * Parameters:
 416:.\Generated_Source\PSoC5/RTC_1.c **** *  None.
 417:.\Generated_Source\PSoC5/RTC_1.c **** *
 418:.\Generated_Source\PSoC5/RTC_1.c **** * Return:
 419:.\Generated_Source\PSoC5/RTC_1.c **** *  None.
 420:.\Generated_Source\PSoC5/RTC_1.c **** *
 421:.\Generated_Source\PSoC5/RTC_1.c **** * Side Effects:
 422:.\Generated_Source\PSoC5/RTC_1.c **** *  Enables for the one pulse per second and central time wheel signals to wake
 423:.\Generated_Source\PSoC5/RTC_1.c **** *  up device from the low power (Sleep and Alternate Active) modes and leaves
 424:.\Generated_Source\PSoC5/RTC_1.c **** *  them enabled.
 425:.\Generated_Source\PSoC5/RTC_1.c **** *
 426:.\Generated_Source\PSoC5/RTC_1.c **** *******************************************************************************/
ARM GAS  C:\Users\glenn\AppData\Local\Temp\ccPIHEU1.s 			page 18


 427:.\Generated_Source\PSoC5/RTC_1.c **** void RTC_1_Enable(void) 
 428:.\Generated_Source\PSoC5/RTC_1.c **** {
 540              		.loc 1 428 0
 541              		.cfi_startproc
 542              		@ args = 0, pretend = 0, frame = 8
 543              		@ frame_needed = 1, uses_anonymous_args = 0
 544 0000 80B5     		push	{r7, lr}
 545              		.cfi_def_cfa_offset 8
 546              		.cfi_offset 7, -8
 547              		.cfi_offset 14, -4
 548 0002 82B0     		sub	sp, sp, #8
 549              		.cfi_def_cfa_offset 16
 550 0004 00AF     		add	r7, sp, #0
 551              		.cfi_def_cfa_register 7
 429:.\Generated_Source\PSoC5/RTC_1.c ****     uint8 interruptState;
 430:.\Generated_Source\PSoC5/RTC_1.c **** 
 431:.\Generated_Source\PSoC5/RTC_1.c ****     /* Enter critical section */
 432:.\Generated_Source\PSoC5/RTC_1.c ****     interruptState = CyEnterCriticalSection();
 552              		.loc 1 432 0
 553 0006 FFF7FEFF 		bl	CyEnterCriticalSection
 554 000a 0346     		mov	r3, r0
 555 000c FB71     		strb	r3, [r7, #7]
 433:.\Generated_Source\PSoC5/RTC_1.c **** 
 434:.\Generated_Source\PSoC5/RTC_1.c ****     /* Enable one pulse per second event and interrupt */
 435:.\Generated_Source\PSoC5/RTC_1.c ****     RTC_1_OPPS_CFG_REG |= (RTC_1_OPPS_EN_MASK | RTC_1_OPPSIE_EN_MASK);
 556              		.loc 1 435 0
 557 000e 094A     		ldr	r2, .L29
 558 0010 084B     		ldr	r3, .L29
 559 0012 1B78     		ldrb	r3, [r3]
 560 0014 DBB2     		uxtb	r3, r3
 561 0016 43F03003 		orr	r3, r3, #48
 562 001a DBB2     		uxtb	r3, r3
 563 001c 1370     		strb	r3, [r2]
 436:.\Generated_Source\PSoC5/RTC_1.c **** 
 437:.\Generated_Source\PSoC5/RTC_1.c ****     /* Exit critical section */
 438:.\Generated_Source\PSoC5/RTC_1.c ****     CyExitCriticalSection(interruptState);
 564              		.loc 1 438 0
 565 001e FB79     		ldrb	r3, [r7, #7]	@ zero_extendqisi2
 566 0020 1846     		mov	r0, r3
 567 0022 FFF7FEFF 		bl	CyExitCriticalSection
 439:.\Generated_Source\PSoC5/RTC_1.c **** 
 440:.\Generated_Source\PSoC5/RTC_1.c ****     /* Enable interrupt */
 441:.\Generated_Source\PSoC5/RTC_1.c ****     CyIntEnable(RTC_1_ISR_NUMBER);
 568              		.loc 1 441 0
 569 0026 044B     		ldr	r3, .L29+4
 570 0028 0822     		movs	r2, #8
 571 002a 1A60     		str	r2, [r3]
 442:.\Generated_Source\PSoC5/RTC_1.c **** }
 572              		.loc 1 442 0
 573 002c 0837     		adds	r7, r7, #8
 574              		.cfi_def_cfa_offset 8
 575 002e BD46     		mov	sp, r7
 576              		.cfi_def_cfa_register 13
 577              		@ sp needed
 578 0030 80BD     		pop	{r7, pc}
 579              	.L30:
 580 0032 00BF     		.align	2
ARM GAS  C:\Users\glenn\AppData\Local\Temp\ccPIHEU1.s 			page 19


 581              	.L29:
 582 0034 82430040 		.word	1073759106
 583 0038 00E100E0 		.word	-536813312
 584              		.cfi_endproc
 585              	.LFE6:
 586              		.size	RTC_1_Enable, .-RTC_1_Enable
 587              		.section	.text.RTC_1_ReadTime,"ax",%progbits
 588              		.align	2
 589              		.global	RTC_1_ReadTime
 590              		.thumb
 591              		.thumb_func
 592              		.type	RTC_1_ReadTime, %function
 593              	RTC_1_ReadTime:
 594              	.LFB7:
 443:.\Generated_Source\PSoC5/RTC_1.c **** 
 444:.\Generated_Source\PSoC5/RTC_1.c **** 
 445:.\Generated_Source\PSoC5/RTC_1.c **** /*******************************************************************************
 446:.\Generated_Source\PSoC5/RTC_1.c **** * Function Name:   RTC_1_ReadTime
 447:.\Generated_Source\PSoC5/RTC_1.c **** ********************************************************************************
 448:.\Generated_Source\PSoC5/RTC_1.c **** *
 449:.\Generated_Source\PSoC5/RTC_1.c **** * Summary:
 450:.\Generated_Source\PSoC5/RTC_1.c **** *  Returns a pointer to the current time and date structure.
 451:.\Generated_Source\PSoC5/RTC_1.c **** *
 452:.\Generated_Source\PSoC5/RTC_1.c **** * Parameters:
 453:.\Generated_Source\PSoC5/RTC_1.c **** *  None.
 454:.\Generated_Source\PSoC5/RTC_1.c **** *
 455:.\Generated_Source\PSoC5/RTC_1.c **** * Return:
 456:.\Generated_Source\PSoC5/RTC_1.c **** *  RTC_1_currentTimeDate: pointer to the global structure with the
 457:.\Generated_Source\PSoC5/RTC_1.c **** *  current date and time values.
 458:.\Generated_Source\PSoC5/RTC_1.c **** *
 459:.\Generated_Source\PSoC5/RTC_1.c **** * Global variables:
 460:.\Generated_Source\PSoC5/RTC_1.c **** *  RTC_1_currentTimeDate: global variable with current date and
 461:.\Generated_Source\PSoC5/RTC_1.c **** *   time is used.
 462:.\Generated_Source\PSoC5/RTC_1.c **** *
 463:.\Generated_Source\PSoC5/RTC_1.c **** * Side Effects:
 464:.\Generated_Source\PSoC5/RTC_1.c **** *  You should disable the interrupt for the RTC component before calling any
 465:.\Generated_Source\PSoC5/RTC_1.c **** *  read API to avoid an RTC Counter increment in the middle of a time or date
 466:.\Generated_Source\PSoC5/RTC_1.c **** *  read operation. Re-enable the interrupts after the data is read.
 467:.\Generated_Source\PSoC5/RTC_1.c **** *
 468:.\Generated_Source\PSoC5/RTC_1.c **** *******************************************************************************/
 469:.\Generated_Source\PSoC5/RTC_1.c **** RTC_1_TIME_DATE * RTC_1_ReadTime(void) 
 470:.\Generated_Source\PSoC5/RTC_1.c **** {
 595              		.loc 1 470 0
 596              		.cfi_startproc
 597              		@ args = 0, pretend = 0, frame = 0
 598              		@ frame_needed = 1, uses_anonymous_args = 0
 599              		@ link register save eliminated.
 600 0000 80B4     		push	{r7}
 601              		.cfi_def_cfa_offset 4
 602              		.cfi_offset 7, -4
 603 0002 00AF     		add	r7, sp, #0
 604              		.cfi_def_cfa_register 7
 471:.\Generated_Source\PSoC5/RTC_1.c ****     /* Returns a pointer to the current time and date structure */
 472:.\Generated_Source\PSoC5/RTC_1.c ****     return (&RTC_1_currentTimeDate);
 605              		.loc 1 472 0
 606 0004 024B     		ldr	r3, .L33
 473:.\Generated_Source\PSoC5/RTC_1.c **** }
ARM GAS  C:\Users\glenn\AppData\Local\Temp\ccPIHEU1.s 			page 20


 607              		.loc 1 473 0
 608 0006 1846     		mov	r0, r3
 609 0008 BD46     		mov	sp, r7
 610              		.cfi_def_cfa_register 13
 611              		@ sp needed
 612 000a 5DF8047B 		ldr	r7, [sp], #4
 613              		.cfi_restore 7
 614              		.cfi_def_cfa_offset 0
 615 000e 7047     		bx	lr
 616              	.L34:
 617              		.align	2
 618              	.L33:
 619 0010 00000000 		.word	RTC_1_currentTimeDate
 620              		.cfi_endproc
 621              	.LFE7:
 622              		.size	RTC_1_ReadTime, .-RTC_1_ReadTime
 623              		.section	.text.RTC_1_WriteTime,"ax",%progbits
 624              		.align	2
 625              		.global	RTC_1_WriteTime
 626              		.thumb
 627              		.thumb_func
 628              		.type	RTC_1_WriteTime, %function
 629              	RTC_1_WriteTime:
 630              	.LFB8:
 474:.\Generated_Source\PSoC5/RTC_1.c **** 
 475:.\Generated_Source\PSoC5/RTC_1.c **** 
 476:.\Generated_Source\PSoC5/RTC_1.c **** /*******************************************************************************
 477:.\Generated_Source\PSoC5/RTC_1.c **** * Function Name:   RTC_1_WriteTime
 478:.\Generated_Source\PSoC5/RTC_1.c **** ********************************************************************************
 479:.\Generated_Source\PSoC5/RTC_1.c **** *
 480:.\Generated_Source\PSoC5/RTC_1.c **** * Summary:
 481:.\Generated_Source\PSoC5/RTC_1.c **** *  Writes time and date values as current time and date. Only
 482:.\Generated_Source\PSoC5/RTC_1.c **** *  passes Milliseconds(optionally), Seconds, Minutes, Hours, Month,
 483:.\Generated_Source\PSoC5/RTC_1.c **** *  Day Of Month and Year.
 484:.\Generated_Source\PSoC5/RTC_1.c **** *
 485:.\Generated_Source\PSoC5/RTC_1.c **** * Parameters:
 486:.\Generated_Source\PSoC5/RTC_1.c **** *  timeDate: Pointer to RTC_1_TIME_DATE global structure where new
 487:.\Generated_Source\PSoC5/RTC_1.c **** *  values of time and date are stored.
 488:.\Generated_Source\PSoC5/RTC_1.c **** *
 489:.\Generated_Source\PSoC5/RTC_1.c **** * Return:
 490:.\Generated_Source\PSoC5/RTC_1.c **** *  None.
 491:.\Generated_Source\PSoC5/RTC_1.c **** *
 492:.\Generated_Source\PSoC5/RTC_1.c **** * Global variables:
 493:.\Generated_Source\PSoC5/RTC_1.c **** *  RTC_1_currentTimeDate: global structure is modified with the new
 494:.\Generated_Source\PSoC5/RTC_1.c **** *  values of current date and time.
 495:.\Generated_Source\PSoC5/RTC_1.c **** *
 496:.\Generated_Source\PSoC5/RTC_1.c **** * Reentrant:
 497:.\Generated_Source\PSoC5/RTC_1.c **** *  No.
 498:.\Generated_Source\PSoC5/RTC_1.c **** *
 499:.\Generated_Source\PSoC5/RTC_1.c **** *******************************************************************************/
 500:.\Generated_Source\PSoC5/RTC_1.c **** void RTC_1_WriteTime(const RTC_1_TIME_DATE * timeDate)
 501:.\Generated_Source\PSoC5/RTC_1.c ****      
 502:.\Generated_Source\PSoC5/RTC_1.c **** {
 631              		.loc 1 502 0
 632              		.cfi_startproc
 633              		@ args = 0, pretend = 0, frame = 8
 634              		@ frame_needed = 1, uses_anonymous_args = 0
ARM GAS  C:\Users\glenn\AppData\Local\Temp\ccPIHEU1.s 			page 21


 635 0000 80B5     		push	{r7, lr}
 636              		.cfi_def_cfa_offset 8
 637              		.cfi_offset 7, -8
 638              		.cfi_offset 14, -4
 639 0002 82B0     		sub	sp, sp, #8
 640              		.cfi_def_cfa_offset 16
 641 0004 00AF     		add	r7, sp, #0
 642              		.cfi_def_cfa_register 7
 643 0006 7860     		str	r0, [r7, #4]
 503:.\Generated_Source\PSoC5/RTC_1.c ****     /* Disable Interrupt of RTC Component */
 504:.\Generated_Source\PSoC5/RTC_1.c ****     RTC_1_DisableInt();
 644              		.loc 1 504 0
 645 0008 FFF7FEFF 		bl	RTC_1_DisableInt
 505:.\Generated_Source\PSoC5/RTC_1.c **** 
 506:.\Generated_Source\PSoC5/RTC_1.c ****     /* Write current time and date */
 507:.\Generated_Source\PSoC5/RTC_1.c ****     RTC_1_currentTimeDate.Sec = timeDate->Sec;
 646              		.loc 1 507 0
 647 000c 7B68     		ldr	r3, [r7, #4]
 648 000e 1B78     		ldrb	r3, [r3]
 649 0010 DAB2     		uxtb	r2, r3
 650 0012 104B     		ldr	r3, .L36
 651 0014 1A70     		strb	r2, [r3]
 508:.\Generated_Source\PSoC5/RTC_1.c ****     RTC_1_currentTimeDate.Min = timeDate->Min;
 652              		.loc 1 508 0
 653 0016 7B68     		ldr	r3, [r7, #4]
 654 0018 5B78     		ldrb	r3, [r3, #1]
 655 001a DAB2     		uxtb	r2, r3
 656 001c 0D4B     		ldr	r3, .L36
 657 001e 5A70     		strb	r2, [r3, #1]
 509:.\Generated_Source\PSoC5/RTC_1.c ****     RTC_1_currentTimeDate.Hour = timeDate->Hour;
 658              		.loc 1 509 0
 659 0020 7B68     		ldr	r3, [r7, #4]
 660 0022 9B78     		ldrb	r3, [r3, #2]
 661 0024 DAB2     		uxtb	r2, r3
 662 0026 0B4B     		ldr	r3, .L36
 663 0028 9A70     		strb	r2, [r3, #2]
 510:.\Generated_Source\PSoC5/RTC_1.c ****     RTC_1_currentTimeDate.DayOfMonth = timeDate->DayOfMonth;
 664              		.loc 1 510 0
 665 002a 7B68     		ldr	r3, [r7, #4]
 666 002c 1B79     		ldrb	r3, [r3, #4]
 667 002e DAB2     		uxtb	r2, r3
 668 0030 084B     		ldr	r3, .L36
 669 0032 1A71     		strb	r2, [r3, #4]
 511:.\Generated_Source\PSoC5/RTC_1.c ****     RTC_1_currentTimeDate.Month = timeDate->Month;
 670              		.loc 1 511 0
 671 0034 7B68     		ldr	r3, [r7, #4]
 672 0036 1B7A     		ldrb	r3, [r3, #8]
 673 0038 DAB2     		uxtb	r2, r3
 674 003a 064B     		ldr	r3, .L36
 675 003c 1A72     		strb	r2, [r3, #8]
 512:.\Generated_Source\PSoC5/RTC_1.c ****     RTC_1_currentTimeDate.Year = timeDate->Year;
 676              		.loc 1 512 0
 677 003e 7B68     		ldr	r3, [r7, #4]
 678 0040 5B89     		ldrh	r3, [r3, #10]	@ movhi
 679 0042 9AB2     		uxth	r2, r3
 680 0044 034B     		ldr	r3, .L36
 681 0046 5A81     		strh	r2, [r3, #10]	@ movhi
ARM GAS  C:\Users\glenn\AppData\Local\Temp\ccPIHEU1.s 			page 22


 513:.\Generated_Source\PSoC5/RTC_1.c **** 
 514:.\Generated_Source\PSoC5/RTC_1.c ****     /* Enable Interrupt of RTC Component */
 515:.\Generated_Source\PSoC5/RTC_1.c ****     RTC_1_EnableInt();
 682              		.loc 1 515 0
 683 0048 FFF7FEFF 		bl	RTC_1_EnableInt
 516:.\Generated_Source\PSoC5/RTC_1.c **** }
 684              		.loc 1 516 0
 685 004c 0837     		adds	r7, r7, #8
 686              		.cfi_def_cfa_offset 8
 687 004e BD46     		mov	sp, r7
 688              		.cfi_def_cfa_register 13
 689              		@ sp needed
 690 0050 80BD     		pop	{r7, pc}
 691              	.L37:
 692 0052 00BF     		.align	2
 693              	.L36:
 694 0054 00000000 		.word	RTC_1_currentTimeDate
 695              		.cfi_endproc
 696              	.LFE8:
 697              		.size	RTC_1_WriteTime, .-RTC_1_WriteTime
 698              		.section	.text.RTC_1_WriteSecond,"ax",%progbits
 699              		.align	2
 700              		.global	RTC_1_WriteSecond
 701              		.thumb
 702              		.thumb_func
 703              		.type	RTC_1_WriteSecond, %function
 704              	RTC_1_WriteSecond:
 705              	.LFB9:
 517:.\Generated_Source\PSoC5/RTC_1.c **** 
 518:.\Generated_Source\PSoC5/RTC_1.c **** 
 519:.\Generated_Source\PSoC5/RTC_1.c **** /*******************************************************************************
 520:.\Generated_Source\PSoC5/RTC_1.c **** * Function Name:   RTC_1_WriteSecond
 521:.\Generated_Source\PSoC5/RTC_1.c **** ********************************************************************************
 522:.\Generated_Source\PSoC5/RTC_1.c **** *
 523:.\Generated_Source\PSoC5/RTC_1.c **** * Summary:
 524:.\Generated_Source\PSoC5/RTC_1.c **** *  Writes Sec software register value.
 525:.\Generated_Source\PSoC5/RTC_1.c **** *
 526:.\Generated_Source\PSoC5/RTC_1.c **** * Parameters:
 527:.\Generated_Source\PSoC5/RTC_1.c **** *  second: Seconds value.
 528:.\Generated_Source\PSoC5/RTC_1.c **** *
 529:.\Generated_Source\PSoC5/RTC_1.c **** * Return:
 530:.\Generated_Source\PSoC5/RTC_1.c **** *  None.
 531:.\Generated_Source\PSoC5/RTC_1.c **** *
 532:.\Generated_Source\PSoC5/RTC_1.c **** * Global variables:
 533:.\Generated_Source\PSoC5/RTC_1.c **** *  RTC_1_currentTimeDate.Sec: global structure's field where current
 534:.\Generated_Source\PSoC5/RTC_1.c **** *  second's value is modified.
 535:.\Generated_Source\PSoC5/RTC_1.c **** *
 536:.\Generated_Source\PSoC5/RTC_1.c **** * Reentrant:
 537:.\Generated_Source\PSoC5/RTC_1.c **** *  No.
 538:.\Generated_Source\PSoC5/RTC_1.c **** *
 539:.\Generated_Source\PSoC5/RTC_1.c **** *******************************************************************************/
 540:.\Generated_Source\PSoC5/RTC_1.c **** void RTC_1_WriteSecond(uint8 second) 
 541:.\Generated_Source\PSoC5/RTC_1.c **** {
 706              		.loc 1 541 0
 707              		.cfi_startproc
 708              		@ args = 0, pretend = 0, frame = 8
 709              		@ frame_needed = 1, uses_anonymous_args = 0
ARM GAS  C:\Users\glenn\AppData\Local\Temp\ccPIHEU1.s 			page 23


 710              		@ link register save eliminated.
 711 0000 80B4     		push	{r7}
 712              		.cfi_def_cfa_offset 4
 713              		.cfi_offset 7, -4
 714 0002 83B0     		sub	sp, sp, #12
 715              		.cfi_def_cfa_offset 16
 716 0004 00AF     		add	r7, sp, #0
 717              		.cfi_def_cfa_register 7
 718 0006 0346     		mov	r3, r0
 719 0008 FB71     		strb	r3, [r7, #7]
 542:.\Generated_Source\PSoC5/RTC_1.c ****     /* Save seconds to the current time and date structure */
 543:.\Generated_Source\PSoC5/RTC_1.c ****     RTC_1_currentTimeDate.Sec = second;
 720              		.loc 1 543 0
 721 000a 044A     		ldr	r2, .L39
 722 000c FB79     		ldrb	r3, [r7, #7]
 723 000e 1370     		strb	r3, [r2]
 544:.\Generated_Source\PSoC5/RTC_1.c **** }
 724              		.loc 1 544 0
 725 0010 0C37     		adds	r7, r7, #12
 726              		.cfi_def_cfa_offset 4
 727 0012 BD46     		mov	sp, r7
 728              		.cfi_def_cfa_register 13
 729              		@ sp needed
 730 0014 5DF8047B 		ldr	r7, [sp], #4
 731              		.cfi_restore 7
 732              		.cfi_def_cfa_offset 0
 733 0018 7047     		bx	lr
 734              	.L40:
 735 001a 00BF     		.align	2
 736              	.L39:
 737 001c 00000000 		.word	RTC_1_currentTimeDate
 738              		.cfi_endproc
 739              	.LFE9:
 740              		.size	RTC_1_WriteSecond, .-RTC_1_WriteSecond
 741              		.section	.text.RTC_1_WriteMinute,"ax",%progbits
 742              		.align	2
 743              		.global	RTC_1_WriteMinute
 744              		.thumb
 745              		.thumb_func
 746              		.type	RTC_1_WriteMinute, %function
 747              	RTC_1_WriteMinute:
 748              	.LFB10:
 545:.\Generated_Source\PSoC5/RTC_1.c **** 
 546:.\Generated_Source\PSoC5/RTC_1.c **** 
 547:.\Generated_Source\PSoC5/RTC_1.c **** /*******************************************************************************
 548:.\Generated_Source\PSoC5/RTC_1.c **** * Function Name:   RTC_1_WriteMinute
 549:.\Generated_Source\PSoC5/RTC_1.c **** ********************************************************************************
 550:.\Generated_Source\PSoC5/RTC_1.c **** *
 551:.\Generated_Source\PSoC5/RTC_1.c **** * Summary:
 552:.\Generated_Source\PSoC5/RTC_1.c **** *  Writes Minute value in minutes counter register.
 553:.\Generated_Source\PSoC5/RTC_1.c **** *
 554:.\Generated_Source\PSoC5/RTC_1.c **** * Parameters:
 555:.\Generated_Source\PSoC5/RTC_1.c **** *  minute: Minutes value.
 556:.\Generated_Source\PSoC5/RTC_1.c **** *
 557:.\Generated_Source\PSoC5/RTC_1.c **** * Return:
 558:.\Generated_Source\PSoC5/RTC_1.c **** *  None.
 559:.\Generated_Source\PSoC5/RTC_1.c **** *
ARM GAS  C:\Users\glenn\AppData\Local\Temp\ccPIHEU1.s 			page 24


 560:.\Generated_Source\PSoC5/RTC_1.c **** * Global variables:
 561:.\Generated_Source\PSoC5/RTC_1.c **** *  RTC_1_currentTimeDate.Min: global structure's field where
 562:.\Generated_Source\PSoC5/RTC_1.c **** *  current minute's value is modified.
 563:.\Generated_Source\PSoC5/RTC_1.c **** *
 564:.\Generated_Source\PSoC5/RTC_1.c **** * Reentrant:
 565:.\Generated_Source\PSoC5/RTC_1.c **** *  No.
 566:.\Generated_Source\PSoC5/RTC_1.c **** *
 567:.\Generated_Source\PSoC5/RTC_1.c **** *******************************************************************************/
 568:.\Generated_Source\PSoC5/RTC_1.c **** void RTC_1_WriteMinute(uint8 minute) 
 569:.\Generated_Source\PSoC5/RTC_1.c **** {
 749              		.loc 1 569 0
 750              		.cfi_startproc
 751              		@ args = 0, pretend = 0, frame = 8
 752              		@ frame_needed = 1, uses_anonymous_args = 0
 753              		@ link register save eliminated.
 754 0000 80B4     		push	{r7}
 755              		.cfi_def_cfa_offset 4
 756              		.cfi_offset 7, -4
 757 0002 83B0     		sub	sp, sp, #12
 758              		.cfi_def_cfa_offset 16
 759 0004 00AF     		add	r7, sp, #0
 760              		.cfi_def_cfa_register 7
 761 0006 0346     		mov	r3, r0
 762 0008 FB71     		strb	r3, [r7, #7]
 570:.\Generated_Source\PSoC5/RTC_1.c ****     /* Save minutes to the current time and date structure */
 571:.\Generated_Source\PSoC5/RTC_1.c ****     RTC_1_currentTimeDate.Min = minute;
 763              		.loc 1 571 0
 764 000a 044A     		ldr	r2, .L42
 765 000c FB79     		ldrb	r3, [r7, #7]
 766 000e 5370     		strb	r3, [r2, #1]
 572:.\Generated_Source\PSoC5/RTC_1.c **** }
 767              		.loc 1 572 0
 768 0010 0C37     		adds	r7, r7, #12
 769              		.cfi_def_cfa_offset 4
 770 0012 BD46     		mov	sp, r7
 771              		.cfi_def_cfa_register 13
 772              		@ sp needed
 773 0014 5DF8047B 		ldr	r7, [sp], #4
 774              		.cfi_restore 7
 775              		.cfi_def_cfa_offset 0
 776 0018 7047     		bx	lr
 777              	.L43:
 778 001a 00BF     		.align	2
 779              	.L42:
 780 001c 00000000 		.word	RTC_1_currentTimeDate
 781              		.cfi_endproc
 782              	.LFE10:
 783              		.size	RTC_1_WriteMinute, .-RTC_1_WriteMinute
 784              		.section	.text.RTC_1_WriteHour,"ax",%progbits
 785              		.align	2
 786              		.global	RTC_1_WriteHour
 787              		.thumb
 788              		.thumb_func
 789              		.type	RTC_1_WriteHour, %function
 790              	RTC_1_WriteHour:
 791              	.LFB11:
 573:.\Generated_Source\PSoC5/RTC_1.c **** 
ARM GAS  C:\Users\glenn\AppData\Local\Temp\ccPIHEU1.s 			page 25


 574:.\Generated_Source\PSoC5/RTC_1.c **** 
 575:.\Generated_Source\PSoC5/RTC_1.c **** /*******************************************************************************
 576:.\Generated_Source\PSoC5/RTC_1.c **** * Function Name:   RTC_1_WriteHour
 577:.\Generated_Source\PSoC5/RTC_1.c **** ********************************************************************************
 578:.\Generated_Source\PSoC5/RTC_1.c **** *
 579:.\Generated_Source\PSoC5/RTC_1.c **** * Summary:
 580:.\Generated_Source\PSoC5/RTC_1.c **** *  Writes Hour software register value.
 581:.\Generated_Source\PSoC5/RTC_1.c **** *
 582:.\Generated_Source\PSoC5/RTC_1.c **** * Parameters:
 583:.\Generated_Source\PSoC5/RTC_1.c **** *  hour: Hours value.
 584:.\Generated_Source\PSoC5/RTC_1.c **** *
 585:.\Generated_Source\PSoC5/RTC_1.c **** * Return:
 586:.\Generated_Source\PSoC5/RTC_1.c **** *  None.
 587:.\Generated_Source\PSoC5/RTC_1.c **** *
 588:.\Generated_Source\PSoC5/RTC_1.c **** * Global variables:
 589:.\Generated_Source\PSoC5/RTC_1.c **** *  RTC_1_currentTimeDate.Hour: global structure's field where
 590:.\Generated_Source\PSoC5/RTC_1.c **** *  current hour's value is modified.
 591:.\Generated_Source\PSoC5/RTC_1.c **** *
 592:.\Generated_Source\PSoC5/RTC_1.c **** * Reentrant:
 593:.\Generated_Source\PSoC5/RTC_1.c **** *  No.
 594:.\Generated_Source\PSoC5/RTC_1.c **** *
 595:.\Generated_Source\PSoC5/RTC_1.c **** *******************************************************************************/
 596:.\Generated_Source\PSoC5/RTC_1.c **** void RTC_1_WriteHour(uint8 hour) 
 597:.\Generated_Source\PSoC5/RTC_1.c **** {
 792              		.loc 1 597 0
 793              		.cfi_startproc
 794              		@ args = 0, pretend = 0, frame = 8
 795              		@ frame_needed = 1, uses_anonymous_args = 0
 796              		@ link register save eliminated.
 797 0000 80B4     		push	{r7}
 798              		.cfi_def_cfa_offset 4
 799              		.cfi_offset 7, -4
 800 0002 83B0     		sub	sp, sp, #12
 801              		.cfi_def_cfa_offset 16
 802 0004 00AF     		add	r7, sp, #0
 803              		.cfi_def_cfa_register 7
 804 0006 0346     		mov	r3, r0
 805 0008 FB71     		strb	r3, [r7, #7]
 598:.\Generated_Source\PSoC5/RTC_1.c ****     /* Save hours to the current time and date structure */
 599:.\Generated_Source\PSoC5/RTC_1.c ****     RTC_1_currentTimeDate.Hour = hour;
 806              		.loc 1 599 0
 807 000a 044A     		ldr	r2, .L45
 808 000c FB79     		ldrb	r3, [r7, #7]
 809 000e 9370     		strb	r3, [r2, #2]
 600:.\Generated_Source\PSoC5/RTC_1.c **** }
 810              		.loc 1 600 0
 811 0010 0C37     		adds	r7, r7, #12
 812              		.cfi_def_cfa_offset 4
 813 0012 BD46     		mov	sp, r7
 814              		.cfi_def_cfa_register 13
 815              		@ sp needed
 816 0014 5DF8047B 		ldr	r7, [sp], #4
 817              		.cfi_restore 7
 818              		.cfi_def_cfa_offset 0
 819 0018 7047     		bx	lr
 820              	.L46:
 821 001a 00BF     		.align	2
ARM GAS  C:\Users\glenn\AppData\Local\Temp\ccPIHEU1.s 			page 26


 822              	.L45:
 823 001c 00000000 		.word	RTC_1_currentTimeDate
 824              		.cfi_endproc
 825              	.LFE11:
 826              		.size	RTC_1_WriteHour, .-RTC_1_WriteHour
 827              		.section	.text.RTC_1_WriteDayOfMonth,"ax",%progbits
 828              		.align	2
 829              		.global	RTC_1_WriteDayOfMonth
 830              		.thumb
 831              		.thumb_func
 832              		.type	RTC_1_WriteDayOfMonth, %function
 833              	RTC_1_WriteDayOfMonth:
 834              	.LFB12:
 601:.\Generated_Source\PSoC5/RTC_1.c **** 
 602:.\Generated_Source\PSoC5/RTC_1.c **** 
 603:.\Generated_Source\PSoC5/RTC_1.c **** /*******************************************************************************
 604:.\Generated_Source\PSoC5/RTC_1.c **** * Function Name:   RTC_1_WriteDayOfMonth
 605:.\Generated_Source\PSoC5/RTC_1.c **** ********************************************************************************
 606:.\Generated_Source\PSoC5/RTC_1.c **** *
 607:.\Generated_Source\PSoC5/RTC_1.c **** * Summary:
 608:.\Generated_Source\PSoC5/RTC_1.c **** *  Writes DayOfMonth software register value.
 609:.\Generated_Source\PSoC5/RTC_1.c **** *
 610:.\Generated_Source\PSoC5/RTC_1.c **** * Parameters:
 611:.\Generated_Source\PSoC5/RTC_1.c **** *  dayOfMonth: Day Of Month value.
 612:.\Generated_Source\PSoC5/RTC_1.c **** *
 613:.\Generated_Source\PSoC5/RTC_1.c **** * Return:
 614:.\Generated_Source\PSoC5/RTC_1.c **** *  None.
 615:.\Generated_Source\PSoC5/RTC_1.c **** *
 616:.\Generated_Source\PSoC5/RTC_1.c **** * Global variables:
 617:.\Generated_Source\PSoC5/RTC_1.c **** *  RTC_1_currentTimeDate.DayOfMonth: global structure's field where
 618:.\Generated_Source\PSoC5/RTC_1.c **** *  current day of month's value is modified.
 619:.\Generated_Source\PSoC5/RTC_1.c **** *
 620:.\Generated_Source\PSoC5/RTC_1.c **** * Reentrant:
 621:.\Generated_Source\PSoC5/RTC_1.c **** *  No.
 622:.\Generated_Source\PSoC5/RTC_1.c **** *
 623:.\Generated_Source\PSoC5/RTC_1.c **** *******************************************************************************/
 624:.\Generated_Source\PSoC5/RTC_1.c **** void RTC_1_WriteDayOfMonth(uint8 dayOfMonth) 
 625:.\Generated_Source\PSoC5/RTC_1.c **** {
 835              		.loc 1 625 0
 836              		.cfi_startproc
 837              		@ args = 0, pretend = 0, frame = 8
 838              		@ frame_needed = 1, uses_anonymous_args = 0
 839              		@ link register save eliminated.
 840 0000 80B4     		push	{r7}
 841              		.cfi_def_cfa_offset 4
 842              		.cfi_offset 7, -4
 843 0002 83B0     		sub	sp, sp, #12
 844              		.cfi_def_cfa_offset 16
 845 0004 00AF     		add	r7, sp, #0
 846              		.cfi_def_cfa_register 7
 847 0006 0346     		mov	r3, r0
 848 0008 FB71     		strb	r3, [r7, #7]
 626:.\Generated_Source\PSoC5/RTC_1.c ****     /* Save day of month to the current time and date structure */
 627:.\Generated_Source\PSoC5/RTC_1.c ****     RTC_1_currentTimeDate.DayOfMonth = dayOfMonth;
 849              		.loc 1 627 0
 850 000a 044A     		ldr	r2, .L48
 851 000c FB79     		ldrb	r3, [r7, #7]
ARM GAS  C:\Users\glenn\AppData\Local\Temp\ccPIHEU1.s 			page 27


 852 000e 1371     		strb	r3, [r2, #4]
 628:.\Generated_Source\PSoC5/RTC_1.c **** }
 853              		.loc 1 628 0
 854 0010 0C37     		adds	r7, r7, #12
 855              		.cfi_def_cfa_offset 4
 856 0012 BD46     		mov	sp, r7
 857              		.cfi_def_cfa_register 13
 858              		@ sp needed
 859 0014 5DF8047B 		ldr	r7, [sp], #4
 860              		.cfi_restore 7
 861              		.cfi_def_cfa_offset 0
 862 0018 7047     		bx	lr
 863              	.L49:
 864 001a 00BF     		.align	2
 865              	.L48:
 866 001c 00000000 		.word	RTC_1_currentTimeDate
 867              		.cfi_endproc
 868              	.LFE12:
 869              		.size	RTC_1_WriteDayOfMonth, .-RTC_1_WriteDayOfMonth
 870              		.section	.text.RTC_1_WriteMonth,"ax",%progbits
 871              		.align	2
 872              		.global	RTC_1_WriteMonth
 873              		.thumb
 874              		.thumb_func
 875              		.type	RTC_1_WriteMonth, %function
 876              	RTC_1_WriteMonth:
 877              	.LFB13:
 629:.\Generated_Source\PSoC5/RTC_1.c **** 
 630:.\Generated_Source\PSoC5/RTC_1.c **** 
 631:.\Generated_Source\PSoC5/RTC_1.c **** /*******************************************************************************
 632:.\Generated_Source\PSoC5/RTC_1.c **** * Function Name:   RTC_1_WriteMonth
 633:.\Generated_Source\PSoC5/RTC_1.c **** ********************************************************************************
 634:.\Generated_Source\PSoC5/RTC_1.c **** *
 635:.\Generated_Source\PSoC5/RTC_1.c **** * Summary:
 636:.\Generated_Source\PSoC5/RTC_1.c **** *  Writes Month software register value.
 637:.\Generated_Source\PSoC5/RTC_1.c **** *
 638:.\Generated_Source\PSoC5/RTC_1.c **** * Parameters:
 639:.\Generated_Source\PSoC5/RTC_1.c **** *  month: Month value.
 640:.\Generated_Source\PSoC5/RTC_1.c **** *
 641:.\Generated_Source\PSoC5/RTC_1.c **** * Return:
 642:.\Generated_Source\PSoC5/RTC_1.c **** *  None.
 643:.\Generated_Source\PSoC5/RTC_1.c **** *
 644:.\Generated_Source\PSoC5/RTC_1.c **** * Global variables:
 645:.\Generated_Source\PSoC5/RTC_1.c **** *  RTC_1_currentTimeDate.Month: global structure's field where
 646:.\Generated_Source\PSoC5/RTC_1.c **** *  current day of month's value is modified.
 647:.\Generated_Source\PSoC5/RTC_1.c **** *
 648:.\Generated_Source\PSoC5/RTC_1.c **** * Reentrant:
 649:.\Generated_Source\PSoC5/RTC_1.c **** *  No.
 650:.\Generated_Source\PSoC5/RTC_1.c **** *
 651:.\Generated_Source\PSoC5/RTC_1.c **** *******************************************************************************/
 652:.\Generated_Source\PSoC5/RTC_1.c **** void RTC_1_WriteMonth(uint8 month) 
 653:.\Generated_Source\PSoC5/RTC_1.c **** {
 878              		.loc 1 653 0
 879              		.cfi_startproc
 880              		@ args = 0, pretend = 0, frame = 8
 881              		@ frame_needed = 1, uses_anonymous_args = 0
 882              		@ link register save eliminated.
ARM GAS  C:\Users\glenn\AppData\Local\Temp\ccPIHEU1.s 			page 28


 883 0000 80B4     		push	{r7}
 884              		.cfi_def_cfa_offset 4
 885              		.cfi_offset 7, -4
 886 0002 83B0     		sub	sp, sp, #12
 887              		.cfi_def_cfa_offset 16
 888 0004 00AF     		add	r7, sp, #0
 889              		.cfi_def_cfa_register 7
 890 0006 0346     		mov	r3, r0
 891 0008 FB71     		strb	r3, [r7, #7]
 654:.\Generated_Source\PSoC5/RTC_1.c ****     /* Save months to the current time and date structure */
 655:.\Generated_Source\PSoC5/RTC_1.c ****     RTC_1_currentTimeDate.Month = month;
 892              		.loc 1 655 0
 893 000a 044A     		ldr	r2, .L51
 894 000c FB79     		ldrb	r3, [r7, #7]
 895 000e 1372     		strb	r3, [r2, #8]
 656:.\Generated_Source\PSoC5/RTC_1.c **** }
 896              		.loc 1 656 0
 897 0010 0C37     		adds	r7, r7, #12
 898              		.cfi_def_cfa_offset 4
 899 0012 BD46     		mov	sp, r7
 900              		.cfi_def_cfa_register 13
 901              		@ sp needed
 902 0014 5DF8047B 		ldr	r7, [sp], #4
 903              		.cfi_restore 7
 904              		.cfi_def_cfa_offset 0
 905 0018 7047     		bx	lr
 906              	.L52:
 907 001a 00BF     		.align	2
 908              	.L51:
 909 001c 00000000 		.word	RTC_1_currentTimeDate
 910              		.cfi_endproc
 911              	.LFE13:
 912              		.size	RTC_1_WriteMonth, .-RTC_1_WriteMonth
 913              		.section	.text.RTC_1_WriteYear,"ax",%progbits
 914              		.align	2
 915              		.global	RTC_1_WriteYear
 916              		.thumb
 917              		.thumb_func
 918              		.type	RTC_1_WriteYear, %function
 919              	RTC_1_WriteYear:
 920              	.LFB14:
 657:.\Generated_Source\PSoC5/RTC_1.c **** 
 658:.\Generated_Source\PSoC5/RTC_1.c **** 
 659:.\Generated_Source\PSoC5/RTC_1.c **** /*******************************************************************************
 660:.\Generated_Source\PSoC5/RTC_1.c **** * Function Name:   RTC_1_WriteYear
 661:.\Generated_Source\PSoC5/RTC_1.c **** ********************************************************************************
 662:.\Generated_Source\PSoC5/RTC_1.c **** *
 663:.\Generated_Source\PSoC5/RTC_1.c **** * Summary:
 664:.\Generated_Source\PSoC5/RTC_1.c **** *  Writes Year software register value.
 665:.\Generated_Source\PSoC5/RTC_1.c **** *
 666:.\Generated_Source\PSoC5/RTC_1.c **** * Parameters:
 667:.\Generated_Source\PSoC5/RTC_1.c **** *  year: Years value.
 668:.\Generated_Source\PSoC5/RTC_1.c **** *
 669:.\Generated_Source\PSoC5/RTC_1.c **** * Return:
 670:.\Generated_Source\PSoC5/RTC_1.c **** *  None.
 671:.\Generated_Source\PSoC5/RTC_1.c **** *
 672:.\Generated_Source\PSoC5/RTC_1.c **** * Global variables:
ARM GAS  C:\Users\glenn\AppData\Local\Temp\ccPIHEU1.s 			page 29


 673:.\Generated_Source\PSoC5/RTC_1.c **** *  RTC_1_currentTimeDate.Year: global structure's field where
 674:.\Generated_Source\PSoC5/RTC_1.c **** *  current year's value is modified.
 675:.\Generated_Source\PSoC5/RTC_1.c **** *
 676:.\Generated_Source\PSoC5/RTC_1.c **** * Reentrant:
 677:.\Generated_Source\PSoC5/RTC_1.c **** *  No.
 678:.\Generated_Source\PSoC5/RTC_1.c **** *
 679:.\Generated_Source\PSoC5/RTC_1.c **** *******************************************************************************/
 680:.\Generated_Source\PSoC5/RTC_1.c **** void RTC_1_WriteYear(uint16 year) 
 681:.\Generated_Source\PSoC5/RTC_1.c **** {
 921              		.loc 1 681 0
 922              		.cfi_startproc
 923              		@ args = 0, pretend = 0, frame = 8
 924              		@ frame_needed = 1, uses_anonymous_args = 0
 925              		@ link register save eliminated.
 926 0000 80B4     		push	{r7}
 927              		.cfi_def_cfa_offset 4
 928              		.cfi_offset 7, -4
 929 0002 83B0     		sub	sp, sp, #12
 930              		.cfi_def_cfa_offset 16
 931 0004 00AF     		add	r7, sp, #0
 932              		.cfi_def_cfa_register 7
 933 0006 0346     		mov	r3, r0
 934 0008 FB80     		strh	r3, [r7, #6]	@ movhi
 682:.\Generated_Source\PSoC5/RTC_1.c ****     /* Save years to the current time and date structure */
 683:.\Generated_Source\PSoC5/RTC_1.c ****     RTC_1_currentTimeDate.Year = year;
 935              		.loc 1 683 0
 936 000a 044A     		ldr	r2, .L54
 937 000c FB88     		ldrh	r3, [r7, #6]	@ movhi
 938 000e 5381     		strh	r3, [r2, #10]	@ movhi
 684:.\Generated_Source\PSoC5/RTC_1.c **** }
 939              		.loc 1 684 0
 940 0010 0C37     		adds	r7, r7, #12
 941              		.cfi_def_cfa_offset 4
 942 0012 BD46     		mov	sp, r7
 943              		.cfi_def_cfa_register 13
 944              		@ sp needed
 945 0014 5DF8047B 		ldr	r7, [sp], #4
 946              		.cfi_restore 7
 947              		.cfi_def_cfa_offset 0
 948 0018 7047     		bx	lr
 949              	.L55:
 950 001a 00BF     		.align	2
 951              	.L54:
 952 001c 00000000 		.word	RTC_1_currentTimeDate
 953              		.cfi_endproc
 954              	.LFE14:
 955              		.size	RTC_1_WriteYear, .-RTC_1_WriteYear
 956              		.section	.text.RTC_1_WriteAlarmSecond,"ax",%progbits
 957              		.align	2
 958              		.global	RTC_1_WriteAlarmSecond
 959              		.thumb
 960              		.thumb_func
 961              		.type	RTC_1_WriteAlarmSecond, %function
 962              	RTC_1_WriteAlarmSecond:
 963              	.LFB15:
 685:.\Generated_Source\PSoC5/RTC_1.c **** 
 686:.\Generated_Source\PSoC5/RTC_1.c **** 
ARM GAS  C:\Users\glenn\AppData\Local\Temp\ccPIHEU1.s 			page 30


 687:.\Generated_Source\PSoC5/RTC_1.c **** /*******************************************************************************
 688:.\Generated_Source\PSoC5/RTC_1.c **** * Function Name:   RTC_1_WriteAlarmSecond
 689:.\Generated_Source\PSoC5/RTC_1.c **** ********************************************************************************
 690:.\Generated_Source\PSoC5/RTC_1.c **** *
 691:.\Generated_Source\PSoC5/RTC_1.c **** * Summary:
 692:.\Generated_Source\PSoC5/RTC_1.c **** *  Writes Alarm Sec software register value.
 693:.\Generated_Source\PSoC5/RTC_1.c **** *
 694:.\Generated_Source\PSoC5/RTC_1.c **** * Parameters:
 695:.\Generated_Source\PSoC5/RTC_1.c **** *  second: Alarm Seconds value.
 696:.\Generated_Source\PSoC5/RTC_1.c **** *
 697:.\Generated_Source\PSoC5/RTC_1.c **** * Return:
 698:.\Generated_Source\PSoC5/RTC_1.c **** *  None.
 699:.\Generated_Source\PSoC5/RTC_1.c **** *
 700:.\Generated_Source\PSoC5/RTC_1.c **** * Global variables:
 701:.\Generated_Source\PSoC5/RTC_1.c **** *  RTC_1_currentTimeDate.Sec: this global variable is used for
 702:.\Generated_Source\PSoC5/RTC_1.c **** *  comparison while setting and clearing seconds alarm status variable.
 703:.\Generated_Source\PSoC5/RTC_1.c **** *
 704:.\Generated_Source\PSoC5/RTC_1.c **** *  RTC_1_alarmCfgTimeDate.Sec: this global variable is modified to
 705:.\Generated_Source\PSoC5/RTC_1.c **** *  store of the new seconds alarm.
 706:.\Generated_Source\PSoC5/RTC_1.c **** *
 707:.\Generated_Source\PSoC5/RTC_1.c **** *  RTC_1_alarmCurStatus: this global variable could be changed if
 708:.\Generated_Source\PSoC5/RTC_1.c **** *  second's alarm will be raised.
 709:.\Generated_Source\PSoC5/RTC_1.c **** *
 710:.\Generated_Source\PSoC5/RTC_1.c **** * Reentrant:
 711:.\Generated_Source\PSoC5/RTC_1.c **** *  No.
 712:.\Generated_Source\PSoC5/RTC_1.c **** *
 713:.\Generated_Source\PSoC5/RTC_1.c **** *******************************************************************************/
 714:.\Generated_Source\PSoC5/RTC_1.c **** void RTC_1_WriteAlarmSecond(uint8 second) 
 715:.\Generated_Source\PSoC5/RTC_1.c **** {
 964              		.loc 1 715 0
 965              		.cfi_startproc
 966              		@ args = 0, pretend = 0, frame = 8
 967              		@ frame_needed = 1, uses_anonymous_args = 0
 968              		@ link register save eliminated.
 969 0000 80B4     		push	{r7}
 970              		.cfi_def_cfa_offset 4
 971              		.cfi_offset 7, -4
 972 0002 83B0     		sub	sp, sp, #12
 973              		.cfi_def_cfa_offset 16
 974 0004 00AF     		add	r7, sp, #0
 975              		.cfi_def_cfa_register 7
 976 0006 0346     		mov	r3, r0
 977 0008 FB71     		strb	r3, [r7, #7]
 716:.\Generated_Source\PSoC5/RTC_1.c ****     RTC_1_alarmCfgTimeDate.Sec = second;
 978              		.loc 1 716 0
 979 000a 104A     		ldr	r2, .L59
 980 000c FB79     		ldrb	r3, [r7, #7]
 981 000e 1370     		strb	r3, [r2]
 717:.\Generated_Source\PSoC5/RTC_1.c **** 
 718:.\Generated_Source\PSoC5/RTC_1.c ****     /* Check second alarm */
 719:.\Generated_Source\PSoC5/RTC_1.c ****     if(RTC_1_alarmCfgTimeDate.Sec == RTC_1_currentTimeDate.Sec)
 982              		.loc 1 719 0
 983 0010 0E4B     		ldr	r3, .L59
 984 0012 1B78     		ldrb	r3, [r3]
 985 0014 DAB2     		uxtb	r2, r3
 986 0016 0E4B     		ldr	r3, .L59+4
 987 0018 1B78     		ldrb	r3, [r3]
ARM GAS  C:\Users\glenn\AppData\Local\Temp\ccPIHEU1.s 			page 31


 988 001a DBB2     		uxtb	r3, r3
 989 001c 9A42     		cmp	r2, r3
 990 001e 08D1     		bne	.L57
 720:.\Generated_Source\PSoC5/RTC_1.c ****     {
 721:.\Generated_Source\PSoC5/RTC_1.c ****         /* Set second alarm */
 722:.\Generated_Source\PSoC5/RTC_1.c ****         RTC_1_alarmCurStatus |= RTC_1_ALARM_SEC_MASK;
 991              		.loc 1 722 0
 992 0020 0C4B     		ldr	r3, .L59+8
 993 0022 1B78     		ldrb	r3, [r3]
 994 0024 DBB2     		uxtb	r3, r3
 995 0026 43F00103 		orr	r3, r3, #1
 996 002a DAB2     		uxtb	r2, r3
 997 002c 094B     		ldr	r3, .L59+8
 998 002e 1A70     		strb	r2, [r3]
 999 0030 07E0     		b	.L56
 1000              	.L57:
 723:.\Generated_Source\PSoC5/RTC_1.c ****     }
 724:.\Generated_Source\PSoC5/RTC_1.c ****     else /* no second alarm */
 725:.\Generated_Source\PSoC5/RTC_1.c ****     {
 726:.\Generated_Source\PSoC5/RTC_1.c ****         /* Clear second alarm */
 727:.\Generated_Source\PSoC5/RTC_1.c ****         RTC_1_alarmCurStatus &= (uint8)(~RTC_1_ALARM_SEC_MASK);
 1001              		.loc 1 727 0
 1002 0032 084B     		ldr	r3, .L59+8
 1003 0034 1B78     		ldrb	r3, [r3]
 1004 0036 DBB2     		uxtb	r3, r3
 1005 0038 23F00103 		bic	r3, r3, #1
 1006 003c DAB2     		uxtb	r2, r3
 1007 003e 054B     		ldr	r3, .L59+8
 1008 0040 1A70     		strb	r2, [r3]
 1009              	.L56:
 728:.\Generated_Source\PSoC5/RTC_1.c ****     }
 729:.\Generated_Source\PSoC5/RTC_1.c **** }
 1010              		.loc 1 729 0
 1011 0042 0C37     		adds	r7, r7, #12
 1012              		.cfi_def_cfa_offset 4
 1013 0044 BD46     		mov	sp, r7
 1014              		.cfi_def_cfa_register 13
 1015              		@ sp needed
 1016 0046 5DF8047B 		ldr	r7, [sp], #4
 1017              		.cfi_restore 7
 1018              		.cfi_def_cfa_offset 0
 1019 004a 7047     		bx	lr
 1020              	.L60:
 1021              		.align	2
 1022              	.L59:
 1023 004c 00000000 		.word	RTC_1_alarmCfgTimeDate
 1024 0050 00000000 		.word	RTC_1_currentTimeDate
 1025 0054 00000000 		.word	RTC_1_alarmCurStatus
 1026              		.cfi_endproc
 1027              	.LFE15:
 1028              		.size	RTC_1_WriteAlarmSecond, .-RTC_1_WriteAlarmSecond
 1029              		.section	.text.RTC_1_WriteAlarmMinute,"ax",%progbits
 1030              		.align	2
 1031              		.global	RTC_1_WriteAlarmMinute
 1032              		.thumb
 1033              		.thumb_func
 1034              		.type	RTC_1_WriteAlarmMinute, %function
ARM GAS  C:\Users\glenn\AppData\Local\Temp\ccPIHEU1.s 			page 32


 1035              	RTC_1_WriteAlarmMinute:
 1036              	.LFB16:
 730:.\Generated_Source\PSoC5/RTC_1.c **** 
 731:.\Generated_Source\PSoC5/RTC_1.c **** 
 732:.\Generated_Source\PSoC5/RTC_1.c **** /*******************************************************************************
 733:.\Generated_Source\PSoC5/RTC_1.c **** * Function Name:   RTC_1_WriteAlarmMinute
 734:.\Generated_Source\PSoC5/RTC_1.c **** ********************************************************************************
 735:.\Generated_Source\PSoC5/RTC_1.c **** *
 736:.\Generated_Source\PSoC5/RTC_1.c **** * Summary:
 737:.\Generated_Source\PSoC5/RTC_1.c **** *  Writes Alarm Min software register value.
 738:.\Generated_Source\PSoC5/RTC_1.c **** *
 739:.\Generated_Source\PSoC5/RTC_1.c **** * Parameters:
 740:.\Generated_Source\PSoC5/RTC_1.c **** *  minute: Alarm minutes value.
 741:.\Generated_Source\PSoC5/RTC_1.c **** *
 742:.\Generated_Source\PSoC5/RTC_1.c **** * Return:
 743:.\Generated_Source\PSoC5/RTC_1.c **** *  None.
 744:.\Generated_Source\PSoC5/RTC_1.c **** *
 745:.\Generated_Source\PSoC5/RTC_1.c **** * Global variables:
 746:.\Generated_Source\PSoC5/RTC_1.c **** *  RTC_1_currentTimeDate.Min: this global variable is used for
 747:.\Generated_Source\PSoC5/RTC_1.c **** *  comparison while setting and clearing minutes alarm status variable.
 748:.\Generated_Source\PSoC5/RTC_1.c **** *
 749:.\Generated_Source\PSoC5/RTC_1.c **** *  RTC_1_alarmCfgTimeDate.Min: this global variable is modified to
 750:.\Generated_Source\PSoC5/RTC_1.c **** *  store of the new minutes alarm.
 751:.\Generated_Source\PSoC5/RTC_1.c **** *
 752:.\Generated_Source\PSoC5/RTC_1.c **** *  RTC_1_alarmCurStatus: this global variable could be changed if
 753:.\Generated_Source\PSoC5/RTC_1.c **** *  minute's alarm will be raised.
 754:.\Generated_Source\PSoC5/RTC_1.c **** *
 755:.\Generated_Source\PSoC5/RTC_1.c **** * Reentrant:
 756:.\Generated_Source\PSoC5/RTC_1.c **** *  No.
 757:.\Generated_Source\PSoC5/RTC_1.c **** *
 758:.\Generated_Source\PSoC5/RTC_1.c **** *******************************************************************************/
 759:.\Generated_Source\PSoC5/RTC_1.c **** void RTC_1_WriteAlarmMinute(uint8 minute) 
 760:.\Generated_Source\PSoC5/RTC_1.c **** {
 1037              		.loc 1 760 0
 1038              		.cfi_startproc
 1039              		@ args = 0, pretend = 0, frame = 8
 1040              		@ frame_needed = 1, uses_anonymous_args = 0
 1041              		@ link register save eliminated.
 1042 0000 80B4     		push	{r7}
 1043              		.cfi_def_cfa_offset 4
 1044              		.cfi_offset 7, -4
 1045 0002 83B0     		sub	sp, sp, #12
 1046              		.cfi_def_cfa_offset 16
 1047 0004 00AF     		add	r7, sp, #0
 1048              		.cfi_def_cfa_register 7
 1049 0006 0346     		mov	r3, r0
 1050 0008 FB71     		strb	r3, [r7, #7]
 761:.\Generated_Source\PSoC5/RTC_1.c ****     RTC_1_alarmCfgTimeDate.Min = minute;
 1051              		.loc 1 761 0
 1052 000a 104A     		ldr	r2, .L64
 1053 000c FB79     		ldrb	r3, [r7, #7]
 1054 000e 5370     		strb	r3, [r2, #1]
 762:.\Generated_Source\PSoC5/RTC_1.c **** 
 763:.\Generated_Source\PSoC5/RTC_1.c ****     /* Check minute alarm */
 764:.\Generated_Source\PSoC5/RTC_1.c ****     if(RTC_1_alarmCfgTimeDate.Min == RTC_1_currentTimeDate.Min)
 1055              		.loc 1 764 0
 1056 0010 0E4B     		ldr	r3, .L64
ARM GAS  C:\Users\glenn\AppData\Local\Temp\ccPIHEU1.s 			page 33


 1057 0012 5B78     		ldrb	r3, [r3, #1]
 1058 0014 DAB2     		uxtb	r2, r3
 1059 0016 0E4B     		ldr	r3, .L64+4
 1060 0018 5B78     		ldrb	r3, [r3, #1]
 1061 001a DBB2     		uxtb	r3, r3
 1062 001c 9A42     		cmp	r2, r3
 1063 001e 08D1     		bne	.L62
 765:.\Generated_Source\PSoC5/RTC_1.c ****     {
 766:.\Generated_Source\PSoC5/RTC_1.c ****         /* Set minute alarm */
 767:.\Generated_Source\PSoC5/RTC_1.c ****         RTC_1_alarmCurStatus |= RTC_1_ALARM_MIN_MASK;
 1064              		.loc 1 767 0
 1065 0020 0C4B     		ldr	r3, .L64+8
 1066 0022 1B78     		ldrb	r3, [r3]
 1067 0024 DBB2     		uxtb	r3, r3
 1068 0026 43F00203 		orr	r3, r3, #2
 1069 002a DAB2     		uxtb	r2, r3
 1070 002c 094B     		ldr	r3, .L64+8
 1071 002e 1A70     		strb	r2, [r3]
 1072 0030 07E0     		b	.L61
 1073              	.L62:
 768:.\Generated_Source\PSoC5/RTC_1.c ****     }
 769:.\Generated_Source\PSoC5/RTC_1.c ****     else /* no minute alarm */
 770:.\Generated_Source\PSoC5/RTC_1.c ****     {
 771:.\Generated_Source\PSoC5/RTC_1.c ****         /* Clear minute alarm */
 772:.\Generated_Source\PSoC5/RTC_1.c ****         RTC_1_alarmCurStatus &= (uint8)(~RTC_1_ALARM_MIN_MASK);
 1074              		.loc 1 772 0
 1075 0032 084B     		ldr	r3, .L64+8
 1076 0034 1B78     		ldrb	r3, [r3]
 1077 0036 DBB2     		uxtb	r3, r3
 1078 0038 23F00203 		bic	r3, r3, #2
 1079 003c DAB2     		uxtb	r2, r3
 1080 003e 054B     		ldr	r3, .L64+8
 1081 0040 1A70     		strb	r2, [r3]
 1082              	.L61:
 773:.\Generated_Source\PSoC5/RTC_1.c ****     }
 774:.\Generated_Source\PSoC5/RTC_1.c **** }
 1083              		.loc 1 774 0
 1084 0042 0C37     		adds	r7, r7, #12
 1085              		.cfi_def_cfa_offset 4
 1086 0044 BD46     		mov	sp, r7
 1087              		.cfi_def_cfa_register 13
 1088              		@ sp needed
 1089 0046 5DF8047B 		ldr	r7, [sp], #4
 1090              		.cfi_restore 7
 1091              		.cfi_def_cfa_offset 0
 1092 004a 7047     		bx	lr
 1093              	.L65:
 1094              		.align	2
 1095              	.L64:
 1096 004c 00000000 		.word	RTC_1_alarmCfgTimeDate
 1097 0050 00000000 		.word	RTC_1_currentTimeDate
 1098 0054 00000000 		.word	RTC_1_alarmCurStatus
 1099              		.cfi_endproc
 1100              	.LFE16:
 1101              		.size	RTC_1_WriteAlarmMinute, .-RTC_1_WriteAlarmMinute
 1102              		.section	.text.RTC_1_WriteAlarmHour,"ax",%progbits
 1103              		.align	2
ARM GAS  C:\Users\glenn\AppData\Local\Temp\ccPIHEU1.s 			page 34


 1104              		.global	RTC_1_WriteAlarmHour
 1105              		.thumb
 1106              		.thumb_func
 1107              		.type	RTC_1_WriteAlarmHour, %function
 1108              	RTC_1_WriteAlarmHour:
 1109              	.LFB17:
 775:.\Generated_Source\PSoC5/RTC_1.c **** 
 776:.\Generated_Source\PSoC5/RTC_1.c **** 
 777:.\Generated_Source\PSoC5/RTC_1.c **** /*******************************************************************************
 778:.\Generated_Source\PSoC5/RTC_1.c **** * Function Name:   RTC_1_WriteAlarmHour
 779:.\Generated_Source\PSoC5/RTC_1.c **** ********************************************************************************
 780:.\Generated_Source\PSoC5/RTC_1.c **** *
 781:.\Generated_Source\PSoC5/RTC_1.c **** * Summary:
 782:.\Generated_Source\PSoC5/RTC_1.c **** *  Writes Alarm Hour software register value.
 783:.\Generated_Source\PSoC5/RTC_1.c **** *
 784:.\Generated_Source\PSoC5/RTC_1.c **** * Parameters:
 785:.\Generated_Source\PSoC5/RTC_1.c **** *  hour: Alarm hours value.
 786:.\Generated_Source\PSoC5/RTC_1.c **** *
 787:.\Generated_Source\PSoC5/RTC_1.c **** * Return:
 788:.\Generated_Source\PSoC5/RTC_1.c **** *  None.
 789:.\Generated_Source\PSoC5/RTC_1.c **** *
 790:.\Generated_Source\PSoC5/RTC_1.c **** * Global variables:
 791:.\Generated_Source\PSoC5/RTC_1.c **** *  RTC_1_currentTimeDate.Hour: this global variable is used for
 792:.\Generated_Source\PSoC5/RTC_1.c **** *  comparison while setting and clearing hours alarm status variable.
 793:.\Generated_Source\PSoC5/RTC_1.c **** *
 794:.\Generated_Source\PSoC5/RTC_1.c **** *  RTC_1_alarmCfgTimeDate.Hour: this global variable is modified to
 795:.\Generated_Source\PSoC5/RTC_1.c **** *  store of the new hours alarm.
 796:.\Generated_Source\PSoC5/RTC_1.c **** *
 797:.\Generated_Source\PSoC5/RTC_1.c **** *  RTC_1_alarmCurStatus: this global variable could be changed if
 798:.\Generated_Source\PSoC5/RTC_1.c **** *  hours alarm will be raised.
 799:.\Generated_Source\PSoC5/RTC_1.c **** *
 800:.\Generated_Source\PSoC5/RTC_1.c **** * Reentrant:
 801:.\Generated_Source\PSoC5/RTC_1.c **** *  No.
 802:.\Generated_Source\PSoC5/RTC_1.c **** *
 803:.\Generated_Source\PSoC5/RTC_1.c **** *******************************************************************************/
 804:.\Generated_Source\PSoC5/RTC_1.c **** void RTC_1_WriteAlarmHour(uint8 hour) 
 805:.\Generated_Source\PSoC5/RTC_1.c **** {
 1110              		.loc 1 805 0
 1111              		.cfi_startproc
 1112              		@ args = 0, pretend = 0, frame = 8
 1113              		@ frame_needed = 1, uses_anonymous_args = 0
 1114              		@ link register save eliminated.
 1115 0000 80B4     		push	{r7}
 1116              		.cfi_def_cfa_offset 4
 1117              		.cfi_offset 7, -4
 1118 0002 83B0     		sub	sp, sp, #12
 1119              		.cfi_def_cfa_offset 16
 1120 0004 00AF     		add	r7, sp, #0
 1121              		.cfi_def_cfa_register 7
 1122 0006 0346     		mov	r3, r0
 1123 0008 FB71     		strb	r3, [r7, #7]
 806:.\Generated_Source\PSoC5/RTC_1.c ****     RTC_1_alarmCfgTimeDate.Hour = hour;
 1124              		.loc 1 806 0
 1125 000a 104A     		ldr	r2, .L69
 1126 000c FB79     		ldrb	r3, [r7, #7]
 1127 000e 9370     		strb	r3, [r2, #2]
 807:.\Generated_Source\PSoC5/RTC_1.c **** 
ARM GAS  C:\Users\glenn\AppData\Local\Temp\ccPIHEU1.s 			page 35


 808:.\Generated_Source\PSoC5/RTC_1.c ****     /* Check hour alarm */
 809:.\Generated_Source\PSoC5/RTC_1.c ****     if(RTC_1_alarmCfgTimeDate.Hour == RTC_1_currentTimeDate.Hour)
 1128              		.loc 1 809 0
 1129 0010 0E4B     		ldr	r3, .L69
 1130 0012 9B78     		ldrb	r3, [r3, #2]
 1131 0014 DAB2     		uxtb	r2, r3
 1132 0016 0E4B     		ldr	r3, .L69+4
 1133 0018 9B78     		ldrb	r3, [r3, #2]
 1134 001a DBB2     		uxtb	r3, r3
 1135 001c 9A42     		cmp	r2, r3
 1136 001e 08D1     		bne	.L67
 810:.\Generated_Source\PSoC5/RTC_1.c ****     {
 811:.\Generated_Source\PSoC5/RTC_1.c ****         /* Set hour alarm */
 812:.\Generated_Source\PSoC5/RTC_1.c ****         RTC_1_alarmCurStatus |= RTC_1_ALARM_HOUR_MASK;
 1137              		.loc 1 812 0
 1138 0020 0C4B     		ldr	r3, .L69+8
 1139 0022 1B78     		ldrb	r3, [r3]
 1140 0024 DBB2     		uxtb	r3, r3
 1141 0026 43F00403 		orr	r3, r3, #4
 1142 002a DAB2     		uxtb	r2, r3
 1143 002c 094B     		ldr	r3, .L69+8
 1144 002e 1A70     		strb	r2, [r3]
 1145 0030 07E0     		b	.L66
 1146              	.L67:
 813:.\Generated_Source\PSoC5/RTC_1.c ****     }
 814:.\Generated_Source\PSoC5/RTC_1.c ****     else /* no hour alarm */
 815:.\Generated_Source\PSoC5/RTC_1.c ****     {
 816:.\Generated_Source\PSoC5/RTC_1.c ****         /* Clear hour alarm */
 817:.\Generated_Source\PSoC5/RTC_1.c ****         RTC_1_alarmCurStatus &= (uint8)(~RTC_1_ALARM_HOUR_MASK);
 1147              		.loc 1 817 0
 1148 0032 084B     		ldr	r3, .L69+8
 1149 0034 1B78     		ldrb	r3, [r3]
 1150 0036 DBB2     		uxtb	r3, r3
 1151 0038 23F00403 		bic	r3, r3, #4
 1152 003c DAB2     		uxtb	r2, r3
 1153 003e 054B     		ldr	r3, .L69+8
 1154 0040 1A70     		strb	r2, [r3]
 1155              	.L66:
 818:.\Generated_Source\PSoC5/RTC_1.c ****     }
 819:.\Generated_Source\PSoC5/RTC_1.c **** }
 1156              		.loc 1 819 0
 1157 0042 0C37     		adds	r7, r7, #12
 1158              		.cfi_def_cfa_offset 4
 1159 0044 BD46     		mov	sp, r7
 1160              		.cfi_def_cfa_register 13
 1161              		@ sp needed
 1162 0046 5DF8047B 		ldr	r7, [sp], #4
 1163              		.cfi_restore 7
 1164              		.cfi_def_cfa_offset 0
 1165 004a 7047     		bx	lr
 1166              	.L70:
 1167              		.align	2
 1168              	.L69:
 1169 004c 00000000 		.word	RTC_1_alarmCfgTimeDate
 1170 0050 00000000 		.word	RTC_1_currentTimeDate
 1171 0054 00000000 		.word	RTC_1_alarmCurStatus
 1172              		.cfi_endproc
ARM GAS  C:\Users\glenn\AppData\Local\Temp\ccPIHEU1.s 			page 36


 1173              	.LFE17:
 1174              		.size	RTC_1_WriteAlarmHour, .-RTC_1_WriteAlarmHour
 1175              		.section	.text.RTC_1_WriteAlarmDayOfMonth,"ax",%progbits
 1176              		.align	2
 1177              		.global	RTC_1_WriteAlarmDayOfMonth
 1178              		.thumb
 1179              		.thumb_func
 1180              		.type	RTC_1_WriteAlarmDayOfMonth, %function
 1181              	RTC_1_WriteAlarmDayOfMonth:
 1182              	.LFB18:
 820:.\Generated_Source\PSoC5/RTC_1.c **** 
 821:.\Generated_Source\PSoC5/RTC_1.c **** 
 822:.\Generated_Source\PSoC5/RTC_1.c **** /*******************************************************************************
 823:.\Generated_Source\PSoC5/RTC_1.c **** * Function Name:   RTC_1_WriteAlarmDayOfMonth
 824:.\Generated_Source\PSoC5/RTC_1.c **** ********************************************************************************
 825:.\Generated_Source\PSoC5/RTC_1.c **** *
 826:.\Generated_Source\PSoC5/RTC_1.c **** * Summary:
 827:.\Generated_Source\PSoC5/RTC_1.c **** *  Writes Alarm DayOfMonth software register value.
 828:.\Generated_Source\PSoC5/RTC_1.c **** *
 829:.\Generated_Source\PSoC5/RTC_1.c **** * Parameters:
 830:.\Generated_Source\PSoC5/RTC_1.c **** *  dayOfMonth: Alarm day of month value.
 831:.\Generated_Source\PSoC5/RTC_1.c **** *
 832:.\Generated_Source\PSoC5/RTC_1.c **** * Return:
 833:.\Generated_Source\PSoC5/RTC_1.c **** *  None.
 834:.\Generated_Source\PSoC5/RTC_1.c **** *
 835:.\Generated_Source\PSoC5/RTC_1.c **** * Global variables:
 836:.\Generated_Source\PSoC5/RTC_1.c **** *  RTC_1_currentTimeDate.DayOfMonth: this global variable is used for
 837:.\Generated_Source\PSoC5/RTC_1.c **** *  comparison while setting and clearing day of month alarm status variable.
 838:.\Generated_Source\PSoC5/RTC_1.c **** *
 839:.\Generated_Source\PSoC5/RTC_1.c **** *  RTC_1_alarmCfgTimeDate.DayOfMonth: this global variable is
 840:.\Generated_Source\PSoC5/RTC_1.c **** *  modified to store of the new day of month alarm.
 841:.\Generated_Source\PSoC5/RTC_1.c **** *
 842:.\Generated_Source\PSoC5/RTC_1.c **** *  RTC_1_alarmCurStatus: this global variable could be changed if
 843:.\Generated_Source\PSoC5/RTC_1.c **** *  day of month alarm will be raised.
 844:.\Generated_Source\PSoC5/RTC_1.c **** *
 845:.\Generated_Source\PSoC5/RTC_1.c **** * Reentrant:
 846:.\Generated_Source\PSoC5/RTC_1.c **** *  No.
 847:.\Generated_Source\PSoC5/RTC_1.c **** *
 848:.\Generated_Source\PSoC5/RTC_1.c **** *******************************************************************************/
 849:.\Generated_Source\PSoC5/RTC_1.c **** void RTC_1_WriteAlarmDayOfMonth(uint8 dayOfMonth) 
 850:.\Generated_Source\PSoC5/RTC_1.c **** {
 1183              		.loc 1 850 0
 1184              		.cfi_startproc
 1185              		@ args = 0, pretend = 0, frame = 8
 1186              		@ frame_needed = 1, uses_anonymous_args = 0
 1187              		@ link register save eliminated.
 1188 0000 80B4     		push	{r7}
 1189              		.cfi_def_cfa_offset 4
 1190              		.cfi_offset 7, -4
 1191 0002 83B0     		sub	sp, sp, #12
 1192              		.cfi_def_cfa_offset 16
 1193 0004 00AF     		add	r7, sp, #0
 1194              		.cfi_def_cfa_register 7
 1195 0006 0346     		mov	r3, r0
 1196 0008 FB71     		strb	r3, [r7, #7]
 851:.\Generated_Source\PSoC5/RTC_1.c ****     RTC_1_alarmCfgTimeDate.DayOfMonth = dayOfMonth;
 1197              		.loc 1 851 0
ARM GAS  C:\Users\glenn\AppData\Local\Temp\ccPIHEU1.s 			page 37


 1198 000a 104A     		ldr	r2, .L74
 1199 000c FB79     		ldrb	r3, [r7, #7]
 1200 000e 1371     		strb	r3, [r2, #4]
 852:.\Generated_Source\PSoC5/RTC_1.c **** 
 853:.\Generated_Source\PSoC5/RTC_1.c ****     /* Check day of month alarm */
 854:.\Generated_Source\PSoC5/RTC_1.c ****     if(RTC_1_alarmCfgTimeDate.DayOfMonth == RTC_1_currentTimeDate.DayOfMonth)
 1201              		.loc 1 854 0
 1202 0010 0E4B     		ldr	r3, .L74
 1203 0012 1B79     		ldrb	r3, [r3, #4]
 1204 0014 DAB2     		uxtb	r2, r3
 1205 0016 0E4B     		ldr	r3, .L74+4
 1206 0018 1B79     		ldrb	r3, [r3, #4]
 1207 001a DBB2     		uxtb	r3, r3
 1208 001c 9A42     		cmp	r2, r3
 1209 001e 08D1     		bne	.L72
 855:.\Generated_Source\PSoC5/RTC_1.c ****     {
 856:.\Generated_Source\PSoC5/RTC_1.c ****         /* Set day of month alarm */
 857:.\Generated_Source\PSoC5/RTC_1.c ****         RTC_1_alarmCurStatus |= RTC_1_ALARM_DAYOFMONTH_MASK;
 1210              		.loc 1 857 0
 1211 0020 0C4B     		ldr	r3, .L74+8
 1212 0022 1B78     		ldrb	r3, [r3]
 1213 0024 DBB2     		uxtb	r3, r3
 1214 0026 43F01003 		orr	r3, r3, #16
 1215 002a DAB2     		uxtb	r2, r3
 1216 002c 094B     		ldr	r3, .L74+8
 1217 002e 1A70     		strb	r2, [r3]
 1218 0030 07E0     		b	.L71
 1219              	.L72:
 858:.\Generated_Source\PSoC5/RTC_1.c ****     }
 859:.\Generated_Source\PSoC5/RTC_1.c ****     else /* no day of month alarm */
 860:.\Generated_Source\PSoC5/RTC_1.c ****     {
 861:.\Generated_Source\PSoC5/RTC_1.c ****         /* Clear day of month alarm */
 862:.\Generated_Source\PSoC5/RTC_1.c ****         RTC_1_alarmCurStatus &= (uint8)(~RTC_1_ALARM_DAYOFMONTH_MASK);
 1220              		.loc 1 862 0
 1221 0032 084B     		ldr	r3, .L74+8
 1222 0034 1B78     		ldrb	r3, [r3]
 1223 0036 DBB2     		uxtb	r3, r3
 1224 0038 23F01003 		bic	r3, r3, #16
 1225 003c DAB2     		uxtb	r2, r3
 1226 003e 054B     		ldr	r3, .L74+8
 1227 0040 1A70     		strb	r2, [r3]
 1228              	.L71:
 863:.\Generated_Source\PSoC5/RTC_1.c ****     }
 864:.\Generated_Source\PSoC5/RTC_1.c **** }
 1229              		.loc 1 864 0
 1230 0042 0C37     		adds	r7, r7, #12
 1231              		.cfi_def_cfa_offset 4
 1232 0044 BD46     		mov	sp, r7
 1233              		.cfi_def_cfa_register 13
 1234              		@ sp needed
 1235 0046 5DF8047B 		ldr	r7, [sp], #4
 1236              		.cfi_restore 7
 1237              		.cfi_def_cfa_offset 0
 1238 004a 7047     		bx	lr
 1239              	.L75:
 1240              		.align	2
 1241              	.L74:
ARM GAS  C:\Users\glenn\AppData\Local\Temp\ccPIHEU1.s 			page 38


 1242 004c 00000000 		.word	RTC_1_alarmCfgTimeDate
 1243 0050 00000000 		.word	RTC_1_currentTimeDate
 1244 0054 00000000 		.word	RTC_1_alarmCurStatus
 1245              		.cfi_endproc
 1246              	.LFE18:
 1247              		.size	RTC_1_WriteAlarmDayOfMonth, .-RTC_1_WriteAlarmDayOfMonth
 1248              		.section	.text.RTC_1_WriteAlarmMonth,"ax",%progbits
 1249              		.align	2
 1250              		.global	RTC_1_WriteAlarmMonth
 1251              		.thumb
 1252              		.thumb_func
 1253              		.type	RTC_1_WriteAlarmMonth, %function
 1254              	RTC_1_WriteAlarmMonth:
 1255              	.LFB19:
 865:.\Generated_Source\PSoC5/RTC_1.c **** 
 866:.\Generated_Source\PSoC5/RTC_1.c **** 
 867:.\Generated_Source\PSoC5/RTC_1.c **** /*******************************************************************************
 868:.\Generated_Source\PSoC5/RTC_1.c **** * Function Name:   RTC_1_WriteAlarmMonth
 869:.\Generated_Source\PSoC5/RTC_1.c **** ********************************************************************************
 870:.\Generated_Source\PSoC5/RTC_1.c **** *
 871:.\Generated_Source\PSoC5/RTC_1.c **** * Summary:
 872:.\Generated_Source\PSoC5/RTC_1.c **** *  Writes Alarm Month software register value.
 873:.\Generated_Source\PSoC5/RTC_1.c **** *
 874:.\Generated_Source\PSoC5/RTC_1.c **** * Parameters:
 875:.\Generated_Source\PSoC5/RTC_1.c **** *  month: Alarm month value.
 876:.\Generated_Source\PSoC5/RTC_1.c **** *
 877:.\Generated_Source\PSoC5/RTC_1.c **** * Return:
 878:.\Generated_Source\PSoC5/RTC_1.c **** *  None.
 879:.\Generated_Source\PSoC5/RTC_1.c **** *
 880:.\Generated_Source\PSoC5/RTC_1.c **** * Global variables:
 881:.\Generated_Source\PSoC5/RTC_1.c **** *  RTC_1_currentTimeDate.Month: this global variable is used for
 882:.\Generated_Source\PSoC5/RTC_1.c **** *  comparison while setting and clearing month alarm status variable.
 883:.\Generated_Source\PSoC5/RTC_1.c **** *
 884:.\Generated_Source\PSoC5/RTC_1.c **** *  RTC_1_alarmCfgTimeDate.Month: this global variable is modified
 885:.\Generated_Source\PSoC5/RTC_1.c **** *  to store of the new month alarm.
 886:.\Generated_Source\PSoC5/RTC_1.c **** *
 887:.\Generated_Source\PSoC5/RTC_1.c **** *  RTC_1_alarmCurStatus: this global variable could be changed if
 888:.\Generated_Source\PSoC5/RTC_1.c **** *  month alarm will be raised.
 889:.\Generated_Source\PSoC5/RTC_1.c **** *
 890:.\Generated_Source\PSoC5/RTC_1.c **** * Reentrant:
 891:.\Generated_Source\PSoC5/RTC_1.c **** *  No.
 892:.\Generated_Source\PSoC5/RTC_1.c **** *
 893:.\Generated_Source\PSoC5/RTC_1.c **** *******************************************************************************/
 894:.\Generated_Source\PSoC5/RTC_1.c **** void RTC_1_WriteAlarmMonth(uint8 month) 
 895:.\Generated_Source\PSoC5/RTC_1.c **** {
 1256              		.loc 1 895 0
 1257              		.cfi_startproc
 1258              		@ args = 0, pretend = 0, frame = 8
 1259              		@ frame_needed = 1, uses_anonymous_args = 0
 1260              		@ link register save eliminated.
 1261 0000 80B4     		push	{r7}
 1262              		.cfi_def_cfa_offset 4
 1263              		.cfi_offset 7, -4
 1264 0002 83B0     		sub	sp, sp, #12
 1265              		.cfi_def_cfa_offset 16
 1266 0004 00AF     		add	r7, sp, #0
 1267              		.cfi_def_cfa_register 7
ARM GAS  C:\Users\glenn\AppData\Local\Temp\ccPIHEU1.s 			page 39


 1268 0006 0346     		mov	r3, r0
 1269 0008 FB71     		strb	r3, [r7, #7]
 896:.\Generated_Source\PSoC5/RTC_1.c ****     RTC_1_alarmCfgTimeDate.Month = month;
 1270              		.loc 1 896 0
 1271 000a 104A     		ldr	r2, .L79
 1272 000c FB79     		ldrb	r3, [r7, #7]
 1273 000e 1372     		strb	r3, [r2, #8]
 897:.\Generated_Source\PSoC5/RTC_1.c **** 
 898:.\Generated_Source\PSoC5/RTC_1.c ****     /* Check month alarm */
 899:.\Generated_Source\PSoC5/RTC_1.c ****     if(RTC_1_alarmCfgTimeDate.Month == RTC_1_currentTimeDate.Month)
 1274              		.loc 1 899 0
 1275 0010 0E4B     		ldr	r3, .L79
 1276 0012 1B7A     		ldrb	r3, [r3, #8]
 1277 0014 DAB2     		uxtb	r2, r3
 1278 0016 0E4B     		ldr	r3, .L79+4
 1279 0018 1B7A     		ldrb	r3, [r3, #8]
 1280 001a DBB2     		uxtb	r3, r3
 1281 001c 9A42     		cmp	r2, r3
 1282 001e 08D1     		bne	.L77
 900:.\Generated_Source\PSoC5/RTC_1.c ****     {
 901:.\Generated_Source\PSoC5/RTC_1.c ****         /* Set month alarm */
 902:.\Generated_Source\PSoC5/RTC_1.c ****         RTC_1_alarmCurStatus |= RTC_1_ALARM_MONTH_MASK;
 1283              		.loc 1 902 0
 1284 0020 0C4B     		ldr	r3, .L79+8
 1285 0022 1B78     		ldrb	r3, [r3]
 1286 0024 DBB2     		uxtb	r3, r3
 1287 0026 43F04003 		orr	r3, r3, #64
 1288 002a DAB2     		uxtb	r2, r3
 1289 002c 094B     		ldr	r3, .L79+8
 1290 002e 1A70     		strb	r2, [r3]
 1291 0030 07E0     		b	.L76
 1292              	.L77:
 903:.\Generated_Source\PSoC5/RTC_1.c ****     }
 904:.\Generated_Source\PSoC5/RTC_1.c ****     else /* no month alarm */
 905:.\Generated_Source\PSoC5/RTC_1.c ****     {
 906:.\Generated_Source\PSoC5/RTC_1.c ****         /* Clear month alarm */
 907:.\Generated_Source\PSoC5/RTC_1.c ****         RTC_1_alarmCurStatus &= (uint8)(~RTC_1_ALARM_MONTH_MASK);
 1293              		.loc 1 907 0
 1294 0032 084B     		ldr	r3, .L79+8
 1295 0034 1B78     		ldrb	r3, [r3]
 1296 0036 DBB2     		uxtb	r3, r3
 1297 0038 23F04003 		bic	r3, r3, #64
 1298 003c DAB2     		uxtb	r2, r3
 1299 003e 054B     		ldr	r3, .L79+8
 1300 0040 1A70     		strb	r2, [r3]
 1301              	.L76:
 908:.\Generated_Source\PSoC5/RTC_1.c ****     }
 909:.\Generated_Source\PSoC5/RTC_1.c **** }
 1302              		.loc 1 909 0
 1303 0042 0C37     		adds	r7, r7, #12
 1304              		.cfi_def_cfa_offset 4
 1305 0044 BD46     		mov	sp, r7
 1306              		.cfi_def_cfa_register 13
 1307              		@ sp needed
 1308 0046 5DF8047B 		ldr	r7, [sp], #4
 1309              		.cfi_restore 7
 1310              		.cfi_def_cfa_offset 0
ARM GAS  C:\Users\glenn\AppData\Local\Temp\ccPIHEU1.s 			page 40


 1311 004a 7047     		bx	lr
 1312              	.L80:
 1313              		.align	2
 1314              	.L79:
 1315 004c 00000000 		.word	RTC_1_alarmCfgTimeDate
 1316 0050 00000000 		.word	RTC_1_currentTimeDate
 1317 0054 00000000 		.word	RTC_1_alarmCurStatus
 1318              		.cfi_endproc
 1319              	.LFE19:
 1320              		.size	RTC_1_WriteAlarmMonth, .-RTC_1_WriteAlarmMonth
 1321              		.section	.text.RTC_1_WriteAlarmYear,"ax",%progbits
 1322              		.align	2
 1323              		.global	RTC_1_WriteAlarmYear
 1324              		.thumb
 1325              		.thumb_func
 1326              		.type	RTC_1_WriteAlarmYear, %function
 1327              	RTC_1_WriteAlarmYear:
 1328              	.LFB20:
 910:.\Generated_Source\PSoC5/RTC_1.c **** 
 911:.\Generated_Source\PSoC5/RTC_1.c **** 
 912:.\Generated_Source\PSoC5/RTC_1.c **** /*******************************************************************************
 913:.\Generated_Source\PSoC5/RTC_1.c **** * Function Name:   RTC_1_WriteAlarmYear
 914:.\Generated_Source\PSoC5/RTC_1.c **** ********************************************************************************
 915:.\Generated_Source\PSoC5/RTC_1.c **** *
 916:.\Generated_Source\PSoC5/RTC_1.c **** * Summary:
 917:.\Generated_Source\PSoC5/RTC_1.c **** *  Writes Alarm Year software register value.
 918:.\Generated_Source\PSoC5/RTC_1.c **** *
 919:.\Generated_Source\PSoC5/RTC_1.c **** * Parameters:
 920:.\Generated_Source\PSoC5/RTC_1.c **** *  year: Alarm year value.
 921:.\Generated_Source\PSoC5/RTC_1.c **** *
 922:.\Generated_Source\PSoC5/RTC_1.c **** * Return:
 923:.\Generated_Source\PSoC5/RTC_1.c **** *  None.
 924:.\Generated_Source\PSoC5/RTC_1.c **** *
 925:.\Generated_Source\PSoC5/RTC_1.c **** * Global variables:
 926:.\Generated_Source\PSoC5/RTC_1.c **** *  RTC_1_currentTimeDate.Year: this global variable is used for
 927:.\Generated_Source\PSoC5/RTC_1.c **** *  comparison while setting and clearing year alarm status variable.
 928:.\Generated_Source\PSoC5/RTC_1.c **** *
 929:.\Generated_Source\PSoC5/RTC_1.c **** *  RTC_1_alarmCfgTimeDate.Year: this global variable is modified
 930:.\Generated_Source\PSoC5/RTC_1.c **** *  to store of the new year alarm.
 931:.\Generated_Source\PSoC5/RTC_1.c **** *
 932:.\Generated_Source\PSoC5/RTC_1.c **** *  RTC_1_alarmCurStatus: this global variable could be changed if
 933:.\Generated_Source\PSoC5/RTC_1.c **** *  year alarm will be raised.
 934:.\Generated_Source\PSoC5/RTC_1.c **** *
 935:.\Generated_Source\PSoC5/RTC_1.c **** * Reentrant:
 936:.\Generated_Source\PSoC5/RTC_1.c **** *  No.
 937:.\Generated_Source\PSoC5/RTC_1.c **** *
 938:.\Generated_Source\PSoC5/RTC_1.c **** *******************************************************************************/
 939:.\Generated_Source\PSoC5/RTC_1.c **** void RTC_1_WriteAlarmYear(uint16 year) 
 940:.\Generated_Source\PSoC5/RTC_1.c **** {
 1329              		.loc 1 940 0
 1330              		.cfi_startproc
 1331              		@ args = 0, pretend = 0, frame = 8
 1332              		@ frame_needed = 1, uses_anonymous_args = 0
 1333              		@ link register save eliminated.
 1334 0000 80B4     		push	{r7}
 1335              		.cfi_def_cfa_offset 4
 1336              		.cfi_offset 7, -4
ARM GAS  C:\Users\glenn\AppData\Local\Temp\ccPIHEU1.s 			page 41


 1337 0002 83B0     		sub	sp, sp, #12
 1338              		.cfi_def_cfa_offset 16
 1339 0004 00AF     		add	r7, sp, #0
 1340              		.cfi_def_cfa_register 7
 1341 0006 0346     		mov	r3, r0
 1342 0008 FB80     		strh	r3, [r7, #6]	@ movhi
 941:.\Generated_Source\PSoC5/RTC_1.c ****    RTC_1_alarmCfgTimeDate.Year = year;
 1343              		.loc 1 941 0
 1344 000a 104A     		ldr	r2, .L84
 1345 000c FB88     		ldrh	r3, [r7, #6]	@ movhi
 1346 000e 5381     		strh	r3, [r2, #10]	@ movhi
 942:.\Generated_Source\PSoC5/RTC_1.c **** 
 943:.\Generated_Source\PSoC5/RTC_1.c ****     /* Check year alarm */
 944:.\Generated_Source\PSoC5/RTC_1.c ****     if(RTC_1_alarmCfgTimeDate.Year == RTC_1_currentTimeDate.Year)
 1347              		.loc 1 944 0
 1348 0010 0E4B     		ldr	r3, .L84
 1349 0012 5B89     		ldrh	r3, [r3, #10]	@ movhi
 1350 0014 9AB2     		uxth	r2, r3
 1351 0016 0E4B     		ldr	r3, .L84+4
 1352 0018 5B89     		ldrh	r3, [r3, #10]	@ movhi
 1353 001a 9BB2     		uxth	r3, r3
 1354 001c 9A42     		cmp	r2, r3
 1355 001e 08D1     		bne	.L82
 945:.\Generated_Source\PSoC5/RTC_1.c ****     {
 946:.\Generated_Source\PSoC5/RTC_1.c ****         /* Set year alarm */
 947:.\Generated_Source\PSoC5/RTC_1.c ****         RTC_1_alarmCurStatus |= RTC_1_ALARM_YEAR_MASK;
 1356              		.loc 1 947 0
 1357 0020 0C4B     		ldr	r3, .L84+8
 1358 0022 1B78     		ldrb	r3, [r3]
 1359 0024 DBB2     		uxtb	r3, r3
 1360 0026 63F07F03 		orn	r3, r3, #127
 1361 002a DAB2     		uxtb	r2, r3
 1362 002c 094B     		ldr	r3, .L84+8
 1363 002e 1A70     		strb	r2, [r3]
 1364 0030 07E0     		b	.L81
 1365              	.L82:
 948:.\Generated_Source\PSoC5/RTC_1.c ****     }
 949:.\Generated_Source\PSoC5/RTC_1.c ****     else /* no year alarm */
 950:.\Generated_Source\PSoC5/RTC_1.c ****     {
 951:.\Generated_Source\PSoC5/RTC_1.c ****         /* Set year alarm */
 952:.\Generated_Source\PSoC5/RTC_1.c ****         RTC_1_alarmCurStatus &= (uint8)(~RTC_1_ALARM_YEAR_MASK);
 1366              		.loc 1 952 0
 1367 0032 084B     		ldr	r3, .L84+8
 1368 0034 1B78     		ldrb	r3, [r3]
 1369 0036 DBB2     		uxtb	r3, r3
 1370 0038 03F07F03 		and	r3, r3, #127
 1371 003c DAB2     		uxtb	r2, r3
 1372 003e 054B     		ldr	r3, .L84+8
 1373 0040 1A70     		strb	r2, [r3]
 1374              	.L81:
 953:.\Generated_Source\PSoC5/RTC_1.c ****     }
 954:.\Generated_Source\PSoC5/RTC_1.c **** }
 1375              		.loc 1 954 0
 1376 0042 0C37     		adds	r7, r7, #12
 1377              		.cfi_def_cfa_offset 4
 1378 0044 BD46     		mov	sp, r7
 1379              		.cfi_def_cfa_register 13
ARM GAS  C:\Users\glenn\AppData\Local\Temp\ccPIHEU1.s 			page 42


 1380              		@ sp needed
 1381 0046 5DF8047B 		ldr	r7, [sp], #4
 1382              		.cfi_restore 7
 1383              		.cfi_def_cfa_offset 0
 1384 004a 7047     		bx	lr
 1385              	.L85:
 1386              		.align	2
 1387              	.L84:
 1388 004c 00000000 		.word	RTC_1_alarmCfgTimeDate
 1389 0050 00000000 		.word	RTC_1_currentTimeDate
 1390 0054 00000000 		.word	RTC_1_alarmCurStatus
 1391              		.cfi_endproc
 1392              	.LFE20:
 1393              		.size	RTC_1_WriteAlarmYear, .-RTC_1_WriteAlarmYear
 1394              		.section	.text.RTC_1_WriteAlarmDayOfWeek,"ax",%progbits
 1395              		.align	2
 1396              		.global	RTC_1_WriteAlarmDayOfWeek
 1397              		.thumb
 1398              		.thumb_func
 1399              		.type	RTC_1_WriteAlarmDayOfWeek, %function
 1400              	RTC_1_WriteAlarmDayOfWeek:
 1401              	.LFB21:
 955:.\Generated_Source\PSoC5/RTC_1.c **** 
 956:.\Generated_Source\PSoC5/RTC_1.c **** 
 957:.\Generated_Source\PSoC5/RTC_1.c **** /*******************************************************************************
 958:.\Generated_Source\PSoC5/RTC_1.c **** * Function Name:   RTC_1_WriteAlarmDayOfWeek
 959:.\Generated_Source\PSoC5/RTC_1.c **** ********************************************************************************
 960:.\Generated_Source\PSoC5/RTC_1.c **** *
 961:.\Generated_Source\PSoC5/RTC_1.c **** * Summary:
 962:.\Generated_Source\PSoC5/RTC_1.c **** *   Writes Alarm DayOfWeek software register value.
 963:.\Generated_Source\PSoC5/RTC_1.c **** *   Days values {Sun = 1, Mon = 2, Tue = 3, Wen = 4, Thu = 5, Fri = 6, Sat = 7}
 964:.\Generated_Source\PSoC5/RTC_1.c **** *
 965:.\Generated_Source\PSoC5/RTC_1.c **** * Parameters:
 966:.\Generated_Source\PSoC5/RTC_1.c **** *  dayOfWeek: Alarm day of week value.
 967:.\Generated_Source\PSoC5/RTC_1.c **** *
 968:.\Generated_Source\PSoC5/RTC_1.c **** * Return:
 969:.\Generated_Source\PSoC5/RTC_1.c **** *  None.
 970:.\Generated_Source\PSoC5/RTC_1.c **** *
 971:.\Generated_Source\PSoC5/RTC_1.c **** * Global variables:
 972:.\Generated_Source\PSoC5/RTC_1.c **** *  RTC_1_currentTimeDate.DayOfWeek: this global variable is used for
 973:.\Generated_Source\PSoC5/RTC_1.c **** *  comparison while setting and clearing day of week alarm status variable.
 974:.\Generated_Source\PSoC5/RTC_1.c **** *
 975:.\Generated_Source\PSoC5/RTC_1.c **** *  RTC_1_alarmCfgTimeDate.DayOfWeek: this global variable is modified
 976:.\Generated_Source\PSoC5/RTC_1.c **** *  to store of the new day of week alarm.
 977:.\Generated_Source\PSoC5/RTC_1.c **** *
 978:.\Generated_Source\PSoC5/RTC_1.c **** *  RTC_1_alarmCurStatus: this global variable could be changed if
 979:.\Generated_Source\PSoC5/RTC_1.c **** *  day of week alarm will be raised.
 980:.\Generated_Source\PSoC5/RTC_1.c **** *
 981:.\Generated_Source\PSoC5/RTC_1.c **** * Reentrant:
 982:.\Generated_Source\PSoC5/RTC_1.c **** *  No.
 983:.\Generated_Source\PSoC5/RTC_1.c **** *
 984:.\Generated_Source\PSoC5/RTC_1.c **** *******************************************************************************/
 985:.\Generated_Source\PSoC5/RTC_1.c **** void RTC_1_WriteAlarmDayOfWeek(uint8 dayOfWeek) 
 986:.\Generated_Source\PSoC5/RTC_1.c **** {
 1402              		.loc 1 986 0
 1403              		.cfi_startproc
 1404              		@ args = 0, pretend = 0, frame = 8
ARM GAS  C:\Users\glenn\AppData\Local\Temp\ccPIHEU1.s 			page 43


 1405              		@ frame_needed = 1, uses_anonymous_args = 0
 1406              		@ link register save eliminated.
 1407 0000 80B4     		push	{r7}
 1408              		.cfi_def_cfa_offset 4
 1409              		.cfi_offset 7, -4
 1410 0002 83B0     		sub	sp, sp, #12
 1411              		.cfi_def_cfa_offset 16
 1412 0004 00AF     		add	r7, sp, #0
 1413              		.cfi_def_cfa_register 7
 1414 0006 0346     		mov	r3, r0
 1415 0008 FB71     		strb	r3, [r7, #7]
 987:.\Generated_Source\PSoC5/RTC_1.c ****     RTC_1_alarmCfgTimeDate.DayOfWeek = dayOfWeek;
 1416              		.loc 1 987 0
 1417 000a 104A     		ldr	r2, .L89
 1418 000c FB79     		ldrb	r3, [r7, #7]
 1419 000e D370     		strb	r3, [r2, #3]
 988:.\Generated_Source\PSoC5/RTC_1.c **** 
 989:.\Generated_Source\PSoC5/RTC_1.c ****     /* Check day of week alarm */
 990:.\Generated_Source\PSoC5/RTC_1.c ****     if(RTC_1_alarmCfgTimeDate.DayOfWeek == RTC_1_currentTimeDate.DayOfWeek)
 1420              		.loc 1 990 0
 1421 0010 0E4B     		ldr	r3, .L89
 1422 0012 DB78     		ldrb	r3, [r3, #3]
 1423 0014 DAB2     		uxtb	r2, r3
 1424 0016 0E4B     		ldr	r3, .L89+4
 1425 0018 DB78     		ldrb	r3, [r3, #3]
 1426 001a DBB2     		uxtb	r3, r3
 1427 001c 9A42     		cmp	r2, r3
 1428 001e 08D1     		bne	.L87
 991:.\Generated_Source\PSoC5/RTC_1.c ****     {
 992:.\Generated_Source\PSoC5/RTC_1.c ****         /* Set day of week alarm */
 993:.\Generated_Source\PSoC5/RTC_1.c ****         RTC_1_alarmCurStatus |= RTC_1_ALARM_DAYOFWEEK_MASK;
 1429              		.loc 1 993 0
 1430 0020 0C4B     		ldr	r3, .L89+8
 1431 0022 1B78     		ldrb	r3, [r3]
 1432 0024 DBB2     		uxtb	r3, r3
 1433 0026 43F00803 		orr	r3, r3, #8
 1434 002a DAB2     		uxtb	r2, r3
 1435 002c 094B     		ldr	r3, .L89+8
 1436 002e 1A70     		strb	r2, [r3]
 1437 0030 07E0     		b	.L86
 1438              	.L87:
 994:.\Generated_Source\PSoC5/RTC_1.c ****     }
 995:.\Generated_Source\PSoC5/RTC_1.c ****     else /* no day of week alarm */
 996:.\Generated_Source\PSoC5/RTC_1.c ****     {
 997:.\Generated_Source\PSoC5/RTC_1.c ****         /* Set day of week alarm */
 998:.\Generated_Source\PSoC5/RTC_1.c ****         RTC_1_alarmCurStatus &= (uint8)(~RTC_1_ALARM_DAYOFWEEK_MASK);
 1439              		.loc 1 998 0
 1440 0032 084B     		ldr	r3, .L89+8
 1441 0034 1B78     		ldrb	r3, [r3]
 1442 0036 DBB2     		uxtb	r3, r3
 1443 0038 23F00803 		bic	r3, r3, #8
 1444 003c DAB2     		uxtb	r2, r3
 1445 003e 054B     		ldr	r3, .L89+8
 1446 0040 1A70     		strb	r2, [r3]
 1447              	.L86:
 999:.\Generated_Source\PSoC5/RTC_1.c ****     }
1000:.\Generated_Source\PSoC5/RTC_1.c **** }
ARM GAS  C:\Users\glenn\AppData\Local\Temp\ccPIHEU1.s 			page 44


 1448              		.loc 1 1000 0
 1449 0042 0C37     		adds	r7, r7, #12
 1450              		.cfi_def_cfa_offset 4
 1451 0044 BD46     		mov	sp, r7
 1452              		.cfi_def_cfa_register 13
 1453              		@ sp needed
 1454 0046 5DF8047B 		ldr	r7, [sp], #4
 1455              		.cfi_restore 7
 1456              		.cfi_def_cfa_offset 0
 1457 004a 7047     		bx	lr
 1458              	.L90:
 1459              		.align	2
 1460              	.L89:
 1461 004c 00000000 		.word	RTC_1_alarmCfgTimeDate
 1462 0050 00000000 		.word	RTC_1_currentTimeDate
 1463 0054 00000000 		.word	RTC_1_alarmCurStatus
 1464              		.cfi_endproc
 1465              	.LFE21:
 1466              		.size	RTC_1_WriteAlarmDayOfWeek, .-RTC_1_WriteAlarmDayOfWeek
 1467              		.section	.text.RTC_1_WriteAlarmDayOfYear,"ax",%progbits
 1468              		.align	2
 1469              		.global	RTC_1_WriteAlarmDayOfYear
 1470              		.thumb
 1471              		.thumb_func
 1472              		.type	RTC_1_WriteAlarmDayOfYear, %function
 1473              	RTC_1_WriteAlarmDayOfYear:
 1474              	.LFB22:
1001:.\Generated_Source\PSoC5/RTC_1.c **** 
1002:.\Generated_Source\PSoC5/RTC_1.c **** 
1003:.\Generated_Source\PSoC5/RTC_1.c **** /*******************************************************************************
1004:.\Generated_Source\PSoC5/RTC_1.c **** * Function Name:   RTC_1_WriteAlarmDayOfYear
1005:.\Generated_Source\PSoC5/RTC_1.c **** ********************************************************************************
1006:.\Generated_Source\PSoC5/RTC_1.c **** *
1007:.\Generated_Source\PSoC5/RTC_1.c **** * Summary:
1008:.\Generated_Source\PSoC5/RTC_1.c **** *  Writes Alarm DayOfYear software register value.
1009:.\Generated_Source\PSoC5/RTC_1.c **** *
1010:.\Generated_Source\PSoC5/RTC_1.c **** * Parameters:
1011:.\Generated_Source\PSoC5/RTC_1.c **** *  dayOfYear: Alarm day of year value.
1012:.\Generated_Source\PSoC5/RTC_1.c **** *
1013:.\Generated_Source\PSoC5/RTC_1.c **** * Return:
1014:.\Generated_Source\PSoC5/RTC_1.c **** *  None.
1015:.\Generated_Source\PSoC5/RTC_1.c **** *
1016:.\Generated_Source\PSoC5/RTC_1.c **** * Global variables:
1017:.\Generated_Source\PSoC5/RTC_1.c **** *  RTC_1_currentTimeDate.DayOfYear: this global variable is used for
1018:.\Generated_Source\PSoC5/RTC_1.c **** *  comparison while setting and clearing day of year alarm status variable.
1019:.\Generated_Source\PSoC5/RTC_1.c **** *
1020:.\Generated_Source\PSoC5/RTC_1.c **** *  RTC_1_alarmCfgTimeDate.DayOfYear: this global variable is modified
1021:.\Generated_Source\PSoC5/RTC_1.c **** *  to store of the new day of year alarm.
1022:.\Generated_Source\PSoC5/RTC_1.c **** *
1023:.\Generated_Source\PSoC5/RTC_1.c **** *  RTC_1_alarmCurStatus: this global variable could be changed if
1024:.\Generated_Source\PSoC5/RTC_1.c **** *  day of year alarm will be raised.
1025:.\Generated_Source\PSoC5/RTC_1.c **** *
1026:.\Generated_Source\PSoC5/RTC_1.c **** * Reentrant:
1027:.\Generated_Source\PSoC5/RTC_1.c **** *  No.
1028:.\Generated_Source\PSoC5/RTC_1.c **** *
1029:.\Generated_Source\PSoC5/RTC_1.c **** *******************************************************************************/
1030:.\Generated_Source\PSoC5/RTC_1.c **** void RTC_1_WriteAlarmDayOfYear(uint16 dayOfYear) 
ARM GAS  C:\Users\glenn\AppData\Local\Temp\ccPIHEU1.s 			page 45


1031:.\Generated_Source\PSoC5/RTC_1.c **** {
 1475              		.loc 1 1031 0
 1476              		.cfi_startproc
 1477              		@ args = 0, pretend = 0, frame = 8
 1478              		@ frame_needed = 1, uses_anonymous_args = 0
 1479              		@ link register save eliminated.
 1480 0000 80B4     		push	{r7}
 1481              		.cfi_def_cfa_offset 4
 1482              		.cfi_offset 7, -4
 1483 0002 83B0     		sub	sp, sp, #12
 1484              		.cfi_def_cfa_offset 16
 1485 0004 00AF     		add	r7, sp, #0
 1486              		.cfi_def_cfa_register 7
 1487 0006 0346     		mov	r3, r0
 1488 0008 FB80     		strh	r3, [r7, #6]	@ movhi
1032:.\Generated_Source\PSoC5/RTC_1.c ****   RTC_1_alarmCfgTimeDate.DayOfYear = dayOfYear;
 1489              		.loc 1 1032 0
 1490 000a 104A     		ldr	r2, .L94
 1491 000c FB88     		ldrh	r3, [r7, #6]	@ movhi
 1492 000e D380     		strh	r3, [r2, #6]	@ movhi
1033:.\Generated_Source\PSoC5/RTC_1.c **** 
1034:.\Generated_Source\PSoC5/RTC_1.c ****     /* Check day of year alarm */
1035:.\Generated_Source\PSoC5/RTC_1.c ****     if(RTC_1_alarmCfgTimeDate.DayOfYear == RTC_1_currentTimeDate.DayOfYear)
 1493              		.loc 1 1035 0
 1494 0010 0E4B     		ldr	r3, .L94
 1495 0012 DB88     		ldrh	r3, [r3, #6]	@ movhi
 1496 0014 9AB2     		uxth	r2, r3
 1497 0016 0E4B     		ldr	r3, .L94+4
 1498 0018 DB88     		ldrh	r3, [r3, #6]	@ movhi
 1499 001a 9BB2     		uxth	r3, r3
 1500 001c 9A42     		cmp	r2, r3
 1501 001e 08D1     		bne	.L92
1036:.\Generated_Source\PSoC5/RTC_1.c ****     {
1037:.\Generated_Source\PSoC5/RTC_1.c ****         /* Set day of year alarm */
1038:.\Generated_Source\PSoC5/RTC_1.c ****         RTC_1_alarmCurStatus |= RTC_1_ALARM_DAYOFYEAR_MASK;
 1502              		.loc 1 1038 0
 1503 0020 0C4B     		ldr	r3, .L94+8
 1504 0022 1B78     		ldrb	r3, [r3]
 1505 0024 DBB2     		uxtb	r3, r3
 1506 0026 43F02003 		orr	r3, r3, #32
 1507 002a DAB2     		uxtb	r2, r3
 1508 002c 094B     		ldr	r3, .L94+8
 1509 002e 1A70     		strb	r2, [r3]
 1510 0030 07E0     		b	.L91
 1511              	.L92:
1039:.\Generated_Source\PSoC5/RTC_1.c ****     }
1040:.\Generated_Source\PSoC5/RTC_1.c ****     else /* no day of year alarm */
1041:.\Generated_Source\PSoC5/RTC_1.c ****     {
1042:.\Generated_Source\PSoC5/RTC_1.c ****         /* Set day of year alarm */
1043:.\Generated_Source\PSoC5/RTC_1.c ****         RTC_1_alarmCurStatus &= (uint8)(~RTC_1_ALARM_DAYOFYEAR_MASK);
 1512              		.loc 1 1043 0
 1513 0032 084B     		ldr	r3, .L94+8
 1514 0034 1B78     		ldrb	r3, [r3]
 1515 0036 DBB2     		uxtb	r3, r3
 1516 0038 23F02003 		bic	r3, r3, #32
 1517 003c DAB2     		uxtb	r2, r3
 1518 003e 054B     		ldr	r3, .L94+8
ARM GAS  C:\Users\glenn\AppData\Local\Temp\ccPIHEU1.s 			page 46


 1519 0040 1A70     		strb	r2, [r3]
 1520              	.L91:
1044:.\Generated_Source\PSoC5/RTC_1.c ****     }
1045:.\Generated_Source\PSoC5/RTC_1.c **** }
 1521              		.loc 1 1045 0
 1522 0042 0C37     		adds	r7, r7, #12
 1523              		.cfi_def_cfa_offset 4
 1524 0044 BD46     		mov	sp, r7
 1525              		.cfi_def_cfa_register 13
 1526              		@ sp needed
 1527 0046 5DF8047B 		ldr	r7, [sp], #4
 1528              		.cfi_restore 7
 1529              		.cfi_def_cfa_offset 0
 1530 004a 7047     		bx	lr
 1531              	.L95:
 1532              		.align	2
 1533              	.L94:
 1534 004c 00000000 		.word	RTC_1_alarmCfgTimeDate
 1535 0050 00000000 		.word	RTC_1_currentTimeDate
 1536 0054 00000000 		.word	RTC_1_alarmCurStatus
 1537              		.cfi_endproc
 1538              	.LFE22:
 1539              		.size	RTC_1_WriteAlarmDayOfYear, .-RTC_1_WriteAlarmDayOfYear
 1540              		.section	.text.RTC_1_ReadSecond,"ax",%progbits
 1541              		.align	2
 1542              		.global	RTC_1_ReadSecond
 1543              		.thumb
 1544              		.thumb_func
 1545              		.type	RTC_1_ReadSecond, %function
 1546              	RTC_1_ReadSecond:
 1547              	.LFB23:
1046:.\Generated_Source\PSoC5/RTC_1.c **** 
1047:.\Generated_Source\PSoC5/RTC_1.c **** 
1048:.\Generated_Source\PSoC5/RTC_1.c **** /*******************************************************************************
1049:.\Generated_Source\PSoC5/RTC_1.c **** * Function Name:   RTC_1_ReadSecond
1050:.\Generated_Source\PSoC5/RTC_1.c **** ********************************************************************************
1051:.\Generated_Source\PSoC5/RTC_1.c **** *
1052:.\Generated_Source\PSoC5/RTC_1.c **** * Summary:
1053:.\Generated_Source\PSoC5/RTC_1.c **** *  Reads Sec software register value.
1054:.\Generated_Source\PSoC5/RTC_1.c **** *
1055:.\Generated_Source\PSoC5/RTC_1.c **** * Parameters:
1056:.\Generated_Source\PSoC5/RTC_1.c **** *  None.
1057:.\Generated_Source\PSoC5/RTC_1.c **** *
1058:.\Generated_Source\PSoC5/RTC_1.c **** * Return:
1059:.\Generated_Source\PSoC5/RTC_1.c **** *  Current seconds value.
1060:.\Generated_Source\PSoC5/RTC_1.c **** *
1061:.\Generated_Source\PSoC5/RTC_1.c **** * Global variables:
1062:.\Generated_Source\PSoC5/RTC_1.c **** *  RTC_1_currentTimeDate.Sec: the current second's value is used.
1063:.\Generated_Source\PSoC5/RTC_1.c **** *
1064:.\Generated_Source\PSoC5/RTC_1.c **** *******************************************************************************/
1065:.\Generated_Source\PSoC5/RTC_1.c **** uint8 RTC_1_ReadSecond(void) 
1066:.\Generated_Source\PSoC5/RTC_1.c **** {
 1548              		.loc 1 1066 0
 1549              		.cfi_startproc
 1550              		@ args = 0, pretend = 0, frame = 0
 1551              		@ frame_needed = 1, uses_anonymous_args = 0
 1552              		@ link register save eliminated.
ARM GAS  C:\Users\glenn\AppData\Local\Temp\ccPIHEU1.s 			page 47


 1553 0000 80B4     		push	{r7}
 1554              		.cfi_def_cfa_offset 4
 1555              		.cfi_offset 7, -4
 1556 0002 00AF     		add	r7, sp, #0
 1557              		.cfi_def_cfa_register 7
1067:.\Generated_Source\PSoC5/RTC_1.c ****     /* Return current second */
1068:.\Generated_Source\PSoC5/RTC_1.c ****     return (RTC_1_currentTimeDate.Sec);
 1558              		.loc 1 1068 0
 1559 0004 034B     		ldr	r3, .L98
 1560 0006 1B78     		ldrb	r3, [r3]
 1561 0008 DBB2     		uxtb	r3, r3
1069:.\Generated_Source\PSoC5/RTC_1.c **** }
 1562              		.loc 1 1069 0
 1563 000a 1846     		mov	r0, r3
 1564 000c BD46     		mov	sp, r7
 1565              		.cfi_def_cfa_register 13
 1566              		@ sp needed
 1567 000e 5DF8047B 		ldr	r7, [sp], #4
 1568              		.cfi_restore 7
 1569              		.cfi_def_cfa_offset 0
 1570 0012 7047     		bx	lr
 1571              	.L99:
 1572              		.align	2
 1573              	.L98:
 1574 0014 00000000 		.word	RTC_1_currentTimeDate
 1575              		.cfi_endproc
 1576              	.LFE23:
 1577              		.size	RTC_1_ReadSecond, .-RTC_1_ReadSecond
 1578              		.section	.text.RTC_1_ReadMinute,"ax",%progbits
 1579              		.align	2
 1580              		.global	RTC_1_ReadMinute
 1581              		.thumb
 1582              		.thumb_func
 1583              		.type	RTC_1_ReadMinute, %function
 1584              	RTC_1_ReadMinute:
 1585              	.LFB24:
1070:.\Generated_Source\PSoC5/RTC_1.c **** 
1071:.\Generated_Source\PSoC5/RTC_1.c **** 
1072:.\Generated_Source\PSoC5/RTC_1.c **** /*******************************************************************************
1073:.\Generated_Source\PSoC5/RTC_1.c **** * Function Name:   RTC_1_ReadMinute
1074:.\Generated_Source\PSoC5/RTC_1.c **** ********************************************************************************
1075:.\Generated_Source\PSoC5/RTC_1.c **** *
1076:.\Generated_Source\PSoC5/RTC_1.c **** * Summary:
1077:.\Generated_Source\PSoC5/RTC_1.c **** *  Reads Min software register value.
1078:.\Generated_Source\PSoC5/RTC_1.c **** *
1079:.\Generated_Source\PSoC5/RTC_1.c **** * Parameters:
1080:.\Generated_Source\PSoC5/RTC_1.c **** *  None.
1081:.\Generated_Source\PSoC5/RTC_1.c **** *
1082:.\Generated_Source\PSoC5/RTC_1.c **** * Return:
1083:.\Generated_Source\PSoC5/RTC_1.c **** *  Current field's value is returned.
1084:.\Generated_Source\PSoC5/RTC_1.c **** *
1085:.\Generated_Source\PSoC5/RTC_1.c **** * Global variables:
1086:.\Generated_Source\PSoC5/RTC_1.c **** *  RTC_1_currentTimeDate.Min: the current field's value is used.
1087:.\Generated_Source\PSoC5/RTC_1.c **** *
1088:.\Generated_Source\PSoC5/RTC_1.c **** *******************************************************************************/
1089:.\Generated_Source\PSoC5/RTC_1.c **** uint8 RTC_1_ReadMinute(void) 
1090:.\Generated_Source\PSoC5/RTC_1.c **** {
ARM GAS  C:\Users\glenn\AppData\Local\Temp\ccPIHEU1.s 			page 48


 1586              		.loc 1 1090 0
 1587              		.cfi_startproc
 1588              		@ args = 0, pretend = 0, frame = 0
 1589              		@ frame_needed = 1, uses_anonymous_args = 0
 1590              		@ link register save eliminated.
 1591 0000 80B4     		push	{r7}
 1592              		.cfi_def_cfa_offset 4
 1593              		.cfi_offset 7, -4
 1594 0002 00AF     		add	r7, sp, #0
 1595              		.cfi_def_cfa_register 7
1091:.\Generated_Source\PSoC5/RTC_1.c ****     /* Return current minute */
1092:.\Generated_Source\PSoC5/RTC_1.c ****     return (RTC_1_currentTimeDate.Min);
 1596              		.loc 1 1092 0
 1597 0004 034B     		ldr	r3, .L102
 1598 0006 5B78     		ldrb	r3, [r3, #1]
 1599 0008 DBB2     		uxtb	r3, r3
1093:.\Generated_Source\PSoC5/RTC_1.c **** }
 1600              		.loc 1 1093 0
 1601 000a 1846     		mov	r0, r3
 1602 000c BD46     		mov	sp, r7
 1603              		.cfi_def_cfa_register 13
 1604              		@ sp needed
 1605 000e 5DF8047B 		ldr	r7, [sp], #4
 1606              		.cfi_restore 7
 1607              		.cfi_def_cfa_offset 0
 1608 0012 7047     		bx	lr
 1609              	.L103:
 1610              		.align	2
 1611              	.L102:
 1612 0014 00000000 		.word	RTC_1_currentTimeDate
 1613              		.cfi_endproc
 1614              	.LFE24:
 1615              		.size	RTC_1_ReadMinute, .-RTC_1_ReadMinute
 1616              		.section	.text.RTC_1_ReadHour,"ax",%progbits
 1617              		.align	2
 1618              		.global	RTC_1_ReadHour
 1619              		.thumb
 1620              		.thumb_func
 1621              		.type	RTC_1_ReadHour, %function
 1622              	RTC_1_ReadHour:
 1623              	.LFB25:
1094:.\Generated_Source\PSoC5/RTC_1.c **** 
1095:.\Generated_Source\PSoC5/RTC_1.c **** 
1096:.\Generated_Source\PSoC5/RTC_1.c **** /*******************************************************************************
1097:.\Generated_Source\PSoC5/RTC_1.c **** * Function Name:   RTC_1_ReadHour
1098:.\Generated_Source\PSoC5/RTC_1.c **** ********************************************************************************
1099:.\Generated_Source\PSoC5/RTC_1.c **** *
1100:.\Generated_Source\PSoC5/RTC_1.c **** * Summary:
1101:.\Generated_Source\PSoC5/RTC_1.c **** *  Reads Hour software register value.
1102:.\Generated_Source\PSoC5/RTC_1.c **** *
1103:.\Generated_Source\PSoC5/RTC_1.c **** * Parameters:
1104:.\Generated_Source\PSoC5/RTC_1.c **** *  None.
1105:.\Generated_Source\PSoC5/RTC_1.c **** *
1106:.\Generated_Source\PSoC5/RTC_1.c **** * Return:
1107:.\Generated_Source\PSoC5/RTC_1.c **** *  Current hour's value.
1108:.\Generated_Source\PSoC5/RTC_1.c **** *
1109:.\Generated_Source\PSoC5/RTC_1.c **** * Global variables:
ARM GAS  C:\Users\glenn\AppData\Local\Temp\ccPIHEU1.s 			page 49


1110:.\Generated_Source\PSoC5/RTC_1.c **** *  RTC_1_currentTimeDate.Hour: the current field's value is used.
1111:.\Generated_Source\PSoC5/RTC_1.c **** *
1112:.\Generated_Source\PSoC5/RTC_1.c **** *******************************************************************************/
1113:.\Generated_Source\PSoC5/RTC_1.c **** uint8 RTC_1_ReadHour(void) 
1114:.\Generated_Source\PSoC5/RTC_1.c **** {
 1624              		.loc 1 1114 0
 1625              		.cfi_startproc
 1626              		@ args = 0, pretend = 0, frame = 0
 1627              		@ frame_needed = 1, uses_anonymous_args = 0
 1628              		@ link register save eliminated.
 1629 0000 80B4     		push	{r7}
 1630              		.cfi_def_cfa_offset 4
 1631              		.cfi_offset 7, -4
 1632 0002 00AF     		add	r7, sp, #0
 1633              		.cfi_def_cfa_register 7
1115:.\Generated_Source\PSoC5/RTC_1.c ****     /* Return current hour */
1116:.\Generated_Source\PSoC5/RTC_1.c ****     return (RTC_1_currentTimeDate.Hour);
 1634              		.loc 1 1116 0
 1635 0004 034B     		ldr	r3, .L106
 1636 0006 9B78     		ldrb	r3, [r3, #2]
 1637 0008 DBB2     		uxtb	r3, r3
1117:.\Generated_Source\PSoC5/RTC_1.c **** }
 1638              		.loc 1 1117 0
 1639 000a 1846     		mov	r0, r3
 1640 000c BD46     		mov	sp, r7
 1641              		.cfi_def_cfa_register 13
 1642              		@ sp needed
 1643 000e 5DF8047B 		ldr	r7, [sp], #4
 1644              		.cfi_restore 7
 1645              		.cfi_def_cfa_offset 0
 1646 0012 7047     		bx	lr
 1647              	.L107:
 1648              		.align	2
 1649              	.L106:
 1650 0014 00000000 		.word	RTC_1_currentTimeDate
 1651              		.cfi_endproc
 1652              	.LFE25:
 1653              		.size	RTC_1_ReadHour, .-RTC_1_ReadHour
 1654              		.section	.text.RTC_1_ReadDayOfMonth,"ax",%progbits
 1655              		.align	2
 1656              		.global	RTC_1_ReadDayOfMonth
 1657              		.thumb
 1658              		.thumb_func
 1659              		.type	RTC_1_ReadDayOfMonth, %function
 1660              	RTC_1_ReadDayOfMonth:
 1661              	.LFB26:
1118:.\Generated_Source\PSoC5/RTC_1.c **** 
1119:.\Generated_Source\PSoC5/RTC_1.c **** 
1120:.\Generated_Source\PSoC5/RTC_1.c **** /*******************************************************************************
1121:.\Generated_Source\PSoC5/RTC_1.c **** * Function Name:   RTC_1_ReadDayOfMonth
1122:.\Generated_Source\PSoC5/RTC_1.c **** ********************************************************************************
1123:.\Generated_Source\PSoC5/RTC_1.c **** *
1124:.\Generated_Source\PSoC5/RTC_1.c **** * Summary:
1125:.\Generated_Source\PSoC5/RTC_1.c **** *  Reads DayOfMonth software register value.
1126:.\Generated_Source\PSoC5/RTC_1.c **** *
1127:.\Generated_Source\PSoC5/RTC_1.c **** * Parameters:
1128:.\Generated_Source\PSoC5/RTC_1.c **** *  None.
ARM GAS  C:\Users\glenn\AppData\Local\Temp\ccPIHEU1.s 			page 50


1129:.\Generated_Source\PSoC5/RTC_1.c **** *
1130:.\Generated_Source\PSoC5/RTC_1.c **** * Return:
1131:.\Generated_Source\PSoC5/RTC_1.c **** *  Current value of the day of month.
1132:.\Generated_Source\PSoC5/RTC_1.c **** *  returned.
1133:.\Generated_Source\PSoC5/RTC_1.c **** *
1134:.\Generated_Source\PSoC5/RTC_1.c **** * Global variables:
1135:.\Generated_Source\PSoC5/RTC_1.c **** *  RTC_1_currentTimeDate.DayOfMonth: the current day of month's
1136:.\Generated_Source\PSoC5/RTC_1.c **** *  value is used.
1137:.\Generated_Source\PSoC5/RTC_1.c **** *
1138:.\Generated_Source\PSoC5/RTC_1.c **** *******************************************************************************/
1139:.\Generated_Source\PSoC5/RTC_1.c **** uint8 RTC_1_ReadDayOfMonth(void) 
1140:.\Generated_Source\PSoC5/RTC_1.c **** {
 1662              		.loc 1 1140 0
 1663              		.cfi_startproc
 1664              		@ args = 0, pretend = 0, frame = 0
 1665              		@ frame_needed = 1, uses_anonymous_args = 0
 1666              		@ link register save eliminated.
 1667 0000 80B4     		push	{r7}
 1668              		.cfi_def_cfa_offset 4
 1669              		.cfi_offset 7, -4
 1670 0002 00AF     		add	r7, sp, #0
 1671              		.cfi_def_cfa_register 7
1141:.\Generated_Source\PSoC5/RTC_1.c ****     /* Return current day of the month */
1142:.\Generated_Source\PSoC5/RTC_1.c ****     return (RTC_1_currentTimeDate.DayOfMonth);
 1672              		.loc 1 1142 0
 1673 0004 034B     		ldr	r3, .L110
 1674 0006 1B79     		ldrb	r3, [r3, #4]
 1675 0008 DBB2     		uxtb	r3, r3
1143:.\Generated_Source\PSoC5/RTC_1.c **** }
 1676              		.loc 1 1143 0
 1677 000a 1846     		mov	r0, r3
 1678 000c BD46     		mov	sp, r7
 1679              		.cfi_def_cfa_register 13
 1680              		@ sp needed
 1681 000e 5DF8047B 		ldr	r7, [sp], #4
 1682              		.cfi_restore 7
 1683              		.cfi_def_cfa_offset 0
 1684 0012 7047     		bx	lr
 1685              	.L111:
 1686              		.align	2
 1687              	.L110:
 1688 0014 00000000 		.word	RTC_1_currentTimeDate
 1689              		.cfi_endproc
 1690              	.LFE26:
 1691              		.size	RTC_1_ReadDayOfMonth, .-RTC_1_ReadDayOfMonth
 1692              		.section	.text.RTC_1_ReadMonth,"ax",%progbits
 1693              		.align	2
 1694              		.global	RTC_1_ReadMonth
 1695              		.thumb
 1696              		.thumb_func
 1697              		.type	RTC_1_ReadMonth, %function
 1698              	RTC_1_ReadMonth:
 1699              	.LFB27:
1144:.\Generated_Source\PSoC5/RTC_1.c **** 
1145:.\Generated_Source\PSoC5/RTC_1.c **** 
1146:.\Generated_Source\PSoC5/RTC_1.c **** /*******************************************************************************
1147:.\Generated_Source\PSoC5/RTC_1.c **** * Function Name:   RTC_1_ReadMonth
ARM GAS  C:\Users\glenn\AppData\Local\Temp\ccPIHEU1.s 			page 51


1148:.\Generated_Source\PSoC5/RTC_1.c **** ********************************************************************************
1149:.\Generated_Source\PSoC5/RTC_1.c **** *
1150:.\Generated_Source\PSoC5/RTC_1.c **** * Summary:
1151:.\Generated_Source\PSoC5/RTC_1.c **** *  Reads Month software register value.
1152:.\Generated_Source\PSoC5/RTC_1.c **** *
1153:.\Generated_Source\PSoC5/RTC_1.c **** * Parameters:
1154:.\Generated_Source\PSoC5/RTC_1.c **** *  None.
1155:.\Generated_Source\PSoC5/RTC_1.c **** *
1156:.\Generated_Source\PSoC5/RTC_1.c **** * Return:
1157:.\Generated_Source\PSoC5/RTC_1.c **** *  Current value of the month.
1158:.\Generated_Source\PSoC5/RTC_1.c **** *
1159:.\Generated_Source\PSoC5/RTC_1.c **** * Global variables:
1160:.\Generated_Source\PSoC5/RTC_1.c **** *  RTC_1_currentTimeDate.Month: the current month's value is used.
1161:.\Generated_Source\PSoC5/RTC_1.c **** *
1162:.\Generated_Source\PSoC5/RTC_1.c **** *******************************************************************************/
1163:.\Generated_Source\PSoC5/RTC_1.c **** uint8 RTC_1_ReadMonth(void) 
1164:.\Generated_Source\PSoC5/RTC_1.c **** {
 1700              		.loc 1 1164 0
 1701              		.cfi_startproc
 1702              		@ args = 0, pretend = 0, frame = 0
 1703              		@ frame_needed = 1, uses_anonymous_args = 0
 1704              		@ link register save eliminated.
 1705 0000 80B4     		push	{r7}
 1706              		.cfi_def_cfa_offset 4
 1707              		.cfi_offset 7, -4
 1708 0002 00AF     		add	r7, sp, #0
 1709              		.cfi_def_cfa_register 7
1165:.\Generated_Source\PSoC5/RTC_1.c ****     /* Return current month */
1166:.\Generated_Source\PSoC5/RTC_1.c ****     return (RTC_1_currentTimeDate.Month);
 1710              		.loc 1 1166 0
 1711 0004 034B     		ldr	r3, .L114
 1712 0006 1B7A     		ldrb	r3, [r3, #8]
 1713 0008 DBB2     		uxtb	r3, r3
1167:.\Generated_Source\PSoC5/RTC_1.c **** }
 1714              		.loc 1 1167 0
 1715 000a 1846     		mov	r0, r3
 1716 000c BD46     		mov	sp, r7
 1717              		.cfi_def_cfa_register 13
 1718              		@ sp needed
 1719 000e 5DF8047B 		ldr	r7, [sp], #4
 1720              		.cfi_restore 7
 1721              		.cfi_def_cfa_offset 0
 1722 0012 7047     		bx	lr
 1723              	.L115:
 1724              		.align	2
 1725              	.L114:
 1726 0014 00000000 		.word	RTC_1_currentTimeDate
 1727              		.cfi_endproc
 1728              	.LFE27:
 1729              		.size	RTC_1_ReadMonth, .-RTC_1_ReadMonth
 1730              		.section	.text.RTC_1_ReadYear,"ax",%progbits
 1731              		.align	2
 1732              		.global	RTC_1_ReadYear
 1733              		.thumb
 1734              		.thumb_func
 1735              		.type	RTC_1_ReadYear, %function
 1736              	RTC_1_ReadYear:
ARM GAS  C:\Users\glenn\AppData\Local\Temp\ccPIHEU1.s 			page 52


 1737              	.LFB28:
1168:.\Generated_Source\PSoC5/RTC_1.c **** 
1169:.\Generated_Source\PSoC5/RTC_1.c **** 
1170:.\Generated_Source\PSoC5/RTC_1.c **** /*******************************************************************************
1171:.\Generated_Source\PSoC5/RTC_1.c **** * Function Name:   RTC_1_ReadYear
1172:.\Generated_Source\PSoC5/RTC_1.c **** ********************************************************************************
1173:.\Generated_Source\PSoC5/RTC_1.c **** *
1174:.\Generated_Source\PSoC5/RTC_1.c **** * Summary:
1175:.\Generated_Source\PSoC5/RTC_1.c **** *  Reads Year software register value.
1176:.\Generated_Source\PSoC5/RTC_1.c **** *
1177:.\Generated_Source\PSoC5/RTC_1.c **** * Parameters:
1178:.\Generated_Source\PSoC5/RTC_1.c **** *  None.
1179:.\Generated_Source\PSoC5/RTC_1.c **** *
1180:.\Generated_Source\PSoC5/RTC_1.c **** * Return:
1181:.\Generated_Source\PSoC5/RTC_1.c **** *  Current value of the year.
1182:.\Generated_Source\PSoC5/RTC_1.c **** *
1183:.\Generated_Source\PSoC5/RTC_1.c **** * Global variables:
1184:.\Generated_Source\PSoC5/RTC_1.c **** *  RTC_1_currentTimeDate.Year: the current year's value is used.
1185:.\Generated_Source\PSoC5/RTC_1.c **** *
1186:.\Generated_Source\PSoC5/RTC_1.c **** *******************************************************************************/
1187:.\Generated_Source\PSoC5/RTC_1.c **** uint16 RTC_1_ReadYear(void) 
1188:.\Generated_Source\PSoC5/RTC_1.c **** {
 1738              		.loc 1 1188 0
 1739              		.cfi_startproc
 1740              		@ args = 0, pretend = 0, frame = 0
 1741              		@ frame_needed = 1, uses_anonymous_args = 0
 1742              		@ link register save eliminated.
 1743 0000 80B4     		push	{r7}
 1744              		.cfi_def_cfa_offset 4
 1745              		.cfi_offset 7, -4
 1746 0002 00AF     		add	r7, sp, #0
 1747              		.cfi_def_cfa_register 7
1189:.\Generated_Source\PSoC5/RTC_1.c ****     /* Return current year */
1190:.\Generated_Source\PSoC5/RTC_1.c ****     return (RTC_1_currentTimeDate.Year);
 1748              		.loc 1 1190 0
 1749 0004 034B     		ldr	r3, .L118
 1750 0006 5B89     		ldrh	r3, [r3, #10]	@ movhi
 1751 0008 9BB2     		uxth	r3, r3
1191:.\Generated_Source\PSoC5/RTC_1.c **** }
 1752              		.loc 1 1191 0
 1753 000a 1846     		mov	r0, r3
 1754 000c BD46     		mov	sp, r7
 1755              		.cfi_def_cfa_register 13
 1756              		@ sp needed
 1757 000e 5DF8047B 		ldr	r7, [sp], #4
 1758              		.cfi_restore 7
 1759              		.cfi_def_cfa_offset 0
 1760 0012 7047     		bx	lr
 1761              	.L119:
 1762              		.align	2
 1763              	.L118:
 1764 0014 00000000 		.word	RTC_1_currentTimeDate
 1765              		.cfi_endproc
 1766              	.LFE28:
 1767              		.size	RTC_1_ReadYear, .-RTC_1_ReadYear
 1768              		.section	.text.RTC_1_ReadAlarmSecond,"ax",%progbits
 1769              		.align	2
ARM GAS  C:\Users\glenn\AppData\Local\Temp\ccPIHEU1.s 			page 53


 1770              		.global	RTC_1_ReadAlarmSecond
 1771              		.thumb
 1772              		.thumb_func
 1773              		.type	RTC_1_ReadAlarmSecond, %function
 1774              	RTC_1_ReadAlarmSecond:
 1775              	.LFB29:
1192:.\Generated_Source\PSoC5/RTC_1.c **** 
1193:.\Generated_Source\PSoC5/RTC_1.c **** 
1194:.\Generated_Source\PSoC5/RTC_1.c **** /*******************************************************************************
1195:.\Generated_Source\PSoC5/RTC_1.c **** * Function Name:   RTC_1_ReadAlarmSecond
1196:.\Generated_Source\PSoC5/RTC_1.c **** ********************************************************************************
1197:.\Generated_Source\PSoC5/RTC_1.c **** *
1198:.\Generated_Source\PSoC5/RTC_1.c **** * Summary:
1199:.\Generated_Source\PSoC5/RTC_1.c **** *  Reads Alarm Sec software register value.
1200:.\Generated_Source\PSoC5/RTC_1.c **** *
1201:.\Generated_Source\PSoC5/RTC_1.c **** * Parameters:
1202:.\Generated_Source\PSoC5/RTC_1.c **** *  None.
1203:.\Generated_Source\PSoC5/RTC_1.c **** *
1204:.\Generated_Source\PSoC5/RTC_1.c **** * Return:
1205:.\Generated_Source\PSoC5/RTC_1.c **** *  Current alarm value of the seconds.
1206:.\Generated_Source\PSoC5/RTC_1.c **** *
1207:.\Generated_Source\PSoC5/RTC_1.c **** * Global variables:
1208:.\Generated_Source\PSoC5/RTC_1.c **** *  RTC_1_alarmCfgTimeDate.Sec: the current second alarm value is
1209:.\Generated_Source\PSoC5/RTC_1.c **** *  used.
1210:.\Generated_Source\PSoC5/RTC_1.c **** *
1211:.\Generated_Source\PSoC5/RTC_1.c **** ********************************************************************************/
1212:.\Generated_Source\PSoC5/RTC_1.c **** uint8 RTC_1_ReadAlarmSecond(void) 
1213:.\Generated_Source\PSoC5/RTC_1.c **** {
 1776              		.loc 1 1213 0
 1777              		.cfi_startproc
 1778              		@ args = 0, pretend = 0, frame = 0
 1779              		@ frame_needed = 1, uses_anonymous_args = 0
 1780              		@ link register save eliminated.
 1781 0000 80B4     		push	{r7}
 1782              		.cfi_def_cfa_offset 4
 1783              		.cfi_offset 7, -4
 1784 0002 00AF     		add	r7, sp, #0
 1785              		.cfi_def_cfa_register 7
1214:.\Generated_Source\PSoC5/RTC_1.c ****     /* Return current alarm second */
1215:.\Generated_Source\PSoC5/RTC_1.c ****     return (RTC_1_alarmCfgTimeDate.Sec);
 1786              		.loc 1 1215 0
 1787 0004 034B     		ldr	r3, .L122
 1788 0006 1B78     		ldrb	r3, [r3]
 1789 0008 DBB2     		uxtb	r3, r3
1216:.\Generated_Source\PSoC5/RTC_1.c **** }
 1790              		.loc 1 1216 0
 1791 000a 1846     		mov	r0, r3
 1792 000c BD46     		mov	sp, r7
 1793              		.cfi_def_cfa_register 13
 1794              		@ sp needed
 1795 000e 5DF8047B 		ldr	r7, [sp], #4
 1796              		.cfi_restore 7
 1797              		.cfi_def_cfa_offset 0
 1798 0012 7047     		bx	lr
 1799              	.L123:
 1800              		.align	2
 1801              	.L122:
ARM GAS  C:\Users\glenn\AppData\Local\Temp\ccPIHEU1.s 			page 54


 1802 0014 00000000 		.word	RTC_1_alarmCfgTimeDate
 1803              		.cfi_endproc
 1804              	.LFE29:
 1805              		.size	RTC_1_ReadAlarmSecond, .-RTC_1_ReadAlarmSecond
 1806              		.section	.text.RTC_1_ReadAlarmMinute,"ax",%progbits
 1807              		.align	2
 1808              		.global	RTC_1_ReadAlarmMinute
 1809              		.thumb
 1810              		.thumb_func
 1811              		.type	RTC_1_ReadAlarmMinute, %function
 1812              	RTC_1_ReadAlarmMinute:
 1813              	.LFB30:
1217:.\Generated_Source\PSoC5/RTC_1.c **** 
1218:.\Generated_Source\PSoC5/RTC_1.c **** 
1219:.\Generated_Source\PSoC5/RTC_1.c **** /*******************************************************************************
1220:.\Generated_Source\PSoC5/RTC_1.c **** * Function Name:   RTC_1_ReadAlarmMinute
1221:.\Generated_Source\PSoC5/RTC_1.c **** ********************************************************************************
1222:.\Generated_Source\PSoC5/RTC_1.c **** *
1223:.\Generated_Source\PSoC5/RTC_1.c **** * Summary:
1224:.\Generated_Source\PSoC5/RTC_1.c **** *  Reads Alarm Min software register value.
1225:.\Generated_Source\PSoC5/RTC_1.c **** *
1226:.\Generated_Source\PSoC5/RTC_1.c **** * Parameters:
1227:.\Generated_Source\PSoC5/RTC_1.c **** *  None.
1228:.\Generated_Source\PSoC5/RTC_1.c **** *
1229:.\Generated_Source\PSoC5/RTC_1.c **** * Return:
1230:.\Generated_Source\PSoC5/RTC_1.c **** *  Current alarm value of the minutes.
1231:.\Generated_Source\PSoC5/RTC_1.c **** *
1232:.\Generated_Source\PSoC5/RTC_1.c **** * Global variables:
1233:.\Generated_Source\PSoC5/RTC_1.c **** *  RTC_1_alarmCfgTimeDate.Min: the current minute alarm is used.
1234:.\Generated_Source\PSoC5/RTC_1.c **** *
1235:.\Generated_Source\PSoC5/RTC_1.c **** *******************************************************************************/
1236:.\Generated_Source\PSoC5/RTC_1.c **** uint8 RTC_1_ReadAlarmMinute(void) 
1237:.\Generated_Source\PSoC5/RTC_1.c **** {
 1814              		.loc 1 1237 0
 1815              		.cfi_startproc
 1816              		@ args = 0, pretend = 0, frame = 0
 1817              		@ frame_needed = 1, uses_anonymous_args = 0
 1818              		@ link register save eliminated.
 1819 0000 80B4     		push	{r7}
 1820              		.cfi_def_cfa_offset 4
 1821              		.cfi_offset 7, -4
 1822 0002 00AF     		add	r7, sp, #0
 1823              		.cfi_def_cfa_register 7
1238:.\Generated_Source\PSoC5/RTC_1.c ****     /* Return current alarm minute */
1239:.\Generated_Source\PSoC5/RTC_1.c ****     return (RTC_1_alarmCfgTimeDate.Min);
 1824              		.loc 1 1239 0
 1825 0004 034B     		ldr	r3, .L126
 1826 0006 5B78     		ldrb	r3, [r3, #1]
 1827 0008 DBB2     		uxtb	r3, r3
1240:.\Generated_Source\PSoC5/RTC_1.c **** }
 1828              		.loc 1 1240 0
 1829 000a 1846     		mov	r0, r3
 1830 000c BD46     		mov	sp, r7
 1831              		.cfi_def_cfa_register 13
 1832              		@ sp needed
 1833 000e 5DF8047B 		ldr	r7, [sp], #4
 1834              		.cfi_restore 7
ARM GAS  C:\Users\glenn\AppData\Local\Temp\ccPIHEU1.s 			page 55


 1835              		.cfi_def_cfa_offset 0
 1836 0012 7047     		bx	lr
 1837              	.L127:
 1838              		.align	2
 1839              	.L126:
 1840 0014 00000000 		.word	RTC_1_alarmCfgTimeDate
 1841              		.cfi_endproc
 1842              	.LFE30:
 1843              		.size	RTC_1_ReadAlarmMinute, .-RTC_1_ReadAlarmMinute
 1844              		.section	.text.RTC_1_ReadAlarmHour,"ax",%progbits
 1845              		.align	2
 1846              		.global	RTC_1_ReadAlarmHour
 1847              		.thumb
 1848              		.thumb_func
 1849              		.type	RTC_1_ReadAlarmHour, %function
 1850              	RTC_1_ReadAlarmHour:
 1851              	.LFB31:
1241:.\Generated_Source\PSoC5/RTC_1.c **** 
1242:.\Generated_Source\PSoC5/RTC_1.c **** 
1243:.\Generated_Source\PSoC5/RTC_1.c **** /*******************************************************************************
1244:.\Generated_Source\PSoC5/RTC_1.c **** * Function Name:   RTC_1_ReadAlarmHour
1245:.\Generated_Source\PSoC5/RTC_1.c **** ********************************************************************************
1246:.\Generated_Source\PSoC5/RTC_1.c **** *
1247:.\Generated_Source\PSoC5/RTC_1.c **** * Summary:
1248:.\Generated_Source\PSoC5/RTC_1.c **** *  Reads Alarm Hour software register value.
1249:.\Generated_Source\PSoC5/RTC_1.c **** *
1250:.\Generated_Source\PSoC5/RTC_1.c **** * Parameters:
1251:.\Generated_Source\PSoC5/RTC_1.c **** *  None.
1252:.\Generated_Source\PSoC5/RTC_1.c **** *
1253:.\Generated_Source\PSoC5/RTC_1.c **** * Return:
1254:.\Generated_Source\PSoC5/RTC_1.c **** *  Current alarm value of the hours.
1255:.\Generated_Source\PSoC5/RTC_1.c **** *
1256:.\Generated_Source\PSoC5/RTC_1.c **** * Global variables:
1257:.\Generated_Source\PSoC5/RTC_1.c **** *  RTC_1_alarmCfgTimeDate.Hour: the current hour alarm value is used.
1258:.\Generated_Source\PSoC5/RTC_1.c **** *
1259:.\Generated_Source\PSoC5/RTC_1.c **** *******************************************************************************/
1260:.\Generated_Source\PSoC5/RTC_1.c **** uint8 RTC_1_ReadAlarmHour(void) 
1261:.\Generated_Source\PSoC5/RTC_1.c **** {
 1852              		.loc 1 1261 0
 1853              		.cfi_startproc
 1854              		@ args = 0, pretend = 0, frame = 0
 1855              		@ frame_needed = 1, uses_anonymous_args = 0
 1856              		@ link register save eliminated.
 1857 0000 80B4     		push	{r7}
 1858              		.cfi_def_cfa_offset 4
 1859              		.cfi_offset 7, -4
 1860 0002 00AF     		add	r7, sp, #0
 1861              		.cfi_def_cfa_register 7
1262:.\Generated_Source\PSoC5/RTC_1.c ****     /* Return current alarm hour */
1263:.\Generated_Source\PSoC5/RTC_1.c ****     return (RTC_1_alarmCfgTimeDate.Hour);
 1862              		.loc 1 1263 0
 1863 0004 034B     		ldr	r3, .L130
 1864 0006 9B78     		ldrb	r3, [r3, #2]
 1865 0008 DBB2     		uxtb	r3, r3
1264:.\Generated_Source\PSoC5/RTC_1.c **** }
 1866              		.loc 1 1264 0
 1867 000a 1846     		mov	r0, r3
ARM GAS  C:\Users\glenn\AppData\Local\Temp\ccPIHEU1.s 			page 56


 1868 000c BD46     		mov	sp, r7
 1869              		.cfi_def_cfa_register 13
 1870              		@ sp needed
 1871 000e 5DF8047B 		ldr	r7, [sp], #4
 1872              		.cfi_restore 7
 1873              		.cfi_def_cfa_offset 0
 1874 0012 7047     		bx	lr
 1875              	.L131:
 1876              		.align	2
 1877              	.L130:
 1878 0014 00000000 		.word	RTC_1_alarmCfgTimeDate
 1879              		.cfi_endproc
 1880              	.LFE31:
 1881              		.size	RTC_1_ReadAlarmHour, .-RTC_1_ReadAlarmHour
 1882              		.section	.text.RTC_1_ReadAlarmDayOfMonth,"ax",%progbits
 1883              		.align	2
 1884              		.global	RTC_1_ReadAlarmDayOfMonth
 1885              		.thumb
 1886              		.thumb_func
 1887              		.type	RTC_1_ReadAlarmDayOfMonth, %function
 1888              	RTC_1_ReadAlarmDayOfMonth:
 1889              	.LFB32:
1265:.\Generated_Source\PSoC5/RTC_1.c **** 
1266:.\Generated_Source\PSoC5/RTC_1.c **** 
1267:.\Generated_Source\PSoC5/RTC_1.c **** /*******************************************************************************
1268:.\Generated_Source\PSoC5/RTC_1.c **** * Function Name:   RTC_1_ReadAlarmDayOfMonth
1269:.\Generated_Source\PSoC5/RTC_1.c **** ********************************************************************************
1270:.\Generated_Source\PSoC5/RTC_1.c **** *
1271:.\Generated_Source\PSoC5/RTC_1.c **** * Summary:
1272:.\Generated_Source\PSoC5/RTC_1.c **** *  Reads Alarm DayOfMonth software register value.
1273:.\Generated_Source\PSoC5/RTC_1.c **** *
1274:.\Generated_Source\PSoC5/RTC_1.c **** * Parameters:
1275:.\Generated_Source\PSoC5/RTC_1.c **** *  None.
1276:.\Generated_Source\PSoC5/RTC_1.c **** *
1277:.\Generated_Source\PSoC5/RTC_1.c **** * Return:
1278:.\Generated_Source\PSoC5/RTC_1.c **** *  Current alarm value of the day of month.
1279:.\Generated_Source\PSoC5/RTC_1.c **** *
1280:.\Generated_Source\PSoC5/RTC_1.c **** * Global variables:
1281:.\Generated_Source\PSoC5/RTC_1.c **** *  RTC_1_alarmCfgTimeDate.DayOfMonth: the current day of month alarm
1282:.\Generated_Source\PSoC5/RTC_1.c **** *  value is used.
1283:.\Generated_Source\PSoC5/RTC_1.c **** *
1284:.\Generated_Source\PSoC5/RTC_1.c **** *******************************************************************************/
1285:.\Generated_Source\PSoC5/RTC_1.c **** uint8 RTC_1_ReadAlarmDayOfMonth(void) 
1286:.\Generated_Source\PSoC5/RTC_1.c **** {
 1890              		.loc 1 1286 0
 1891              		.cfi_startproc
 1892              		@ args = 0, pretend = 0, frame = 0
 1893              		@ frame_needed = 1, uses_anonymous_args = 0
 1894              		@ link register save eliminated.
 1895 0000 80B4     		push	{r7}
 1896              		.cfi_def_cfa_offset 4
 1897              		.cfi_offset 7, -4
 1898 0002 00AF     		add	r7, sp, #0
 1899              		.cfi_def_cfa_register 7
1287:.\Generated_Source\PSoC5/RTC_1.c ****     /* Return current alarm day of month */
1288:.\Generated_Source\PSoC5/RTC_1.c ****     return (RTC_1_alarmCfgTimeDate.DayOfMonth);
 1900              		.loc 1 1288 0
ARM GAS  C:\Users\glenn\AppData\Local\Temp\ccPIHEU1.s 			page 57


 1901 0004 034B     		ldr	r3, .L134
 1902 0006 1B79     		ldrb	r3, [r3, #4]
 1903 0008 DBB2     		uxtb	r3, r3
1289:.\Generated_Source\PSoC5/RTC_1.c **** }
 1904              		.loc 1 1289 0
 1905 000a 1846     		mov	r0, r3
 1906 000c BD46     		mov	sp, r7
 1907              		.cfi_def_cfa_register 13
 1908              		@ sp needed
 1909 000e 5DF8047B 		ldr	r7, [sp], #4
 1910              		.cfi_restore 7
 1911              		.cfi_def_cfa_offset 0
 1912 0012 7047     		bx	lr
 1913              	.L135:
 1914              		.align	2
 1915              	.L134:
 1916 0014 00000000 		.word	RTC_1_alarmCfgTimeDate
 1917              		.cfi_endproc
 1918              	.LFE32:
 1919              		.size	RTC_1_ReadAlarmDayOfMonth, .-RTC_1_ReadAlarmDayOfMonth
 1920              		.section	.text.RTC_1_ReadAlarmMonth,"ax",%progbits
 1921              		.align	2
 1922              		.global	RTC_1_ReadAlarmMonth
 1923              		.thumb
 1924              		.thumb_func
 1925              		.type	RTC_1_ReadAlarmMonth, %function
 1926              	RTC_1_ReadAlarmMonth:
 1927              	.LFB33:
1290:.\Generated_Source\PSoC5/RTC_1.c **** 
1291:.\Generated_Source\PSoC5/RTC_1.c **** 
1292:.\Generated_Source\PSoC5/RTC_1.c **** /*******************************************************************************
1293:.\Generated_Source\PSoC5/RTC_1.c **** * Function Name:   RTC_1_ReadAlarmMonth
1294:.\Generated_Source\PSoC5/RTC_1.c **** ********************************************************************************
1295:.\Generated_Source\PSoC5/RTC_1.c **** *
1296:.\Generated_Source\PSoC5/RTC_1.c **** * Summary:
1297:.\Generated_Source\PSoC5/RTC_1.c **** *  Reads Alarm Month software register value.
1298:.\Generated_Source\PSoC5/RTC_1.c **** *
1299:.\Generated_Source\PSoC5/RTC_1.c **** * Parameters:
1300:.\Generated_Source\PSoC5/RTC_1.c **** *  None.
1301:.\Generated_Source\PSoC5/RTC_1.c **** *
1302:.\Generated_Source\PSoC5/RTC_1.c **** * Return:
1303:.\Generated_Source\PSoC5/RTC_1.c **** *  Current alarm value of the month.
1304:.\Generated_Source\PSoC5/RTC_1.c **** *
1305:.\Generated_Source\PSoC5/RTC_1.c **** * Global variables:
1306:.\Generated_Source\PSoC5/RTC_1.c **** *  RTC_1_alarmCfgTimeDate.Month: the current month alarm value is
1307:.\Generated_Source\PSoC5/RTC_1.c **** *  used.
1308:.\Generated_Source\PSoC5/RTC_1.c **** *
1309:.\Generated_Source\PSoC5/RTC_1.c **** *******************************************************************************/
1310:.\Generated_Source\PSoC5/RTC_1.c **** uint8 RTC_1_ReadAlarmMonth(void) 
1311:.\Generated_Source\PSoC5/RTC_1.c **** {
 1928              		.loc 1 1311 0
 1929              		.cfi_startproc
 1930              		@ args = 0, pretend = 0, frame = 0
 1931              		@ frame_needed = 1, uses_anonymous_args = 0
 1932              		@ link register save eliminated.
 1933 0000 80B4     		push	{r7}
 1934              		.cfi_def_cfa_offset 4
ARM GAS  C:\Users\glenn\AppData\Local\Temp\ccPIHEU1.s 			page 58


 1935              		.cfi_offset 7, -4
 1936 0002 00AF     		add	r7, sp, #0
 1937              		.cfi_def_cfa_register 7
1312:.\Generated_Source\PSoC5/RTC_1.c ****     /* Return current alarm month */
1313:.\Generated_Source\PSoC5/RTC_1.c ****     return (RTC_1_alarmCfgTimeDate.Month);
 1938              		.loc 1 1313 0
 1939 0004 034B     		ldr	r3, .L138
 1940 0006 1B7A     		ldrb	r3, [r3, #8]
 1941 0008 DBB2     		uxtb	r3, r3
1314:.\Generated_Source\PSoC5/RTC_1.c **** }
 1942              		.loc 1 1314 0
 1943 000a 1846     		mov	r0, r3
 1944 000c BD46     		mov	sp, r7
 1945              		.cfi_def_cfa_register 13
 1946              		@ sp needed
 1947 000e 5DF8047B 		ldr	r7, [sp], #4
 1948              		.cfi_restore 7
 1949              		.cfi_def_cfa_offset 0
 1950 0012 7047     		bx	lr
 1951              	.L139:
 1952              		.align	2
 1953              	.L138:
 1954 0014 00000000 		.word	RTC_1_alarmCfgTimeDate
 1955              		.cfi_endproc
 1956              	.LFE33:
 1957              		.size	RTC_1_ReadAlarmMonth, .-RTC_1_ReadAlarmMonth
 1958              		.section	.text.RTC_1_ReadAlarmYear,"ax",%progbits
 1959              		.align	2
 1960              		.global	RTC_1_ReadAlarmYear
 1961              		.thumb
 1962              		.thumb_func
 1963              		.type	RTC_1_ReadAlarmYear, %function
 1964              	RTC_1_ReadAlarmYear:
 1965              	.LFB34:
1315:.\Generated_Source\PSoC5/RTC_1.c **** 
1316:.\Generated_Source\PSoC5/RTC_1.c **** 
1317:.\Generated_Source\PSoC5/RTC_1.c **** /*******************************************************************************
1318:.\Generated_Source\PSoC5/RTC_1.c **** * Function Name:   RTC_1_ReadAlarmYear
1319:.\Generated_Source\PSoC5/RTC_1.c **** ********************************************************************************
1320:.\Generated_Source\PSoC5/RTC_1.c **** *
1321:.\Generated_Source\PSoC5/RTC_1.c **** * Summary:
1322:.\Generated_Source\PSoC5/RTC_1.c **** *  Reads Alarm Year software register value.
1323:.\Generated_Source\PSoC5/RTC_1.c **** *
1324:.\Generated_Source\PSoC5/RTC_1.c **** * Parameters:
1325:.\Generated_Source\PSoC5/RTC_1.c **** *  None.
1326:.\Generated_Source\PSoC5/RTC_1.c **** *
1327:.\Generated_Source\PSoC5/RTC_1.c **** * Return:
1328:.\Generated_Source\PSoC5/RTC_1.c **** *  Current alarm value of the years.
1329:.\Generated_Source\PSoC5/RTC_1.c **** *
1330:.\Generated_Source\PSoC5/RTC_1.c **** * Global variables:
1331:.\Generated_Source\PSoC5/RTC_1.c **** *  RTC_1_alarmCfgTimeDate.Year: the current year alarm value is used.
1332:.\Generated_Source\PSoC5/RTC_1.c **** *
1333:.\Generated_Source\PSoC5/RTC_1.c **** *******************************************************************************/
1334:.\Generated_Source\PSoC5/RTC_1.c **** uint16 RTC_1_ReadAlarmYear(void) 
1335:.\Generated_Source\PSoC5/RTC_1.c **** {
 1966              		.loc 1 1335 0
 1967              		.cfi_startproc
ARM GAS  C:\Users\glenn\AppData\Local\Temp\ccPIHEU1.s 			page 59


 1968              		@ args = 0, pretend = 0, frame = 0
 1969              		@ frame_needed = 1, uses_anonymous_args = 0
 1970              		@ link register save eliminated.
 1971 0000 80B4     		push	{r7}
 1972              		.cfi_def_cfa_offset 4
 1973              		.cfi_offset 7, -4
 1974 0002 00AF     		add	r7, sp, #0
 1975              		.cfi_def_cfa_register 7
1336:.\Generated_Source\PSoC5/RTC_1.c ****     /* Return current alarm year */
1337:.\Generated_Source\PSoC5/RTC_1.c ****     return (RTC_1_alarmCfgTimeDate.Year);
 1976              		.loc 1 1337 0
 1977 0004 034B     		ldr	r3, .L142
 1978 0006 5B89     		ldrh	r3, [r3, #10]	@ movhi
 1979 0008 9BB2     		uxth	r3, r3
1338:.\Generated_Source\PSoC5/RTC_1.c **** }
 1980              		.loc 1 1338 0
 1981 000a 1846     		mov	r0, r3
 1982 000c BD46     		mov	sp, r7
 1983              		.cfi_def_cfa_register 13
 1984              		@ sp needed
 1985 000e 5DF8047B 		ldr	r7, [sp], #4
 1986              		.cfi_restore 7
 1987              		.cfi_def_cfa_offset 0
 1988 0012 7047     		bx	lr
 1989              	.L143:
 1990              		.align	2
 1991              	.L142:
 1992 0014 00000000 		.word	RTC_1_alarmCfgTimeDate
 1993              		.cfi_endproc
 1994              	.LFE34:
 1995              		.size	RTC_1_ReadAlarmYear, .-RTC_1_ReadAlarmYear
 1996              		.section	.text.RTC_1_ReadAlarmDayOfWeek,"ax",%progbits
 1997              		.align	2
 1998              		.global	RTC_1_ReadAlarmDayOfWeek
 1999              		.thumb
 2000              		.thumb_func
 2001              		.type	RTC_1_ReadAlarmDayOfWeek, %function
 2002              	RTC_1_ReadAlarmDayOfWeek:
 2003              	.LFB35:
1339:.\Generated_Source\PSoC5/RTC_1.c **** 
1340:.\Generated_Source\PSoC5/RTC_1.c **** 
1341:.\Generated_Source\PSoC5/RTC_1.c **** /*******************************************************************************
1342:.\Generated_Source\PSoC5/RTC_1.c **** * Function Name:   RTC_1_ReadAlarmDayOfWeek
1343:.\Generated_Source\PSoC5/RTC_1.c **** ********************************************************************************
1344:.\Generated_Source\PSoC5/RTC_1.c **** *
1345:.\Generated_Source\PSoC5/RTC_1.c **** * Summary:
1346:.\Generated_Source\PSoC5/RTC_1.c **** *  Reads Alarm DayOfWeek software register value.
1347:.\Generated_Source\PSoC5/RTC_1.c **** *
1348:.\Generated_Source\PSoC5/RTC_1.c **** * Parameters:
1349:.\Generated_Source\PSoC5/RTC_1.c **** *  None.
1350:.\Generated_Source\PSoC5/RTC_1.c **** *
1351:.\Generated_Source\PSoC5/RTC_1.c **** * Return:
1352:.\Generated_Source\PSoC5/RTC_1.c **** *  Current alarm value of the day of week.
1353:.\Generated_Source\PSoC5/RTC_1.c **** *
1354:.\Generated_Source\PSoC5/RTC_1.c **** * Global variables:
1355:.\Generated_Source\PSoC5/RTC_1.c **** *  RTC_1_alarmCfgTimeDate.DayOfWeek: the current day of week alarm
1356:.\Generated_Source\PSoC5/RTC_1.c **** *  value is used.
ARM GAS  C:\Users\glenn\AppData\Local\Temp\ccPIHEU1.s 			page 60


1357:.\Generated_Source\PSoC5/RTC_1.c **** *
1358:.\Generated_Source\PSoC5/RTC_1.c **** *******************************************************************************/
1359:.\Generated_Source\PSoC5/RTC_1.c **** uint8 RTC_1_ReadAlarmDayOfWeek(void) 
1360:.\Generated_Source\PSoC5/RTC_1.c **** {
 2004              		.loc 1 1360 0
 2005              		.cfi_startproc
 2006              		@ args = 0, pretend = 0, frame = 0
 2007              		@ frame_needed = 1, uses_anonymous_args = 0
 2008              		@ link register save eliminated.
 2009 0000 80B4     		push	{r7}
 2010              		.cfi_def_cfa_offset 4
 2011              		.cfi_offset 7, -4
 2012 0002 00AF     		add	r7, sp, #0
 2013              		.cfi_def_cfa_register 7
1361:.\Generated_Source\PSoC5/RTC_1.c ****     /* Return current alarm day of the week */
1362:.\Generated_Source\PSoC5/RTC_1.c ****     return (RTC_1_alarmCfgTimeDate.DayOfWeek);
 2014              		.loc 1 1362 0
 2015 0004 034B     		ldr	r3, .L146
 2016 0006 DB78     		ldrb	r3, [r3, #3]
 2017 0008 DBB2     		uxtb	r3, r3
1363:.\Generated_Source\PSoC5/RTC_1.c **** }
 2018              		.loc 1 1363 0
 2019 000a 1846     		mov	r0, r3
 2020 000c BD46     		mov	sp, r7
 2021              		.cfi_def_cfa_register 13
 2022              		@ sp needed
 2023 000e 5DF8047B 		ldr	r7, [sp], #4
 2024              		.cfi_restore 7
 2025              		.cfi_def_cfa_offset 0
 2026 0012 7047     		bx	lr
 2027              	.L147:
 2028              		.align	2
 2029              	.L146:
 2030 0014 00000000 		.word	RTC_1_alarmCfgTimeDate
 2031              		.cfi_endproc
 2032              	.LFE35:
 2033              		.size	RTC_1_ReadAlarmDayOfWeek, .-RTC_1_ReadAlarmDayOfWeek
 2034              		.section	.text.RTC_1_ReadAlarmDayOfYear,"ax",%progbits
 2035              		.align	2
 2036              		.global	RTC_1_ReadAlarmDayOfYear
 2037              		.thumb
 2038              		.thumb_func
 2039              		.type	RTC_1_ReadAlarmDayOfYear, %function
 2040              	RTC_1_ReadAlarmDayOfYear:
 2041              	.LFB36:
1364:.\Generated_Source\PSoC5/RTC_1.c **** 
1365:.\Generated_Source\PSoC5/RTC_1.c **** 
1366:.\Generated_Source\PSoC5/RTC_1.c **** /*******************************************************************************
1367:.\Generated_Source\PSoC5/RTC_1.c **** * Function Name:   RTC_1_ReadAlarmDayOfYear
1368:.\Generated_Source\PSoC5/RTC_1.c **** ********************************************************************************
1369:.\Generated_Source\PSoC5/RTC_1.c **** *
1370:.\Generated_Source\PSoC5/RTC_1.c **** * Summary:
1371:.\Generated_Source\PSoC5/RTC_1.c **** *  Reads Alarm DayOfYear software register value.
1372:.\Generated_Source\PSoC5/RTC_1.c **** *
1373:.\Generated_Source\PSoC5/RTC_1.c **** * Parameters:
1374:.\Generated_Source\PSoC5/RTC_1.c **** *  None.
1375:.\Generated_Source\PSoC5/RTC_1.c **** *
ARM GAS  C:\Users\glenn\AppData\Local\Temp\ccPIHEU1.s 			page 61


1376:.\Generated_Source\PSoC5/RTC_1.c **** * Return:
1377:.\Generated_Source\PSoC5/RTC_1.c **** *  Current alarm value of the day of year.
1378:.\Generated_Source\PSoC5/RTC_1.c **** *
1379:.\Generated_Source\PSoC5/RTC_1.c **** * Global variables:
1380:.\Generated_Source\PSoC5/RTC_1.c **** *  RTC_1_alarmCfgTimeDate.DayOfYear: the current day of year alarm
1381:.\Generated_Source\PSoC5/RTC_1.c **** *  value is used.
1382:.\Generated_Source\PSoC5/RTC_1.c **** *
1383:.\Generated_Source\PSoC5/RTC_1.c **** *******************************************************************************/
1384:.\Generated_Source\PSoC5/RTC_1.c **** uint16 RTC_1_ReadAlarmDayOfYear(void) 
1385:.\Generated_Source\PSoC5/RTC_1.c **** {
 2042              		.loc 1 1385 0
 2043              		.cfi_startproc
 2044              		@ args = 0, pretend = 0, frame = 0
 2045              		@ frame_needed = 1, uses_anonymous_args = 0
 2046              		@ link register save eliminated.
 2047 0000 80B4     		push	{r7}
 2048              		.cfi_def_cfa_offset 4
 2049              		.cfi_offset 7, -4
 2050 0002 00AF     		add	r7, sp, #0
 2051              		.cfi_def_cfa_register 7
1386:.\Generated_Source\PSoC5/RTC_1.c ****     /* Return current alarm day of the year */
1387:.\Generated_Source\PSoC5/RTC_1.c ****     return  (RTC_1_alarmCfgTimeDate.DayOfYear);
 2052              		.loc 1 1387 0
 2053 0004 034B     		ldr	r3, .L150
 2054 0006 DB88     		ldrh	r3, [r3, #6]	@ movhi
 2055 0008 9BB2     		uxth	r3, r3
1388:.\Generated_Source\PSoC5/RTC_1.c **** }
 2056              		.loc 1 1388 0
 2057 000a 1846     		mov	r0, r3
 2058 000c BD46     		mov	sp, r7
 2059              		.cfi_def_cfa_register 13
 2060              		@ sp needed
 2061 000e 5DF8047B 		ldr	r7, [sp], #4
 2062              		.cfi_restore 7
 2063              		.cfi_def_cfa_offset 0
 2064 0012 7047     		bx	lr
 2065              	.L151:
 2066              		.align	2
 2067              	.L150:
 2068 0014 00000000 		.word	RTC_1_alarmCfgTimeDate
 2069              		.cfi_endproc
 2070              	.LFE36:
 2071              		.size	RTC_1_ReadAlarmDayOfYear, .-RTC_1_ReadAlarmDayOfYear
 2072              		.section	.text.RTC_1_WriteAlarmMask,"ax",%progbits
 2073              		.align	2
 2074              		.global	RTC_1_WriteAlarmMask
 2075              		.thumb
 2076              		.thumb_func
 2077              		.type	RTC_1_WriteAlarmMask, %function
 2078              	RTC_1_WriteAlarmMask:
 2079              	.LFB37:
1389:.\Generated_Source\PSoC5/RTC_1.c **** 
1390:.\Generated_Source\PSoC5/RTC_1.c **** 
1391:.\Generated_Source\PSoC5/RTC_1.c **** /*******************************************************************************
1392:.\Generated_Source\PSoC5/RTC_1.c **** * Function Name:   RTC_1_WriteAlarmMask
1393:.\Generated_Source\PSoC5/RTC_1.c **** ********************************************************************************
1394:.\Generated_Source\PSoC5/RTC_1.c **** *
ARM GAS  C:\Users\glenn\AppData\Local\Temp\ccPIHEU1.s 			page 62


1395:.\Generated_Source\PSoC5/RTC_1.c **** * Summary:
1396:.\Generated_Source\PSoC5/RTC_1.c **** *  Writes the Alarm Mask software register with 1 bit per time/date entry. Alarm
1397:.\Generated_Source\PSoC5/RTC_1.c **** *  true when all masked time/date values match Alarm values.
1398:.\Generated_Source\PSoC5/RTC_1.c **** *
1399:.\Generated_Source\PSoC5/RTC_1.c **** * Parameters:
1400:.\Generated_Source\PSoC5/RTC_1.c **** *  mask: Alarm Mask software register value.
1401:.\Generated_Source\PSoC5/RTC_1.c **** *
1402:.\Generated_Source\PSoC5/RTC_1.c **** * Return:
1403:.\Generated_Source\PSoC5/RTC_1.c **** *  None.
1404:.\Generated_Source\PSoC5/RTC_1.c **** *
1405:.\Generated_Source\PSoC5/RTC_1.c **** * Global variables:
1406:.\Generated_Source\PSoC5/RTC_1.c **** *  RTC_1_alarmCfgMask: global variable which stores masks for
1407:.\Generated_Source\PSoC5/RTC_1.c **** *  time/date alarm configuration is modified.
1408:.\Generated_Source\PSoC5/RTC_1.c **** *
1409:.\Generated_Source\PSoC5/RTC_1.c **** * Reentrant:
1410:.\Generated_Source\PSoC5/RTC_1.c **** *  No.
1411:.\Generated_Source\PSoC5/RTC_1.c **** *
1412:.\Generated_Source\PSoC5/RTC_1.c **** *******************************************************************************/
1413:.\Generated_Source\PSoC5/RTC_1.c **** void RTC_1_WriteAlarmMask(uint8 mask) 
1414:.\Generated_Source\PSoC5/RTC_1.c **** {
 2080              		.loc 1 1414 0
 2081              		.cfi_startproc
 2082              		@ args = 0, pretend = 0, frame = 8
 2083              		@ frame_needed = 1, uses_anonymous_args = 0
 2084              		@ link register save eliminated.
 2085 0000 80B4     		push	{r7}
 2086              		.cfi_def_cfa_offset 4
 2087              		.cfi_offset 7, -4
 2088 0002 83B0     		sub	sp, sp, #12
 2089              		.cfi_def_cfa_offset 16
 2090 0004 00AF     		add	r7, sp, #0
 2091              		.cfi_def_cfa_register 7
 2092 0006 0346     		mov	r3, r0
 2093 0008 FB71     		strb	r3, [r7, #7]
1415:.\Generated_Source\PSoC5/RTC_1.c ****     RTC_1_alarmCfgMask = mask;
 2094              		.loc 1 1415 0
 2095 000a 044A     		ldr	r2, .L153
 2096 000c FB79     		ldrb	r3, [r7, #7]
 2097 000e 1370     		strb	r3, [r2]
1416:.\Generated_Source\PSoC5/RTC_1.c **** }
 2098              		.loc 1 1416 0
 2099 0010 0C37     		adds	r7, r7, #12
 2100              		.cfi_def_cfa_offset 4
 2101 0012 BD46     		mov	sp, r7
 2102              		.cfi_def_cfa_register 13
 2103              		@ sp needed
 2104 0014 5DF8047B 		ldr	r7, [sp], #4
 2105              		.cfi_restore 7
 2106              		.cfi_def_cfa_offset 0
 2107 0018 7047     		bx	lr
 2108              	.L154:
 2109 001a 00BF     		.align	2
 2110              	.L153:
 2111 001c 00000000 		.word	RTC_1_alarmCfgMask
 2112              		.cfi_endproc
 2113              	.LFE37:
 2114              		.size	RTC_1_WriteAlarmMask, .-RTC_1_WriteAlarmMask
ARM GAS  C:\Users\glenn\AppData\Local\Temp\ccPIHEU1.s 			page 63


 2115              		.section	.text.RTC_1_WriteIntervalMask,"ax",%progbits
 2116              		.align	2
 2117              		.global	RTC_1_WriteIntervalMask
 2118              		.thumb
 2119              		.thumb_func
 2120              		.type	RTC_1_WriteIntervalMask, %function
 2121              	RTC_1_WriteIntervalMask:
 2122              	.LFB38:
1417:.\Generated_Source\PSoC5/RTC_1.c **** 
1418:.\Generated_Source\PSoC5/RTC_1.c **** 
1419:.\Generated_Source\PSoC5/RTC_1.c **** /*******************************************************************************
1420:.\Generated_Source\PSoC5/RTC_1.c **** * Function Name:   RTC_1_WriteIntervalMask
1421:.\Generated_Source\PSoC5/RTC_1.c **** ********************************************************************************
1422:.\Generated_Source\PSoC5/RTC_1.c **** *
1423:.\Generated_Source\PSoC5/RTC_1.c **** * Summary:
1424:.\Generated_Source\PSoC5/RTC_1.c **** *  Writes the Interval Mask software register with 1 bit per time/date entry.
1425:.\Generated_Source\PSoC5/RTC_1.c **** *  Interrupt true when any masked time/date overflow occur.
1426:.\Generated_Source\PSoC5/RTC_1.c **** *
1427:.\Generated_Source\PSoC5/RTC_1.c **** * Parameters:
1428:.\Generated_Source\PSoC5/RTC_1.c **** *  mask: Alarm Mask software register value.
1429:.\Generated_Source\PSoC5/RTC_1.c **** *
1430:.\Generated_Source\PSoC5/RTC_1.c **** * Return:
1431:.\Generated_Source\PSoC5/RTC_1.c **** *  None.
1432:.\Generated_Source\PSoC5/RTC_1.c **** *
1433:.\Generated_Source\PSoC5/RTC_1.c **** * Global variables:
1434:.\Generated_Source\PSoC5/RTC_1.c **** *  RTC_1_intervalCfgMask: this global variable is modified - the new
1435:.\Generated_Source\PSoC5/RTC_1.c **** *  value of interval mask is stored here.
1436:.\Generated_Source\PSoC5/RTC_1.c **** *
1437:.\Generated_Source\PSoC5/RTC_1.c **** * Reentrant:
1438:.\Generated_Source\PSoC5/RTC_1.c **** *  No.
1439:.\Generated_Source\PSoC5/RTC_1.c **** *
1440:.\Generated_Source\PSoC5/RTC_1.c **** *******************************************************************************/
1441:.\Generated_Source\PSoC5/RTC_1.c **** void RTC_1_WriteIntervalMask(uint8 mask) 
1442:.\Generated_Source\PSoC5/RTC_1.c **** {
 2123              		.loc 1 1442 0
 2124              		.cfi_startproc
 2125              		@ args = 0, pretend = 0, frame = 8
 2126              		@ frame_needed = 1, uses_anonymous_args = 0
 2127              		@ link register save eliminated.
 2128 0000 80B4     		push	{r7}
 2129              		.cfi_def_cfa_offset 4
 2130              		.cfi_offset 7, -4
 2131 0002 83B0     		sub	sp, sp, #12
 2132              		.cfi_def_cfa_offset 16
 2133 0004 00AF     		add	r7, sp, #0
 2134              		.cfi_def_cfa_register 7
 2135 0006 0346     		mov	r3, r0
 2136 0008 FB71     		strb	r3, [r7, #7]
1443:.\Generated_Source\PSoC5/RTC_1.c ****     RTC_1_intervalCfgMask = mask;
 2137              		.loc 1 1443 0
 2138 000a 044A     		ldr	r2, .L156
 2139 000c FB79     		ldrb	r3, [r7, #7]
 2140 000e 1370     		strb	r3, [r2]
1444:.\Generated_Source\PSoC5/RTC_1.c **** }
 2141              		.loc 1 1444 0
 2142 0010 0C37     		adds	r7, r7, #12
 2143              		.cfi_def_cfa_offset 4
ARM GAS  C:\Users\glenn\AppData\Local\Temp\ccPIHEU1.s 			page 64


 2144 0012 BD46     		mov	sp, r7
 2145              		.cfi_def_cfa_register 13
 2146              		@ sp needed
 2147 0014 5DF8047B 		ldr	r7, [sp], #4
 2148              		.cfi_restore 7
 2149              		.cfi_def_cfa_offset 0
 2150 0018 7047     		bx	lr
 2151              	.L157:
 2152 001a 00BF     		.align	2
 2153              	.L156:
 2154 001c 00000000 		.word	RTC_1_intervalCfgMask
 2155              		.cfi_endproc
 2156              	.LFE38:
 2157              		.size	RTC_1_WriteIntervalMask, .-RTC_1_WriteIntervalMask
 2158              		.section	.text.RTC_1_ReadStatus,"ax",%progbits
 2159              		.align	2
 2160              		.global	RTC_1_ReadStatus
 2161              		.thumb
 2162              		.thumb_func
 2163              		.type	RTC_1_ReadStatus, %function
 2164              	RTC_1_ReadStatus:
 2165              	.LFB39:
1445:.\Generated_Source\PSoC5/RTC_1.c **** 
1446:.\Generated_Source\PSoC5/RTC_1.c **** 
1447:.\Generated_Source\PSoC5/RTC_1.c **** /*******************************************************************************
1448:.\Generated_Source\PSoC5/RTC_1.c **** * Function Name:   RTC_1_ReadStatus
1449:.\Generated_Source\PSoC5/RTC_1.c **** ********************************************************************************
1450:.\Generated_Source\PSoC5/RTC_1.c **** *
1451:.\Generated_Source\PSoC5/RTC_1.c **** * Summary:
1452:.\Generated_Source\PSoC5/RTC_1.c **** *  Reads the Status software register which has flags for DST
1453:.\Generated_Source\PSoC5/RTC_1.c **** *  (DST), Leap Year (LY) and AM/PM (AM_PM), Alarm active (AA).
1454:.\Generated_Source\PSoC5/RTC_1.c **** *
1455:.\Generated_Source\PSoC5/RTC_1.c **** * Parameters:
1456:.\Generated_Source\PSoC5/RTC_1.c **** *  None.
1457:.\Generated_Source\PSoC5/RTC_1.c **** *
1458:.\Generated_Source\PSoC5/RTC_1.c **** * Return:
1459:.\Generated_Source\PSoC5/RTC_1.c **** *  None.
1460:.\Generated_Source\PSoC5/RTC_1.c **** *
1461:.\Generated_Source\PSoC5/RTC_1.c **** * Global variables:
1462:.\Generated_Source\PSoC5/RTC_1.c **** *  RTC_1_statusDateTime: global variable is modified - active alarm
1463:.\Generated_Source\PSoC5/RTC_1.c **** *  status bit is cleared.
1464:.\Generated_Source\PSoC5/RTC_1.c **** *
1465:.\Generated_Source\PSoC5/RTC_1.c **** * Reentrant:
1466:.\Generated_Source\PSoC5/RTC_1.c **** *  No.
1467:.\Generated_Source\PSoC5/RTC_1.c **** *
1468:.\Generated_Source\PSoC5/RTC_1.c **** * Side Effects:
1469:.\Generated_Source\PSoC5/RTC_1.c **** *  Alarm active(AA) flag clear after read.
1470:.\Generated_Source\PSoC5/RTC_1.c **** *
1471:.\Generated_Source\PSoC5/RTC_1.c **** *******************************************************************************/
1472:.\Generated_Source\PSoC5/RTC_1.c **** uint8 RTC_1_ReadStatus(void) 
1473:.\Generated_Source\PSoC5/RTC_1.c **** {
 2166              		.loc 1 1473 0
 2167              		.cfi_startproc
 2168              		@ args = 0, pretend = 0, frame = 8
 2169              		@ frame_needed = 1, uses_anonymous_args = 0
 2170              		@ link register save eliminated.
 2171 0000 80B4     		push	{r7}
ARM GAS  C:\Users\glenn\AppData\Local\Temp\ccPIHEU1.s 			page 65


 2172              		.cfi_def_cfa_offset 4
 2173              		.cfi_offset 7, -4
 2174 0002 83B0     		sub	sp, sp, #12
 2175              		.cfi_def_cfa_offset 16
 2176 0004 00AF     		add	r7, sp, #0
 2177              		.cfi_def_cfa_register 7
1474:.\Generated_Source\PSoC5/RTC_1.c ****     uint8 status;
1475:.\Generated_Source\PSoC5/RTC_1.c **** 
1476:.\Generated_Source\PSoC5/RTC_1.c ****     /* Save status */
1477:.\Generated_Source\PSoC5/RTC_1.c ****     status = (uint8)RTC_1_statusDateTime;
 2178              		.loc 1 1477 0
 2179 0006 094B     		ldr	r3, .L160
 2180 0008 1B78     		ldrb	r3, [r3]
 2181 000a FB71     		strb	r3, [r7, #7]
1478:.\Generated_Source\PSoC5/RTC_1.c **** 
1479:.\Generated_Source\PSoC5/RTC_1.c ****     /* Clean AA flag after read of Status Register */
1480:.\Generated_Source\PSoC5/RTC_1.c ****     RTC_1_statusDateTime &= (uint8)(~RTC_1_STATUS_AA);
 2182              		.loc 1 1480 0
 2183 000c 074B     		ldr	r3, .L160
 2184 000e 1B78     		ldrb	r3, [r3]
 2185 0010 DBB2     		uxtb	r3, r3
 2186 0012 23F00803 		bic	r3, r3, #8
 2187 0016 DAB2     		uxtb	r2, r3
 2188 0018 044B     		ldr	r3, .L160
 2189 001a 1A70     		strb	r2, [r3]
1481:.\Generated_Source\PSoC5/RTC_1.c **** 
1482:.\Generated_Source\PSoC5/RTC_1.c ****     return (status);
 2190              		.loc 1 1482 0
 2191 001c FB79     		ldrb	r3, [r7, #7]	@ zero_extendqisi2
1483:.\Generated_Source\PSoC5/RTC_1.c **** }
 2192              		.loc 1 1483 0
 2193 001e 1846     		mov	r0, r3
 2194 0020 0C37     		adds	r7, r7, #12
 2195              		.cfi_def_cfa_offset 4
 2196 0022 BD46     		mov	sp, r7
 2197              		.cfi_def_cfa_register 13
 2198              		@ sp needed
 2199 0024 5DF8047B 		ldr	r7, [sp], #4
 2200              		.cfi_restore 7
 2201              		.cfi_def_cfa_offset 0
 2202 0028 7047     		bx	lr
 2203              	.L161:
 2204 002a 00BF     		.align	2
 2205              	.L160:
 2206 002c 00000000 		.word	RTC_1_statusDateTime
 2207              		.cfi_endproc
 2208              	.LFE39:
 2209              		.size	RTC_1_ReadStatus, .-RTC_1_ReadStatus
 2210              		.section	.text.RTC_1_DayOfWeek,"ax",%progbits
 2211              		.align	2
 2212              		.thumb
 2213              		.thumb_func
 2214              		.type	RTC_1_DayOfWeek, %function
 2215              	RTC_1_DayOfWeek:
 2216              	.LFB40:
1484:.\Generated_Source\PSoC5/RTC_1.c **** 
1485:.\Generated_Source\PSoC5/RTC_1.c **** 
ARM GAS  C:\Users\glenn\AppData\Local\Temp\ccPIHEU1.s 			page 66


1486:.\Generated_Source\PSoC5/RTC_1.c **** /*******************************************************************************
1487:.\Generated_Source\PSoC5/RTC_1.c **** * Function Name:   RTC_1_DayOfWeek
1488:.\Generated_Source\PSoC5/RTC_1.c **** ********************************************************************************
1489:.\Generated_Source\PSoC5/RTC_1.c **** *
1490:.\Generated_Source\PSoC5/RTC_1.c **** * Summary:
1491:.\Generated_Source\PSoC5/RTC_1.c **** *  Calculates Day Of Week value use Zeller's congruence.
1492:.\Generated_Source\PSoC5/RTC_1.c **** *
1493:.\Generated_Source\PSoC5/RTC_1.c **** * Parameters:
1494:.\Generated_Source\PSoC5/RTC_1.c **** *  dayOfMonth: Day Of Month value.
1495:.\Generated_Source\PSoC5/RTC_1.c **** *  month: Month value.
1496:.\Generated_Source\PSoC5/RTC_1.c **** *  year: Year value.
1497:.\Generated_Source\PSoC5/RTC_1.c **** *
1498:.\Generated_Source\PSoC5/RTC_1.c **** * Return:
1499:.\Generated_Source\PSoC5/RTC_1.c **** *  Day Of Week value.
1500:.\Generated_Source\PSoC5/RTC_1.c **** *
1501:.\Generated_Source\PSoC5/RTC_1.c **** *******************************************************************************/
1502:.\Generated_Source\PSoC5/RTC_1.c **** static uint8 RTC_1_DayOfWeek(uint8 dayOfMonth, uint8 month, uint16 year)
1503:.\Generated_Source\PSoC5/RTC_1.c **** 
1504:.\Generated_Source\PSoC5/RTC_1.c **** {
 2217              		.loc 1 1504 0
 2218              		.cfi_startproc
 2219              		@ args = 0, pretend = 0, frame = 8
 2220              		@ frame_needed = 1, uses_anonymous_args = 0
 2221              		@ link register save eliminated.
 2222 0000 80B4     		push	{r7}
 2223              		.cfi_def_cfa_offset 4
 2224              		.cfi_offset 7, -4
 2225 0002 83B0     		sub	sp, sp, #12
 2226              		.cfi_def_cfa_offset 16
 2227 0004 00AF     		add	r7, sp, #0
 2228              		.cfi_def_cfa_register 7
 2229 0006 0346     		mov	r3, r0
 2230 0008 FB71     		strb	r3, [r7, #7]
 2231 000a 0B46     		mov	r3, r1
 2232 000c BB71     		strb	r3, [r7, #6]
 2233 000e 1346     		mov	r3, r2	@ movhi
 2234 0010 BB80     		strh	r3, [r7, #4]	@ movhi
1505:.\Generated_Source\PSoC5/RTC_1.c ****     /* Calculated sequence ((31 * month) / 12) mod 7 from the Zeller's congruence */
1506:.\Generated_Source\PSoC5/RTC_1.c ****     static const uint8 CYCODE RTC_1_monthTemplate[RTC_1_MONTHS_IN_YEAR] =
1507:.\Generated_Source\PSoC5/RTC_1.c ****                                                             {0u, 3u, 2u, 5u, 0u, 3u, 5u, 1u, 4u, 6u
1508:.\Generated_Source\PSoC5/RTC_1.c **** 
1509:.\Generated_Source\PSoC5/RTC_1.c ****     /* It is simpler to handle the modified year, which is year - 1 during
1510:.\Generated_Source\PSoC5/RTC_1.c ****     * January and February
1511:.\Generated_Source\PSoC5/RTC_1.c ****     */
1512:.\Generated_Source\PSoC5/RTC_1.c ****     if(month < RTC_1_MARCH)
 2235              		.loc 1 1512 0
 2236 0012 BB79     		ldrb	r3, [r7, #6]	@ zero_extendqisi2
 2237 0014 022B     		cmp	r3, #2
 2238 0016 02D8     		bhi	.L163
1513:.\Generated_Source\PSoC5/RTC_1.c ****     {
1514:.\Generated_Source\PSoC5/RTC_1.c ****         year = year - 1u;
 2239              		.loc 1 1514 0
 2240 0018 BB88     		ldrh	r3, [r7, #4]	@ movhi
 2241 001a 013B     		subs	r3, r3, #1
 2242 001c BB80     		strh	r3, [r7, #4]	@ movhi
 2243              	.L163:
1515:.\Generated_Source\PSoC5/RTC_1.c ****     }
ARM GAS  C:\Users\glenn\AppData\Local\Temp\ccPIHEU1.s 			page 67


1516:.\Generated_Source\PSoC5/RTC_1.c **** 
1517:.\Generated_Source\PSoC5/RTC_1.c ****     /* For Gregorian calendar: d = (day + y + y/4 - y/100 + y/400 + (31*m)/12) mod 7 */
1518:.\Generated_Source\PSoC5/RTC_1.c ****     return ((uint8)(((year + (((year/4u) - (year/100u)) + (year/400u))) +
 2244              		.loc 1 1518 0
 2245 001e BA88     		ldrh	r2, [r7, #4]
 2246 0020 BB88     		ldrh	r3, [r7, #4]
 2247 0022 9B08     		lsrs	r3, r3, #2
 2248 0024 9BB2     		uxth	r3, r3
 2249 0026 1846     		mov	r0, r3
 2250 0028 BB88     		ldrh	r3, [r7, #4]
 2251 002a 1449     		ldr	r1, .L165
 2252 002c A1FB0313 		umull	r1, r3, r1, r3
 2253 0030 5B09     		lsrs	r3, r3, #5
 2254 0032 9BB2     		uxth	r3, r3
 2255 0034 C31A     		subs	r3, r0, r3
 2256 0036 B988     		ldrh	r1, [r7, #4]
 2257 0038 1048     		ldr	r0, .L165
 2258 003a A0FB0101 		umull	r0, r1, r0, r1
 2259 003e C909     		lsrs	r1, r1, #7
 2260 0040 89B2     		uxth	r1, r1
 2261 0042 0B44     		add	r3, r3, r1
 2262 0044 1344     		add	r3, r3, r2
1519:.\Generated_Source\PSoC5/RTC_1.c ****     (((uint16)RTC_1_monthTemplate[month - 1u]) + ((uint16) dayOfMonth))) % RTC_1_DAYS_IN_WEEK));
 2263              		.loc 1 1519 0
 2264 0046 BA79     		ldrb	r2, [r7, #6]	@ zero_extendqisi2
 2265 0048 013A     		subs	r2, r2, #1
 2266 004a 0D49     		ldr	r1, .L165+4
 2267 004c 8A5C     		ldrb	r2, [r1, r2]	@ zero_extendqisi2
 2268 004e 1146     		mov	r1, r2
 2269 0050 FA79     		ldrb	r2, [r7, #7]	@ zero_extendqisi2
 2270 0052 0A44     		add	r2, r2, r1
1518:.\Generated_Source\PSoC5/RTC_1.c ****     (((uint16)RTC_1_monthTemplate[month - 1u]) + ((uint16) dayOfMonth))) % RTC_1_DAYS_IN_WEEK));
 2271              		.loc 1 1518 0
 2272 0054 1A44     		add	r2, r2, r3
 2273              		.loc 1 1519 0
 2274 0056 0B4B     		ldr	r3, .L165+8
 2275 0058 A2FB0301 		umull	r0, r1, r2, r3
 2276 005c 531A     		subs	r3, r2, r1
 2277 005e 5B08     		lsrs	r3, r3, #1
 2278 0060 0B44     		add	r3, r3, r1
 2279 0062 9908     		lsrs	r1, r3, #2
 2280 0064 0B46     		mov	r3, r1
 2281 0066 DB00     		lsls	r3, r3, #3
 2282 0068 5B1A     		subs	r3, r3, r1
 2283 006a D11A     		subs	r1, r2, r3
1518:.\Generated_Source\PSoC5/RTC_1.c ****     (((uint16)RTC_1_monthTemplate[month - 1u]) + ((uint16) dayOfMonth))) % RTC_1_DAYS_IN_WEEK));
 2284              		.loc 1 1518 0
 2285 006c CBB2     		uxtb	r3, r1
1520:.\Generated_Source\PSoC5/RTC_1.c **** }
 2286              		.loc 1 1520 0
 2287 006e 1846     		mov	r0, r3
 2288 0070 0C37     		adds	r7, r7, #12
 2289              		.cfi_def_cfa_offset 4
 2290 0072 BD46     		mov	sp, r7
 2291              		.cfi_def_cfa_register 13
 2292              		@ sp needed
 2293 0074 5DF8047B 		ldr	r7, [sp], #4
ARM GAS  C:\Users\glenn\AppData\Local\Temp\ccPIHEU1.s 			page 68


 2294              		.cfi_restore 7
 2295              		.cfi_def_cfa_offset 0
 2296 0078 7047     		bx	lr
 2297              	.L166:
 2298 007a 00BF     		.align	2
 2299              	.L165:
 2300 007c 1F85EB51 		.word	1374389535
 2301 0080 0C000000 		.word	RTC_1_monthTemplate.5101
 2302 0084 25499224 		.word	613566757
 2303              		.cfi_endproc
 2304              	.LFE40:
 2305              		.size	RTC_1_DayOfWeek, .-RTC_1_DayOfWeek
 2306              		.section	.text.RTC_1_SetInitValues,"ax",%progbits
 2307              		.align	2
 2308              		.thumb
 2309              		.thumb_func
 2310              		.type	RTC_1_SetInitValues, %function
 2311              	RTC_1_SetInitValues:
 2312              	.LFB41:
1521:.\Generated_Source\PSoC5/RTC_1.c **** 
1522:.\Generated_Source\PSoC5/RTC_1.c **** 
1523:.\Generated_Source\PSoC5/RTC_1.c **** /*******************************************************************************
1524:.\Generated_Source\PSoC5/RTC_1.c **** * Function Name:   RTC_1_SetInitValues
1525:.\Generated_Source\PSoC5/RTC_1.c **** ********************************************************************************
1526:.\Generated_Source\PSoC5/RTC_1.c **** *
1527:.\Generated_Source\PSoC5/RTC_1.c **** * Summary:
1528:.\Generated_Source\PSoC5/RTC_1.c **** *    Does all initial calculation.
1529:.\Generated_Source\PSoC5/RTC_1.c **** *    - Set LP Year flag;
1530:.\Generated_Source\PSoC5/RTC_1.c **** *    - Set AM/PM flag;
1531:.\Generated_Source\PSoC5/RTC_1.c **** *    - DayOfWeek;
1532:.\Generated_Source\PSoC5/RTC_1.c **** *    - DayOfYear;
1533:.\Generated_Source\PSoC5/RTC_1.c **** *    - Set DST flag;
1534:.\Generated_Source\PSoC5/RTC_1.c **** *    - Convert relative to absolute date.
1535:.\Generated_Source\PSoC5/RTC_1.c **** *
1536:.\Generated_Source\PSoC5/RTC_1.c **** * Parameters:
1537:.\Generated_Source\PSoC5/RTC_1.c **** *  None.
1538:.\Generated_Source\PSoC5/RTC_1.c **** *
1539:.\Generated_Source\PSoC5/RTC_1.c **** * Return:
1540:.\Generated_Source\PSoC5/RTC_1.c **** *  None.
1541:.\Generated_Source\PSoC5/RTC_1.c **** *
1542:.\Generated_Source\PSoC5/RTC_1.c **** * Global variables:
1543:.\Generated_Source\PSoC5/RTC_1.c **** *  RTC_1_currentTimeDate, RTC_1_dstTimeDateStart,
1544:.\Generated_Source\PSoC5/RTC_1.c **** *  RTC_1_dstTimeDateStop, RTC_1_dstTimeDateStart,
1545:.\Generated_Source\PSoC5/RTC_1.c **** *  RTC_1_alarmCfgTimeDate, RTC_1_statusDateTime,
1546:.\Generated_Source\PSoC5/RTC_1.c **** *  RTC_1_dstStartStatus, RTC_1_dstStartStatus,
1547:.\Generated_Source\PSoC5/RTC_1.c **** *  RTC_1_dstStopStatus, RTC_1_alarmCurStatus:
1548:.\Generated_Source\PSoC5/RTC_1.c **** *  global variables are used while the initial calculation.
1549:.\Generated_Source\PSoC5/RTC_1.c **** *
1550:.\Generated_Source\PSoC5/RTC_1.c **** * RTC_1_dstTimeDateStart, RTC_1_currentTimeDate,
1551:.\Generated_Source\PSoC5/RTC_1.c **** *  RTC_1_statusDateTime, RTC_1_dstStartStatus,
1552:.\Generated_Source\PSoC5/RTC_1.c **** *  RTC_1_dstStartStatus, RTC_1_dstStopStatus,
1553:.\Generated_Source\PSoC5/RTC_1.c **** *  RTC_1_alarmCurStatus: global variables are modified with the
1554:.\Generated_Source\PSoC5/RTC_1.c **** *  initial calculated data.
1555:.\Generated_Source\PSoC5/RTC_1.c **** *
1556:.\Generated_Source\PSoC5/RTC_1.c **** * Reentrant:
1557:.\Generated_Source\PSoC5/RTC_1.c **** *  No.
1558:.\Generated_Source\PSoC5/RTC_1.c **** *
ARM GAS  C:\Users\glenn\AppData\Local\Temp\ccPIHEU1.s 			page 69


1559:.\Generated_Source\PSoC5/RTC_1.c **** *******************************************************************************/
1560:.\Generated_Source\PSoC5/RTC_1.c **** static void RTC_1_SetInitValues(void) 
1561:.\Generated_Source\PSoC5/RTC_1.c **** {
 2313              		.loc 1 1561 0
 2314              		.cfi_startproc
 2315              		@ args = 0, pretend = 0, frame = 8
 2316              		@ frame_needed = 1, uses_anonymous_args = 0
 2317 0000 80B5     		push	{r7, lr}
 2318              		.cfi_def_cfa_offset 8
 2319              		.cfi_offset 7, -8
 2320              		.cfi_offset 14, -4
 2321 0002 82B0     		sub	sp, sp, #8
 2322              		.cfi_def_cfa_offset 16
 2323 0004 00AF     		add	r7, sp, #0
 2324              		.cfi_def_cfa_register 7
1562:.\Generated_Source\PSoC5/RTC_1.c ****     uint8 i;
1563:.\Generated_Source\PSoC5/RTC_1.c ****     uint8 RTC_1_alarmCfgMaskTemp;
1564:.\Generated_Source\PSoC5/RTC_1.c **** 
1565:.\Generated_Source\PSoC5/RTC_1.c ****     /* Clears day of month counter */
1566:.\Generated_Source\PSoC5/RTC_1.c ****     RTC_1_currentTimeDate.DayOfYear = 0u;
 2325              		.loc 1 1566 0
 2326 0006 9C4B     		ldr	r3, .L232
 2327 0008 0022     		movs	r2, #0
 2328 000a DA80     		strh	r2, [r3, #6]	@ movhi
1567:.\Generated_Source\PSoC5/RTC_1.c **** 
1568:.\Generated_Source\PSoC5/RTC_1.c ****     /* Increments day of year value with day in current month */
1569:.\Generated_Source\PSoC5/RTC_1.c ****     RTC_1_currentTimeDate.DayOfYear += RTC_1_currentTimeDate.DayOfMonth;
 2329              		.loc 1 1569 0
 2330 000c 9A4B     		ldr	r3, .L232
 2331 000e 1B79     		ldrb	r3, [r3, #4]
 2332 0010 D9B2     		uxtb	r1, r3
 2333 0012 994B     		ldr	r3, .L232
 2334 0014 DB88     		ldrh	r3, [r3, #6]	@ movhi
 2335 0016 9AB2     		uxth	r2, r3
 2336 0018 8BB2     		uxth	r3, r1
 2337 001a 1344     		add	r3, r3, r2
 2338 001c 9AB2     		uxth	r2, r3
 2339 001e 964B     		ldr	r3, .L232
 2340 0020 DA80     		strh	r2, [r3, #6]	@ movhi
1570:.\Generated_Source\PSoC5/RTC_1.c **** 
1571:.\Generated_Source\PSoC5/RTC_1.c ****     /* Check leap year */
1572:.\Generated_Source\PSoC5/RTC_1.c ****     if(1u == RTC_1_LEAP_YEAR(RTC_1_currentTimeDate.Year))
 2341              		.loc 1 1572 0
 2342 0022 954B     		ldr	r3, .L232
 2343 0024 5B89     		ldrh	r3, [r3, #10]	@ movhi
 2344 0026 9BB2     		uxth	r3, r3
 2345 0028 944A     		ldr	r2, .L232+4
 2346 002a A2FB0312 		umull	r1, r2, r2, r3
 2347 002e D209     		lsrs	r2, r2, #7
 2348 0030 4FF4C871 		mov	r1, #400
 2349 0034 01FB02F2 		mul	r2, r1, r2
 2350 0038 9B1A     		subs	r3, r3, r2
 2351 003a 9BB2     		uxth	r3, r3
 2352 003c 002B     		cmp	r3, #0
 2353 003e 15D0     		beq	.L168
 2354              		.loc 1 1572 0 is_stmt 0 discriminator 1
 2355 0040 8D4B     		ldr	r3, .L232
ARM GAS  C:\Users\glenn\AppData\Local\Temp\ccPIHEU1.s 			page 70


 2356 0042 5B89     		ldrh	r3, [r3, #10]	@ movhi
 2357 0044 9BB2     		uxth	r3, r3
 2358 0046 03F00303 		and	r3, r3, #3
 2359 004a 9BB2     		uxth	r3, r3
 2360 004c 002B     		cmp	r3, #0
 2361 004e 16D1     		bne	.L169
 2362              		.loc 1 1572 0 discriminator 2
 2363 0050 894B     		ldr	r3, .L232
 2364 0052 5B89     		ldrh	r3, [r3, #10]	@ movhi
 2365 0054 9BB2     		uxth	r3, r3
 2366 0056 894A     		ldr	r2, .L232+4
 2367 0058 A2FB0312 		umull	r1, r2, r2, r3
 2368 005c 5209     		lsrs	r2, r2, #5
 2369 005e 6421     		movs	r1, #100
 2370 0060 01FB02F2 		mul	r2, r1, r2
 2371 0064 9B1A     		subs	r3, r3, r2
 2372 0066 9BB2     		uxth	r3, r3
 2373 0068 002B     		cmp	r3, #0
 2374 006a 08D0     		beq	.L169
 2375              	.L168:
1573:.\Generated_Source\PSoC5/RTC_1.c ****     {
1574:.\Generated_Source\PSoC5/RTC_1.c ****         /* Set LP Year flag */
1575:.\Generated_Source\PSoC5/RTC_1.c ****         RTC_1_statusDateTime |= RTC_1_STATUS_LY;
 2376              		.loc 1 1575 0 is_stmt 1
 2377 006c 844B     		ldr	r3, .L232+8
 2378 006e 1B78     		ldrb	r3, [r3]
 2379 0070 DBB2     		uxtb	r3, r3
 2380 0072 43F00203 		orr	r3, r3, #2
 2381 0076 DAB2     		uxtb	r2, r3
 2382 0078 814B     		ldr	r3, .L232+8
 2383 007a 1A70     		strb	r2, [r3]
 2384 007c 07E0     		b	.L170
 2385              	.L169:
1576:.\Generated_Source\PSoC5/RTC_1.c ****     }   /* leap year flag was set */
1577:.\Generated_Source\PSoC5/RTC_1.c ****     else
1578:.\Generated_Source\PSoC5/RTC_1.c ****     {
1579:.\Generated_Source\PSoC5/RTC_1.c ****         /* Clear LP Year flag */
1580:.\Generated_Source\PSoC5/RTC_1.c ****         RTC_1_statusDateTime &= (uint8)(~RTC_1_STATUS_LY);
 2386              		.loc 1 1580 0
 2387 007e 804B     		ldr	r3, .L232+8
 2388 0080 1B78     		ldrb	r3, [r3]
 2389 0082 DBB2     		uxtb	r3, r3
 2390 0084 23F00203 		bic	r3, r3, #2
 2391 0088 DAB2     		uxtb	r2, r3
 2392 008a 7D4B     		ldr	r3, .L232+8
 2393 008c 1A70     		strb	r2, [r3]
 2394              	.L170:
1581:.\Generated_Source\PSoC5/RTC_1.c ****     }   /* leap year flag was cleared */
1582:.\Generated_Source\PSoC5/RTC_1.c **** 
1583:.\Generated_Source\PSoC5/RTC_1.c ****     /* Day of Year */
1584:.\Generated_Source\PSoC5/RTC_1.c ****     for(i = 0u; i < (RTC_1_currentTimeDate.Month - 1u); i++)
 2395              		.loc 1 1584 0
 2396 008e 0023     		movs	r3, #0
 2397 0090 FB71     		strb	r3, [r7, #7]
 2398 0092 0DE0     		b	.L171
 2399              	.L172:
1585:.\Generated_Source\PSoC5/RTC_1.c ****     {
ARM GAS  C:\Users\glenn\AppData\Local\Temp\ccPIHEU1.s 			page 71


1586:.\Generated_Source\PSoC5/RTC_1.c ****         /* Increment on days in passed months */
1587:.\Generated_Source\PSoC5/RTC_1.c ****         RTC_1_currentTimeDate.DayOfYear += RTC_1_daysInMonths[i];
 2400              		.loc 1 1587 0 discriminator 3
 2401 0094 784B     		ldr	r3, .L232
 2402 0096 DB88     		ldrh	r3, [r3, #6]	@ movhi
 2403 0098 9AB2     		uxth	r2, r3
 2404 009a FB79     		ldrb	r3, [r7, #7]	@ zero_extendqisi2
 2405 009c 7949     		ldr	r1, .L232+12
 2406 009e CB5C     		ldrb	r3, [r1, r3]	@ zero_extendqisi2
 2407 00a0 9BB2     		uxth	r3, r3
 2408 00a2 1344     		add	r3, r3, r2
 2409 00a4 9AB2     		uxth	r2, r3
 2410 00a6 744B     		ldr	r3, .L232
 2411 00a8 DA80     		strh	r2, [r3, #6]	@ movhi
1584:.\Generated_Source\PSoC5/RTC_1.c ****     {
 2412              		.loc 1 1584 0 discriminator 3
 2413 00aa FB79     		ldrb	r3, [r7, #7]	@ zero_extendqisi2
 2414 00ac 0133     		adds	r3, r3, #1
 2415 00ae FB71     		strb	r3, [r7, #7]
 2416              	.L171:
1584:.\Generated_Source\PSoC5/RTC_1.c ****     {
 2417              		.loc 1 1584 0 is_stmt 0 discriminator 1
 2418 00b0 FA79     		ldrb	r2, [r7, #7]	@ zero_extendqisi2
 2419 00b2 714B     		ldr	r3, .L232
 2420 00b4 1B7A     		ldrb	r3, [r3, #8]
 2421 00b6 DBB2     		uxtb	r3, r3
 2422 00b8 013B     		subs	r3, r3, #1
 2423 00ba 9A42     		cmp	r2, r3
 2424 00bc EAD3     		bcc	.L172
1588:.\Generated_Source\PSoC5/RTC_1.c ****     }   /* day of year is calculated */
1589:.\Generated_Source\PSoC5/RTC_1.c **** 
1590:.\Generated_Source\PSoC5/RTC_1.c ****     /* Leap year check */
1591:.\Generated_Source\PSoC5/RTC_1.c ****     if(0u != RTC_1_IS_BIT_SET(RTC_1_statusDateTime, RTC_1_STATUS_LY))
 2425              		.loc 1 1591 0 is_stmt 1
 2426 00be 704B     		ldr	r3, .L232+8
 2427 00c0 1B78     		ldrb	r3, [r3]
 2428 00c2 DBB2     		uxtb	r3, r3
 2429 00c4 03F00203 		and	r3, r3, #2
 2430 00c8 002B     		cmp	r3, #0
 2431 00ca 0BD0     		beq	.L173
1592:.\Generated_Source\PSoC5/RTC_1.c ****     {
1593:.\Generated_Source\PSoC5/RTC_1.c ****         /* Leap day check */
1594:.\Generated_Source\PSoC5/RTC_1.c ****         if(RTC_1_currentTimeDate.Month > RTC_1_FEBRUARY)
 2432              		.loc 1 1594 0
 2433 00cc 6A4B     		ldr	r3, .L232
 2434 00ce 1B7A     		ldrb	r3, [r3, #8]
 2435 00d0 DBB2     		uxtb	r3, r3
 2436 00d2 022B     		cmp	r3, #2
 2437 00d4 06D9     		bls	.L173
1595:.\Generated_Source\PSoC5/RTC_1.c ****         {
1596:.\Generated_Source\PSoC5/RTC_1.c ****             /* Add leap day */
1597:.\Generated_Source\PSoC5/RTC_1.c ****             RTC_1_currentTimeDate.DayOfYear++;
 2438              		.loc 1 1597 0
 2439 00d6 684B     		ldr	r3, .L232
 2440 00d8 DB88     		ldrh	r3, [r3, #6]	@ movhi
 2441 00da 9BB2     		uxth	r3, r3
 2442 00dc 0133     		adds	r3, r3, #1
ARM GAS  C:\Users\glenn\AppData\Local\Temp\ccPIHEU1.s 			page 72


 2443 00de 9AB2     		uxth	r2, r3
 2444 00e0 654B     		ldr	r3, .L232
 2445 00e2 DA80     		strh	r2, [r3, #6]	@ movhi
 2446              	.L173:
1598:.\Generated_Source\PSoC5/RTC_1.c ****         }   /* Do nothing for non leap day */
1599:.\Generated_Source\PSoC5/RTC_1.c ****     }   /* Do nothing for not leap year */
1600:.\Generated_Source\PSoC5/RTC_1.c **** 
1601:.\Generated_Source\PSoC5/RTC_1.c ****     /* DayOfWeek */
1602:.\Generated_Source\PSoC5/RTC_1.c ****     RTC_1_currentTimeDate.DayOfWeek = RTC_1_DayOfWeek(
 2447              		.loc 1 1602 0
 2448 00e4 644B     		ldr	r3, .L232
 2449 00e6 1B79     		ldrb	r3, [r3, #4]
 2450 00e8 D9B2     		uxtb	r1, r3
 2451 00ea 634B     		ldr	r3, .L232
 2452 00ec 1B7A     		ldrb	r3, [r3, #8]
 2453 00ee DAB2     		uxtb	r2, r3
 2454 00f0 614B     		ldr	r3, .L232
 2455 00f2 5B89     		ldrh	r3, [r3, #10]	@ movhi
 2456 00f4 9BB2     		uxth	r3, r3
 2457 00f6 0846     		mov	r0, r1
 2458 00f8 1146     		mov	r1, r2
 2459 00fa 1A46     		mov	r2, r3
 2460 00fc FFF7FEFF 		bl	RTC_1_DayOfWeek
 2461 0100 0346     		mov	r3, r0
 2462 0102 0133     		adds	r3, r3, #1
 2463 0104 DAB2     		uxtb	r2, r3
 2464 0106 5C4B     		ldr	r3, .L232
 2465 0108 DA70     		strb	r2, [r3, #3]
1603:.\Generated_Source\PSoC5/RTC_1.c ****                                                                         RTC_1_currentTimeDate.DayOf
1604:.\Generated_Source\PSoC5/RTC_1.c ****                                                                         RTC_1_currentTimeDate.Month
1605:.\Generated_Source\PSoC5/RTC_1.c ****                                                                         RTC_1_currentTimeDate.Year)
1606:.\Generated_Source\PSoC5/RTC_1.c **** 
1607:.\Generated_Source\PSoC5/RTC_1.c ****     if(RTC_1_currentTimeDate.DayOfWeek > RTC_1_START_OF_WEEK)
 2466              		.loc 1 1607 0
 2467 010a 5B4B     		ldr	r3, .L232
 2468 010c DB78     		ldrb	r3, [r3, #3]
 2469 010e DBB2     		uxtb	r3, r3
 2470 0110 002B     		cmp	r3, #0
 2471 0112 05D0     		beq	.L174
1608:.\Generated_Source\PSoC5/RTC_1.c ****     {
1609:.\Generated_Source\PSoC5/RTC_1.c ****         RTC_1_currentTimeDate.DayOfWeek -= RTC_1_START_OF_WEEK;
 2472              		.loc 1 1609 0
 2473 0114 584B     		ldr	r3, .L232
 2474 0116 DB78     		ldrb	r3, [r3, #3]
 2475 0118 DAB2     		uxtb	r2, r3
 2476 011a 574B     		ldr	r3, .L232
 2477 011c DA70     		strb	r2, [r3, #3]
 2478 011e 06E0     		b	.L175
 2479              	.L174:
1610:.\Generated_Source\PSoC5/RTC_1.c ****     }
1611:.\Generated_Source\PSoC5/RTC_1.c ****     else
1612:.\Generated_Source\PSoC5/RTC_1.c ****     {
1613:.\Generated_Source\PSoC5/RTC_1.c ****         RTC_1_currentTimeDate.DayOfWeek = RTC_1_DAYS_IN_WEEK -
1614:.\Generated_Source\PSoC5/RTC_1.c ****                                         (RTC_1_START_OF_WEEK - RTC_1_currentTimeDate.DayOfWeek);
 2480              		.loc 1 1614 0
 2481 0120 554B     		ldr	r3, .L232
 2482 0122 DB78     		ldrb	r3, [r3, #3]
ARM GAS  C:\Users\glenn\AppData\Local\Temp\ccPIHEU1.s 			page 73


 2483 0124 DBB2     		uxtb	r3, r3
1613:.\Generated_Source\PSoC5/RTC_1.c ****                                         (RTC_1_START_OF_WEEK - RTC_1_currentTimeDate.DayOfWeek);
 2484              		.loc 1 1613 0
 2485 0126 0733     		adds	r3, r3, #7
 2486 0128 DAB2     		uxtb	r2, r3
 2487 012a 534B     		ldr	r3, .L232
 2488 012c DA70     		strb	r2, [r3, #3]
 2489              	.L175:
1615:.\Generated_Source\PSoC5/RTC_1.c ****     }
1616:.\Generated_Source\PSoC5/RTC_1.c **** 
1617:.\Generated_Source\PSoC5/RTC_1.c ****     #if (1u == RTC_1_DST_FUNC_ENABLE)
1618:.\Generated_Source\PSoC5/RTC_1.c **** 
1619:.\Generated_Source\PSoC5/RTC_1.c ****         /* If DST values is given in a relative manner, converts to the absolute values */
1620:.\Generated_Source\PSoC5/RTC_1.c ****         if(0u != RTC_1_IS_BIT_SET(RTC_1_dstModeType, RTC_1_DST_RELDATE))
 2490              		.loc 1 1620 0
 2491 012e 564B     		ldr	r3, .L232+16
 2492 0130 1B78     		ldrb	r3, [r3]
 2493 0132 DBB2     		uxtb	r3, r3
 2494 0134 03F00203 		and	r3, r3, #2
 2495 0138 002B     		cmp	r3, #0
 2496 013a 01D0     		beq	.L176
1621:.\Generated_Source\PSoC5/RTC_1.c ****         {
1622:.\Generated_Source\PSoC5/RTC_1.c ****             RTC_1_DSTDateConversion();
 2497              		.loc 1 1622 0
 2498 013c FFF7FEFF 		bl	RTC_1_DSTDateConversion
 2499              	.L176:
1623:.\Generated_Source\PSoC5/RTC_1.c ****         }
1624:.\Generated_Source\PSoC5/RTC_1.c **** 
1625:.\Generated_Source\PSoC5/RTC_1.c ****         /* Sets DST status respect to the DST start date and time */
1626:.\Generated_Source\PSoC5/RTC_1.c ****         if(RTC_1_currentTimeDate.Month > RTC_1_dstTimeDateStart.Month)
 2500              		.loc 1 1626 0
 2501 0140 4D4B     		ldr	r3, .L232
 2502 0142 1B7A     		ldrb	r3, [r3, #8]
 2503 0144 DAB2     		uxtb	r2, r3
 2504 0146 514B     		ldr	r3, .L232+20
 2505 0148 1B79     		ldrb	r3, [r3, #4]
 2506 014a DBB2     		uxtb	r3, r3
 2507 014c 9A42     		cmp	r2, r3
 2508 014e 08D9     		bls	.L177
1627:.\Generated_Source\PSoC5/RTC_1.c ****         {
1628:.\Generated_Source\PSoC5/RTC_1.c ****             RTC_1_statusDateTime |= RTC_1_STATUS_DST;
 2509              		.loc 1 1628 0
 2510 0150 4B4B     		ldr	r3, .L232+8
 2511 0152 1B78     		ldrb	r3, [r3]
 2512 0154 DBB2     		uxtb	r3, r3
 2513 0156 43F00103 		orr	r3, r3, #1
 2514 015a DAB2     		uxtb	r2, r3
 2515 015c 484B     		ldr	r3, .L232+8
 2516 015e 1A70     		strb	r2, [r3]
 2517 0160 30E0     		b	.L178
 2518              	.L177:
1629:.\Generated_Source\PSoC5/RTC_1.c ****         }
1630:.\Generated_Source\PSoC5/RTC_1.c ****         else if(RTC_1_currentTimeDate.Month == RTC_1_dstTimeDateStart.Month)
 2519              		.loc 1 1630 0
 2520 0162 454B     		ldr	r3, .L232
 2521 0164 1B7A     		ldrb	r3, [r3, #8]
 2522 0166 DAB2     		uxtb	r2, r3
ARM GAS  C:\Users\glenn\AppData\Local\Temp\ccPIHEU1.s 			page 74


 2523 0168 484B     		ldr	r3, .L232+20
 2524 016a 1B79     		ldrb	r3, [r3, #4]
 2525 016c DBB2     		uxtb	r3, r3
 2526 016e 9A42     		cmp	r2, r3
 2527 0170 28D1     		bne	.L178
1631:.\Generated_Source\PSoC5/RTC_1.c ****         {
1632:.\Generated_Source\PSoC5/RTC_1.c ****             if(RTC_1_currentTimeDate.DayOfMonth > RTC_1_dstTimeDateStart.DayOfMonth)
 2528              		.loc 1 1632 0
 2529 0172 414B     		ldr	r3, .L232
 2530 0174 1B79     		ldrb	r3, [r3, #4]
 2531 0176 DAB2     		uxtb	r2, r3
 2532 0178 444B     		ldr	r3, .L232+20
 2533 017a DB78     		ldrb	r3, [r3, #3]
 2534 017c DBB2     		uxtb	r3, r3
 2535 017e 9A42     		cmp	r2, r3
 2536 0180 08D9     		bls	.L179
1633:.\Generated_Source\PSoC5/RTC_1.c ****             {
1634:.\Generated_Source\PSoC5/RTC_1.c ****                 RTC_1_statusDateTime |= RTC_1_STATUS_DST;
 2537              		.loc 1 1634 0
 2538 0182 3F4B     		ldr	r3, .L232+8
 2539 0184 1B78     		ldrb	r3, [r3]
 2540 0186 DBB2     		uxtb	r3, r3
 2541 0188 43F00103 		orr	r3, r3, #1
 2542 018c DAB2     		uxtb	r2, r3
 2543 018e 3C4B     		ldr	r3, .L232+8
 2544 0190 1A70     		strb	r2, [r3]
 2545 0192 17E0     		b	.L178
 2546              	.L179:
1635:.\Generated_Source\PSoC5/RTC_1.c ****             }
1636:.\Generated_Source\PSoC5/RTC_1.c ****             else if(RTC_1_currentTimeDate.DayOfMonth == RTC_1_dstTimeDateStart.DayOfMonth)
 2547              		.loc 1 1636 0
 2548 0194 384B     		ldr	r3, .L232
 2549 0196 1B79     		ldrb	r3, [r3, #4]
 2550 0198 DAB2     		uxtb	r2, r3
 2551 019a 3C4B     		ldr	r3, .L232+20
 2552 019c DB78     		ldrb	r3, [r3, #3]
 2553 019e DBB2     		uxtb	r3, r3
 2554 01a0 9A42     		cmp	r2, r3
 2555 01a2 0FD1     		bne	.L178
1637:.\Generated_Source\PSoC5/RTC_1.c ****             {
1638:.\Generated_Source\PSoC5/RTC_1.c ****                 if(RTC_1_currentTimeDate.Hour > RTC_1_dstTimeDateStart.Hour)
 2556              		.loc 1 1638 0
 2557 01a4 344B     		ldr	r3, .L232
 2558 01a6 9B78     		ldrb	r3, [r3, #2]
 2559 01a8 DAB2     		uxtb	r2, r3
 2560 01aa 384B     		ldr	r3, .L232+20
 2561 01ac 1B78     		ldrb	r3, [r3]
 2562 01ae DBB2     		uxtb	r3, r3
 2563 01b0 9A42     		cmp	r2, r3
 2564 01b2 07D9     		bls	.L178
1639:.\Generated_Source\PSoC5/RTC_1.c ****                 {
1640:.\Generated_Source\PSoC5/RTC_1.c ****                     RTC_1_statusDateTime |= RTC_1_STATUS_DST;
 2565              		.loc 1 1640 0
 2566 01b4 324B     		ldr	r3, .L232+8
 2567 01b6 1B78     		ldrb	r3, [r3]
 2568 01b8 DBB2     		uxtb	r3, r3
 2569 01ba 43F00103 		orr	r3, r3, #1
ARM GAS  C:\Users\glenn\AppData\Local\Temp\ccPIHEU1.s 			page 75


 2570 01be DAB2     		uxtb	r2, r3
 2571 01c0 2F4B     		ldr	r3, .L232+8
 2572 01c2 1A70     		strb	r2, [r3]
 2573              	.L178:
1641:.\Generated_Source\PSoC5/RTC_1.c ****                 }
1642:.\Generated_Source\PSoC5/RTC_1.c ****             }
1643:.\Generated_Source\PSoC5/RTC_1.c ****             else
1644:.\Generated_Source\PSoC5/RTC_1.c ****             {
1645:.\Generated_Source\PSoC5/RTC_1.c ****                 /* Do nothing if current day of month is less than DST stop day of month */
1646:.\Generated_Source\PSoC5/RTC_1.c ****             }
1647:.\Generated_Source\PSoC5/RTC_1.c ****         }
1648:.\Generated_Source\PSoC5/RTC_1.c ****         else
1649:.\Generated_Source\PSoC5/RTC_1.c ****         {
1650:.\Generated_Source\PSoC5/RTC_1.c ****             /* Do nothing if current month is before than DST stop month */
1651:.\Generated_Source\PSoC5/RTC_1.c ****         }
1652:.\Generated_Source\PSoC5/RTC_1.c **** 
1653:.\Generated_Source\PSoC5/RTC_1.c ****         /* Clears DST status respect to the DST start date and time */
1654:.\Generated_Source\PSoC5/RTC_1.c ****         if(RTC_1_currentTimeDate.Month > RTC_1_dstTimeDateStop.Month)
 2574              		.loc 1 1654 0
 2575 01c4 2C4B     		ldr	r3, .L232
 2576 01c6 1B7A     		ldrb	r3, [r3, #8]
 2577 01c8 DAB2     		uxtb	r2, r3
 2578 01ca 314B     		ldr	r3, .L232+24
 2579 01cc 1B79     		ldrb	r3, [r3, #4]
 2580 01ce DBB2     		uxtb	r3, r3
 2581 01d0 9A42     		cmp	r2, r3
 2582 01d2 08D9     		bls	.L181
1655:.\Generated_Source\PSoC5/RTC_1.c ****         {
1656:.\Generated_Source\PSoC5/RTC_1.c ****             RTC_1_statusDateTime &= (uint8)(~RTC_1_STATUS_DST);
 2583              		.loc 1 1656 0
 2584 01d4 2A4B     		ldr	r3, .L232+8
 2585 01d6 1B78     		ldrb	r3, [r3]
 2586 01d8 DBB2     		uxtb	r3, r3
 2587 01da 23F00103 		bic	r3, r3, #1
 2588 01de DAB2     		uxtb	r2, r3
 2589 01e0 274B     		ldr	r3, .L232+8
 2590 01e2 1A70     		strb	r2, [r3]
 2591 01e4 30E0     		b	.L182
 2592              	.L181:
1657:.\Generated_Source\PSoC5/RTC_1.c ****         }
1658:.\Generated_Source\PSoC5/RTC_1.c ****         else if(RTC_1_currentTimeDate.Month == RTC_1_dstTimeDateStop.Month)
 2593              		.loc 1 1658 0
 2594 01e6 244B     		ldr	r3, .L232
 2595 01e8 1B7A     		ldrb	r3, [r3, #8]
 2596 01ea DAB2     		uxtb	r2, r3
 2597 01ec 284B     		ldr	r3, .L232+24
 2598 01ee 1B79     		ldrb	r3, [r3, #4]
 2599 01f0 DBB2     		uxtb	r3, r3
 2600 01f2 9A42     		cmp	r2, r3
 2601 01f4 28D1     		bne	.L182
1659:.\Generated_Source\PSoC5/RTC_1.c ****         {
1660:.\Generated_Source\PSoC5/RTC_1.c ****             if(RTC_1_currentTimeDate.DayOfMonth > RTC_1_dstTimeDateStop.DayOfMonth)
 2602              		.loc 1 1660 0
 2603 01f6 204B     		ldr	r3, .L232
 2604 01f8 1B79     		ldrb	r3, [r3, #4]
 2605 01fa DAB2     		uxtb	r2, r3
 2606 01fc 244B     		ldr	r3, .L232+24
ARM GAS  C:\Users\glenn\AppData\Local\Temp\ccPIHEU1.s 			page 76


 2607 01fe DB78     		ldrb	r3, [r3, #3]
 2608 0200 DBB2     		uxtb	r3, r3
 2609 0202 9A42     		cmp	r2, r3
 2610 0204 08D9     		bls	.L183
1661:.\Generated_Source\PSoC5/RTC_1.c ****             {
1662:.\Generated_Source\PSoC5/RTC_1.c ****                 RTC_1_statusDateTime &= (uint8)(~RTC_1_STATUS_DST);
 2611              		.loc 1 1662 0
 2612 0206 1E4B     		ldr	r3, .L232+8
 2613 0208 1B78     		ldrb	r3, [r3]
 2614 020a DBB2     		uxtb	r3, r3
 2615 020c 23F00103 		bic	r3, r3, #1
 2616 0210 DAB2     		uxtb	r2, r3
 2617 0212 1B4B     		ldr	r3, .L232+8
 2618 0214 1A70     		strb	r2, [r3]
 2619 0216 17E0     		b	.L182
 2620              	.L183:
1663:.\Generated_Source\PSoC5/RTC_1.c ****             }
1664:.\Generated_Source\PSoC5/RTC_1.c ****             else if(RTC_1_currentTimeDate.DayOfMonth == RTC_1_dstTimeDateStop.DayOfMonth)
 2621              		.loc 1 1664 0
 2622 0218 174B     		ldr	r3, .L232
 2623 021a 1B79     		ldrb	r3, [r3, #4]
 2624 021c DAB2     		uxtb	r2, r3
 2625 021e 1C4B     		ldr	r3, .L232+24
 2626 0220 DB78     		ldrb	r3, [r3, #3]
 2627 0222 DBB2     		uxtb	r3, r3
 2628 0224 9A42     		cmp	r2, r3
 2629 0226 0FD1     		bne	.L182
1665:.\Generated_Source\PSoC5/RTC_1.c ****             {
1666:.\Generated_Source\PSoC5/RTC_1.c ****                 if(RTC_1_currentTimeDate.Hour > RTC_1_dstTimeDateStop.Hour)
 2630              		.loc 1 1666 0
 2631 0228 134B     		ldr	r3, .L232
 2632 022a 9B78     		ldrb	r3, [r3, #2]
 2633 022c DAB2     		uxtb	r2, r3
 2634 022e 184B     		ldr	r3, .L232+24
 2635 0230 1B78     		ldrb	r3, [r3]
 2636 0232 DBB2     		uxtb	r3, r3
 2637 0234 9A42     		cmp	r2, r3
 2638 0236 07D9     		bls	.L182
1667:.\Generated_Source\PSoC5/RTC_1.c ****                 {
1668:.\Generated_Source\PSoC5/RTC_1.c ****                     RTC_1_statusDateTime &= (uint8)(~RTC_1_STATUS_DST);
 2639              		.loc 1 1668 0
 2640 0238 114B     		ldr	r3, .L232+8
 2641 023a 1B78     		ldrb	r3, [r3]
 2642 023c DBB2     		uxtb	r3, r3
 2643 023e 23F00103 		bic	r3, r3, #1
 2644 0242 DAB2     		uxtb	r2, r3
 2645 0244 0E4B     		ldr	r3, .L232+8
 2646 0246 1A70     		strb	r2, [r3]
 2647              	.L182:
1669:.\Generated_Source\PSoC5/RTC_1.c ****                 }
1670:.\Generated_Source\PSoC5/RTC_1.c ****             }
1671:.\Generated_Source\PSoC5/RTC_1.c ****             else
1672:.\Generated_Source\PSoC5/RTC_1.c ****             {
1673:.\Generated_Source\PSoC5/RTC_1.c ****                 /* Do nothing if current day of month is less than DST stop day of month */
1674:.\Generated_Source\PSoC5/RTC_1.c ****             }
1675:.\Generated_Source\PSoC5/RTC_1.c ****         }
1676:.\Generated_Source\PSoC5/RTC_1.c ****         else
ARM GAS  C:\Users\glenn\AppData\Local\Temp\ccPIHEU1.s 			page 77


1677:.\Generated_Source\PSoC5/RTC_1.c ****         {
1678:.\Generated_Source\PSoC5/RTC_1.c ****             /* Do nothing if current month is before than DST stop month */
1679:.\Generated_Source\PSoC5/RTC_1.c ****         }
1680:.\Generated_Source\PSoC5/RTC_1.c **** 
1681:.\Generated_Source\PSoC5/RTC_1.c ****         /* Clear DST start/stop statuses */
1682:.\Generated_Source\PSoC5/RTC_1.c ****         RTC_1_dstStartStatus = 0u;
 2648              		.loc 1 1682 0
 2649 0248 124B     		ldr	r3, .L232+28
 2650 024a 0022     		movs	r2, #0
 2651 024c 1A70     		strb	r2, [r3]
1683:.\Generated_Source\PSoC5/RTC_1.c ****         RTC_1_dstStopStatus = 0u;
 2652              		.loc 1 1683 0
 2653 024e 124B     		ldr	r3, .L232+32
 2654 0250 0022     		movs	r2, #0
 2655 0252 1A70     		strb	r2, [r3]
1684:.\Generated_Source\PSoC5/RTC_1.c **** 
1685:.\Generated_Source\PSoC5/RTC_1.c ****         /* Sets DST stop status month flag if DST stop month is equal to the
1686:.\Generated_Source\PSoC5/RTC_1.c ****         * current month, otherwise clears that flag.
1687:.\Generated_Source\PSoC5/RTC_1.c ****         */
1688:.\Generated_Source\PSoC5/RTC_1.c ****         if(RTC_1_dstTimeDateStop.Month == RTC_1_currentTimeDate.Month)
 2656              		.loc 1 1688 0
 2657 0254 0E4B     		ldr	r3, .L232+24
 2658 0256 1B79     		ldrb	r3, [r3, #4]
 2659 0258 DAB2     		uxtb	r2, r3
 2660 025a 074B     		ldr	r3, .L232
 2661 025c 1B7A     		ldrb	r3, [r3, #8]
 2662 025e DBB2     		uxtb	r3, r3
 2663 0260 9A42     		cmp	r2, r3
 2664 0262 1BD1     		bne	.L185
1689:.\Generated_Source\PSoC5/RTC_1.c ****         {
1690:.\Generated_Source\PSoC5/RTC_1.c ****             RTC_1_dstStopStatus |= RTC_1_DST_MONTH;
 2665              		.loc 1 1690 0
 2666 0264 0C4B     		ldr	r3, .L232+32
 2667 0266 1B78     		ldrb	r3, [r3]
 2668 0268 DBB2     		uxtb	r3, r3
 2669 026a 43F00403 		orr	r3, r3, #4
 2670 026e DAB2     		uxtb	r2, r3
 2671 0270 094B     		ldr	r3, .L232+32
 2672 0272 1A70     		strb	r2, [r3]
 2673 0274 1AE0     		b	.L186
 2674              	.L233:
 2675 0276 00BF     		.align	2
 2676              	.L232:
 2677 0278 00000000 		.word	RTC_1_currentTimeDate
 2678 027c 1F85EB51 		.word	1374389535
 2679 0280 00000000 		.word	RTC_1_statusDateTime
 2680 0284 00000000 		.word	RTC_1_daysInMonths
 2681 0288 00000000 		.word	RTC_1_dstModeType
 2682 028c 00000000 		.word	RTC_1_dstTimeDateStart
 2683 0290 00000000 		.word	RTC_1_dstTimeDateStop
 2684 0294 00000000 		.word	RTC_1_dstStartStatus
 2685 0298 00000000 		.word	RTC_1_dstStopStatus
 2686              	.L185:
1691:.\Generated_Source\PSoC5/RTC_1.c ****         }
1692:.\Generated_Source\PSoC5/RTC_1.c ****         else
1693:.\Generated_Source\PSoC5/RTC_1.c ****         {
1694:.\Generated_Source\PSoC5/RTC_1.c ****             RTC_1_dstStopStatus &= (uint8)(~RTC_1_DST_MONTH);
ARM GAS  C:\Users\glenn\AppData\Local\Temp\ccPIHEU1.s 			page 78


 2687              		.loc 1 1694 0
 2688 029c 3E4B     		ldr	r3, .L234
 2689 029e 1B78     		ldrb	r3, [r3]
 2690 02a0 DBB2     		uxtb	r3, r3
 2691 02a2 23F00403 		bic	r3, r3, #4
 2692 02a6 DAB2     		uxtb	r2, r3
 2693 02a8 3B4B     		ldr	r3, .L234
 2694 02aa 1A70     		strb	r2, [r3]
 2695              	.L186:
1695:.\Generated_Source\PSoC5/RTC_1.c ****         }
1696:.\Generated_Source\PSoC5/RTC_1.c **** 
1697:.\Generated_Source\PSoC5/RTC_1.c ****         /* Sets DST start status month flag if DST start month is equal to the
1698:.\Generated_Source\PSoC5/RTC_1.c ****         * current month, otherwise clears that flag.
1699:.\Generated_Source\PSoC5/RTC_1.c ****         */
1700:.\Generated_Source\PSoC5/RTC_1.c ****         if(RTC_1_dstTimeDateStart.Month == RTC_1_currentTimeDate.Month)
 2696              		.loc 1 1700 0
 2697 02ac 3B4B     		ldr	r3, .L234+4
 2698 02ae 1B79     		ldrb	r3, [r3, #4]
 2699 02b0 DAB2     		uxtb	r2, r3
 2700 02b2 3B4B     		ldr	r3, .L234+8
 2701 02b4 1B7A     		ldrb	r3, [r3, #8]
 2702 02b6 DBB2     		uxtb	r3, r3
 2703 02b8 9A42     		cmp	r2, r3
 2704 02ba 08D1     		bne	.L187
1701:.\Generated_Source\PSoC5/RTC_1.c ****         {
1702:.\Generated_Source\PSoC5/RTC_1.c ****             RTC_1_dstStartStatus |= RTC_1_DST_MONTH;
 2705              		.loc 1 1702 0
 2706 02bc 394B     		ldr	r3, .L234+12
 2707 02be 1B78     		ldrb	r3, [r3]
 2708 02c0 DBB2     		uxtb	r3, r3
 2709 02c2 43F00403 		orr	r3, r3, #4
 2710 02c6 DAB2     		uxtb	r2, r3
 2711 02c8 364B     		ldr	r3, .L234+12
 2712 02ca 1A70     		strb	r2, [r3]
 2713 02cc 07E0     		b	.L188
 2714              	.L187:
1703:.\Generated_Source\PSoC5/RTC_1.c ****         }
1704:.\Generated_Source\PSoC5/RTC_1.c ****         else
1705:.\Generated_Source\PSoC5/RTC_1.c ****         {
1706:.\Generated_Source\PSoC5/RTC_1.c ****             RTC_1_dstStartStatus &= (uint8)(~RTC_1_DST_MONTH);
 2715              		.loc 1 1706 0
 2716 02ce 354B     		ldr	r3, .L234+12
 2717 02d0 1B78     		ldrb	r3, [r3]
 2718 02d2 DBB2     		uxtb	r3, r3
 2719 02d4 23F00403 		bic	r3, r3, #4
 2720 02d8 DAB2     		uxtb	r2, r3
 2721 02da 324B     		ldr	r3, .L234+12
 2722 02dc 1A70     		strb	r2, [r3]
 2723              	.L188:
1707:.\Generated_Source\PSoC5/RTC_1.c ****         }
1708:.\Generated_Source\PSoC5/RTC_1.c **** 
1709:.\Generated_Source\PSoC5/RTC_1.c ****         /* Sets DST stop status day of month flag if DST stop day of month is
1710:.\Generated_Source\PSoC5/RTC_1.c ****         * equal to the current day of month, otherwise clears that flag.
1711:.\Generated_Source\PSoC5/RTC_1.c ****         */
1712:.\Generated_Source\PSoC5/RTC_1.c ****         if(RTC_1_dstTimeDateStop.DayOfMonth == RTC_1_currentTimeDate.DayOfMonth)
 2724              		.loc 1 1712 0
 2725 02de 324B     		ldr	r3, .L234+16
ARM GAS  C:\Users\glenn\AppData\Local\Temp\ccPIHEU1.s 			page 79


 2726 02e0 DB78     		ldrb	r3, [r3, #3]
 2727 02e2 DAB2     		uxtb	r2, r3
 2728 02e4 2E4B     		ldr	r3, .L234+8
 2729 02e6 1B79     		ldrb	r3, [r3, #4]
 2730 02e8 DBB2     		uxtb	r3, r3
 2731 02ea 9A42     		cmp	r2, r3
 2732 02ec 08D1     		bne	.L189
1713:.\Generated_Source\PSoC5/RTC_1.c ****         {
1714:.\Generated_Source\PSoC5/RTC_1.c ****             RTC_1_dstStopStatus |= RTC_1_DST_DAYOFMONTH;
 2733              		.loc 1 1714 0
 2734 02ee 2A4B     		ldr	r3, .L234
 2735 02f0 1B78     		ldrb	r3, [r3]
 2736 02f2 DBB2     		uxtb	r3, r3
 2737 02f4 43F00203 		orr	r3, r3, #2
 2738 02f8 DAB2     		uxtb	r2, r3
 2739 02fa 274B     		ldr	r3, .L234
 2740 02fc 1A70     		strb	r2, [r3]
 2741 02fe 07E0     		b	.L190
 2742              	.L189:
1715:.\Generated_Source\PSoC5/RTC_1.c ****         }
1716:.\Generated_Source\PSoC5/RTC_1.c ****         else
1717:.\Generated_Source\PSoC5/RTC_1.c ****         {
1718:.\Generated_Source\PSoC5/RTC_1.c ****             RTC_1_dstStopStatus &= (uint8)(~RTC_1_DST_DAYOFMONTH);
 2743              		.loc 1 1718 0
 2744 0300 254B     		ldr	r3, .L234
 2745 0302 1B78     		ldrb	r3, [r3]
 2746 0304 DBB2     		uxtb	r3, r3
 2747 0306 23F00203 		bic	r3, r3, #2
 2748 030a DAB2     		uxtb	r2, r3
 2749 030c 224B     		ldr	r3, .L234
 2750 030e 1A70     		strb	r2, [r3]
 2751              	.L190:
1719:.\Generated_Source\PSoC5/RTC_1.c ****         }
1720:.\Generated_Source\PSoC5/RTC_1.c **** 
1721:.\Generated_Source\PSoC5/RTC_1.c ****         /* Sets DST start status day of month flag if DST start day of month is
1722:.\Generated_Source\PSoC5/RTC_1.c ****         * equal to the current day of month, otherwise clears that flag.
1723:.\Generated_Source\PSoC5/RTC_1.c ****         */
1724:.\Generated_Source\PSoC5/RTC_1.c ****         if(RTC_1_dstTimeDateStart.DayOfMonth == RTC_1_currentTimeDate.DayOfMonth)
 2752              		.loc 1 1724 0
 2753 0310 224B     		ldr	r3, .L234+4
 2754 0312 DB78     		ldrb	r3, [r3, #3]
 2755 0314 DAB2     		uxtb	r2, r3
 2756 0316 224B     		ldr	r3, .L234+8
 2757 0318 1B79     		ldrb	r3, [r3, #4]
 2758 031a DBB2     		uxtb	r3, r3
 2759 031c 9A42     		cmp	r2, r3
 2760 031e 08D1     		bne	.L191
1725:.\Generated_Source\PSoC5/RTC_1.c ****         {
1726:.\Generated_Source\PSoC5/RTC_1.c ****             RTC_1_dstStartStatus |= RTC_1_DST_DAYOFMONTH;
 2761              		.loc 1 1726 0
 2762 0320 204B     		ldr	r3, .L234+12
 2763 0322 1B78     		ldrb	r3, [r3]
 2764 0324 DBB2     		uxtb	r3, r3
 2765 0326 43F00203 		orr	r3, r3, #2
 2766 032a DAB2     		uxtb	r2, r3
 2767 032c 1D4B     		ldr	r3, .L234+12
 2768 032e 1A70     		strb	r2, [r3]
ARM GAS  C:\Users\glenn\AppData\Local\Temp\ccPIHEU1.s 			page 80


 2769 0330 07E0     		b	.L192
 2770              	.L191:
1727:.\Generated_Source\PSoC5/RTC_1.c ****         }
1728:.\Generated_Source\PSoC5/RTC_1.c ****         else
1729:.\Generated_Source\PSoC5/RTC_1.c ****         {
1730:.\Generated_Source\PSoC5/RTC_1.c ****             RTC_1_dstStartStatus &= (uint8)(~RTC_1_DST_DAYOFMONTH);
 2771              		.loc 1 1730 0
 2772 0332 1C4B     		ldr	r3, .L234+12
 2773 0334 1B78     		ldrb	r3, [r3]
 2774 0336 DBB2     		uxtb	r3, r3
 2775 0338 23F00203 		bic	r3, r3, #2
 2776 033c DAB2     		uxtb	r2, r3
 2777 033e 194B     		ldr	r3, .L234+12
 2778 0340 1A70     		strb	r2, [r3]
 2779              	.L192:
1731:.\Generated_Source\PSoC5/RTC_1.c ****         }
1732:.\Generated_Source\PSoC5/RTC_1.c **** 
1733:.\Generated_Source\PSoC5/RTC_1.c ****         /* Sets DST stop status hour flag if DST stop hour is equal to the
1734:.\Generated_Source\PSoC5/RTC_1.c ****         * current hour, otherwise clears that flag.
1735:.\Generated_Source\PSoC5/RTC_1.c ****         */
1736:.\Generated_Source\PSoC5/RTC_1.c ****         if(RTC_1_dstTimeDateStop.Hour == RTC_1_currentTimeDate.Hour)
 2780              		.loc 1 1736 0
 2781 0342 194B     		ldr	r3, .L234+16
 2782 0344 1B78     		ldrb	r3, [r3]
 2783 0346 DAB2     		uxtb	r2, r3
 2784 0348 154B     		ldr	r3, .L234+8
 2785 034a 9B78     		ldrb	r3, [r3, #2]
 2786 034c DBB2     		uxtb	r3, r3
 2787 034e 9A42     		cmp	r2, r3
 2788 0350 08D1     		bne	.L193
1737:.\Generated_Source\PSoC5/RTC_1.c ****         {
1738:.\Generated_Source\PSoC5/RTC_1.c ****             RTC_1_dstStopStatus |= RTC_1_DST_HOUR;
 2789              		.loc 1 1738 0
 2790 0352 114B     		ldr	r3, .L234
 2791 0354 1B78     		ldrb	r3, [r3]
 2792 0356 DBB2     		uxtb	r3, r3
 2793 0358 43F00103 		orr	r3, r3, #1
 2794 035c DAB2     		uxtb	r2, r3
 2795 035e 0E4B     		ldr	r3, .L234
 2796 0360 1A70     		strb	r2, [r3]
 2797 0362 07E0     		b	.L194
 2798              	.L193:
1739:.\Generated_Source\PSoC5/RTC_1.c ****         }
1740:.\Generated_Source\PSoC5/RTC_1.c ****         else
1741:.\Generated_Source\PSoC5/RTC_1.c ****         {
1742:.\Generated_Source\PSoC5/RTC_1.c ****             RTC_1_dstStopStatus &= (uint8)(~RTC_1_DST_HOUR);
 2799              		.loc 1 1742 0
 2800 0364 0C4B     		ldr	r3, .L234
 2801 0366 1B78     		ldrb	r3, [r3]
 2802 0368 DBB2     		uxtb	r3, r3
 2803 036a 23F00103 		bic	r3, r3, #1
 2804 036e DAB2     		uxtb	r2, r3
 2805 0370 094B     		ldr	r3, .L234
 2806 0372 1A70     		strb	r2, [r3]
 2807              	.L194:
1743:.\Generated_Source\PSoC5/RTC_1.c ****         }
1744:.\Generated_Source\PSoC5/RTC_1.c **** 
ARM GAS  C:\Users\glenn\AppData\Local\Temp\ccPIHEU1.s 			page 81


1745:.\Generated_Source\PSoC5/RTC_1.c ****         /* Sets DST start status hour flag if DST start hour is equal to the
1746:.\Generated_Source\PSoC5/RTC_1.c ****         * current hour, otherwise clears that flag.
1747:.\Generated_Source\PSoC5/RTC_1.c ****         */
1748:.\Generated_Source\PSoC5/RTC_1.c ****         if(RTC_1_dstTimeDateStart.Hour == RTC_1_currentTimeDate.Hour)
 2808              		.loc 1 1748 0
 2809 0374 094B     		ldr	r3, .L234+4
 2810 0376 1B78     		ldrb	r3, [r3]
 2811 0378 DAB2     		uxtb	r2, r3
 2812 037a 094B     		ldr	r3, .L234+8
 2813 037c 9B78     		ldrb	r3, [r3, #2]
 2814 037e DBB2     		uxtb	r3, r3
 2815 0380 9A42     		cmp	r2, r3
 2816 0382 13D1     		bne	.L195
1749:.\Generated_Source\PSoC5/RTC_1.c ****         {
1750:.\Generated_Source\PSoC5/RTC_1.c ****             RTC_1_dstStartStatus |= RTC_1_DST_HOUR;
 2817              		.loc 1 1750 0
 2818 0384 074B     		ldr	r3, .L234+12
 2819 0386 1B78     		ldrb	r3, [r3]
 2820 0388 DBB2     		uxtb	r3, r3
 2821 038a 43F00103 		orr	r3, r3, #1
 2822 038e DAB2     		uxtb	r2, r3
 2823 0390 044B     		ldr	r3, .L234+12
 2824 0392 1A70     		strb	r2, [r3]
 2825 0394 12E0     		b	.L196
 2826              	.L235:
 2827 0396 00BF     		.align	2
 2828              	.L234:
 2829 0398 00000000 		.word	RTC_1_dstStopStatus
 2830 039c 00000000 		.word	RTC_1_dstTimeDateStart
 2831 03a0 00000000 		.word	RTC_1_currentTimeDate
 2832 03a4 00000000 		.word	RTC_1_dstStartStatus
 2833 03a8 00000000 		.word	RTC_1_dstTimeDateStop
 2834              	.L195:
1751:.\Generated_Source\PSoC5/RTC_1.c ****         }
1752:.\Generated_Source\PSoC5/RTC_1.c ****         else
1753:.\Generated_Source\PSoC5/RTC_1.c ****         {
1754:.\Generated_Source\PSoC5/RTC_1.c ****             RTC_1_dstStartStatus &= (uint8)(~RTC_1_DST_HOUR);
 2835              		.loc 1 1754 0
 2836 03ac 7C4B     		ldr	r3, .L236
 2837 03ae 1B78     		ldrb	r3, [r3]
 2838 03b0 DBB2     		uxtb	r3, r3
 2839 03b2 23F00103 		bic	r3, r3, #1
 2840 03b6 DAB2     		uxtb	r2, r3
 2841 03b8 794B     		ldr	r3, .L236
 2842 03ba 1A70     		strb	r2, [r3]
 2843              	.L196:
1755:.\Generated_Source\PSoC5/RTC_1.c ****         }
1756:.\Generated_Source\PSoC5/RTC_1.c **** 
1757:.\Generated_Source\PSoC5/RTC_1.c ****         /* DST Enable ? */
1758:.\Generated_Source\PSoC5/RTC_1.c ****         if(0u != RTC_1_IS_BIT_SET(RTC_1_dstModeType, RTC_1_DST_ENABLE))
 2844              		.loc 1 1758 0
 2845 03bc 794B     		ldr	r3, .L236+4
 2846 03be 1B78     		ldrb	r3, [r3]
 2847 03c0 DBB2     		uxtb	r3, r3
 2848 03c2 03F00103 		and	r3, r3, #1
 2849 03c6 002B     		cmp	r3, #0
 2850 03c8 00F0D081 		beq	.L197
ARM GAS  C:\Users\glenn\AppData\Local\Temp\ccPIHEU1.s 			page 82


1759:.\Generated_Source\PSoC5/RTC_1.c ****         {
1760:.\Generated_Source\PSoC5/RTC_1.c ****             if(0u != RTC_1_IS_BIT_SET(RTC_1_statusDateTime, RTC_1_STATUS_DST))
 2851              		.loc 1 1760 0
 2852 03cc 764B     		ldr	r3, .L236+8
 2853 03ce 1B78     		ldrb	r3, [r3]
 2854 03d0 DBB2     		uxtb	r3, r3
 2855 03d2 03F00103 		and	r3, r3, #1
 2856 03d6 002B     		cmp	r3, #0
 2857 03d8 00F0F480 		beq	.L198
1761:.\Generated_Source\PSoC5/RTC_1.c ****             {
1762:.\Generated_Source\PSoC5/RTC_1.c ****                 if(0u != RTC_1_IS_BIT_SET(RTC_1_dstStartStatus,
 2858              		.loc 1 1762 0
 2859 03dc 704B     		ldr	r3, .L236
 2860 03de 1B78     		ldrb	r3, [r3]
 2861 03e0 DBB2     		uxtb	r3, r3
 2862 03e2 03F00703 		and	r3, r3, #7
 2863 03e6 072B     		cmp	r3, #7
 2864 03e8 40F0C081 		bne	.L197
1763:.\Generated_Source\PSoC5/RTC_1.c ****                         (RTC_1_DST_HOUR | RTC_1_DST_DAYOFMONTH | RTC_1_DST_MONTH)))
1764:.\Generated_Source\PSoC5/RTC_1.c ****                 {
1765:.\Generated_Source\PSoC5/RTC_1.c ****                     /* Subtract current minutes value with minutes value, what
1766:.\Generated_Source\PSoC5/RTC_1.c ****                     *  are out of full hour in DST offset.
1767:.\Generated_Source\PSoC5/RTC_1.c ****                     */
1768:.\Generated_Source\PSoC5/RTC_1.c ****                     RTC_1_currentTimeDate.Min -= RTC_1_dstOffsetMin %
 2865              		.loc 1 1768 0
 2866 03ec 6F4B     		ldr	r3, .L236+12
 2867 03ee 1B78     		ldrb	r3, [r3]
 2868 03f0 DAB2     		uxtb	r2, r3
 2869 03f2 6F4B     		ldr	r3, .L236+16
 2870 03f4 A3FB0213 		umull	r1, r3, r3, r2
 2871 03f8 5909     		lsrs	r1, r3, #5
 2872 03fa 0B46     		mov	r3, r1
 2873 03fc 1B01     		lsls	r3, r3, #4
 2874 03fe 5B1A     		subs	r3, r3, r1
 2875 0400 9B00     		lsls	r3, r3, #2
 2876 0402 D31A     		subs	r3, r2, r3
 2877 0404 DBB2     		uxtb	r3, r3
 2878 0406 1946     		mov	r1, r3
 2879 0408 6A4B     		ldr	r3, .L236+20
 2880 040a 5B78     		ldrb	r3, [r3, #1]
 2881 040c DAB2     		uxtb	r2, r3
 2882 040e CBB2     		uxtb	r3, r1
 2883 0410 D31A     		subs	r3, r2, r3
 2884 0412 DAB2     		uxtb	r2, r3
 2885 0414 674B     		ldr	r3, .L236+20
 2886 0416 5A70     		strb	r2, [r3, #1]
1769:.\Generated_Source\PSoC5/RTC_1.c ****                                                             (RTC_1_HOUR_ELAPSED + 1u);
1770:.\Generated_Source\PSoC5/RTC_1.c **** 
1771:.\Generated_Source\PSoC5/RTC_1.c ****                     /* If current minutes value is greater than number of
1772:.\Generated_Source\PSoC5/RTC_1.c ****                     * minutes in hour - could be only if hour's value is negative
1773:.\Generated_Source\PSoC5/RTC_1.c ****                     */
1774:.\Generated_Source\PSoC5/RTC_1.c ****                     if(RTC_1_currentTimeDate.Min > RTC_1_HOUR_ELAPSED)
 2887              		.loc 1 1774 0
 2888 0418 664B     		ldr	r3, .L236+20
 2889 041a 5B78     		ldrb	r3, [r3, #1]
 2890 041c DBB2     		uxtb	r3, r3
 2891 041e 3B2B     		cmp	r3, #59
ARM GAS  C:\Users\glenn\AppData\Local\Temp\ccPIHEU1.s 			page 83


 2892 0420 0DD9     		bls	.L200
1775:.\Generated_Source\PSoC5/RTC_1.c ****                     {
1776:.\Generated_Source\PSoC5/RTC_1.c ****                         /* Adjust current minutes value. Convert to the positive. */
1777:.\Generated_Source\PSoC5/RTC_1.c ****                         RTC_1_currentTimeDate.Min = RTC_1_HOUR_ELAPSED -
1778:.\Generated_Source\PSoC5/RTC_1.c ****                                                                ((uint8)(~RTC_1_currentTimeDate.Min)
 2893              		.loc 1 1778 0
 2894 0422 644B     		ldr	r3, .L236+20
 2895 0424 5B78     		ldrb	r3, [r3, #1]
 2896 0426 DBB2     		uxtb	r3, r3
1777:.\Generated_Source\PSoC5/RTC_1.c ****                                                                ((uint8)(~RTC_1_currentTimeDate.Min)
 2897              		.loc 1 1777 0
 2898 0428 3C33     		adds	r3, r3, #60
 2899 042a DAB2     		uxtb	r2, r3
 2900 042c 614B     		ldr	r3, .L236+20
 2901 042e 5A70     		strb	r2, [r3, #1]
1779:.\Generated_Source\PSoC5/RTC_1.c **** 
1780:.\Generated_Source\PSoC5/RTC_1.c ****                         /* Decrement current hours value. */
1781:.\Generated_Source\PSoC5/RTC_1.c ****                         RTC_1_currentTimeDate.Hour--;
 2902              		.loc 1 1781 0
 2903 0430 604B     		ldr	r3, .L236+20
 2904 0432 9B78     		ldrb	r3, [r3, #2]
 2905 0434 DBB2     		uxtb	r3, r3
 2906 0436 013B     		subs	r3, r3, #1
 2907 0438 DAB2     		uxtb	r2, r3
 2908 043a 5E4B     		ldr	r3, .L236+20
 2909 043c 9A70     		strb	r2, [r3, #2]
 2910              	.L200:
1782:.\Generated_Source\PSoC5/RTC_1.c ****                     }
1783:.\Generated_Source\PSoC5/RTC_1.c **** 
1784:.\Generated_Source\PSoC5/RTC_1.c ****                     /* Subtract current hours value with hours value, what
1785:.\Generated_Source\PSoC5/RTC_1.c ****                     *  are full part of hours in DST offset.
1786:.\Generated_Source\PSoC5/RTC_1.c ****                     */
1787:.\Generated_Source\PSoC5/RTC_1.c ****                     RTC_1_currentTimeDate.Hour -= RTC_1_dstOffsetMin /
 2911              		.loc 1 1787 0
 2912 043e 5B4B     		ldr	r3, .L236+12
 2913 0440 1B78     		ldrb	r3, [r3]
 2914 0442 DBB2     		uxtb	r3, r3
 2915 0444 5A4A     		ldr	r2, .L236+16
 2916 0446 A2FB0323 		umull	r2, r3, r2, r3
 2917 044a 5B09     		lsrs	r3, r3, #5
 2918 044c DBB2     		uxtb	r3, r3
 2919 044e 1946     		mov	r1, r3
 2920 0450 584B     		ldr	r3, .L236+20
 2921 0452 9B78     		ldrb	r3, [r3, #2]
 2922 0454 DAB2     		uxtb	r2, r3
 2923 0456 CBB2     		uxtb	r3, r1
 2924 0458 D31A     		subs	r3, r2, r3
 2925 045a DAB2     		uxtb	r2, r3
 2926 045c 554B     		ldr	r3, .L236+20
 2927 045e 9A70     		strb	r2, [r3, #2]
1788:.\Generated_Source\PSoC5/RTC_1.c ****                                                              (RTC_1_HOUR_ELAPSED + 1u);
1789:.\Generated_Source\PSoC5/RTC_1.c **** 
1790:.\Generated_Source\PSoC5/RTC_1.c ****                     /* Check if current hour's value is negative */
1791:.\Generated_Source\PSoC5/RTC_1.c ****                     if(RTC_1_currentTimeDate.Hour > RTC_1_DAY_ELAPSED)
 2928              		.loc 1 1791 0
 2929 0460 544B     		ldr	r3, .L236+20
 2930 0462 9B78     		ldrb	r3, [r3, #2]
ARM GAS  C:\Users\glenn\AppData\Local\Temp\ccPIHEU1.s 			page 84


 2931 0464 DBB2     		uxtb	r3, r3
 2932 0466 172B     		cmp	r3, #23
 2933 0468 40F28E80 		bls	.L201
1792:.\Generated_Source\PSoC5/RTC_1.c ****                     {
1793:.\Generated_Source\PSoC5/RTC_1.c ****                         /* Adjust hour */
1794:.\Generated_Source\PSoC5/RTC_1.c ****                         RTC_1_currentTimeDate.Hour = RTC_1_DAY_ELAPSED -
1795:.\Generated_Source\PSoC5/RTC_1.c ****                                                                 ((uint8)(~RTC_1_currentTimeDate.Hou
 2934              		.loc 1 1795 0
 2935 046c 514B     		ldr	r3, .L236+20
 2936 046e 9B78     		ldrb	r3, [r3, #2]
 2937 0470 DBB2     		uxtb	r3, r3
1794:.\Generated_Source\PSoC5/RTC_1.c ****                                                                 ((uint8)(~RTC_1_currentTimeDate.Hou
 2938              		.loc 1 1794 0
 2939 0472 1833     		adds	r3, r3, #24
 2940 0474 DAB2     		uxtb	r2, r3
 2941 0476 4F4B     		ldr	r3, .L236+20
 2942 0478 9A70     		strb	r2, [r3, #2]
1796:.\Generated_Source\PSoC5/RTC_1.c **** 
1797:.\Generated_Source\PSoC5/RTC_1.c ****                         /* Decrement day of month, year and week */
1798:.\Generated_Source\PSoC5/RTC_1.c ****                         RTC_1_currentTimeDate.DayOfMonth--;
 2943              		.loc 1 1798 0
 2944 047a 4E4B     		ldr	r3, .L236+20
 2945 047c 1B79     		ldrb	r3, [r3, #4]
 2946 047e DBB2     		uxtb	r3, r3
 2947 0480 013B     		subs	r3, r3, #1
 2948 0482 DAB2     		uxtb	r2, r3
 2949 0484 4B4B     		ldr	r3, .L236+20
 2950 0486 1A71     		strb	r2, [r3, #4]
1799:.\Generated_Source\PSoC5/RTC_1.c ****                         RTC_1_currentTimeDate.DayOfYear--;
 2951              		.loc 1 1799 0
 2952 0488 4A4B     		ldr	r3, .L236+20
 2953 048a DB88     		ldrh	r3, [r3, #6]	@ movhi
 2954 048c 9BB2     		uxth	r3, r3
 2955 048e 013B     		subs	r3, r3, #1
 2956 0490 9AB2     		uxth	r2, r3
 2957 0492 484B     		ldr	r3, .L236+20
 2958 0494 DA80     		strh	r2, [r3, #6]	@ movhi
1800:.\Generated_Source\PSoC5/RTC_1.c ****                         RTC_1_currentTimeDate.DayOfWeek--;
 2959              		.loc 1 1800 0
 2960 0496 474B     		ldr	r3, .L236+20
 2961 0498 DB78     		ldrb	r3, [r3, #3]
 2962 049a DBB2     		uxtb	r3, r3
 2963 049c 013B     		subs	r3, r3, #1
 2964 049e DAB2     		uxtb	r2, r3
 2965 04a0 444B     		ldr	r3, .L236+20
 2966 04a2 DA70     		strb	r2, [r3, #3]
1801:.\Generated_Source\PSoC5/RTC_1.c **** 
1802:.\Generated_Source\PSoC5/RTC_1.c ****                         if(0u == RTC_1_currentTimeDate.DayOfWeek)
 2967              		.loc 1 1802 0
 2968 04a4 434B     		ldr	r3, .L236+20
 2969 04a6 DB78     		ldrb	r3, [r3, #3]
 2970 04a8 DBB2     		uxtb	r3, r3
 2971 04aa 002B     		cmp	r3, #0
 2972 04ac 02D1     		bne	.L202
1803:.\Generated_Source\PSoC5/RTC_1.c ****                         {
1804:.\Generated_Source\PSoC5/RTC_1.c ****                             RTC_1_currentTimeDate.DayOfWeek = RTC_1_DAYS_IN_WEEK;
 2973              		.loc 1 1804 0
ARM GAS  C:\Users\glenn\AppData\Local\Temp\ccPIHEU1.s 			page 85


 2974 04ae 414B     		ldr	r3, .L236+20
 2975 04b0 0722     		movs	r2, #7
 2976 04b2 DA70     		strb	r2, [r3, #3]
 2977              	.L202:
1805:.\Generated_Source\PSoC5/RTC_1.c ****                         }
1806:.\Generated_Source\PSoC5/RTC_1.c **** 
1807:.\Generated_Source\PSoC5/RTC_1.c ****                         if(0u == RTC_1_currentTimeDate.DayOfMonth)
 2978              		.loc 1 1807 0
 2979 04b4 3F4B     		ldr	r3, .L236+20
 2980 04b6 1B79     		ldrb	r3, [r3, #4]
 2981 04b8 DBB2     		uxtb	r3, r3
 2982 04ba 002B     		cmp	r3, #0
 2983 04bc 64D1     		bne	.L201
1808:.\Generated_Source\PSoC5/RTC_1.c ****                         {
1809:.\Generated_Source\PSoC5/RTC_1.c ****                             /* Decrement months value */
1810:.\Generated_Source\PSoC5/RTC_1.c ****                             RTC_1_currentTimeDate.Month--;
 2984              		.loc 1 1810 0
 2985 04be 3D4B     		ldr	r3, .L236+20
 2986 04c0 1B7A     		ldrb	r3, [r3, #8]
 2987 04c2 DBB2     		uxtb	r3, r3
 2988 04c4 013B     		subs	r3, r3, #1
 2989 04c6 DAB2     		uxtb	r2, r3
 2990 04c8 3A4B     		ldr	r3, .L236+20
 2991 04ca 1A72     		strb	r2, [r3, #8]
1811:.\Generated_Source\PSoC5/RTC_1.c **** 
1812:.\Generated_Source\PSoC5/RTC_1.c ****                             /* The current month is month before 1st one. */
1813:.\Generated_Source\PSoC5/RTC_1.c ****                             if(0u == RTC_1_currentTimeDate.Month)
 2992              		.loc 1 1813 0
 2993 04cc 394B     		ldr	r3, .L236+20
 2994 04ce 1B7A     		ldrb	r3, [r3, #8]
 2995 04d0 DBB2     		uxtb	r3, r3
 2996 04d2 002B     		cmp	r3, #0
 2997 04d4 50D1     		bne	.L203
1814:.\Generated_Source\PSoC5/RTC_1.c ****                             {
1815:.\Generated_Source\PSoC5/RTC_1.c ****                                 /* December is the month before January */
1816:.\Generated_Source\PSoC5/RTC_1.c ****                                 RTC_1_currentTimeDate.Month = RTC_1_DECEMBER;
 2998              		.loc 1 1816 0
 2999 04d6 374B     		ldr	r3, .L236+20
 3000 04d8 0C22     		movs	r2, #12
 3001 04da 1A72     		strb	r2, [r3, #8]
1817:.\Generated_Source\PSoC5/RTC_1.c ****                                 RTC_1_currentTimeDate.DayOfMonth =
1818:.\Generated_Source\PSoC5/RTC_1.c ****                                             RTC_1_daysInMonths[RTC_1_currentTimeDate.Month - 1u];
 3002              		.loc 1 1818 0
 3003 04dc 354B     		ldr	r3, .L236+20
 3004 04de 1B7A     		ldrb	r3, [r3, #8]
 3005 04e0 DBB2     		uxtb	r3, r3
 3006 04e2 013B     		subs	r3, r3, #1
 3007 04e4 344A     		ldr	r2, .L236+24
 3008 04e6 D25C     		ldrb	r2, [r2, r3]	@ zero_extendqisi2
1817:.\Generated_Source\PSoC5/RTC_1.c ****                                 RTC_1_currentTimeDate.DayOfMonth =
 3009              		.loc 1 1817 0
 3010 04e8 324B     		ldr	r3, .L236+20
 3011 04ea 1A71     		strb	r2, [r3, #4]
1819:.\Generated_Source\PSoC5/RTC_1.c **** 
1820:.\Generated_Source\PSoC5/RTC_1.c ****                                 /* Decrement years value */
1821:.\Generated_Source\PSoC5/RTC_1.c ****                                 RTC_1_currentTimeDate.Year--;
 3012              		.loc 1 1821 0
ARM GAS  C:\Users\glenn\AppData\Local\Temp\ccPIHEU1.s 			page 86


 3013 04ec 314B     		ldr	r3, .L236+20
 3014 04ee 5B89     		ldrh	r3, [r3, #10]	@ movhi
 3015 04f0 9BB2     		uxth	r3, r3
 3016 04f2 013B     		subs	r3, r3, #1
 3017 04f4 9AB2     		uxth	r2, r3
 3018 04f6 2F4B     		ldr	r3, .L236+20
 3019 04f8 5A81     		strh	r2, [r3, #10]	@ movhi
1822:.\Generated_Source\PSoC5/RTC_1.c ****                                 if(1u == RTC_1_LEAP_YEAR(RTC_1_currentTimeDate.Year))
 3020              		.loc 1 1822 0
 3021 04fa 2E4B     		ldr	r3, .L236+20
 3022 04fc 5B89     		ldrh	r3, [r3, #10]	@ movhi
 3023 04fe 9BB2     		uxth	r3, r3
 3024 0500 2E4A     		ldr	r2, .L236+28
 3025 0502 A2FB0312 		umull	r1, r2, r2, r3
 3026 0506 D209     		lsrs	r2, r2, #7
 3027 0508 4FF4C871 		mov	r1, #400
 3028 050c 01FB02F2 		mul	r2, r1, r2
 3029 0510 9B1A     		subs	r3, r3, r2
 3030 0512 9BB2     		uxth	r3, r3
 3031 0514 002B     		cmp	r3, #0
 3032 0516 15D0     		beq	.L204
 3033              		.loc 1 1822 0 is_stmt 0 discriminator 1
 3034 0518 264B     		ldr	r3, .L236+20
 3035 051a 5B89     		ldrh	r3, [r3, #10]	@ movhi
 3036 051c 9BB2     		uxth	r3, r3
 3037 051e 03F00303 		and	r3, r3, #3
 3038 0522 9BB2     		uxth	r3, r3
 3039 0524 002B     		cmp	r3, #0
 3040 0526 1AD1     		bne	.L205
 3041              		.loc 1 1822 0 discriminator 2
 3042 0528 224B     		ldr	r3, .L236+20
 3043 052a 5B89     		ldrh	r3, [r3, #10]	@ movhi
 3044 052c 9BB2     		uxth	r3, r3
 3045 052e 234A     		ldr	r2, .L236+28
 3046 0530 A2FB0312 		umull	r1, r2, r2, r3
 3047 0534 5209     		lsrs	r2, r2, #5
 3048 0536 6421     		movs	r1, #100
 3049 0538 01FB02F2 		mul	r2, r1, r2
 3050 053c 9B1A     		subs	r3, r3, r2
 3051 053e 9BB2     		uxth	r3, r3
 3052 0540 002B     		cmp	r3, #0
 3053 0542 0CD0     		beq	.L205
 3054              	.L204:
1823:.\Generated_Source\PSoC5/RTC_1.c ****                                 {
1824:.\Generated_Source\PSoC5/RTC_1.c ****                                     /* Set leap year status flag */
1825:.\Generated_Source\PSoC5/RTC_1.c ****                                     RTC_1_statusDateTime |= RTC_1_STATUS_LY;
 3055              		.loc 1 1825 0 is_stmt 1
 3056 0544 184B     		ldr	r3, .L236+8
 3057 0546 1B78     		ldrb	r3, [r3]
 3058 0548 DBB2     		uxtb	r3, r3
 3059 054a 43F00203 		orr	r3, r3, #2
 3060 054e DAB2     		uxtb	r2, r3
 3061 0550 154B     		ldr	r3, .L236+8
 3062 0552 1A70     		strb	r2, [r3]
1826:.\Generated_Source\PSoC5/RTC_1.c ****                                     RTC_1_currentTimeDate.DayOfYear = RTC_1_DAYS_IN_LEAP_YEAR;
 3063              		.loc 1 1826 0
 3064 0554 174B     		ldr	r3, .L236+20
ARM GAS  C:\Users\glenn\AppData\Local\Temp\ccPIHEU1.s 			page 87


 3065 0556 4FF4B772 		mov	r2, #366
 3066 055a DA80     		strh	r2, [r3, #6]	@ movhi
 3067 055c 14E0     		b	.L201
 3068              	.L205:
1827:.\Generated_Source\PSoC5/RTC_1.c ****                                 }
1828:.\Generated_Source\PSoC5/RTC_1.c ****                                 else
1829:.\Generated_Source\PSoC5/RTC_1.c ****                                 {
1830:.\Generated_Source\PSoC5/RTC_1.c ****                                     /* Clear leap year status flag */
1831:.\Generated_Source\PSoC5/RTC_1.c ****                                     RTC_1_statusDateTime &= (uint8)(~RTC_1_STATUS_LY);
 3069              		.loc 1 1831 0
 3070 055e 124B     		ldr	r3, .L236+8
 3071 0560 1B78     		ldrb	r3, [r3]
 3072 0562 DBB2     		uxtb	r3, r3
 3073 0564 23F00203 		bic	r3, r3, #2
 3074 0568 DAB2     		uxtb	r2, r3
 3075 056a 0F4B     		ldr	r3, .L236+8
 3076 056c 1A70     		strb	r2, [r3]
1832:.\Generated_Source\PSoC5/RTC_1.c ****                                     RTC_1_currentTimeDate.DayOfYear = RTC_1_DAYS_IN_YEAR;
 3077              		.loc 1 1832 0
 3078 056e 114B     		ldr	r3, .L236+20
 3079 0570 40F26D12 		movw	r2, #365
 3080 0574 DA80     		strh	r2, [r3, #6]	@ movhi
 3081 0576 07E0     		b	.L201
 3082              	.L203:
1833:.\Generated_Source\PSoC5/RTC_1.c ****                                 }
1834:.\Generated_Source\PSoC5/RTC_1.c ****                             }   /* 0u == RTC_1_currentTimeDate.Month */
1835:.\Generated_Source\PSoC5/RTC_1.c ****                             else
1836:.\Generated_Source\PSoC5/RTC_1.c ****                             {
1837:.\Generated_Source\PSoC5/RTC_1.c ****                                 RTC_1_currentTimeDate.DayOfMonth =
1838:.\Generated_Source\PSoC5/RTC_1.c ****                                             RTC_1_daysInMonths[RTC_1_currentTimeDate.Month - 1u];
 3083              		.loc 1 1838 0
 3084 0578 0E4B     		ldr	r3, .L236+20
 3085 057a 1B7A     		ldrb	r3, [r3, #8]
 3086 057c DBB2     		uxtb	r3, r3
 3087 057e 013B     		subs	r3, r3, #1
 3088 0580 0D4A     		ldr	r2, .L236+24
 3089 0582 D25C     		ldrb	r2, [r2, r3]	@ zero_extendqisi2
1837:.\Generated_Source\PSoC5/RTC_1.c ****                                             RTC_1_daysInMonths[RTC_1_currentTimeDate.Month - 1u];
 3090              		.loc 1 1837 0
 3091 0584 0B4B     		ldr	r3, .L236+20
 3092 0586 1A71     		strb	r2, [r3, #4]
 3093              	.L201:
1839:.\Generated_Source\PSoC5/RTC_1.c ****                             }   /* 0u != End of RTC_1_currentTimeDate.Month */
1840:.\Generated_Source\PSoC5/RTC_1.c ****                         }   /* 0u == End of RTC_1_currentTimeDate.DayOfMonth */
1841:.\Generated_Source\PSoC5/RTC_1.c ****                     }   /* End of RTC_1_currentTimeDate.Hour > RTC_1_DAY_ELAPSED */
1842:.\Generated_Source\PSoC5/RTC_1.c **** 
1843:.\Generated_Source\PSoC5/RTC_1.c ****                     /* Clear DST status flag */
1844:.\Generated_Source\PSoC5/RTC_1.c ****                     RTC_1_statusDateTime &= (uint8)(~RTC_1_STATUS_DST);
 3094              		.loc 1 1844 0
 3095 0588 074B     		ldr	r3, .L236+8
 3096 058a 1B78     		ldrb	r3, [r3]
 3097 058c DBB2     		uxtb	r3, r3
 3098 058e 23F00103 		bic	r3, r3, #1
 3099 0592 DAB2     		uxtb	r2, r3
 3100 0594 044B     		ldr	r3, .L236+8
 3101 0596 1A70     		strb	r2, [r3]
1845:.\Generated_Source\PSoC5/RTC_1.c ****                     /* Clear DST stop status */
ARM GAS  C:\Users\glenn\AppData\Local\Temp\ccPIHEU1.s 			page 88


1846:.\Generated_Source\PSoC5/RTC_1.c ****                     RTC_1_dstStopStatus = 0u;
 3102              		.loc 1 1846 0
 3103 0598 094B     		ldr	r3, .L236+32
 3104 059a 0022     		movs	r2, #0
 3105 059c 1A70     		strb	r2, [r3]
 3106 059e E5E0     		b	.L197
 3107              	.L237:
 3108              		.align	2
 3109              	.L236:
 3110 05a0 00000000 		.word	RTC_1_dstStartStatus
 3111 05a4 00000000 		.word	RTC_1_dstModeType
 3112 05a8 00000000 		.word	RTC_1_statusDateTime
 3113 05ac 00000000 		.word	RTC_1_dstOffsetMin
 3114 05b0 89888888 		.word	-2004318071
 3115 05b4 00000000 		.word	RTC_1_currentTimeDate
 3116 05b8 00000000 		.word	RTC_1_daysInMonths
 3117 05bc 1F85EB51 		.word	1374389535
 3118 05c0 00000000 		.word	RTC_1_dstStopStatus
 3119              	.L198:
1847:.\Generated_Source\PSoC5/RTC_1.c ****                 }
1848:.\Generated_Source\PSoC5/RTC_1.c ****             }
1849:.\Generated_Source\PSoC5/RTC_1.c ****             else    /* Current time and date DO NOT match DST time and date */
1850:.\Generated_Source\PSoC5/RTC_1.c ****             {
1851:.\Generated_Source\PSoC5/RTC_1.c ****                 if(0u != RTC_1_IS_BIT_SET(RTC_1_dstStartStatus, RTC_1_DST_HOUR |
 3120              		.loc 1 1851 0
 3121 05c4 A04B     		ldr	r3, .L238
 3122 05c6 1B78     		ldrb	r3, [r3]
 3123 05c8 DBB2     		uxtb	r3, r3
 3124 05ca 03F00703 		and	r3, r3, #7
 3125 05ce 072B     		cmp	r3, #7
 3126 05d0 40F0CC80 		bne	.L197
1852:.\Generated_Source\PSoC5/RTC_1.c ****                                                      RTC_1_DST_DAYOFMONTH | RTC_1_DST_MONTH))
1853:.\Generated_Source\PSoC5/RTC_1.c ****                 {
1854:.\Generated_Source\PSoC5/RTC_1.c ****                     /* Add Hour and Min */
1855:.\Generated_Source\PSoC5/RTC_1.c ****                     RTC_1_currentTimeDate.Min +=
1856:.\Generated_Source\PSoC5/RTC_1.c ****                                                 RTC_1_dstOffsetMin % (RTC_1_HOUR_ELAPSED + 1u);
 3127              		.loc 1 1856 0
 3128 05d4 9D4B     		ldr	r3, .L238+4
 3129 05d6 1B78     		ldrb	r3, [r3]
 3130 05d8 DAB2     		uxtb	r2, r3
 3131 05da 9D4B     		ldr	r3, .L238+8
 3132 05dc A3FB0213 		umull	r1, r3, r3, r2
 3133 05e0 5909     		lsrs	r1, r3, #5
 3134 05e2 0B46     		mov	r3, r1
 3135 05e4 1B01     		lsls	r3, r3, #4
 3136 05e6 5B1A     		subs	r3, r3, r1
 3137 05e8 9B00     		lsls	r3, r3, #2
 3138 05ea D31A     		subs	r3, r2, r3
 3139 05ec DBB2     		uxtb	r3, r3
 3140 05ee 1946     		mov	r1, r3
1855:.\Generated_Source\PSoC5/RTC_1.c ****                                                 RTC_1_dstOffsetMin % (RTC_1_HOUR_ELAPSED + 1u);
 3141              		.loc 1 1855 0
 3142 05f0 984B     		ldr	r3, .L238+12
 3143 05f2 5B78     		ldrb	r3, [r3, #1]
 3144 05f4 DAB2     		uxtb	r2, r3
 3145 05f6 CBB2     		uxtb	r3, r1
 3146 05f8 1344     		add	r3, r3, r2
ARM GAS  C:\Users\glenn\AppData\Local\Temp\ccPIHEU1.s 			page 89


 3147 05fa DAB2     		uxtb	r2, r3
 3148 05fc 954B     		ldr	r3, .L238+12
 3149 05fe 5A70     		strb	r2, [r3, #1]
1857:.\Generated_Source\PSoC5/RTC_1.c **** 
1858:.\Generated_Source\PSoC5/RTC_1.c ****                     if(RTC_1_currentTimeDate.Min > RTC_1_HOUR_ELAPSED)
 3150              		.loc 1 1858 0
 3151 0600 944B     		ldr	r3, .L238+12
 3152 0602 5B78     		ldrb	r3, [r3, #1]
 3153 0604 DBB2     		uxtb	r3, r3
 3154 0606 3B2B     		cmp	r3, #59
 3155 0608 0DD9     		bls	.L207
1859:.\Generated_Source\PSoC5/RTC_1.c ****                     {
1860:.\Generated_Source\PSoC5/RTC_1.c ****                         /* Adjust Min */
1861:.\Generated_Source\PSoC5/RTC_1.c ****                         RTC_1_currentTimeDate.Min -= (RTC_1_HOUR_ELAPSED + 1u);
 3156              		.loc 1 1861 0
 3157 060a 924B     		ldr	r3, .L238+12
 3158 060c 5B78     		ldrb	r3, [r3, #1]
 3159 060e DBB2     		uxtb	r3, r3
 3160 0610 3C3B     		subs	r3, r3, #60
 3161 0612 DAB2     		uxtb	r2, r3
 3162 0614 8F4B     		ldr	r3, .L238+12
 3163 0616 5A70     		strb	r2, [r3, #1]
1862:.\Generated_Source\PSoC5/RTC_1.c ****                         RTC_1_currentTimeDate.Hour++;
 3164              		.loc 1 1862 0
 3165 0618 8E4B     		ldr	r3, .L238+12
 3166 061a 9B78     		ldrb	r3, [r3, #2]
 3167 061c DBB2     		uxtb	r3, r3
 3168 061e 0133     		adds	r3, r3, #1
 3169 0620 DAB2     		uxtb	r2, r3
 3170 0622 8C4B     		ldr	r3, .L238+12
 3171 0624 9A70     		strb	r2, [r3, #2]
 3172              	.L207:
1863:.\Generated_Source\PSoC5/RTC_1.c ****                     }
1864:.\Generated_Source\PSoC5/RTC_1.c **** 
1865:.\Generated_Source\PSoC5/RTC_1.c ****                     RTC_1_currentTimeDate.Hour +=
1866:.\Generated_Source\PSoC5/RTC_1.c ****                                                 RTC_1_dstOffsetMin / (RTC_1_HOUR_ELAPSED + 1u);
 3173              		.loc 1 1866 0
 3174 0626 894B     		ldr	r3, .L238+4
 3175 0628 1B78     		ldrb	r3, [r3]
 3176 062a DBB2     		uxtb	r3, r3
 3177 062c 884A     		ldr	r2, .L238+8
 3178 062e A2FB0323 		umull	r2, r3, r2, r3
 3179 0632 5B09     		lsrs	r3, r3, #5
 3180 0634 DBB2     		uxtb	r3, r3
 3181 0636 1946     		mov	r1, r3
1865:.\Generated_Source\PSoC5/RTC_1.c ****                                                 RTC_1_dstOffsetMin / (RTC_1_HOUR_ELAPSED + 1u);
 3182              		.loc 1 1865 0
 3183 0638 864B     		ldr	r3, .L238+12
 3184 063a 9B78     		ldrb	r3, [r3, #2]
 3185 063c DAB2     		uxtb	r2, r3
 3186 063e CBB2     		uxtb	r3, r1
 3187 0640 1344     		add	r3, r3, r2
 3188 0642 DAB2     		uxtb	r2, r3
 3189 0644 834B     		ldr	r3, .L238+12
 3190 0646 9A70     		strb	r2, [r3, #2]
1867:.\Generated_Source\PSoC5/RTC_1.c ****                     if(RTC_1_currentTimeDate.Hour > RTC_1_DAY_ELAPSED)
 3191              		.loc 1 1867 0
ARM GAS  C:\Users\glenn\AppData\Local\Temp\ccPIHEU1.s 			page 90


 3192 0648 824B     		ldr	r3, .L238+12
 3193 064a 9B78     		ldrb	r3, [r3, #2]
 3194 064c DBB2     		uxtb	r3, r3
 3195 064e 172B     		cmp	r3, #23
 3196 0650 40F28180 		bls	.L208
1868:.\Generated_Source\PSoC5/RTC_1.c ****                     {
1869:.\Generated_Source\PSoC5/RTC_1.c ****                         /* Adjust hour, add day */
1870:.\Generated_Source\PSoC5/RTC_1.c ****                         RTC_1_currentTimeDate.Hour -= (RTC_1_DAY_ELAPSED + 1u);
 3197              		.loc 1 1870 0
 3198 0654 7F4B     		ldr	r3, .L238+12
 3199 0656 9B78     		ldrb	r3, [r3, #2]
 3200 0658 DBB2     		uxtb	r3, r3
 3201 065a 183B     		subs	r3, r3, #24
 3202 065c DAB2     		uxtb	r2, r3
 3203 065e 7D4B     		ldr	r3, .L238+12
 3204 0660 9A70     		strb	r2, [r3, #2]
1871:.\Generated_Source\PSoC5/RTC_1.c ****                         RTC_1_currentTimeDate.DayOfMonth++;
 3205              		.loc 1 1871 0
 3206 0662 7C4B     		ldr	r3, .L238+12
 3207 0664 1B79     		ldrb	r3, [r3, #4]
 3208 0666 DBB2     		uxtb	r3, r3
 3209 0668 0133     		adds	r3, r3, #1
 3210 066a DAB2     		uxtb	r2, r3
 3211 066c 794B     		ldr	r3, .L238+12
 3212 066e 1A71     		strb	r2, [r3, #4]
1872:.\Generated_Source\PSoC5/RTC_1.c ****                         RTC_1_currentTimeDate.DayOfYear++;
 3213              		.loc 1 1872 0
 3214 0670 784B     		ldr	r3, .L238+12
 3215 0672 DB88     		ldrh	r3, [r3, #6]	@ movhi
 3216 0674 9BB2     		uxth	r3, r3
 3217 0676 0133     		adds	r3, r3, #1
 3218 0678 9AB2     		uxth	r2, r3
 3219 067a 764B     		ldr	r3, .L238+12
 3220 067c DA80     		strh	r2, [r3, #6]	@ movhi
1873:.\Generated_Source\PSoC5/RTC_1.c ****                         RTC_1_currentTimeDate.DayOfWeek++;
 3221              		.loc 1 1873 0
 3222 067e 754B     		ldr	r3, .L238+12
 3223 0680 DB78     		ldrb	r3, [r3, #3]
 3224 0682 DBB2     		uxtb	r3, r3
 3225 0684 0133     		adds	r3, r3, #1
 3226 0686 DAB2     		uxtb	r2, r3
 3227 0688 724B     		ldr	r3, .L238+12
 3228 068a DA70     		strb	r2, [r3, #3]
1874:.\Generated_Source\PSoC5/RTC_1.c **** 
1875:.\Generated_Source\PSoC5/RTC_1.c ****                         if(RTC_1_currentTimeDate.DayOfWeek > RTC_1_WEEK_ELAPSED)
 3229              		.loc 1 1875 0
 3230 068c 714B     		ldr	r3, .L238+12
 3231 068e DB78     		ldrb	r3, [r3, #3]
 3232 0690 DBB2     		uxtb	r3, r3
 3233 0692 072B     		cmp	r3, #7
 3234 0694 02D9     		bls	.L209
1876:.\Generated_Source\PSoC5/RTC_1.c ****                         {
1877:.\Generated_Source\PSoC5/RTC_1.c ****                             RTC_1_currentTimeDate.DayOfWeek = 1u;
 3235              		.loc 1 1877 0
 3236 0696 6F4B     		ldr	r3, .L238+12
 3237 0698 0122     		movs	r2, #1
 3238 069a DA70     		strb	r2, [r3, #3]
ARM GAS  C:\Users\glenn\AppData\Local\Temp\ccPIHEU1.s 			page 91


 3239              	.L209:
1878:.\Generated_Source\PSoC5/RTC_1.c ****                         }
1879:.\Generated_Source\PSoC5/RTC_1.c **** 
1880:.\Generated_Source\PSoC5/RTC_1.c ****                         if(RTC_1_currentTimeDate.DayOfMonth >
 3240              		.loc 1 1880 0
 3241 069c 6D4B     		ldr	r3, .L238+12
 3242 069e 1B79     		ldrb	r3, [r3, #4]
 3243 06a0 DAB2     		uxtb	r2, r3
1881:.\Generated_Source\PSoC5/RTC_1.c ****                                             RTC_1_daysInMonths[RTC_1_currentTimeDate.Month - 1u])
 3244              		.loc 1 1881 0
 3245 06a2 6C4B     		ldr	r3, .L238+12
 3246 06a4 1B7A     		ldrb	r3, [r3, #8]
 3247 06a6 DBB2     		uxtb	r3, r3
 3248 06a8 013B     		subs	r3, r3, #1
 3249 06aa 6B49     		ldr	r1, .L238+16
 3250 06ac CB5C     		ldrb	r3, [r1, r3]	@ zero_extendqisi2
1880:.\Generated_Source\PSoC5/RTC_1.c ****                                             RTC_1_daysInMonths[RTC_1_currentTimeDate.Month - 1u])
 3251              		.loc 1 1880 0
 3252 06ae 9A42     		cmp	r2, r3
 3253 06b0 51D9     		bls	.L208
1882:.\Generated_Source\PSoC5/RTC_1.c ****                         {
1883:.\Generated_Source\PSoC5/RTC_1.c ****                             RTC_1_currentTimeDate.Month++;
 3254              		.loc 1 1883 0
 3255 06b2 684B     		ldr	r3, .L238+12
 3256 06b4 1B7A     		ldrb	r3, [r3, #8]
 3257 06b6 DBB2     		uxtb	r3, r3
 3258 06b8 0133     		adds	r3, r3, #1
 3259 06ba DAB2     		uxtb	r2, r3
 3260 06bc 654B     		ldr	r3, .L238+12
 3261 06be 1A72     		strb	r2, [r3, #8]
1884:.\Generated_Source\PSoC5/RTC_1.c ****                             RTC_1_currentTimeDate.DayOfMonth = 1u;
 3262              		.loc 1 1884 0
 3263 06c0 644B     		ldr	r3, .L238+12
 3264 06c2 0122     		movs	r2, #1
 3265 06c4 1A71     		strb	r2, [r3, #4]
1885:.\Generated_Source\PSoC5/RTC_1.c **** 
1886:.\Generated_Source\PSoC5/RTC_1.c ****                             /* Has new year come? */
1887:.\Generated_Source\PSoC5/RTC_1.c ****                             if(RTC_1_currentTimeDate.Month > RTC_1_YEAR_ELAPSED)
 3266              		.loc 1 1887 0
 3267 06c6 634B     		ldr	r3, .L238+12
 3268 06c8 1B7A     		ldrb	r3, [r3, #8]
 3269 06ca DBB2     		uxtb	r3, r3
 3270 06cc 0C2B     		cmp	r3, #12
 3271 06ce 42D9     		bls	.L208
1888:.\Generated_Source\PSoC5/RTC_1.c ****                             {
1889:.\Generated_Source\PSoC5/RTC_1.c ****                                 /* Set first month of the year */
1890:.\Generated_Source\PSoC5/RTC_1.c ****                                 RTC_1_currentTimeDate.Month = RTC_1_JANUARY;
 3272              		.loc 1 1890 0
 3273 06d0 604B     		ldr	r3, .L238+12
 3274 06d2 0122     		movs	r2, #1
 3275 06d4 1A72     		strb	r2, [r3, #8]
1891:.\Generated_Source\PSoC5/RTC_1.c **** 
1892:.\Generated_Source\PSoC5/RTC_1.c ****                                 /* Increment year */
1893:.\Generated_Source\PSoC5/RTC_1.c ****                                 RTC_1_currentTimeDate.Year++;
 3276              		.loc 1 1893 0
 3277 06d6 5F4B     		ldr	r3, .L238+12
 3278 06d8 5B89     		ldrh	r3, [r3, #10]	@ movhi
ARM GAS  C:\Users\glenn\AppData\Local\Temp\ccPIHEU1.s 			page 92


 3279 06da 9BB2     		uxth	r3, r3
 3280 06dc 0133     		adds	r3, r3, #1
 3281 06de 9AB2     		uxth	r2, r3
 3282 06e0 5C4B     		ldr	r3, .L238+12
 3283 06e2 5A81     		strh	r2, [r3, #10]	@ movhi
1894:.\Generated_Source\PSoC5/RTC_1.c **** 
1895:.\Generated_Source\PSoC5/RTC_1.c ****                                 /* Update leap year status */
1896:.\Generated_Source\PSoC5/RTC_1.c ****                                 if(1u == RTC_1_LEAP_YEAR(RTC_1_currentTimeDate.Year))
 3284              		.loc 1 1896 0
 3285 06e4 5B4B     		ldr	r3, .L238+12
 3286 06e6 5B89     		ldrh	r3, [r3, #10]	@ movhi
 3287 06e8 9BB2     		uxth	r3, r3
 3288 06ea 5C4A     		ldr	r2, .L238+20
 3289 06ec A2FB0312 		umull	r1, r2, r2, r3
 3290 06f0 D209     		lsrs	r2, r2, #7
 3291 06f2 4FF4C871 		mov	r1, #400
 3292 06f6 01FB02F2 		mul	r2, r1, r2
 3293 06fa 9B1A     		subs	r3, r3, r2
 3294 06fc 9BB2     		uxth	r3, r3
 3295 06fe 002B     		cmp	r3, #0
 3296 0700 15D0     		beq	.L210
 3297              		.loc 1 1896 0 is_stmt 0 discriminator 1
 3298 0702 544B     		ldr	r3, .L238+12
 3299 0704 5B89     		ldrh	r3, [r3, #10]	@ movhi
 3300 0706 9BB2     		uxth	r3, r3
 3301 0708 03F00303 		and	r3, r3, #3
 3302 070c 9BB2     		uxth	r3, r3
 3303 070e 002B     		cmp	r3, #0
 3304 0710 16D1     		bne	.L211
 3305              		.loc 1 1896 0 discriminator 2
 3306 0712 504B     		ldr	r3, .L238+12
 3307 0714 5B89     		ldrh	r3, [r3, #10]	@ movhi
 3308 0716 9BB2     		uxth	r3, r3
 3309 0718 504A     		ldr	r2, .L238+20
 3310 071a A2FB0312 		umull	r1, r2, r2, r3
 3311 071e 5209     		lsrs	r2, r2, #5
 3312 0720 6421     		movs	r1, #100
 3313 0722 01FB02F2 		mul	r2, r1, r2
 3314 0726 9B1A     		subs	r3, r3, r2
 3315 0728 9BB2     		uxth	r3, r3
 3316 072a 002B     		cmp	r3, #0
 3317 072c 08D0     		beq	.L211
 3318              	.L210:
1897:.\Generated_Source\PSoC5/RTC_1.c ****                                 {
1898:.\Generated_Source\PSoC5/RTC_1.c ****                                     /* LP - true, else - false */
1899:.\Generated_Source\PSoC5/RTC_1.c ****                                     RTC_1_statusDateTime |= RTC_1_STATUS_LY;
 3319              		.loc 1 1899 0 is_stmt 1
 3320 072e 4C4B     		ldr	r3, .L238+24
 3321 0730 1B78     		ldrb	r3, [r3]
 3322 0732 DBB2     		uxtb	r3, r3
 3323 0734 43F00203 		orr	r3, r3, #2
 3324 0738 DAB2     		uxtb	r2, r3
 3325 073a 494B     		ldr	r3, .L238+24
 3326 073c 1A70     		strb	r2, [r3]
 3327 073e 07E0     		b	.L212
 3328              	.L211:
1900:.\Generated_Source\PSoC5/RTC_1.c ****                                 }
ARM GAS  C:\Users\glenn\AppData\Local\Temp\ccPIHEU1.s 			page 93


1901:.\Generated_Source\PSoC5/RTC_1.c ****                                 else
1902:.\Generated_Source\PSoC5/RTC_1.c ****                                 {
1903:.\Generated_Source\PSoC5/RTC_1.c ****                                     RTC_1_statusDateTime &= (uint8)(~RTC_1_STATUS_LY);
 3329              		.loc 1 1903 0
 3330 0740 474B     		ldr	r3, .L238+24
 3331 0742 1B78     		ldrb	r3, [r3]
 3332 0744 DBB2     		uxtb	r3, r3
 3333 0746 23F00203 		bic	r3, r3, #2
 3334 074a DAB2     		uxtb	r2, r3
 3335 074c 444B     		ldr	r3, .L238+24
 3336 074e 1A70     		strb	r2, [r3]
 3337              	.L212:
1904:.\Generated_Source\PSoC5/RTC_1.c ****                                 }
1905:.\Generated_Source\PSoC5/RTC_1.c **** 
1906:.\Generated_Source\PSoC5/RTC_1.c ****                                 /* Set day of year to the first one */
1907:.\Generated_Source\PSoC5/RTC_1.c ****                                 RTC_1_currentTimeDate.DayOfYear = 1u;
 3338              		.loc 1 1907 0
 3339 0750 404B     		ldr	r3, .L238+12
 3340 0752 0122     		movs	r2, #1
 3341 0754 DA80     		strh	r2, [r3, #6]	@ movhi
 3342              	.L208:
1908:.\Generated_Source\PSoC5/RTC_1.c ****                             }
1909:.\Generated_Source\PSoC5/RTC_1.c ****                         }
1910:.\Generated_Source\PSoC5/RTC_1.c ****                     }
1911:.\Generated_Source\PSoC5/RTC_1.c ****                     RTC_1_statusDateTime |= RTC_1_STATUS_DST;
 3343              		.loc 1 1911 0
 3344 0756 424B     		ldr	r3, .L238+24
 3345 0758 1B78     		ldrb	r3, [r3]
 3346 075a DBB2     		uxtb	r3, r3
 3347 075c 43F00103 		orr	r3, r3, #1
 3348 0760 DAB2     		uxtb	r2, r3
 3349 0762 3F4B     		ldr	r3, .L238+24
 3350 0764 1A70     		strb	r2, [r3]
1912:.\Generated_Source\PSoC5/RTC_1.c ****                     RTC_1_dstStartStatus = 0u;
 3351              		.loc 1 1912 0
 3352 0766 384B     		ldr	r3, .L238
 3353 0768 0022     		movs	r2, #0
 3354 076a 1A70     		strb	r2, [r3]
 3355              	.L197:
1913:.\Generated_Source\PSoC5/RTC_1.c ****                 }
1914:.\Generated_Source\PSoC5/RTC_1.c ****             }
1915:.\Generated_Source\PSoC5/RTC_1.c ****         }
1916:.\Generated_Source\PSoC5/RTC_1.c ****     #endif /* 1u == RTC_1_DST_FUNC_ENABLE */
1917:.\Generated_Source\PSoC5/RTC_1.c **** 
1918:.\Generated_Source\PSoC5/RTC_1.c ****     /* Set AM/PM flag */
1919:.\Generated_Source\PSoC5/RTC_1.c ****     if(RTC_1_currentTimeDate.Hour < RTC_1_HALF_OF_DAY_ELAPSED)
 3356              		.loc 1 1919 0
 3357 076c 394B     		ldr	r3, .L238+12
 3358 076e 9B78     		ldrb	r3, [r3, #2]
 3359 0770 DBB2     		uxtb	r3, r3
 3360 0772 0B2B     		cmp	r3, #11
 3361 0774 08D8     		bhi	.L213
1920:.\Generated_Source\PSoC5/RTC_1.c ****     {
1921:.\Generated_Source\PSoC5/RTC_1.c ****         /* AM Hour 00:00-11:59, flag zero */
1922:.\Generated_Source\PSoC5/RTC_1.c ****         RTC_1_statusDateTime &= (uint8)(~RTC_1_STATUS_AM_PM);
 3362              		.loc 1 1922 0
 3363 0776 3A4B     		ldr	r3, .L238+24
ARM GAS  C:\Users\glenn\AppData\Local\Temp\ccPIHEU1.s 			page 94


 3364 0778 1B78     		ldrb	r3, [r3]
 3365 077a DBB2     		uxtb	r3, r3
 3366 077c 23F00403 		bic	r3, r3, #4
 3367 0780 DAB2     		uxtb	r2, r3
 3368 0782 374B     		ldr	r3, .L238+24
 3369 0784 1A70     		strb	r2, [r3]
 3370 0786 07E0     		b	.L214
 3371              	.L213:
1923:.\Generated_Source\PSoC5/RTC_1.c ****     }
1924:.\Generated_Source\PSoC5/RTC_1.c ****     else
1925:.\Generated_Source\PSoC5/RTC_1.c ****     {
1926:.\Generated_Source\PSoC5/RTC_1.c ****         /* PM Hour 12:00 - 23:59, flag set */
1927:.\Generated_Source\PSoC5/RTC_1.c ****         RTC_1_statusDateTime |= RTC_1_STATUS_AM_PM;
 3372              		.loc 1 1927 0
 3373 0788 354B     		ldr	r3, .L238+24
 3374 078a 1B78     		ldrb	r3, [r3]
 3375 078c DBB2     		uxtb	r3, r3
 3376 078e 43F00403 		orr	r3, r3, #4
 3377 0792 DAB2     		uxtb	r2, r3
 3378 0794 324B     		ldr	r3, .L238+24
 3379 0796 1A70     		strb	r2, [r3]
 3380              	.L214:
1928:.\Generated_Source\PSoC5/RTC_1.c ****     }
1929:.\Generated_Source\PSoC5/RTC_1.c **** 
1930:.\Generated_Source\PSoC5/RTC_1.c ****     /* Alarm calculation */
1931:.\Generated_Source\PSoC5/RTC_1.c **** 
1932:.\Generated_Source\PSoC5/RTC_1.c ****     /* Alarm SEC */
1933:.\Generated_Source\PSoC5/RTC_1.c ****     if(0u != RTC_1_IS_BIT_SET(RTC_1_alarmCfgMask, RTC_1_ALARM_SEC_MASK))
 3381              		.loc 1 1933 0
 3382 0798 324B     		ldr	r3, .L238+28
 3383 079a 1B78     		ldrb	r3, [r3]
 3384 079c DBB2     		uxtb	r3, r3
 3385 079e 03F00103 		and	r3, r3, #1
 3386 07a2 002B     		cmp	r3, #0
 3387 07a4 18D0     		beq	.L215
1934:.\Generated_Source\PSoC5/RTC_1.c ****     {
1935:.\Generated_Source\PSoC5/RTC_1.c ****         if(RTC_1_alarmCfgTimeDate.Sec == RTC_1_currentTimeDate.Sec)
 3388              		.loc 1 1935 0
 3389 07a6 304B     		ldr	r3, .L238+32
 3390 07a8 1B78     		ldrb	r3, [r3]
 3391 07aa DAB2     		uxtb	r2, r3
 3392 07ac 294B     		ldr	r3, .L238+12
 3393 07ae 1B78     		ldrb	r3, [r3]
 3394 07b0 DBB2     		uxtb	r3, r3
 3395 07b2 9A42     		cmp	r2, r3
 3396 07b4 08D1     		bne	.L216
1936:.\Generated_Source\PSoC5/RTC_1.c ****         {
1937:.\Generated_Source\PSoC5/RTC_1.c ****             /* Set second alarm */
1938:.\Generated_Source\PSoC5/RTC_1.c ****             RTC_1_alarmCurStatus |= RTC_1_ALARM_SEC_MASK;
 3397              		.loc 1 1938 0
 3398 07b6 2D4B     		ldr	r3, .L238+36
 3399 07b8 1B78     		ldrb	r3, [r3]
 3400 07ba DBB2     		uxtb	r3, r3
 3401 07bc 43F00103 		orr	r3, r3, #1
 3402 07c0 DAB2     		uxtb	r2, r3
 3403 07c2 2A4B     		ldr	r3, .L238+36
 3404 07c4 1A70     		strb	r2, [r3]
ARM GAS  C:\Users\glenn\AppData\Local\Temp\ccPIHEU1.s 			page 95


 3405 07c6 07E0     		b	.L215
 3406              	.L216:
1939:.\Generated_Source\PSoC5/RTC_1.c ****         }
1940:.\Generated_Source\PSoC5/RTC_1.c ****         else
1941:.\Generated_Source\PSoC5/RTC_1.c ****         {
1942:.\Generated_Source\PSoC5/RTC_1.c ****             /* Clear second alarm */
1943:.\Generated_Source\PSoC5/RTC_1.c ****             RTC_1_alarmCurStatus &= (uint8)(~RTC_1_ALARM_SEC_MASK);
 3407              		.loc 1 1943 0
 3408 07c8 284B     		ldr	r3, .L238+36
 3409 07ca 1B78     		ldrb	r3, [r3]
 3410 07cc DBB2     		uxtb	r3, r3
 3411 07ce 23F00103 		bic	r3, r3, #1
 3412 07d2 DAB2     		uxtb	r2, r3
 3413 07d4 254B     		ldr	r3, .L238+36
 3414 07d6 1A70     		strb	r2, [r3]
 3415              	.L215:
1944:.\Generated_Source\PSoC5/RTC_1.c ****         }
1945:.\Generated_Source\PSoC5/RTC_1.c ****     }
1946:.\Generated_Source\PSoC5/RTC_1.c **** 
1947:.\Generated_Source\PSoC5/RTC_1.c ****     /* Alarm MIN */
1948:.\Generated_Source\PSoC5/RTC_1.c ****     if(0u != RTC_1_IS_BIT_SET(RTC_1_alarmCfgMask, RTC_1_ALARM_MIN_MASK))
 3416              		.loc 1 1948 0
 3417 07d8 224B     		ldr	r3, .L238+28
 3418 07da 1B78     		ldrb	r3, [r3]
 3419 07dc DBB2     		uxtb	r3, r3
 3420 07de 03F00203 		and	r3, r3, #2
 3421 07e2 002B     		cmp	r3, #0
 3422 07e4 18D0     		beq	.L217
1949:.\Generated_Source\PSoC5/RTC_1.c ****     {
1950:.\Generated_Source\PSoC5/RTC_1.c ****         if(RTC_1_alarmCfgTimeDate.Min == RTC_1_currentTimeDate.Min)
 3423              		.loc 1 1950 0
 3424 07e6 204B     		ldr	r3, .L238+32
 3425 07e8 5B78     		ldrb	r3, [r3, #1]
 3426 07ea DAB2     		uxtb	r2, r3
 3427 07ec 194B     		ldr	r3, .L238+12
 3428 07ee 5B78     		ldrb	r3, [r3, #1]
 3429 07f0 DBB2     		uxtb	r3, r3
 3430 07f2 9A42     		cmp	r2, r3
 3431 07f4 08D1     		bne	.L218
1951:.\Generated_Source\PSoC5/RTC_1.c ****         {
1952:.\Generated_Source\PSoC5/RTC_1.c ****             /* Set minute alarm */
1953:.\Generated_Source\PSoC5/RTC_1.c ****             RTC_1_alarmCurStatus |= RTC_1_ALARM_MIN_MASK;
 3432              		.loc 1 1953 0
 3433 07f6 1D4B     		ldr	r3, .L238+36
 3434 07f8 1B78     		ldrb	r3, [r3]
 3435 07fa DBB2     		uxtb	r3, r3
 3436 07fc 43F00203 		orr	r3, r3, #2
 3437 0800 DAB2     		uxtb	r2, r3
 3438 0802 1A4B     		ldr	r3, .L238+36
 3439 0804 1A70     		strb	r2, [r3]
 3440 0806 07E0     		b	.L217
 3441              	.L218:
1954:.\Generated_Source\PSoC5/RTC_1.c ****         }
1955:.\Generated_Source\PSoC5/RTC_1.c ****         else
1956:.\Generated_Source\PSoC5/RTC_1.c ****         {
1957:.\Generated_Source\PSoC5/RTC_1.c ****             /* Clear minute alarm */
1958:.\Generated_Source\PSoC5/RTC_1.c ****             RTC_1_alarmCurStatus &= (uint8)(~RTC_1_ALARM_MIN_MASK);
ARM GAS  C:\Users\glenn\AppData\Local\Temp\ccPIHEU1.s 			page 96


 3442              		.loc 1 1958 0
 3443 0808 184B     		ldr	r3, .L238+36
 3444 080a 1B78     		ldrb	r3, [r3]
 3445 080c DBB2     		uxtb	r3, r3
 3446 080e 23F00203 		bic	r3, r3, #2
 3447 0812 DAB2     		uxtb	r2, r3
 3448 0814 154B     		ldr	r3, .L238+36
 3449 0816 1A70     		strb	r2, [r3]
 3450              	.L217:
1959:.\Generated_Source\PSoC5/RTC_1.c ****         }
1960:.\Generated_Source\PSoC5/RTC_1.c ****     }
1961:.\Generated_Source\PSoC5/RTC_1.c **** 
1962:.\Generated_Source\PSoC5/RTC_1.c ****     /* Alarm HOUR */
1963:.\Generated_Source\PSoC5/RTC_1.c ****     if(0u != RTC_1_IS_BIT_SET(RTC_1_alarmCfgMask, RTC_1_ALARM_HOUR_MASK))
 3451              		.loc 1 1963 0
 3452 0818 124B     		ldr	r3, .L238+28
 3453 081a 1B78     		ldrb	r3, [r3]
 3454 081c DBB2     		uxtb	r3, r3
 3455 081e 03F00403 		and	r3, r3, #4
 3456 0822 002B     		cmp	r3, #0
 3457 0824 2CD0     		beq	.L219
1964:.\Generated_Source\PSoC5/RTC_1.c ****     {
1965:.\Generated_Source\PSoC5/RTC_1.c ****         if(RTC_1_alarmCfgTimeDate.Hour == RTC_1_currentTimeDate.Hour)
 3458              		.loc 1 1965 0
 3459 0826 104B     		ldr	r3, .L238+32
 3460 0828 9B78     		ldrb	r3, [r3, #2]
 3461 082a DAB2     		uxtb	r2, r3
 3462 082c 094B     		ldr	r3, .L238+12
 3463 082e 9B78     		ldrb	r3, [r3, #2]
 3464 0830 DBB2     		uxtb	r3, r3
 3465 0832 9A42     		cmp	r2, r3
 3466 0834 1CD1     		bne	.L220
1966:.\Generated_Source\PSoC5/RTC_1.c ****         {
1967:.\Generated_Source\PSoC5/RTC_1.c ****             /* Set hour alarm */
1968:.\Generated_Source\PSoC5/RTC_1.c ****             RTC_1_alarmCurStatus |= RTC_1_ALARM_HOUR_MASK;
 3467              		.loc 1 1968 0
 3468 0836 0D4B     		ldr	r3, .L238+36
 3469 0838 1B78     		ldrb	r3, [r3]
 3470 083a DBB2     		uxtb	r3, r3
 3471 083c 43F00403 		orr	r3, r3, #4
 3472 0840 DAB2     		uxtb	r2, r3
 3473 0842 0A4B     		ldr	r3, .L238+36
 3474 0844 1A70     		strb	r2, [r3]
 3475 0846 1BE0     		b	.L219
 3476              	.L239:
 3477              		.align	2
 3478              	.L238:
 3479 0848 00000000 		.word	RTC_1_dstStartStatus
 3480 084c 00000000 		.word	RTC_1_dstOffsetMin
 3481 0850 89888888 		.word	-2004318071
 3482 0854 00000000 		.word	RTC_1_currentTimeDate
 3483 0858 00000000 		.word	RTC_1_daysInMonths
 3484 085c 1F85EB51 		.word	1374389535
 3485 0860 00000000 		.word	RTC_1_statusDateTime
 3486 0864 00000000 		.word	RTC_1_alarmCfgMask
 3487 0868 00000000 		.word	RTC_1_alarmCfgTimeDate
 3488 086c 00000000 		.word	RTC_1_alarmCurStatus
ARM GAS  C:\Users\glenn\AppData\Local\Temp\ccPIHEU1.s 			page 97


 3489              	.L220:
1969:.\Generated_Source\PSoC5/RTC_1.c ****         }
1970:.\Generated_Source\PSoC5/RTC_1.c ****         else
1971:.\Generated_Source\PSoC5/RTC_1.c ****         {
1972:.\Generated_Source\PSoC5/RTC_1.c ****             /* Clear hour alarm */
1973:.\Generated_Source\PSoC5/RTC_1.c ****             RTC_1_alarmCurStatus &= (uint8)(~RTC_1_ALARM_HOUR_MASK);
 3490              		.loc 1 1973 0
 3491 0870 624B     		ldr	r3, .L240
 3492 0872 1B78     		ldrb	r3, [r3]
 3493 0874 DBB2     		uxtb	r3, r3
 3494 0876 23F00403 		bic	r3, r3, #4
 3495 087a DAB2     		uxtb	r2, r3
 3496 087c 5F4B     		ldr	r3, .L240
 3497 087e 1A70     		strb	r2, [r3]
 3498              	.L219:
1974:.\Generated_Source\PSoC5/RTC_1.c ****         }
1975:.\Generated_Source\PSoC5/RTC_1.c ****     }
1976:.\Generated_Source\PSoC5/RTC_1.c **** 
1977:.\Generated_Source\PSoC5/RTC_1.c ****     /* Alarm DAYOFWEEK */
1978:.\Generated_Source\PSoC5/RTC_1.c ****     if(0u != RTC_1_IS_BIT_SET(RTC_1_alarmCfgMask, RTC_1_ALARM_DAYOFWEEK_MASK))
 3499              		.loc 1 1978 0
 3500 0880 5F4B     		ldr	r3, .L240+4
 3501 0882 1B78     		ldrb	r3, [r3]
 3502 0884 DBB2     		uxtb	r3, r3
 3503 0886 03F00803 		and	r3, r3, #8
 3504 088a 002B     		cmp	r3, #0
 3505 088c 18D0     		beq	.L221
1979:.\Generated_Source\PSoC5/RTC_1.c ****     {
1980:.\Generated_Source\PSoC5/RTC_1.c ****         if(RTC_1_alarmCfgTimeDate.DayOfWeek == RTC_1_currentTimeDate.DayOfWeek)
 3506              		.loc 1 1980 0
 3507 088e 5D4B     		ldr	r3, .L240+8
 3508 0890 DB78     		ldrb	r3, [r3, #3]
 3509 0892 DAB2     		uxtb	r2, r3
 3510 0894 5C4B     		ldr	r3, .L240+12
 3511 0896 DB78     		ldrb	r3, [r3, #3]
 3512 0898 DBB2     		uxtb	r3, r3
 3513 089a 9A42     		cmp	r2, r3
 3514 089c 08D1     		bne	.L222
1981:.\Generated_Source\PSoC5/RTC_1.c ****         {
1982:.\Generated_Source\PSoC5/RTC_1.c ****             /* Set day of week alarm */
1983:.\Generated_Source\PSoC5/RTC_1.c ****             RTC_1_alarmCurStatus |= RTC_1_ALARM_DAYOFWEEK_MASK;
 3515              		.loc 1 1983 0
 3516 089e 574B     		ldr	r3, .L240
 3517 08a0 1B78     		ldrb	r3, [r3]
 3518 08a2 DBB2     		uxtb	r3, r3
 3519 08a4 43F00803 		orr	r3, r3, #8
 3520 08a8 DAB2     		uxtb	r2, r3
 3521 08aa 544B     		ldr	r3, .L240
 3522 08ac 1A70     		strb	r2, [r3]
 3523 08ae 07E0     		b	.L221
 3524              	.L222:
1984:.\Generated_Source\PSoC5/RTC_1.c ****         }
1985:.\Generated_Source\PSoC5/RTC_1.c ****         else
1986:.\Generated_Source\PSoC5/RTC_1.c ****         {
1987:.\Generated_Source\PSoC5/RTC_1.c ****             /* Clear day of week alarm */
1988:.\Generated_Source\PSoC5/RTC_1.c ****             RTC_1_alarmCurStatus &= (uint8)(~RTC_1_ALARM_DAYOFWEEK_MASK);
 3525              		.loc 1 1988 0
ARM GAS  C:\Users\glenn\AppData\Local\Temp\ccPIHEU1.s 			page 98


 3526 08b0 524B     		ldr	r3, .L240
 3527 08b2 1B78     		ldrb	r3, [r3]
 3528 08b4 DBB2     		uxtb	r3, r3
 3529 08b6 23F00803 		bic	r3, r3, #8
 3530 08ba DAB2     		uxtb	r2, r3
 3531 08bc 4F4B     		ldr	r3, .L240
 3532 08be 1A70     		strb	r2, [r3]
 3533              	.L221:
1989:.\Generated_Source\PSoC5/RTC_1.c ****         }
1990:.\Generated_Source\PSoC5/RTC_1.c ****     }
1991:.\Generated_Source\PSoC5/RTC_1.c **** 
1992:.\Generated_Source\PSoC5/RTC_1.c ****     /* Alarm DAYOFYEAR */
1993:.\Generated_Source\PSoC5/RTC_1.c ****     if(0u != RTC_1_IS_BIT_SET(RTC_1_alarmCfgMask, RTC_1_ALARM_DAYOFYEAR_MASK))
 3534              		.loc 1 1993 0
 3535 08c0 4F4B     		ldr	r3, .L240+4
 3536 08c2 1B78     		ldrb	r3, [r3]
 3537 08c4 DBB2     		uxtb	r3, r3
 3538 08c6 03F02003 		and	r3, r3, #32
 3539 08ca 002B     		cmp	r3, #0
 3540 08cc 18D0     		beq	.L223
1994:.\Generated_Source\PSoC5/RTC_1.c ****     {
1995:.\Generated_Source\PSoC5/RTC_1.c ****         if(RTC_1_alarmCfgTimeDate.DayOfYear == RTC_1_currentTimeDate.DayOfYear)
 3541              		.loc 1 1995 0
 3542 08ce 4D4B     		ldr	r3, .L240+8
 3543 08d0 DB88     		ldrh	r3, [r3, #6]	@ movhi
 3544 08d2 9AB2     		uxth	r2, r3
 3545 08d4 4C4B     		ldr	r3, .L240+12
 3546 08d6 DB88     		ldrh	r3, [r3, #6]	@ movhi
 3547 08d8 9BB2     		uxth	r3, r3
 3548 08da 9A42     		cmp	r2, r3
 3549 08dc 08D1     		bne	.L224
1996:.\Generated_Source\PSoC5/RTC_1.c ****         {
1997:.\Generated_Source\PSoC5/RTC_1.c ****             /* Set day of year alarm */
1998:.\Generated_Source\PSoC5/RTC_1.c ****             RTC_1_alarmCurStatus |= RTC_1_ALARM_DAYOFYEAR_MASK;
 3550              		.loc 1 1998 0
 3551 08de 474B     		ldr	r3, .L240
 3552 08e0 1B78     		ldrb	r3, [r3]
 3553 08e2 DBB2     		uxtb	r3, r3
 3554 08e4 43F02003 		orr	r3, r3, #32
 3555 08e8 DAB2     		uxtb	r2, r3
 3556 08ea 444B     		ldr	r3, .L240
 3557 08ec 1A70     		strb	r2, [r3]
 3558 08ee 07E0     		b	.L223
 3559              	.L224:
1999:.\Generated_Source\PSoC5/RTC_1.c ****         }
2000:.\Generated_Source\PSoC5/RTC_1.c ****         else
2001:.\Generated_Source\PSoC5/RTC_1.c ****         {
2002:.\Generated_Source\PSoC5/RTC_1.c ****             /* Clear day of year alarm */
2003:.\Generated_Source\PSoC5/RTC_1.c ****             RTC_1_alarmCurStatus &= (uint8)(~RTC_1_ALARM_DAYOFYEAR_MASK);
 3560              		.loc 1 2003 0
 3561 08f0 424B     		ldr	r3, .L240
 3562 08f2 1B78     		ldrb	r3, [r3]
 3563 08f4 DBB2     		uxtb	r3, r3
 3564 08f6 23F02003 		bic	r3, r3, #32
 3565 08fa DAB2     		uxtb	r2, r3
 3566 08fc 3F4B     		ldr	r3, .L240
 3567 08fe 1A70     		strb	r2, [r3]
ARM GAS  C:\Users\glenn\AppData\Local\Temp\ccPIHEU1.s 			page 99


 3568              	.L223:
2004:.\Generated_Source\PSoC5/RTC_1.c ****         }
2005:.\Generated_Source\PSoC5/RTC_1.c ****     }
2006:.\Generated_Source\PSoC5/RTC_1.c **** 
2007:.\Generated_Source\PSoC5/RTC_1.c ****     /* Alarm DAYOFMONTH */
2008:.\Generated_Source\PSoC5/RTC_1.c ****     if(0u != RTC_1_IS_BIT_SET(RTC_1_alarmCfgMask, RTC_1_ALARM_DAYOFMONTH_MASK))
 3569              		.loc 1 2008 0
 3570 0900 3F4B     		ldr	r3, .L240+4
 3571 0902 1B78     		ldrb	r3, [r3]
 3572 0904 DBB2     		uxtb	r3, r3
 3573 0906 03F01003 		and	r3, r3, #16
 3574 090a 002B     		cmp	r3, #0
 3575 090c 18D0     		beq	.L225
2009:.\Generated_Source\PSoC5/RTC_1.c ****     {
2010:.\Generated_Source\PSoC5/RTC_1.c ****         if(RTC_1_alarmCfgTimeDate.DayOfMonth == RTC_1_currentTimeDate.DayOfMonth)
 3576              		.loc 1 2010 0
 3577 090e 3D4B     		ldr	r3, .L240+8
 3578 0910 1B79     		ldrb	r3, [r3, #4]
 3579 0912 DAB2     		uxtb	r2, r3
 3580 0914 3C4B     		ldr	r3, .L240+12
 3581 0916 1B79     		ldrb	r3, [r3, #4]
 3582 0918 DBB2     		uxtb	r3, r3
 3583 091a 9A42     		cmp	r2, r3
 3584 091c 08D1     		bne	.L226
2011:.\Generated_Source\PSoC5/RTC_1.c ****         {
2012:.\Generated_Source\PSoC5/RTC_1.c ****             /* Set day of month alarm */
2013:.\Generated_Source\PSoC5/RTC_1.c ****             RTC_1_alarmCurStatus |= RTC_1_ALARM_DAYOFMONTH_MASK;
 3585              		.loc 1 2013 0
 3586 091e 374B     		ldr	r3, .L240
 3587 0920 1B78     		ldrb	r3, [r3]
 3588 0922 DBB2     		uxtb	r3, r3
 3589 0924 43F01003 		orr	r3, r3, #16
 3590 0928 DAB2     		uxtb	r2, r3
 3591 092a 344B     		ldr	r3, .L240
 3592 092c 1A70     		strb	r2, [r3]
 3593 092e 07E0     		b	.L225
 3594              	.L226:
2014:.\Generated_Source\PSoC5/RTC_1.c ****         }
2015:.\Generated_Source\PSoC5/RTC_1.c ****            else
2016:.\Generated_Source\PSoC5/RTC_1.c ****         {
2017:.\Generated_Source\PSoC5/RTC_1.c ****             /* Clear day of month alarm */
2018:.\Generated_Source\PSoC5/RTC_1.c ****             RTC_1_alarmCurStatus &= (uint8)(~RTC_1_ALARM_DAYOFMONTH_MASK);
 3595              		.loc 1 2018 0
 3596 0930 324B     		ldr	r3, .L240
 3597 0932 1B78     		ldrb	r3, [r3]
 3598 0934 DBB2     		uxtb	r3, r3
 3599 0936 23F01003 		bic	r3, r3, #16
 3600 093a DAB2     		uxtb	r2, r3
 3601 093c 2F4B     		ldr	r3, .L240
 3602 093e 1A70     		strb	r2, [r3]
 3603              	.L225:
2019:.\Generated_Source\PSoC5/RTC_1.c ****         }
2020:.\Generated_Source\PSoC5/RTC_1.c ****     }
2021:.\Generated_Source\PSoC5/RTC_1.c **** 
2022:.\Generated_Source\PSoC5/RTC_1.c ****     /* Alarm MONTH */
2023:.\Generated_Source\PSoC5/RTC_1.c ****     if(0u != RTC_1_IS_BIT_SET(RTC_1_alarmCfgMask, RTC_1_ALARM_MONTH_MASK))
 3604              		.loc 1 2023 0
ARM GAS  C:\Users\glenn\AppData\Local\Temp\ccPIHEU1.s 			page 100


 3605 0940 2F4B     		ldr	r3, .L240+4
 3606 0942 1B78     		ldrb	r3, [r3]
 3607 0944 DBB2     		uxtb	r3, r3
 3608 0946 03F04003 		and	r3, r3, #64
 3609 094a 002B     		cmp	r3, #0
 3610 094c 18D0     		beq	.L227
2024:.\Generated_Source\PSoC5/RTC_1.c ****     {
2025:.\Generated_Source\PSoC5/RTC_1.c ****         if(RTC_1_alarmCfgTimeDate.Month == RTC_1_currentTimeDate.Month)
 3611              		.loc 1 2025 0
 3612 094e 2D4B     		ldr	r3, .L240+8
 3613 0950 1B7A     		ldrb	r3, [r3, #8]
 3614 0952 DAB2     		uxtb	r2, r3
 3615 0954 2C4B     		ldr	r3, .L240+12
 3616 0956 1B7A     		ldrb	r3, [r3, #8]
 3617 0958 DBB2     		uxtb	r3, r3
 3618 095a 9A42     		cmp	r2, r3
 3619 095c 08D1     		bne	.L228
2026:.\Generated_Source\PSoC5/RTC_1.c ****         {
2027:.\Generated_Source\PSoC5/RTC_1.c ****             /* Set month alarm */
2028:.\Generated_Source\PSoC5/RTC_1.c ****             RTC_1_alarmCurStatus |= RTC_1_ALARM_MONTH_MASK;
 3620              		.loc 1 2028 0
 3621 095e 274B     		ldr	r3, .L240
 3622 0960 1B78     		ldrb	r3, [r3]
 3623 0962 DBB2     		uxtb	r3, r3
 3624 0964 43F04003 		orr	r3, r3, #64
 3625 0968 DAB2     		uxtb	r2, r3
 3626 096a 244B     		ldr	r3, .L240
 3627 096c 1A70     		strb	r2, [r3]
 3628 096e 07E0     		b	.L227
 3629              	.L228:
2029:.\Generated_Source\PSoC5/RTC_1.c ****         }
2030:.\Generated_Source\PSoC5/RTC_1.c ****         else
2031:.\Generated_Source\PSoC5/RTC_1.c ****         {
2032:.\Generated_Source\PSoC5/RTC_1.c ****             /* Clear month alarm */
2033:.\Generated_Source\PSoC5/RTC_1.c ****             RTC_1_alarmCurStatus &= (uint8)(~RTC_1_ALARM_MONTH_MASK);
 3630              		.loc 1 2033 0
 3631 0970 224B     		ldr	r3, .L240
 3632 0972 1B78     		ldrb	r3, [r3]
 3633 0974 DBB2     		uxtb	r3, r3
 3634 0976 23F04003 		bic	r3, r3, #64
 3635 097a DAB2     		uxtb	r2, r3
 3636 097c 1F4B     		ldr	r3, .L240
 3637 097e 1A70     		strb	r2, [r3]
 3638              	.L227:
2034:.\Generated_Source\PSoC5/RTC_1.c ****         }
2035:.\Generated_Source\PSoC5/RTC_1.c ****     }
2036:.\Generated_Source\PSoC5/RTC_1.c **** 
2037:.\Generated_Source\PSoC5/RTC_1.c ****     /* Alarm YEAR */
2038:.\Generated_Source\PSoC5/RTC_1.c ****     if(0u != RTC_1_IS_BIT_SET(RTC_1_alarmCfgMask, RTC_1_ALARM_YEAR_MASK))
 3639              		.loc 1 2038 0
 3640 0980 1F4B     		ldr	r3, .L240+4
 3641 0982 1B78     		ldrb	r3, [r3]
 3642 0984 DBB2     		uxtb	r3, r3
 3643 0986 DBB2     		uxtb	r3, r3
 3644 0988 5BB2     		sxtb	r3, r3
 3645 098a 002B     		cmp	r3, #0
 3646 098c 18DA     		bge	.L229
ARM GAS  C:\Users\glenn\AppData\Local\Temp\ccPIHEU1.s 			page 101


2039:.\Generated_Source\PSoC5/RTC_1.c ****     {
2040:.\Generated_Source\PSoC5/RTC_1.c ****         if(RTC_1_alarmCfgTimeDate.Year == RTC_1_currentTimeDate.Year)
 3647              		.loc 1 2040 0
 3648 098e 1D4B     		ldr	r3, .L240+8
 3649 0990 5B89     		ldrh	r3, [r3, #10]	@ movhi
 3650 0992 9AB2     		uxth	r2, r3
 3651 0994 1C4B     		ldr	r3, .L240+12
 3652 0996 5B89     		ldrh	r3, [r3, #10]	@ movhi
 3653 0998 9BB2     		uxth	r3, r3
 3654 099a 9A42     		cmp	r2, r3
 3655 099c 08D1     		bne	.L230
2041:.\Generated_Source\PSoC5/RTC_1.c ****         {
2042:.\Generated_Source\PSoC5/RTC_1.c ****             /* Set year alarm */
2043:.\Generated_Source\PSoC5/RTC_1.c ****             RTC_1_alarmCurStatus |= RTC_1_ALARM_YEAR_MASK;
 3656              		.loc 1 2043 0
 3657 099e 174B     		ldr	r3, .L240
 3658 09a0 1B78     		ldrb	r3, [r3]
 3659 09a2 DBB2     		uxtb	r3, r3
 3660 09a4 63F07F03 		orn	r3, r3, #127
 3661 09a8 DAB2     		uxtb	r2, r3
 3662 09aa 144B     		ldr	r3, .L240
 3663 09ac 1A70     		strb	r2, [r3]
 3664 09ae 07E0     		b	.L229
 3665              	.L230:
2044:.\Generated_Source\PSoC5/RTC_1.c ****         }
2045:.\Generated_Source\PSoC5/RTC_1.c ****         else
2046:.\Generated_Source\PSoC5/RTC_1.c ****         {
2047:.\Generated_Source\PSoC5/RTC_1.c ****             /* Clear year alarm */
2048:.\Generated_Source\PSoC5/RTC_1.c ****             RTC_1_alarmCurStatus &= (uint8)(~RTC_1_ALARM_YEAR_MASK);
 3666              		.loc 1 2048 0
 3667 09b0 124B     		ldr	r3, .L240
 3668 09b2 1B78     		ldrb	r3, [r3]
 3669 09b4 DBB2     		uxtb	r3, r3
 3670 09b6 03F07F03 		and	r3, r3, #127
 3671 09ba DAB2     		uxtb	r2, r3
 3672 09bc 0F4B     		ldr	r3, .L240
 3673 09be 1A70     		strb	r2, [r3]
 3674              	.L229:
2049:.\Generated_Source\PSoC5/RTC_1.c ****         }
2050:.\Generated_Source\PSoC5/RTC_1.c ****     }
2051:.\Generated_Source\PSoC5/RTC_1.c **** 
2052:.\Generated_Source\PSoC5/RTC_1.c ****     RTC_1_alarmCfgMaskTemp = RTC_1_alarmCfgMask;
 3675              		.loc 1 2052 0
 3676 09c0 0F4B     		ldr	r3, .L240+4
 3677 09c2 1B78     		ldrb	r3, [r3]
 3678 09c4 BB71     		strb	r3, [r7, #6]
2053:.\Generated_Source\PSoC5/RTC_1.c ****     /* Set Alarm flag event */
2054:.\Generated_Source\PSoC5/RTC_1.c ****     RTC_1_SET_ALARM(RTC_1_alarmCfgMaskTemp,
 3679              		.loc 1 2054 0
 3680 09c6 BB79     		ldrb	r3, [r7, #6]	@ zero_extendqisi2
 3681 09c8 002B     		cmp	r3, #0
 3682 09ca 13D0     		beq	.L167
 3683              		.loc 1 2054 0 is_stmt 0 discriminator 1
 3684 09cc 0B4B     		ldr	r3, .L240
 3685 09ce 1B78     		ldrb	r3, [r3]
 3686 09d0 DAB2     		uxtb	r2, r3
 3687 09d2 BB79     		ldrb	r3, [r7, #6]
ARM GAS  C:\Users\glenn\AppData\Local\Temp\ccPIHEU1.s 			page 102


 3688 09d4 1340     		ands	r3, r3, r2
 3689 09d6 DBB2     		uxtb	r3, r3
 3690 09d8 BA79     		ldrb	r2, [r7, #6]	@ zero_extendqisi2
 3691 09da 9A42     		cmp	r2, r3
 3692 09dc 0AD1     		bne	.L167
 3693              		.loc 1 2054 0 discriminator 2
 3694 09de 0B4B     		ldr	r3, .L240+16
 3695 09e0 1B78     		ldrb	r3, [r3]
 3696 09e2 DBB2     		uxtb	r3, r3
 3697 09e4 43F00803 		orr	r3, r3, #8
 3698 09e8 DAB2     		uxtb	r2, r3
 3699 09ea 084B     		ldr	r3, .L240+16
 3700 09ec 1A70     		strb	r2, [r3]
 3701 09ee 034B     		ldr	r3, .L240
 3702 09f0 0022     		movs	r2, #0
 3703 09f2 1A70     		strb	r2, [r3]
 3704              	.L167:
2055:.\Generated_Source\PSoC5/RTC_1.c ****                                RTC_1_alarmCurStatus,
2056:.\Generated_Source\PSoC5/RTC_1.c ****                                RTC_1_statusDateTime);
2057:.\Generated_Source\PSoC5/RTC_1.c **** }
 3705              		.loc 1 2057 0 is_stmt 1
 3706 09f4 0837     		adds	r7, r7, #8
 3707              		.cfi_def_cfa_offset 8
 3708 09f6 BD46     		mov	sp, r7
 3709              		.cfi_def_cfa_register 13
 3710              		@ sp needed
 3711 09f8 80BD     		pop	{r7, pc}
 3712              	.L241:
 3713 09fa 00BF     		.align	2
 3714              	.L240:
 3715 09fc 00000000 		.word	RTC_1_alarmCurStatus
 3716 0a00 00000000 		.word	RTC_1_alarmCfgMask
 3717 0a04 00000000 		.word	RTC_1_alarmCfgTimeDate
 3718 0a08 00000000 		.word	RTC_1_currentTimeDate
 3719 0a0c 00000000 		.word	RTC_1_statusDateTime
 3720              		.cfi_endproc
 3721              	.LFE41:
 3722              		.size	RTC_1_SetInitValues, .-RTC_1_SetInitValues
 3723              		.section	.text.RTC_1_WriteDSTMode,"ax",%progbits
 3724              		.align	2
 3725              		.global	RTC_1_WriteDSTMode
 3726              		.thumb
 3727              		.thumb_func
 3728              		.type	RTC_1_WriteDSTMode, %function
 3729              	RTC_1_WriteDSTMode:
 3730              	.LFB42:
2058:.\Generated_Source\PSoC5/RTC_1.c **** 
2059:.\Generated_Source\PSoC5/RTC_1.c **** 
2060:.\Generated_Source\PSoC5/RTC_1.c **** #if (1u == RTC_1_DST_FUNC_ENABLE)
2061:.\Generated_Source\PSoC5/RTC_1.c ****     /*******************************************************************************
2062:.\Generated_Source\PSoC5/RTC_1.c ****     * Function Name:   RTC_1_WriteDSTMode
2063:.\Generated_Source\PSoC5/RTC_1.c ****     ********************************************************************************
2064:.\Generated_Source\PSoC5/RTC_1.c ****     *
2065:.\Generated_Source\PSoC5/RTC_1.c ****     * Summary:
2066:.\Generated_Source\PSoC5/RTC_1.c ****     *  Writes the DST mode software register. That enables or disables DST changes
2067:.\Generated_Source\PSoC5/RTC_1.c ****     *  and sets the date mode to fixed date or relative date. Only generated if DST
2068:.\Generated_Source\PSoC5/RTC_1.c ****     *  enabled.
ARM GAS  C:\Users\glenn\AppData\Local\Temp\ccPIHEU1.s 			page 103


2069:.\Generated_Source\PSoC5/RTC_1.c ****     *
2070:.\Generated_Source\PSoC5/RTC_1.c ****     * Parameters:
2071:.\Generated_Source\PSoC5/RTC_1.c ****     *  mode: DST Mode software register value.
2072:.\Generated_Source\PSoC5/RTC_1.c ****     *
2073:.\Generated_Source\PSoC5/RTC_1.c ****     * Return:
2074:.\Generated_Source\PSoC5/RTC_1.c ****     *  None.
2075:.\Generated_Source\PSoC5/RTC_1.c ****     *
2076:.\Generated_Source\PSoC5/RTC_1.c ****     * Global variables:
2077:.\Generated_Source\PSoC5/RTC_1.c ****     *  RTC_1_dstModeType: global variable is modified with the new
2078:.\Generated_Source\PSoC5/RTC_1.c ****     *  DST mode type: relative or fixed.
2079:.\Generated_Source\PSoC5/RTC_1.c ****     *
2080:.\Generated_Source\PSoC5/RTC_1.c ****     *  RTC_1_dstTimeDateStart.Month,
2081:.\Generated_Source\PSoC5/RTC_1.c ****     *  RTC_1_dstTimeDateStart.DayOfWeek,
2082:.\Generated_Source\PSoC5/RTC_1.c ****     *  RTC_1_dstTimeDateStart.Week:
2083:.\Generated_Source\PSoC5/RTC_1.c ****     *  RTC_1_dstTimeDateStop.Month,
2084:.\Generated_Source\PSoC5/RTC_1.c ****     *  RTC_1_dstTimeDateStop.DayOfWeek,
2085:.\Generated_Source\PSoC5/RTC_1.c ****     *  RTC_1_dstTimeDateStop.Week,
2086:.\Generated_Source\PSoC5/RTC_1.c ****     *  RTC_1_currentTimeDate.Year: for the day of week correction,
2087:.\Generated_Source\PSoC5/RTC_1.c ****     *   they are used by RTC_1_DSTDateConversion() function if DST
2088:.\Generated_Source\PSoC5/RTC_1.c ****     *   mode is configured to be relative.
2089:.\Generated_Source\PSoC5/RTC_1.c ****     *
2090:.\Generated_Source\PSoC5/RTC_1.c ****     *  RTC_1_dstTimeDateStart.DayOfMonth,
2091:.\Generated_Source\PSoC5/RTC_1.c ****     *  RTC_1_dstTimeDateStop.DayOfMonth: updated after convertion by
2092:.\Generated_Source\PSoC5/RTC_1.c ****     *  the RTC_1_DSTDateConversion() function if DST mode is
2093:.\Generated_Source\PSoC5/RTC_1.c ****     *  configured to be relative.
2094:.\Generated_Source\PSoC5/RTC_1.c ****     *
2095:.\Generated_Source\PSoC5/RTC_1.c ****     * Reentrant:
2096:.\Generated_Source\PSoC5/RTC_1.c ****     *  No.
2097:.\Generated_Source\PSoC5/RTC_1.c ****     *
2098:.\Generated_Source\PSoC5/RTC_1.c ****     *******************************************************************************/
2099:.\Generated_Source\PSoC5/RTC_1.c ****     void RTC_1_WriteDSTMode(uint8 mode) 
2100:.\Generated_Source\PSoC5/RTC_1.c ****     {
 3731              		.loc 1 2100 0
 3732              		.cfi_startproc
 3733              		@ args = 0, pretend = 0, frame = 8
 3734              		@ frame_needed = 1, uses_anonymous_args = 0
 3735 0000 80B5     		push	{r7, lr}
 3736              		.cfi_def_cfa_offset 8
 3737              		.cfi_offset 7, -8
 3738              		.cfi_offset 14, -4
 3739 0002 82B0     		sub	sp, sp, #8
 3740              		.cfi_def_cfa_offset 16
 3741 0004 00AF     		add	r7, sp, #0
 3742              		.cfi_def_cfa_register 7
 3743 0006 0346     		mov	r3, r0
 3744 0008 FB71     		strb	r3, [r7, #7]
2101:.\Generated_Source\PSoC5/RTC_1.c ****         /* Set DST mode */
2102:.\Generated_Source\PSoC5/RTC_1.c ****         RTC_1_dstModeType = mode;
 3745              		.loc 1 2102 0
 3746 000a 064A     		ldr	r2, .L244
 3747 000c FB79     		ldrb	r3, [r7, #7]
 3748 000e 1370     		strb	r3, [r2]
2103:.\Generated_Source\PSoC5/RTC_1.c **** 
2104:.\Generated_Source\PSoC5/RTC_1.c ****         if(0u != RTC_1_IS_BIT_SET(mode, RTC_1_DST_RELDATE))
 3749              		.loc 1 2104 0
 3750 0010 FB79     		ldrb	r3, [r7, #7]	@ zero_extendqisi2
 3751 0012 03F00203 		and	r3, r3, #2
ARM GAS  C:\Users\glenn\AppData\Local\Temp\ccPIHEU1.s 			page 104


 3752 0016 002B     		cmp	r3, #0
 3753 0018 01D0     		beq	.L242
2105:.\Generated_Source\PSoC5/RTC_1.c ****         {
2106:.\Generated_Source\PSoC5/RTC_1.c ****             /* Convert DST date */
2107:.\Generated_Source\PSoC5/RTC_1.c ****             RTC_1_DSTDateConversion();
 3754              		.loc 1 2107 0
 3755 001a FFF7FEFF 		bl	RTC_1_DSTDateConversion
 3756              	.L242:
2108:.\Generated_Source\PSoC5/RTC_1.c ****         }
2109:.\Generated_Source\PSoC5/RTC_1.c ****     }
 3757              		.loc 1 2109 0
 3758 001e 0837     		adds	r7, r7, #8
 3759              		.cfi_def_cfa_offset 8
 3760 0020 BD46     		mov	sp, r7
 3761              		.cfi_def_cfa_register 13
 3762              		@ sp needed
 3763 0022 80BD     		pop	{r7, pc}
 3764              	.L245:
 3765              		.align	2
 3766              	.L244:
 3767 0024 00000000 		.word	RTC_1_dstModeType
 3768              		.cfi_endproc
 3769              	.LFE42:
 3770              		.size	RTC_1_WriteDSTMode, .-RTC_1_WriteDSTMode
 3771              		.section	.text.RTC_1_WriteDSTStartHour,"ax",%progbits
 3772              		.align	2
 3773              		.global	RTC_1_WriteDSTStartHour
 3774              		.thumb
 3775              		.thumb_func
 3776              		.type	RTC_1_WriteDSTStartHour, %function
 3777              	RTC_1_WriteDSTStartHour:
 3778              	.LFB43:
2110:.\Generated_Source\PSoC5/RTC_1.c **** 
2111:.\Generated_Source\PSoC5/RTC_1.c **** 
2112:.\Generated_Source\PSoC5/RTC_1.c ****     /*******************************************************************************
2113:.\Generated_Source\PSoC5/RTC_1.c ****     * Function Name:   RTC_1_WriteDSTStartHour
2114:.\Generated_Source\PSoC5/RTC_1.c ****     ********************************************************************************
2115:.\Generated_Source\PSoC5/RTC_1.c ****     *
2116:.\Generated_Source\PSoC5/RTC_1.c ****     * Summary:
2117:.\Generated_Source\PSoC5/RTC_1.c ****     *  Writes the DST Start Hour software register. Used for absolute date entry.
2118:.\Generated_Source\PSoC5/RTC_1.c ****     *  Only generated if DST is enabled.
2119:.\Generated_Source\PSoC5/RTC_1.c ****     *
2120:.\Generated_Source\PSoC5/RTC_1.c ****     * Parameters:
2121:.\Generated_Source\PSoC5/RTC_1.c ****     *  hour: DST Start Hour software register value.
2122:.\Generated_Source\PSoC5/RTC_1.c ****     *
2123:.\Generated_Source\PSoC5/RTC_1.c ****     * Return:
2124:.\Generated_Source\PSoC5/RTC_1.c ****     *  None.
2125:.\Generated_Source\PSoC5/RTC_1.c ****     *
2126:.\Generated_Source\PSoC5/RTC_1.c ****     * Global variables:
2127:.\Generated_Source\PSoC5/RTC_1.c ****     *  RTC_1_dstTimeDateStart.Hour: global variable is modified with
2128:.\Generated_Source\PSoC5/RTC_1.c ****     *  the new value.
2129:.\Generated_Source\PSoC5/RTC_1.c ****     *
2130:.\Generated_Source\PSoC5/RTC_1.c ****     * Reentrant:
2131:.\Generated_Source\PSoC5/RTC_1.c ****     *  No.
2132:.\Generated_Source\PSoC5/RTC_1.c ****     *
2133:.\Generated_Source\PSoC5/RTC_1.c ****     *******************************************************************************/
2134:.\Generated_Source\PSoC5/RTC_1.c ****     void RTC_1_WriteDSTStartHour(uint8 hour) 
ARM GAS  C:\Users\glenn\AppData\Local\Temp\ccPIHEU1.s 			page 105


2135:.\Generated_Source\PSoC5/RTC_1.c ****     {
 3779              		.loc 1 2135 0
 3780              		.cfi_startproc
 3781              		@ args = 0, pretend = 0, frame = 8
 3782              		@ frame_needed = 1, uses_anonymous_args = 0
 3783              		@ link register save eliminated.
 3784 0000 80B4     		push	{r7}
 3785              		.cfi_def_cfa_offset 4
 3786              		.cfi_offset 7, -4
 3787 0002 83B0     		sub	sp, sp, #12
 3788              		.cfi_def_cfa_offset 16
 3789 0004 00AF     		add	r7, sp, #0
 3790              		.cfi_def_cfa_register 7
 3791 0006 0346     		mov	r3, r0
 3792 0008 FB71     		strb	r3, [r7, #7]
2136:.\Generated_Source\PSoC5/RTC_1.c ****         /* Set DST Start Hour */
2137:.\Generated_Source\PSoC5/RTC_1.c ****         RTC_1_dstTimeDateStart.Hour = hour;
 3793              		.loc 1 2137 0
 3794 000a 044A     		ldr	r2, .L247
 3795 000c FB79     		ldrb	r3, [r7, #7]
 3796 000e 1370     		strb	r3, [r2]
2138:.\Generated_Source\PSoC5/RTC_1.c ****     }
 3797              		.loc 1 2138 0
 3798 0010 0C37     		adds	r7, r7, #12
 3799              		.cfi_def_cfa_offset 4
 3800 0012 BD46     		mov	sp, r7
 3801              		.cfi_def_cfa_register 13
 3802              		@ sp needed
 3803 0014 5DF8047B 		ldr	r7, [sp], #4
 3804              		.cfi_restore 7
 3805              		.cfi_def_cfa_offset 0
 3806 0018 7047     		bx	lr
 3807              	.L248:
 3808 001a 00BF     		.align	2
 3809              	.L247:
 3810 001c 00000000 		.word	RTC_1_dstTimeDateStart
 3811              		.cfi_endproc
 3812              	.LFE43:
 3813              		.size	RTC_1_WriteDSTStartHour, .-RTC_1_WriteDSTStartHour
 3814              		.section	.text.RTC_1_WriteDSTStartDayOfMonth,"ax",%progbits
 3815              		.align	2
 3816              		.global	RTC_1_WriteDSTStartDayOfMonth
 3817              		.thumb
 3818              		.thumb_func
 3819              		.type	RTC_1_WriteDSTStartDayOfMonth, %function
 3820              	RTC_1_WriteDSTStartDayOfMonth:
 3821              	.LFB44:
2139:.\Generated_Source\PSoC5/RTC_1.c **** 
2140:.\Generated_Source\PSoC5/RTC_1.c **** 
2141:.\Generated_Source\PSoC5/RTC_1.c ****     /*******************************************************************************
2142:.\Generated_Source\PSoC5/RTC_1.c ****     * Function Name:   RTC_1_WriteDSTStartOfMonth
2143:.\Generated_Source\PSoC5/RTC_1.c ****     ********************************************************************************
2144:.\Generated_Source\PSoC5/RTC_1.c ****     *
2145:.\Generated_Source\PSoC5/RTC_1.c ****     * Summary:
2146:.\Generated_Source\PSoC5/RTC_1.c ****     *  Writes the DST Start DayOfMonth software register. Used for absolute date
2147:.\Generated_Source\PSoC5/RTC_1.c ****     *  entry. Only generated if DST is enabled.
2148:.\Generated_Source\PSoC5/RTC_1.c ****     *
ARM GAS  C:\Users\glenn\AppData\Local\Temp\ccPIHEU1.s 			page 106


2149:.\Generated_Source\PSoC5/RTC_1.c ****     * Parameters:
2150:.\Generated_Source\PSoC5/RTC_1.c ****     *  dayOfMonth: DST Start DayOfMonth software register value.
2151:.\Generated_Source\PSoC5/RTC_1.c ****     *
2152:.\Generated_Source\PSoC5/RTC_1.c ****     * Return:
2153:.\Generated_Source\PSoC5/RTC_1.c ****     *  None.
2154:.\Generated_Source\PSoC5/RTC_1.c ****     *
2155:.\Generated_Source\PSoC5/RTC_1.c ****     * Global variables:
2156:.\Generated_Source\PSoC5/RTC_1.c ****     *  RTC_1_dstTimeDateStart.DayOfMonth: global variable is modified
2157:.\Generated_Source\PSoC5/RTC_1.c ****     *  with the new value.
2158:.\Generated_Source\PSoC5/RTC_1.c ****     *
2159:.\Generated_Source\PSoC5/RTC_1.c ****     * Reentrant:
2160:.\Generated_Source\PSoC5/RTC_1.c ****     *  No.
2161:.\Generated_Source\PSoC5/RTC_1.c ****     *
2162:.\Generated_Source\PSoC5/RTC_1.c ****     *******************************************************************************/
2163:.\Generated_Source\PSoC5/RTC_1.c ****     void RTC_1_WriteDSTStartDayOfMonth(uint8 dayOfMonth)
2164:.\Generated_Source\PSoC5/RTC_1.c ****          
2165:.\Generated_Source\PSoC5/RTC_1.c ****     {
 3822              		.loc 1 2165 0
 3823              		.cfi_startproc
 3824              		@ args = 0, pretend = 0, frame = 8
 3825              		@ frame_needed = 1, uses_anonymous_args = 0
 3826              		@ link register save eliminated.
 3827 0000 80B4     		push	{r7}
 3828              		.cfi_def_cfa_offset 4
 3829              		.cfi_offset 7, -4
 3830 0002 83B0     		sub	sp, sp, #12
 3831              		.cfi_def_cfa_offset 16
 3832 0004 00AF     		add	r7, sp, #0
 3833              		.cfi_def_cfa_register 7
 3834 0006 0346     		mov	r3, r0
 3835 0008 FB71     		strb	r3, [r7, #7]
2166:.\Generated_Source\PSoC5/RTC_1.c ****         /* Set DST Start day of month */
2167:.\Generated_Source\PSoC5/RTC_1.c ****         RTC_1_dstTimeDateStart.DayOfMonth = dayOfMonth;
 3836              		.loc 1 2167 0
 3837 000a 044A     		ldr	r2, .L250
 3838 000c FB79     		ldrb	r3, [r7, #7]
 3839 000e D370     		strb	r3, [r2, #3]
2168:.\Generated_Source\PSoC5/RTC_1.c ****     }
 3840              		.loc 1 2168 0
 3841 0010 0C37     		adds	r7, r7, #12
 3842              		.cfi_def_cfa_offset 4
 3843 0012 BD46     		mov	sp, r7
 3844              		.cfi_def_cfa_register 13
 3845              		@ sp needed
 3846 0014 5DF8047B 		ldr	r7, [sp], #4
 3847              		.cfi_restore 7
 3848              		.cfi_def_cfa_offset 0
 3849 0018 7047     		bx	lr
 3850              	.L251:
 3851 001a 00BF     		.align	2
 3852              	.L250:
 3853 001c 00000000 		.word	RTC_1_dstTimeDateStart
 3854              		.cfi_endproc
 3855              	.LFE44:
 3856              		.size	RTC_1_WriteDSTStartDayOfMonth, .-RTC_1_WriteDSTStartDayOfMonth
 3857              		.section	.text.RTC_1_WriteDSTStartMonth,"ax",%progbits
 3858              		.align	2
ARM GAS  C:\Users\glenn\AppData\Local\Temp\ccPIHEU1.s 			page 107


 3859              		.global	RTC_1_WriteDSTStartMonth
 3860              		.thumb
 3861              		.thumb_func
 3862              		.type	RTC_1_WriteDSTStartMonth, %function
 3863              	RTC_1_WriteDSTStartMonth:
 3864              	.LFB45:
2169:.\Generated_Source\PSoC5/RTC_1.c **** 
2170:.\Generated_Source\PSoC5/RTC_1.c **** 
2171:.\Generated_Source\PSoC5/RTC_1.c ****     /*******************************************************************************
2172:.\Generated_Source\PSoC5/RTC_1.c ****     * Function Name:   RTC_1_WriteDSTStartMonth
2173:.\Generated_Source\PSoC5/RTC_1.c ****     ********************************************************************************
2174:.\Generated_Source\PSoC5/RTC_1.c ****     *
2175:.\Generated_Source\PSoC5/RTC_1.c ****     * Summary:
2176:.\Generated_Source\PSoC5/RTC_1.c ****     *  Writes the DST Start Month software register. Used for absolute date entry.
2177:.\Generated_Source\PSoC5/RTC_1.c ****     *  Only generated if DST is enabled.
2178:.\Generated_Source\PSoC5/RTC_1.c ****     *
2179:.\Generated_Source\PSoC5/RTC_1.c ****     * Parameters:
2180:.\Generated_Source\PSoC5/RTC_1.c ****     *  month: DST Start month software register value.
2181:.\Generated_Source\PSoC5/RTC_1.c ****     *
2182:.\Generated_Source\PSoC5/RTC_1.c ****     * Return:
2183:.\Generated_Source\PSoC5/RTC_1.c ****     *  None.
2184:.\Generated_Source\PSoC5/RTC_1.c ****     *
2185:.\Generated_Source\PSoC5/RTC_1.c ****     * Global variables:
2186:.\Generated_Source\PSoC5/RTC_1.c ****     *  RTC_1_dstTimeDateStart.Month: global variable is modified
2187:.\Generated_Source\PSoC5/RTC_1.c ****     *  with the new value.
2188:.\Generated_Source\PSoC5/RTC_1.c ****     *
2189:.\Generated_Source\PSoC5/RTC_1.c ****     * Reentrant:
2190:.\Generated_Source\PSoC5/RTC_1.c ****     *  No.
2191:.\Generated_Source\PSoC5/RTC_1.c ****     *
2192:.\Generated_Source\PSoC5/RTC_1.c ****     *******************************************************************************/
2193:.\Generated_Source\PSoC5/RTC_1.c ****     void RTC_1_WriteDSTStartMonth(uint8 month) 
2194:.\Generated_Source\PSoC5/RTC_1.c ****     {
 3865              		.loc 1 2194 0
 3866              		.cfi_startproc
 3867              		@ args = 0, pretend = 0, frame = 8
 3868              		@ frame_needed = 1, uses_anonymous_args = 0
 3869              		@ link register save eliminated.
 3870 0000 80B4     		push	{r7}
 3871              		.cfi_def_cfa_offset 4
 3872              		.cfi_offset 7, -4
 3873 0002 83B0     		sub	sp, sp, #12
 3874              		.cfi_def_cfa_offset 16
 3875 0004 00AF     		add	r7, sp, #0
 3876              		.cfi_def_cfa_register 7
 3877 0006 0346     		mov	r3, r0
 3878 0008 FB71     		strb	r3, [r7, #7]
2195:.\Generated_Source\PSoC5/RTC_1.c ****         /* Set DST Start month */
2196:.\Generated_Source\PSoC5/RTC_1.c ****         RTC_1_dstTimeDateStart.Month = month;
 3879              		.loc 1 2196 0
 3880 000a 044A     		ldr	r2, .L253
 3881 000c FB79     		ldrb	r3, [r7, #7]
 3882 000e 1371     		strb	r3, [r2, #4]
2197:.\Generated_Source\PSoC5/RTC_1.c ****     }
 3883              		.loc 1 2197 0
 3884 0010 0C37     		adds	r7, r7, #12
 3885              		.cfi_def_cfa_offset 4
 3886 0012 BD46     		mov	sp, r7
ARM GAS  C:\Users\glenn\AppData\Local\Temp\ccPIHEU1.s 			page 108


 3887              		.cfi_def_cfa_register 13
 3888              		@ sp needed
 3889 0014 5DF8047B 		ldr	r7, [sp], #4
 3890              		.cfi_restore 7
 3891              		.cfi_def_cfa_offset 0
 3892 0018 7047     		bx	lr
 3893              	.L254:
 3894 001a 00BF     		.align	2
 3895              	.L253:
 3896 001c 00000000 		.word	RTC_1_dstTimeDateStart
 3897              		.cfi_endproc
 3898              	.LFE45:
 3899              		.size	RTC_1_WriteDSTStartMonth, .-RTC_1_WriteDSTStartMonth
 3900              		.section	.text.RTC_1_WriteDSTStartDayOfWeek,"ax",%progbits
 3901              		.align	2
 3902              		.global	RTC_1_WriteDSTStartDayOfWeek
 3903              		.thumb
 3904              		.thumb_func
 3905              		.type	RTC_1_WriteDSTStartDayOfWeek, %function
 3906              	RTC_1_WriteDSTStartDayOfWeek:
 3907              	.LFB46:
2198:.\Generated_Source\PSoC5/RTC_1.c **** 
2199:.\Generated_Source\PSoC5/RTC_1.c **** 
2200:.\Generated_Source\PSoC5/RTC_1.c ****     /*******************************************************************************
2201:.\Generated_Source\PSoC5/RTC_1.c ****     * Function Name:   RTC_1_WriteDSTStartDayOfWeek
2202:.\Generated_Source\PSoC5/RTC_1.c ****     ********************************************************************************
2203:.\Generated_Source\PSoC5/RTC_1.c ****     *
2204:.\Generated_Source\PSoC5/RTC_1.c ****     * Summary:
2205:.\Generated_Source\PSoC5/RTC_1.c ****     *  Writes the DST Start DayOfWeek software register. Used for absolute date
2206:.\Generated_Source\PSoC5/RTC_1.c ****     *  entry. Only generated if DST is enabled.
2207:.\Generated_Source\PSoC5/RTC_1.c ****     *
2208:.\Generated_Source\PSoC5/RTC_1.c ****     * Parameters:
2209:.\Generated_Source\PSoC5/RTC_1.c ****     *  dayOfWeek: DST start day of week software register value.
2210:.\Generated_Source\PSoC5/RTC_1.c ****     *
2211:.\Generated_Source\PSoC5/RTC_1.c ****     * Return:
2212:.\Generated_Source\PSoC5/RTC_1.c ****     *  None.
2213:.\Generated_Source\PSoC5/RTC_1.c ****     *
2214:.\Generated_Source\PSoC5/RTC_1.c ****     * Global variables:
2215:.\Generated_Source\PSoC5/RTC_1.c ****     *  RTC_1_dstModeType: global variable, where DST mode type:
2216:.\Generated_Source\PSoC5/RTC_1.c ****     *  relative or fixed is stored.
2217:.\Generated_Source\PSoC5/RTC_1.c ****     *
2218:.\Generated_Source\PSoC5/RTC_1.c ****     *  RTC_1_dstTimeDateStart.Month,
2219:.\Generated_Source\PSoC5/RTC_1.c ****     *  RTC_1_dstTimeDateStart.DayOfWeek,
2220:.\Generated_Source\PSoC5/RTC_1.c ****     *  RTC_1_dstTimeDateStart.Week,
2221:.\Generated_Source\PSoC5/RTC_1.c ****     *  RTC_1_dstTimeDateStop.Month,
2222:.\Generated_Source\PSoC5/RTC_1.c ****     *  RTC_1_dstTimeDateStop.DayOfWeek,
2223:.\Generated_Source\PSoC5/RTC_1.c ****     *  RTC_1_dstTimeDateStop.Week: for the day of week correction,
2224:.\Generated_Source\PSoC5/RTC_1.c ****     *   they are used by RTC_1_DSTDateConversion() function if DST
2225:.\Generated_Source\PSoC5/RTC_1.c ****     *   mode is configured to be relative.
2226:.\Generated_Source\PSoC5/RTC_1.c ****     *
2227:.\Generated_Source\PSoC5/RTC_1.c ****     *  RTC_1_currentTimeDate.Year: for the day of week calculation,
2228:.\Generated_Source\PSoC5/RTC_1.c ****     *   it is used by RTC_1_DSTDateConversion() function if DST
2229:.\Generated_Source\PSoC5/RTC_1.c ****     *   mode is configured to be relative.
2230:.\Generated_Source\PSoC5/RTC_1.c ****     *
2231:.\Generated_Source\PSoC5/RTC_1.c ****     *  RTC_1_dstTimeDateStart.DayOfWeek: global variable is modified
2232:.\Generated_Source\PSoC5/RTC_1.c ****     *  with the new day of week value.
2233:.\Generated_Source\PSoC5/RTC_1.c ****     *
ARM GAS  C:\Users\glenn\AppData\Local\Temp\ccPIHEU1.s 			page 109


2234:.\Generated_Source\PSoC5/RTC_1.c ****     *  RTC_1_dstTimeDateStart.DayOfMonth and
2235:.\Generated_Source\PSoC5/RTC_1.c ****     *  RTC_1_dstTimeDateStop.DayOfMonth are modified by
2236:.\Generated_Source\PSoC5/RTC_1.c ****     *  the RTC_1_DSTDateConversion() function if DST mode is
2237:.\Generated_Source\PSoC5/RTC_1.c ****     *  configured to be relative.
2238:.\Generated_Source\PSoC5/RTC_1.c ****     *
2239:.\Generated_Source\PSoC5/RTC_1.c ****     * Reentrant:
2240:.\Generated_Source\PSoC5/RTC_1.c ****     *  No.
2241:.\Generated_Source\PSoC5/RTC_1.c ****     *
2242:.\Generated_Source\PSoC5/RTC_1.c ****     *******************************************************************************/
2243:.\Generated_Source\PSoC5/RTC_1.c ****     void RTC_1_WriteDSTStartDayOfWeek(uint8 dayOfWeek)
2244:.\Generated_Source\PSoC5/RTC_1.c ****          
2245:.\Generated_Source\PSoC5/RTC_1.c ****     {
 3908              		.loc 1 2245 0
 3909              		.cfi_startproc
 3910              		@ args = 0, pretend = 0, frame = 8
 3911              		@ frame_needed = 1, uses_anonymous_args = 0
 3912 0000 80B5     		push	{r7, lr}
 3913              		.cfi_def_cfa_offset 8
 3914              		.cfi_offset 7, -8
 3915              		.cfi_offset 14, -4
 3916 0002 82B0     		sub	sp, sp, #8
 3917              		.cfi_def_cfa_offset 16
 3918 0004 00AF     		add	r7, sp, #0
 3919              		.cfi_def_cfa_register 7
 3920 0006 0346     		mov	r3, r0
 3921 0008 FB71     		strb	r3, [r7, #7]
2246:.\Generated_Source\PSoC5/RTC_1.c ****         /* Set DST Start day of week */
2247:.\Generated_Source\PSoC5/RTC_1.c ****         RTC_1_dstTimeDateStart.DayOfWeek = dayOfWeek;
 3922              		.loc 1 2247 0
 3923 000a 074A     		ldr	r2, .L257
 3924 000c FB79     		ldrb	r3, [r7, #7]
 3925 000e 5370     		strb	r3, [r2, #1]
2248:.\Generated_Source\PSoC5/RTC_1.c **** 
2249:.\Generated_Source\PSoC5/RTC_1.c ****         if(0u != RTC_1_IS_BIT_SET(RTC_1_dstModeType, RTC_1_DST_RELDATE))
 3926              		.loc 1 2249 0
 3927 0010 064B     		ldr	r3, .L257+4
 3928 0012 1B78     		ldrb	r3, [r3]
 3929 0014 DBB2     		uxtb	r3, r3
 3930 0016 03F00203 		and	r3, r3, #2
 3931 001a 002B     		cmp	r3, #0
 3932 001c 01D0     		beq	.L255
2250:.\Generated_Source\PSoC5/RTC_1.c ****         {
2251:.\Generated_Source\PSoC5/RTC_1.c ****             /* Convert DST date */
2252:.\Generated_Source\PSoC5/RTC_1.c ****             RTC_1_DSTDateConversion();
 3933              		.loc 1 2252 0
 3934 001e FFF7FEFF 		bl	RTC_1_DSTDateConversion
 3935              	.L255:
2253:.\Generated_Source\PSoC5/RTC_1.c ****         }
2254:.\Generated_Source\PSoC5/RTC_1.c ****     }
 3936              		.loc 1 2254 0
 3937 0022 0837     		adds	r7, r7, #8
 3938              		.cfi_def_cfa_offset 8
 3939 0024 BD46     		mov	sp, r7
 3940              		.cfi_def_cfa_register 13
 3941              		@ sp needed
 3942 0026 80BD     		pop	{r7, pc}
 3943              	.L258:
ARM GAS  C:\Users\glenn\AppData\Local\Temp\ccPIHEU1.s 			page 110


 3944              		.align	2
 3945              	.L257:
 3946 0028 00000000 		.word	RTC_1_dstTimeDateStart
 3947 002c 00000000 		.word	RTC_1_dstModeType
 3948              		.cfi_endproc
 3949              	.LFE46:
 3950              		.size	RTC_1_WriteDSTStartDayOfWeek, .-RTC_1_WriteDSTStartDayOfWeek
 3951              		.section	.text.RTC_1_WriteDSTStartWeek,"ax",%progbits
 3952              		.align	2
 3953              		.global	RTC_1_WriteDSTStartWeek
 3954              		.thumb
 3955              		.thumb_func
 3956              		.type	RTC_1_WriteDSTStartWeek, %function
 3957              	RTC_1_WriteDSTStartWeek:
 3958              	.LFB47:
2255:.\Generated_Source\PSoC5/RTC_1.c **** 
2256:.\Generated_Source\PSoC5/RTC_1.c **** 
2257:.\Generated_Source\PSoC5/RTC_1.c ****     /*******************************************************************************
2258:.\Generated_Source\PSoC5/RTC_1.c ****     * Function Name:   RTC_1_WriteDSTStartWeek
2259:.\Generated_Source\PSoC5/RTC_1.c ****     ********************************************************************************
2260:.\Generated_Source\PSoC5/RTC_1.c ****     *
2261:.\Generated_Source\PSoC5/RTC_1.c ****     * Summary:
2262:.\Generated_Source\PSoC5/RTC_1.c ****     *  Writes the DST Start Week software register. Used for absolute date entry.
2263:.\Generated_Source\PSoC5/RTC_1.c ****     *  Only generated if DST is enabled.
2264:.\Generated_Source\PSoC5/RTC_1.c ****     *
2265:.\Generated_Source\PSoC5/RTC_1.c ****     * Parameters:
2266:.\Generated_Source\PSoC5/RTC_1.c ****     *  week: DST start week software register value.
2267:.\Generated_Source\PSoC5/RTC_1.c ****     *
2268:.\Generated_Source\PSoC5/RTC_1.c ****     * Return:
2269:.\Generated_Source\PSoC5/RTC_1.c ****     *  None.
2270:.\Generated_Source\PSoC5/RTC_1.c ****     *
2271:.\Generated_Source\PSoC5/RTC_1.c ****     * Global variables:
2272:.\Generated_Source\PSoC5/RTC_1.c ****     *  RTC_1_dstTimeDateStart.Week: global variable is modified with
2273:.\Generated_Source\PSoC5/RTC_1.c ****     *   the new week's value of the DST start time/date.
2274:.\Generated_Source\PSoC5/RTC_1.c ****     *
2275:.\Generated_Source\PSoC5/RTC_1.c ****     *  RTC_1_dstTimeDateStart.DayOfMonth,
2276:.\Generated_Source\PSoC5/RTC_1.c ****     *  RTC_1_dstTimeDateStop.DayOfMonth: is modified after convertion
2277:.\Generated_Source\PSoC5/RTC_1.c ****     *  by the RTC_1_DSTDateConversion() function if DST mode is
2278:.\Generated_Source\PSoC5/RTC_1.c ****     *  configured to be relative.
2279:.\Generated_Source\PSoC5/RTC_1.c ****     *
2280:.\Generated_Source\PSoC5/RTC_1.c ****     *  RTC_1_dstModeType: global variable is used for theDST mode
2281:.\Generated_Source\PSoC5/RTC_1.c ****     *   type: relative or fixed store.
2282:.\Generated_Source\PSoC5/RTC_1.c ****     *
2283:.\Generated_Source\PSoC5/RTC_1.c ****     *  RTC_1_dstTimeDateStart.Month,
2284:.\Generated_Source\PSoC5/RTC_1.c ****     *  RTC_1_dstTimeDateStart.DayOfWeek,
2285:.\Generated_Source\PSoC5/RTC_1.c ****     *  RTC_1_dstTimeDateStart.Week: for the day of week correction,
2286:.\Generated_Source\PSoC5/RTC_1.c ****     *   they are used by RTC_1_DSTDateConversion() function if DST
2287:.\Generated_Source\PSoC5/RTC_1.c ****     *   mode is configured to be relative.
2288:.\Generated_Source\PSoC5/RTC_1.c ****     *
2289:.\Generated_Source\PSoC5/RTC_1.c ****     *  RTC_1_dstTimeDateStop.Month,
2290:.\Generated_Source\PSoC5/RTC_1.c ****     *  RTC_1_dstTimeDateStop.DayOfWeek,
2291:.\Generated_Source\PSoC5/RTC_1.c ****     *  RTC_1_dstTimeDateStop.Week: for the day of week correction,
2292:.\Generated_Source\PSoC5/RTC_1.c ****     *   they are used by RTC_1_DSTDateConversion() function if DST
2293:.\Generated_Source\PSoC5/RTC_1.c ****     *   mode is configured to be relative.
2294:.\Generated_Source\PSoC5/RTC_1.c ****     *
2295:.\Generated_Source\PSoC5/RTC_1.c ****     *  RTC_1_currentTimeDate.Year: for the day of week calculation,
2296:.\Generated_Source\PSoC5/RTC_1.c ****     *   it is used by RTC_1_DSTDateConversion() function if DST
ARM GAS  C:\Users\glenn\AppData\Local\Temp\ccPIHEU1.s 			page 111


2297:.\Generated_Source\PSoC5/RTC_1.c ****     *   mode is configured to be relative.
2298:.\Generated_Source\PSoC5/RTC_1.c ****     *
2299:.\Generated_Source\PSoC5/RTC_1.c ****     * Reentrant:
2300:.\Generated_Source\PSoC5/RTC_1.c ****     *  No.
2301:.\Generated_Source\PSoC5/RTC_1.c ****     *
2302:.\Generated_Source\PSoC5/RTC_1.c ****     *******************************************************************************/
2303:.\Generated_Source\PSoC5/RTC_1.c ****     void RTC_1_WriteDSTStartWeek(uint8 week) 
2304:.\Generated_Source\PSoC5/RTC_1.c ****     {
 3959              		.loc 1 2304 0
 3960              		.cfi_startproc
 3961              		@ args = 0, pretend = 0, frame = 8
 3962              		@ frame_needed = 1, uses_anonymous_args = 0
 3963 0000 80B5     		push	{r7, lr}
 3964              		.cfi_def_cfa_offset 8
 3965              		.cfi_offset 7, -8
 3966              		.cfi_offset 14, -4
 3967 0002 82B0     		sub	sp, sp, #8
 3968              		.cfi_def_cfa_offset 16
 3969 0004 00AF     		add	r7, sp, #0
 3970              		.cfi_def_cfa_register 7
 3971 0006 0346     		mov	r3, r0
 3972 0008 FB71     		strb	r3, [r7, #7]
2305:.\Generated_Source\PSoC5/RTC_1.c ****         /* Set DST Start week */
2306:.\Generated_Source\PSoC5/RTC_1.c ****         RTC_1_dstTimeDateStart.Week = week;
 3973              		.loc 1 2306 0
 3974 000a 074A     		ldr	r2, .L261
 3975 000c FB79     		ldrb	r3, [r7, #7]
 3976 000e 9370     		strb	r3, [r2, #2]
2307:.\Generated_Source\PSoC5/RTC_1.c **** 
2308:.\Generated_Source\PSoC5/RTC_1.c ****         if(0u != RTC_1_IS_BIT_SET(RTC_1_dstModeType, RTC_1_DST_RELDATE))
 3977              		.loc 1 2308 0
 3978 0010 064B     		ldr	r3, .L261+4
 3979 0012 1B78     		ldrb	r3, [r3]
 3980 0014 DBB2     		uxtb	r3, r3
 3981 0016 03F00203 		and	r3, r3, #2
 3982 001a 002B     		cmp	r3, #0
 3983 001c 01D0     		beq	.L259
2309:.\Generated_Source\PSoC5/RTC_1.c ****         {
2310:.\Generated_Source\PSoC5/RTC_1.c ****             /* Convert DST date */
2311:.\Generated_Source\PSoC5/RTC_1.c ****             RTC_1_DSTDateConversion();
 3984              		.loc 1 2311 0
 3985 001e FFF7FEFF 		bl	RTC_1_DSTDateConversion
 3986              	.L259:
2312:.\Generated_Source\PSoC5/RTC_1.c ****         }
2313:.\Generated_Source\PSoC5/RTC_1.c ****     }
 3987              		.loc 1 2313 0
 3988 0022 0837     		adds	r7, r7, #8
 3989              		.cfi_def_cfa_offset 8
 3990 0024 BD46     		mov	sp, r7
 3991              		.cfi_def_cfa_register 13
 3992              		@ sp needed
 3993 0026 80BD     		pop	{r7, pc}
 3994              	.L262:
 3995              		.align	2
 3996              	.L261:
 3997 0028 00000000 		.word	RTC_1_dstTimeDateStart
 3998 002c 00000000 		.word	RTC_1_dstModeType
ARM GAS  C:\Users\glenn\AppData\Local\Temp\ccPIHEU1.s 			page 112


 3999              		.cfi_endproc
 4000              	.LFE47:
 4001              		.size	RTC_1_WriteDSTStartWeek, .-RTC_1_WriteDSTStartWeek
 4002              		.section	.text.RTC_1_WriteDSTStopHour,"ax",%progbits
 4003              		.align	2
 4004              		.global	RTC_1_WriteDSTStopHour
 4005              		.thumb
 4006              		.thumb_func
 4007              		.type	RTC_1_WriteDSTStopHour, %function
 4008              	RTC_1_WriteDSTStopHour:
 4009              	.LFB48:
2314:.\Generated_Source\PSoC5/RTC_1.c **** 
2315:.\Generated_Source\PSoC5/RTC_1.c **** 
2316:.\Generated_Source\PSoC5/RTC_1.c ****     /*******************************************************************************
2317:.\Generated_Source\PSoC5/RTC_1.c ****     * Function Name:   RTC_1_WriteDSTStopHour
2318:.\Generated_Source\PSoC5/RTC_1.c ****     ********************************************************************************
2319:.\Generated_Source\PSoC5/RTC_1.c ****     *
2320:.\Generated_Source\PSoC5/RTC_1.c ****     * Summary:
2321:.\Generated_Source\PSoC5/RTC_1.c ****     *  Writes the DST Stop Hour software register. Used for absolute date entry.
2322:.\Generated_Source\PSoC5/RTC_1.c ****     *  Only generated if DST is enabled.
2323:.\Generated_Source\PSoC5/RTC_1.c ****     *
2324:.\Generated_Source\PSoC5/RTC_1.c ****     * Parameters:
2325:.\Generated_Source\PSoC5/RTC_1.c ****     *  hour: DST stop hour software register value.
2326:.\Generated_Source\PSoC5/RTC_1.c ****     *
2327:.\Generated_Source\PSoC5/RTC_1.c ****     * Return:
2328:.\Generated_Source\PSoC5/RTC_1.c ****     *  None.
2329:.\Generated_Source\PSoC5/RTC_1.c ****     *
2330:.\Generated_Source\PSoC5/RTC_1.c ****     * Global variables:
2331:.\Generated_Source\PSoC5/RTC_1.c ****     *  RTC_dstTimeDateStart.Hour: global variable is modified with the new hour
2332:.\Generated_Source\PSoC5/RTC_1.c ****     *   of the DST start time/date.
2333:.\Generated_Source\PSoC5/RTC_1.c ****     *
2334:.\Generated_Source\PSoC5/RTC_1.c ****     * Reentrant:
2335:.\Generated_Source\PSoC5/RTC_1.c ****     *  No.
2336:.\Generated_Source\PSoC5/RTC_1.c ****     *
2337:.\Generated_Source\PSoC5/RTC_1.c ****     *******************************************************************************/
2338:.\Generated_Source\PSoC5/RTC_1.c ****     void RTC_1_WriteDSTStopHour(uint8 hour) 
2339:.\Generated_Source\PSoC5/RTC_1.c ****     {
 4010              		.loc 1 2339 0
 4011              		.cfi_startproc
 4012              		@ args = 0, pretend = 0, frame = 8
 4013              		@ frame_needed = 1, uses_anonymous_args = 0
 4014              		@ link register save eliminated.
 4015 0000 80B4     		push	{r7}
 4016              		.cfi_def_cfa_offset 4
 4017              		.cfi_offset 7, -4
 4018 0002 83B0     		sub	sp, sp, #12
 4019              		.cfi_def_cfa_offset 16
 4020 0004 00AF     		add	r7, sp, #0
 4021              		.cfi_def_cfa_register 7
 4022 0006 0346     		mov	r3, r0
 4023 0008 FB71     		strb	r3, [r7, #7]
2340:.\Generated_Source\PSoC5/RTC_1.c ****         /* Set DST Stop hour */
2341:.\Generated_Source\PSoC5/RTC_1.c ****         RTC_1_dstTimeDateStop.Hour = hour;
 4024              		.loc 1 2341 0
 4025 000a 044A     		ldr	r2, .L264
 4026 000c FB79     		ldrb	r3, [r7, #7]
 4027 000e 1370     		strb	r3, [r2]
ARM GAS  C:\Users\glenn\AppData\Local\Temp\ccPIHEU1.s 			page 113


2342:.\Generated_Source\PSoC5/RTC_1.c ****     }
 4028              		.loc 1 2342 0
 4029 0010 0C37     		adds	r7, r7, #12
 4030              		.cfi_def_cfa_offset 4
 4031 0012 BD46     		mov	sp, r7
 4032              		.cfi_def_cfa_register 13
 4033              		@ sp needed
 4034 0014 5DF8047B 		ldr	r7, [sp], #4
 4035              		.cfi_restore 7
 4036              		.cfi_def_cfa_offset 0
 4037 0018 7047     		bx	lr
 4038              	.L265:
 4039 001a 00BF     		.align	2
 4040              	.L264:
 4041 001c 00000000 		.word	RTC_1_dstTimeDateStop
 4042              		.cfi_endproc
 4043              	.LFE48:
 4044              		.size	RTC_1_WriteDSTStopHour, .-RTC_1_WriteDSTStopHour
 4045              		.section	.text.RTC_1_WriteDSTStopDayOfMonth,"ax",%progbits
 4046              		.align	2
 4047              		.global	RTC_1_WriteDSTStopDayOfMonth
 4048              		.thumb
 4049              		.thumb_func
 4050              		.type	RTC_1_WriteDSTStopDayOfMonth, %function
 4051              	RTC_1_WriteDSTStopDayOfMonth:
 4052              	.LFB49:
2343:.\Generated_Source\PSoC5/RTC_1.c **** 
2344:.\Generated_Source\PSoC5/RTC_1.c **** 
2345:.\Generated_Source\PSoC5/RTC_1.c ****     /*******************************************************************************
2346:.\Generated_Source\PSoC5/RTC_1.c ****     * Function Name:   RTC_1_WriteDSTStopDayOfMonth
2347:.\Generated_Source\PSoC5/RTC_1.c ****     ********************************************************************************
2348:.\Generated_Source\PSoC5/RTC_1.c ****     *
2349:.\Generated_Source\PSoC5/RTC_1.c ****     * Summary:
2350:.\Generated_Source\PSoC5/RTC_1.c ****     *  Writes the DST Stop DayOfMonth software register. Used for absolute date
2351:.\Generated_Source\PSoC5/RTC_1.c ****     *  entry. Only generated if DST is enabled.
2352:.\Generated_Source\PSoC5/RTC_1.c ****     *
2353:.\Generated_Source\PSoC5/RTC_1.c ****     * Parameters:
2354:.\Generated_Source\PSoC5/RTC_1.c ****     *  dayOfMonth: DST stop day of month software register value.
2355:.\Generated_Source\PSoC5/RTC_1.c ****     *
2356:.\Generated_Source\PSoC5/RTC_1.c ****     * Return:
2357:.\Generated_Source\PSoC5/RTC_1.c ****     *  None.
2358:.\Generated_Source\PSoC5/RTC_1.c ****     *
2359:.\Generated_Source\PSoC5/RTC_1.c ****     * Global variables:
2360:.\Generated_Source\PSoC5/RTC_1.c ****     *  RTC_1_dstTimeDateStop.DayOfMonth: global variable is modified
2361:.\Generated_Source\PSoC5/RTC_1.c ****     *  where new day of month's value of the DST stop time/date.
2362:.\Generated_Source\PSoC5/RTC_1.c ****     *
2363:.\Generated_Source\PSoC5/RTC_1.c ****     * Reentrant:
2364:.\Generated_Source\PSoC5/RTC_1.c ****     *  No.
2365:.\Generated_Source\PSoC5/RTC_1.c ****     *
2366:.\Generated_Source\PSoC5/RTC_1.c ****     *******************************************************************************/
2367:.\Generated_Source\PSoC5/RTC_1.c ****     void RTC_1_WriteDSTStopDayOfMonth(uint8 dayOfMonth)
2368:.\Generated_Source\PSoC5/RTC_1.c ****          
2369:.\Generated_Source\PSoC5/RTC_1.c ****     {
 4053              		.loc 1 2369 0
 4054              		.cfi_startproc
 4055              		@ args = 0, pretend = 0, frame = 8
 4056              		@ frame_needed = 1, uses_anonymous_args = 0
ARM GAS  C:\Users\glenn\AppData\Local\Temp\ccPIHEU1.s 			page 114


 4057              		@ link register save eliminated.
 4058 0000 80B4     		push	{r7}
 4059              		.cfi_def_cfa_offset 4
 4060              		.cfi_offset 7, -4
 4061 0002 83B0     		sub	sp, sp, #12
 4062              		.cfi_def_cfa_offset 16
 4063 0004 00AF     		add	r7, sp, #0
 4064              		.cfi_def_cfa_register 7
 4065 0006 0346     		mov	r3, r0
 4066 0008 FB71     		strb	r3, [r7, #7]
2370:.\Generated_Source\PSoC5/RTC_1.c ****         /* Set DST Start day of month */
2371:.\Generated_Source\PSoC5/RTC_1.c ****         RTC_1_dstTimeDateStop.DayOfMonth = dayOfMonth;
 4067              		.loc 1 2371 0
 4068 000a 044A     		ldr	r2, .L267
 4069 000c FB79     		ldrb	r3, [r7, #7]
 4070 000e D370     		strb	r3, [r2, #3]
2372:.\Generated_Source\PSoC5/RTC_1.c ****     }
 4071              		.loc 1 2372 0
 4072 0010 0C37     		adds	r7, r7, #12
 4073              		.cfi_def_cfa_offset 4
 4074 0012 BD46     		mov	sp, r7
 4075              		.cfi_def_cfa_register 13
 4076              		@ sp needed
 4077 0014 5DF8047B 		ldr	r7, [sp], #4
 4078              		.cfi_restore 7
 4079              		.cfi_def_cfa_offset 0
 4080 0018 7047     		bx	lr
 4081              	.L268:
 4082 001a 00BF     		.align	2
 4083              	.L267:
 4084 001c 00000000 		.word	RTC_1_dstTimeDateStop
 4085              		.cfi_endproc
 4086              	.LFE49:
 4087              		.size	RTC_1_WriteDSTStopDayOfMonth, .-RTC_1_WriteDSTStopDayOfMonth
 4088              		.section	.text.RTC_1_WriteDSTStopMonth,"ax",%progbits
 4089              		.align	2
 4090              		.global	RTC_1_WriteDSTStopMonth
 4091              		.thumb
 4092              		.thumb_func
 4093              		.type	RTC_1_WriteDSTStopMonth, %function
 4094              	RTC_1_WriteDSTStopMonth:
 4095              	.LFB50:
2373:.\Generated_Source\PSoC5/RTC_1.c **** 
2374:.\Generated_Source\PSoC5/RTC_1.c **** 
2375:.\Generated_Source\PSoC5/RTC_1.c ****     /*******************************************************************************
2376:.\Generated_Source\PSoC5/RTC_1.c ****     * Function Name:   RTC_1_WriteDSTStopMonth
2377:.\Generated_Source\PSoC5/RTC_1.c ****     ********************************************************************************
2378:.\Generated_Source\PSoC5/RTC_1.c ****     *
2379:.\Generated_Source\PSoC5/RTC_1.c ****     * Summary:
2380:.\Generated_Source\PSoC5/RTC_1.c ****     *  Writes the DST Stop Month software  register. Used for absolute date entry.
2381:.\Generated_Source\PSoC5/RTC_1.c ****     *  Only generated if DST is enabled.
2382:.\Generated_Source\PSoC5/RTC_1.c ****     *
2383:.\Generated_Source\PSoC5/RTC_1.c ****     * Parameters:
2384:.\Generated_Source\PSoC5/RTC_1.c ****     *  month: DST Stop Month software register value.
2385:.\Generated_Source\PSoC5/RTC_1.c ****     *
2386:.\Generated_Source\PSoC5/RTC_1.c ****     * Return:
2387:.\Generated_Source\PSoC5/RTC_1.c ****     *  None.
ARM GAS  C:\Users\glenn\AppData\Local\Temp\ccPIHEU1.s 			page 115


2388:.\Generated_Source\PSoC5/RTC_1.c ****     *
2389:.\Generated_Source\PSoC5/RTC_1.c ****     * Global variables:
2390:.\Generated_Source\PSoC5/RTC_1.c ****     *  RTC_1_dstTimeDateStop.Month: global variable is modified with
2391:.\Generated_Source\PSoC5/RTC_1.c ****     *   the new month of the DST stop time/date.
2392:.\Generated_Source\PSoC5/RTC_1.c ****     *
2393:.\Generated_Source\PSoC5/RTC_1.c ****     * Reentrant:
2394:.\Generated_Source\PSoC5/RTC_1.c ****     *  No.
2395:.\Generated_Source\PSoC5/RTC_1.c ****     *
2396:.\Generated_Source\PSoC5/RTC_1.c ****     *******************************************************************************/
2397:.\Generated_Source\PSoC5/RTC_1.c ****     void RTC_1_WriteDSTStopMonth(uint8 month) 
2398:.\Generated_Source\PSoC5/RTC_1.c ****     {
 4096              		.loc 1 2398 0
 4097              		.cfi_startproc
 4098              		@ args = 0, pretend = 0, frame = 8
 4099              		@ frame_needed = 1, uses_anonymous_args = 0
 4100              		@ link register save eliminated.
 4101 0000 80B4     		push	{r7}
 4102              		.cfi_def_cfa_offset 4
 4103              		.cfi_offset 7, -4
 4104 0002 83B0     		sub	sp, sp, #12
 4105              		.cfi_def_cfa_offset 16
 4106 0004 00AF     		add	r7, sp, #0
 4107              		.cfi_def_cfa_register 7
 4108 0006 0346     		mov	r3, r0
 4109 0008 FB71     		strb	r3, [r7, #7]
2399:.\Generated_Source\PSoC5/RTC_1.c ****         /* Set DST Stop month */
2400:.\Generated_Source\PSoC5/RTC_1.c ****         RTC_1_dstTimeDateStop.Month = month;
 4110              		.loc 1 2400 0
 4111 000a 044A     		ldr	r2, .L270
 4112 000c FB79     		ldrb	r3, [r7, #7]
 4113 000e 1371     		strb	r3, [r2, #4]
2401:.\Generated_Source\PSoC5/RTC_1.c ****     }
 4114              		.loc 1 2401 0
 4115 0010 0C37     		adds	r7, r7, #12
 4116              		.cfi_def_cfa_offset 4
 4117 0012 BD46     		mov	sp, r7
 4118              		.cfi_def_cfa_register 13
 4119              		@ sp needed
 4120 0014 5DF8047B 		ldr	r7, [sp], #4
 4121              		.cfi_restore 7
 4122              		.cfi_def_cfa_offset 0
 4123 0018 7047     		bx	lr
 4124              	.L271:
 4125 001a 00BF     		.align	2
 4126              	.L270:
 4127 001c 00000000 		.word	RTC_1_dstTimeDateStop
 4128              		.cfi_endproc
 4129              	.LFE50:
 4130              		.size	RTC_1_WriteDSTStopMonth, .-RTC_1_WriteDSTStopMonth
 4131              		.section	.text.RTC_1_WriteDSTStopDayOfWeek,"ax",%progbits
 4132              		.align	2
 4133              		.global	RTC_1_WriteDSTStopDayOfWeek
 4134              		.thumb
 4135              		.thumb_func
 4136              		.type	RTC_1_WriteDSTStopDayOfWeek, %function
 4137              	RTC_1_WriteDSTStopDayOfWeek:
 4138              	.LFB51:
ARM GAS  C:\Users\glenn\AppData\Local\Temp\ccPIHEU1.s 			page 116


2402:.\Generated_Source\PSoC5/RTC_1.c **** 
2403:.\Generated_Source\PSoC5/RTC_1.c **** 
2404:.\Generated_Source\PSoC5/RTC_1.c ****     /*******************************************************************************
2405:.\Generated_Source\PSoC5/RTC_1.c ****     * Function Name:   RTC_1_WriteDSTStopDayOfWeek
2406:.\Generated_Source\PSoC5/RTC_1.c ****     ********************************************************************************
2407:.\Generated_Source\PSoC5/RTC_1.c ****     *
2408:.\Generated_Source\PSoC5/RTC_1.c ****     * Summary:
2409:.\Generated_Source\PSoC5/RTC_1.c ****     *  Writes the DST Stop DayOfWeek software register. Used for relative date
2410:.\Generated_Source\PSoC5/RTC_1.c ****     *  entry. Only generated if DST is enabled.
2411:.\Generated_Source\PSoC5/RTC_1.c ****     *
2412:.\Generated_Source\PSoC5/RTC_1.c ****     * Parameters:
2413:.\Generated_Source\PSoC5/RTC_1.c ****     *  dayOfWeek: DST stop day of week software register value.
2414:.\Generated_Source\PSoC5/RTC_1.c ****     *
2415:.\Generated_Source\PSoC5/RTC_1.c ****     * Return:
2416:.\Generated_Source\PSoC5/RTC_1.c ****     *  None.
2417:.\Generated_Source\PSoC5/RTC_1.c ****     *
2418:.\Generated_Source\PSoC5/RTC_1.c ****     * Global variables:
2419:.\Generated_Source\PSoC5/RTC_1.c ****     *  RTC_1_dstTimeDateStop.DayOfWeek: global variable is modified
2420:.\Generated_Source\PSoC5/RTC_1.c ****     *   with the day of week of the DST stop time/date.
2421:.\Generated_Source\PSoC5/RTC_1.c ****     *
2422:.\Generated_Source\PSoC5/RTC_1.c ****     *  RTC_1_dstModeType: global variable is used to store DST mode
2423:.\Generated_Source\PSoC5/RTC_1.c ****     *   type: relative or fixed.
2424:.\Generated_Source\PSoC5/RTC_1.c ****     *
2425:.\Generated_Source\PSoC5/RTC_1.c ****     *  RTC_1_dstTimeDateStart.Month,
2426:.\Generated_Source\PSoC5/RTC_1.c ****     *  RTC_1_dstTimeDateStart.DayOfWeek,
2427:.\Generated_Source\PSoC5/RTC_1.c ****     *  RTC_1_dstTimeDateStart.Week,
2428:.\Generated_Source\PSoC5/RTC_1.c ****     *  RTC_1_dstTimeDateStop.Month,
2429:.\Generated_Source\PSoC5/RTC_1.c ****     *  RTC_1_dstTimeDateStop.DayOfWeek,
2430:.\Generated_Source\PSoC5/RTC_1.c ****     *  RTC_1_dstTimeDateStop.Weekfor the day of week correction,
2431:.\Generated_Source\PSoC5/RTC_1.c ****     *   they are used by RTC_1_DSTDateConversion() function if DST
2432:.\Generated_Source\PSoC5/RTC_1.c ****     *   mode is configured to be relative.
2433:.\Generated_Source\PSoC5/RTC_1.c ****     *
2434:.\Generated_Source\PSoC5/RTC_1.c ****     *  RTC_1_currentTimeDate.Year: for the day of week calculation,
2435:.\Generated_Source\PSoC5/RTC_1.c ****     *   it is used by RTC_1_DSTDateConversion() function if DST
2436:.\Generated_Source\PSoC5/RTC_1.c ****     *   mode is configured to be relative.
2437:.\Generated_Source\PSoC5/RTC_1.c ****     *
2438:.\Generated_Source\PSoC5/RTC_1.c ****     *  RTC_1_dstTimeDateStop.DayOfWeek: global variable is modified
2439:.\Generated_Source\PSoC5/RTC_1.c ****     *  with the new day of week's value.
2440:.\Generated_Source\PSoC5/RTC_1.c ****     *
2441:.\Generated_Source\PSoC5/RTC_1.c ****     *  RTC_1_dstTimeDateStart.DayOfMonth and
2442:.\Generated_Source\PSoC5/RTC_1.c ****     *  RTC_1_dstTimeDateStop.DayOfMonth are modified by
2443:.\Generated_Source\PSoC5/RTC_1.c ****     *  the RTC_1_DSTDateConversion() function if DST mode is
2444:.\Generated_Source\PSoC5/RTC_1.c ****     *  configured to be relative.
2445:.\Generated_Source\PSoC5/RTC_1.c ****     *
2446:.\Generated_Source\PSoC5/RTC_1.c ****     * Reentrant:
2447:.\Generated_Source\PSoC5/RTC_1.c ****     *  No.
2448:.\Generated_Source\PSoC5/RTC_1.c ****     *
2449:.\Generated_Source\PSoC5/RTC_1.c ****     *******************************************************************************/
2450:.\Generated_Source\PSoC5/RTC_1.c ****     void RTC_1_WriteDSTStopDayOfWeek(uint8 dayOfWeek)
2451:.\Generated_Source\PSoC5/RTC_1.c ****          
2452:.\Generated_Source\PSoC5/RTC_1.c ****     {
 4139              		.loc 1 2452 0
 4140              		.cfi_startproc
 4141              		@ args = 0, pretend = 0, frame = 8
 4142              		@ frame_needed = 1, uses_anonymous_args = 0
 4143 0000 80B5     		push	{r7, lr}
 4144              		.cfi_def_cfa_offset 8
ARM GAS  C:\Users\glenn\AppData\Local\Temp\ccPIHEU1.s 			page 117


 4145              		.cfi_offset 7, -8
 4146              		.cfi_offset 14, -4
 4147 0002 82B0     		sub	sp, sp, #8
 4148              		.cfi_def_cfa_offset 16
 4149 0004 00AF     		add	r7, sp, #0
 4150              		.cfi_def_cfa_register 7
 4151 0006 0346     		mov	r3, r0
 4152 0008 FB71     		strb	r3, [r7, #7]
2453:.\Generated_Source\PSoC5/RTC_1.c ****         /* Set DST Stop day of week */
2454:.\Generated_Source\PSoC5/RTC_1.c ****         RTC_1_dstTimeDateStop.DayOfWeek = dayOfWeek;
 4153              		.loc 1 2454 0
 4154 000a 074A     		ldr	r2, .L274
 4155 000c FB79     		ldrb	r3, [r7, #7]
 4156 000e 5370     		strb	r3, [r2, #1]
2455:.\Generated_Source\PSoC5/RTC_1.c **** 
2456:.\Generated_Source\PSoC5/RTC_1.c ****         if(0u != RTC_1_IS_BIT_SET(RTC_1_dstModeType, RTC_1_DST_RELDATE))
 4157              		.loc 1 2456 0
 4158 0010 064B     		ldr	r3, .L274+4
 4159 0012 1B78     		ldrb	r3, [r3]
 4160 0014 DBB2     		uxtb	r3, r3
 4161 0016 03F00203 		and	r3, r3, #2
 4162 001a 002B     		cmp	r3, #0
 4163 001c 01D0     		beq	.L272
2457:.\Generated_Source\PSoC5/RTC_1.c ****         {
2458:.\Generated_Source\PSoC5/RTC_1.c ****             /* Convert DST date */
2459:.\Generated_Source\PSoC5/RTC_1.c ****             RTC_1_DSTDateConversion();
 4164              		.loc 1 2459 0
 4165 001e FFF7FEFF 		bl	RTC_1_DSTDateConversion
 4166              	.L272:
2460:.\Generated_Source\PSoC5/RTC_1.c ****         }
2461:.\Generated_Source\PSoC5/RTC_1.c ****     }
 4167              		.loc 1 2461 0
 4168 0022 0837     		adds	r7, r7, #8
 4169              		.cfi_def_cfa_offset 8
 4170 0024 BD46     		mov	sp, r7
 4171              		.cfi_def_cfa_register 13
 4172              		@ sp needed
 4173 0026 80BD     		pop	{r7, pc}
 4174              	.L275:
 4175              		.align	2
 4176              	.L274:
 4177 0028 00000000 		.word	RTC_1_dstTimeDateStop
 4178 002c 00000000 		.word	RTC_1_dstModeType
 4179              		.cfi_endproc
 4180              	.LFE51:
 4181              		.size	RTC_1_WriteDSTStopDayOfWeek, .-RTC_1_WriteDSTStopDayOfWeek
 4182              		.section	.text.RTC_1_WriteDSTStopWeek,"ax",%progbits
 4183              		.align	2
 4184              		.global	RTC_1_WriteDSTStopWeek
 4185              		.thumb
 4186              		.thumb_func
 4187              		.type	RTC_1_WriteDSTStopWeek, %function
 4188              	RTC_1_WriteDSTStopWeek:
 4189              	.LFB52:
2462:.\Generated_Source\PSoC5/RTC_1.c **** 
2463:.\Generated_Source\PSoC5/RTC_1.c **** 
2464:.\Generated_Source\PSoC5/RTC_1.c ****     /*******************************************************************************
ARM GAS  C:\Users\glenn\AppData\Local\Temp\ccPIHEU1.s 			page 118


2465:.\Generated_Source\PSoC5/RTC_1.c ****     * Function Name:   RTC_1_WriteDSTStopWeek
2466:.\Generated_Source\PSoC5/RTC_1.c ****     ********************************************************************************
2467:.\Generated_Source\PSoC5/RTC_1.c ****     *
2468:.\Generated_Source\PSoC5/RTC_1.c ****     * Summary:
2469:.\Generated_Source\PSoC5/RTC_1.c ****     *  Writes the DST Stop Week software register. Used for relative date entry.
2470:.\Generated_Source\PSoC5/RTC_1.c ****     *  Only generated if DST is enabled.
2471:.\Generated_Source\PSoC5/RTC_1.c ****     *
2472:.\Generated_Source\PSoC5/RTC_1.c ****     * Parameters:
2473:.\Generated_Source\PSoC5/RTC_1.c ****     *  week: DST stop week software register value.
2474:.\Generated_Source\PSoC5/RTC_1.c ****     *
2475:.\Generated_Source\PSoC5/RTC_1.c ****     * Return:
2476:.\Generated_Source\PSoC5/RTC_1.c ****     *  None.
2477:.\Generated_Source\PSoC5/RTC_1.c ****     *
2478:.\Generated_Source\PSoC5/RTC_1.c ****     * Global variables:
2479:.\Generated_Source\PSoC5/RTC_1.c ****     *  RTC_1_dstTimeDateStop.Week: global variable used to store the
2480:.\Generated_Source\PSoC5/RTC_1.c ****     *  DST stop time/date is stored.
2481:.\Generated_Source\PSoC5/RTC_1.c ****     *
2482:.\Generated_Source\PSoC5/RTC_1.c ****     *  RTC_1_dstModeType: global variable is used to store DST mode
2483:.\Generated_Source\PSoC5/RTC_1.c ****     *   type: relative or fixed.
2484:.\Generated_Source\PSoC5/RTC_1.c ****     *
2485:.\Generated_Source\PSoC5/RTC_1.c ****     *  RTC_1_dstTimeDateStart.Month,
2486:.\Generated_Source\PSoC5/RTC_1.c ****     *  RTC_1_dstTimeDateStart.DayOfWeek,
2487:.\Generated_Source\PSoC5/RTC_1.c ****     *  RTC_1_dstTimeDateStart.Week,
2488:.\Generated_Source\PSoC5/RTC_1.c ****     *  RTC_1_dstTimeDateStop.Month,
2489:.\Generated_Source\PSoC5/RTC_1.c ****     *  RTC_1_dstTimeDateStop.DayOfWeek,
2490:.\Generated_Source\PSoC5/RTC_1.c ****     *  RTC_1_dstTimeDateStop.Week: used for the day of week correction,
2491:.\Generated_Source\PSoC5/RTC_1.c ****     *   they are used by RTC_1_DSTDateConversion() function if DST
2492:.\Generated_Source\PSoC5/RTC_1.c ****     *   mode is configured to be relative.
2493:.\Generated_Source\PSoC5/RTC_1.c ****     *
2494:.\Generated_Source\PSoC5/RTC_1.c ****     *  RTC_1_currentTimeDate.Year: for the day of week calculation,
2495:.\Generated_Source\PSoC5/RTC_1.c ****     *   it is used by RTC_1_DSTDateConversion() function if DST
2496:.\Generated_Source\PSoC5/RTC_1.c ****     *   mode is configured to be relative.
2497:.\Generated_Source\PSoC5/RTC_1.c ****     *
2498:.\Generated_Source\PSoC5/RTC_1.c ****     *  RTC_1_dstTimeDateStop.Week: global variable is modified with
2499:.\Generated_Source\PSoC5/RTC_1.c ****     *  the new value.
2500:.\Generated_Source\PSoC5/RTC_1.c ****     *
2501:.\Generated_Source\PSoC5/RTC_1.c ****     *  RTC_1_dstTimeDateStart.DayOfMonth and
2502:.\Generated_Source\PSoC5/RTC_1.c ****     *  RTC_1_dstTimeDateStop.DayOfMonth are modified by
2503:.\Generated_Source\PSoC5/RTC_1.c ****     *  the RTC_1_DSTDateConversion() function if DST mode is
2504:.\Generated_Source\PSoC5/RTC_1.c ****     *  configured to be relative.
2505:.\Generated_Source\PSoC5/RTC_1.c ****     *
2506:.\Generated_Source\PSoC5/RTC_1.c ****     * Reentrant:
2507:.\Generated_Source\PSoC5/RTC_1.c ****     *  No.
2508:.\Generated_Source\PSoC5/RTC_1.c ****     *
2509:.\Generated_Source\PSoC5/RTC_1.c ****     *******************************************************************************/
2510:.\Generated_Source\PSoC5/RTC_1.c ****     void RTC_1_WriteDSTStopWeek(uint8 week) 
2511:.\Generated_Source\PSoC5/RTC_1.c ****     {
 4190              		.loc 1 2511 0
 4191              		.cfi_startproc
 4192              		@ args = 0, pretend = 0, frame = 8
 4193              		@ frame_needed = 1, uses_anonymous_args = 0
 4194 0000 80B5     		push	{r7, lr}
 4195              		.cfi_def_cfa_offset 8
 4196              		.cfi_offset 7, -8
 4197              		.cfi_offset 14, -4
 4198 0002 82B0     		sub	sp, sp, #8
 4199              		.cfi_def_cfa_offset 16
ARM GAS  C:\Users\glenn\AppData\Local\Temp\ccPIHEU1.s 			page 119


 4200 0004 00AF     		add	r7, sp, #0
 4201              		.cfi_def_cfa_register 7
 4202 0006 0346     		mov	r3, r0
 4203 0008 FB71     		strb	r3, [r7, #7]
2512:.\Generated_Source\PSoC5/RTC_1.c ****         /* Set DST Stop week */
2513:.\Generated_Source\PSoC5/RTC_1.c ****         RTC_1_dstTimeDateStop.Week = week;
 4204              		.loc 1 2513 0
 4205 000a 074A     		ldr	r2, .L278
 4206 000c FB79     		ldrb	r3, [r7, #7]
 4207 000e 9370     		strb	r3, [r2, #2]
2514:.\Generated_Source\PSoC5/RTC_1.c **** 
2515:.\Generated_Source\PSoC5/RTC_1.c ****         if(0u != RTC_1_IS_BIT_SET(RTC_1_dstModeType, RTC_1_DST_RELDATE))
 4208              		.loc 1 2515 0
 4209 0010 064B     		ldr	r3, .L278+4
 4210 0012 1B78     		ldrb	r3, [r3]
 4211 0014 DBB2     		uxtb	r3, r3
 4212 0016 03F00203 		and	r3, r3, #2
 4213 001a 002B     		cmp	r3, #0
 4214 001c 01D0     		beq	.L276
2516:.\Generated_Source\PSoC5/RTC_1.c ****         {
2517:.\Generated_Source\PSoC5/RTC_1.c ****             /* Convert DST date */
2518:.\Generated_Source\PSoC5/RTC_1.c ****             RTC_1_DSTDateConversion();
 4215              		.loc 1 2518 0
 4216 001e FFF7FEFF 		bl	RTC_1_DSTDateConversion
 4217              	.L276:
2519:.\Generated_Source\PSoC5/RTC_1.c ****         }
2520:.\Generated_Source\PSoC5/RTC_1.c ****     }
 4218              		.loc 1 2520 0
 4219 0022 0837     		adds	r7, r7, #8
 4220              		.cfi_def_cfa_offset 8
 4221 0024 BD46     		mov	sp, r7
 4222              		.cfi_def_cfa_register 13
 4223              		@ sp needed
 4224 0026 80BD     		pop	{r7, pc}
 4225              	.L279:
 4226              		.align	2
 4227              	.L278:
 4228 0028 00000000 		.word	RTC_1_dstTimeDateStop
 4229 002c 00000000 		.word	RTC_1_dstModeType
 4230              		.cfi_endproc
 4231              	.LFE52:
 4232              		.size	RTC_1_WriteDSTStopWeek, .-RTC_1_WriteDSTStopWeek
 4233              		.section	.text.RTC_1_WriteDSTOffset,"ax",%progbits
 4234              		.align	2
 4235              		.global	RTC_1_WriteDSTOffset
 4236              		.thumb
 4237              		.thumb_func
 4238              		.type	RTC_1_WriteDSTOffset, %function
 4239              	RTC_1_WriteDSTOffset:
 4240              	.LFB53:
2521:.\Generated_Source\PSoC5/RTC_1.c **** 
2522:.\Generated_Source\PSoC5/RTC_1.c **** 
2523:.\Generated_Source\PSoC5/RTC_1.c ****     /*******************************************************************************
2524:.\Generated_Source\PSoC5/RTC_1.c ****     * Function Name:   RTC_1_WriteDSTOffset
2525:.\Generated_Source\PSoC5/RTC_1.c ****     ********************************************************************************
2526:.\Generated_Source\PSoC5/RTC_1.c ****     *
2527:.\Generated_Source\PSoC5/RTC_1.c ****     * Summary:
ARM GAS  C:\Users\glenn\AppData\Local\Temp\ccPIHEU1.s 			page 120


2528:.\Generated_Source\PSoC5/RTC_1.c ****     *  Writes the DST Offset register. Allows a configurable increment or decrement
2529:.\Generated_Source\PSoC5/RTC_1.c ****     *  of time between 0 and 255 minutes. Increment occurs on DST Start and
2530:.\Generated_Source\PSoC5/RTC_1.c ****     *  decrement on DST Stop. Only generated if DST is enabled.
2531:.\Generated_Source\PSoC5/RTC_1.c ****     *
2532:.\Generated_Source\PSoC5/RTC_1.c ****     * Parameters:
2533:.\Generated_Source\PSoC5/RTC_1.c ****     *  offset: The DST offset to be saved.
2534:.\Generated_Source\PSoC5/RTC_1.c ****     *
2535:.\Generated_Source\PSoC5/RTC_1.c ****     * Return:
2536:.\Generated_Source\PSoC5/RTC_1.c ****     *  None.
2537:.\Generated_Source\PSoC5/RTC_1.c ****     *
2538:.\Generated_Source\PSoC5/RTC_1.c ****     * Global variables:
2539:.\Generated_Source\PSoC5/RTC_1.c ****     *  RTC_1_dstOffsetMin: global variable is modified with the new
2540:.\Generated_Source\PSoC5/RTC_1.c ****     *  DST offset value (in minutes).
2541:.\Generated_Source\PSoC5/RTC_1.c ****     *
2542:.\Generated_Source\PSoC5/RTC_1.c ****     * Reentrant:
2543:.\Generated_Source\PSoC5/RTC_1.c ****     *  No.
2544:.\Generated_Source\PSoC5/RTC_1.c ****     *
2545:.\Generated_Source\PSoC5/RTC_1.c ****     *******************************************************************************/
2546:.\Generated_Source\PSoC5/RTC_1.c ****     void RTC_1_WriteDSTOffset(uint8 offset) 
2547:.\Generated_Source\PSoC5/RTC_1.c ****     {
 4241              		.loc 1 2547 0
 4242              		.cfi_startproc
 4243              		@ args = 0, pretend = 0, frame = 8
 4244              		@ frame_needed = 1, uses_anonymous_args = 0
 4245              		@ link register save eliminated.
 4246 0000 80B4     		push	{r7}
 4247              		.cfi_def_cfa_offset 4
 4248              		.cfi_offset 7, -4
 4249 0002 83B0     		sub	sp, sp, #12
 4250              		.cfi_def_cfa_offset 16
 4251 0004 00AF     		add	r7, sp, #0
 4252              		.cfi_def_cfa_register 7
 4253 0006 0346     		mov	r3, r0
 4254 0008 FB71     		strb	r3, [r7, #7]
2548:.\Generated_Source\PSoC5/RTC_1.c ****         /* Set DST offset */
2549:.\Generated_Source\PSoC5/RTC_1.c ****         RTC_1_dstOffsetMin = offset;
 4255              		.loc 1 2549 0
 4256 000a 044A     		ldr	r2, .L281
 4257 000c FB79     		ldrb	r3, [r7, #7]
 4258 000e 1370     		strb	r3, [r2]
2550:.\Generated_Source\PSoC5/RTC_1.c ****     }
 4259              		.loc 1 2550 0
 4260 0010 0C37     		adds	r7, r7, #12
 4261              		.cfi_def_cfa_offset 4
 4262 0012 BD46     		mov	sp, r7
 4263              		.cfi_def_cfa_register 13
 4264              		@ sp needed
 4265 0014 5DF8047B 		ldr	r7, [sp], #4
 4266              		.cfi_restore 7
 4267              		.cfi_def_cfa_offset 0
 4268 0018 7047     		bx	lr
 4269              	.L282:
 4270 001a 00BF     		.align	2
 4271              	.L281:
 4272 001c 00000000 		.word	RTC_1_dstOffsetMin
 4273              		.cfi_endproc
 4274              	.LFE53:
ARM GAS  C:\Users\glenn\AppData\Local\Temp\ccPIHEU1.s 			page 121


 4275              		.size	RTC_1_WriteDSTOffset, .-RTC_1_WriteDSTOffset
 4276              		.section	.rodata
 4277              		.align	2
 4278              		.type	RTC_1_monthTemplate.5101, %object
 4279              		.size	RTC_1_monthTemplate.5101, 12
 4280              	RTC_1_monthTemplate.5101:
 4281 000c 00       		.byte	0
 4282 000d 03       		.byte	3
 4283 000e 02       		.byte	2
 4284 000f 05       		.byte	5
 4285 0010 00       		.byte	0
 4286 0011 03       		.byte	3
 4287 0012 05       		.byte	5
 4288 0013 01       		.byte	1
 4289 0014 04       		.byte	4
 4290 0015 06       		.byte	6
 4291 0016 02       		.byte	2
 4292 0017 04       		.byte	4
 4293              		.text
 4294              	.Letext0:
 4295              		.file 2 ".\\Generated_Source\\PSoC5\\cytypes.h"
 4296              		.file 3 ".\\Generated_Source\\PSoC5\\RTC_1.h"
 4297              		.section	.debug_info,"",%progbits
 4298              	.Ldebug_info0:
 4299 0000 D2090000 		.4byte	0x9d2
 4300 0004 0400     		.2byte	0x4
 4301 0006 00000000 		.4byte	.Ldebug_abbrev0
 4302 000a 04       		.byte	0x4
 4303 000b 01       		.uleb128 0x1
 4304 000c 1A050000 		.4byte	.LASF110
 4305 0010 01       		.byte	0x1
 4306 0011 43000000 		.4byte	.LASF111
 4307 0015 BF030000 		.4byte	.LASF112
 4308 0019 00000000 		.4byte	.Ldebug_ranges0+0
 4309 001d 00000000 		.4byte	0
 4310 0021 00000000 		.4byte	.Ldebug_line0
 4311 0025 02       		.uleb128 0x2
 4312 0026 01       		.byte	0x1
 4313 0027 06       		.byte	0x6
 4314 0028 03010000 		.4byte	.LASF0
 4315 002c 02       		.uleb128 0x2
 4316 002d 01       		.byte	0x1
 4317 002e 08       		.byte	0x8
 4318 002f 41060000 		.4byte	.LASF1
 4319 0033 02       		.uleb128 0x2
 4320 0034 02       		.byte	0x2
 4321 0035 05       		.byte	0x5
 4322 0036 4F060000 		.4byte	.LASF2
 4323 003a 02       		.uleb128 0x2
 4324 003b 02       		.byte	0x2
 4325 003c 07       		.byte	0x7
 4326 003d 44030000 		.4byte	.LASF3
 4327 0041 02       		.uleb128 0x2
 4328 0042 04       		.byte	0x4
 4329 0043 05       		.byte	0x5
 4330 0044 9B010000 		.4byte	.LASF4
 4331 0048 02       		.uleb128 0x2
ARM GAS  C:\Users\glenn\AppData\Local\Temp\ccPIHEU1.s 			page 122


 4332 0049 04       		.byte	0x4
 4333 004a 07       		.byte	0x7
 4334 004b DA020000 		.4byte	.LASF5
 4335 004f 02       		.uleb128 0x2
 4336 0050 08       		.byte	0x8
 4337 0051 05       		.byte	0x5
 4338 0052 F5000000 		.4byte	.LASF6
 4339 0056 02       		.uleb128 0x2
 4340 0057 08       		.byte	0x8
 4341 0058 07       		.byte	0x7
 4342 0059 8D000000 		.4byte	.LASF7
 4343 005d 03       		.uleb128 0x3
 4344 005e 04       		.byte	0x4
 4345 005f 05       		.byte	0x5
 4346 0060 696E7400 		.ascii	"int\000"
 4347 0064 02       		.uleb128 0x2
 4348 0065 04       		.byte	0x4
 4349 0066 07       		.byte	0x7
 4350 0067 60020000 		.4byte	.LASF8
 4351 006b 04       		.uleb128 0x4
 4352 006c C3010000 		.4byte	.LASF9
 4353 0070 02       		.byte	0x2
 4354 0071 9201     		.2byte	0x192
 4355 0073 2C000000 		.4byte	0x2c
 4356 0077 04       		.uleb128 0x4
 4357 0078 00000000 		.4byte	.LASF10
 4358 007c 02       		.byte	0x2
 4359 007d 9301     		.2byte	0x193
 4360 007f 3A000000 		.4byte	0x3a
 4361 0083 04       		.uleb128 0x4
 4362 0084 ED010000 		.4byte	.LASF11
 4363 0088 02       		.byte	0x2
 4364 0089 9401     		.2byte	0x194
 4365 008b 48000000 		.4byte	0x48
 4366 008f 02       		.uleb128 0x2
 4367 0090 04       		.byte	0x4
 4368 0091 04       		.byte	0x4
 4369 0092 00060000 		.4byte	.LASF12
 4370 0096 02       		.uleb128 0x2
 4371 0097 08       		.byte	0x8
 4372 0098 04       		.byte	0x4
 4373 0099 E6010000 		.4byte	.LASF13
 4374 009d 02       		.uleb128 0x2
 4375 009e 01       		.byte	0x1
 4376 009f 08       		.byte	0x8
 4377 00a0 B9060000 		.4byte	.LASF14
 4378 00a4 04       		.uleb128 0x4
 4379 00a5 28060000 		.4byte	.LASF15
 4380 00a9 02       		.byte	0x2
 4381 00aa 3C02     		.2byte	0x23c
 4382 00ac B0000000 		.4byte	0xb0
 4383 00b0 05       		.uleb128 0x5
 4384 00b1 6B000000 		.4byte	0x6b
 4385 00b5 04       		.uleb128 0x4
 4386 00b6 34040000 		.4byte	.LASF16
 4387 00ba 02       		.byte	0x2
 4388 00bb 3E02     		.2byte	0x23e
ARM GAS  C:\Users\glenn\AppData\Local\Temp\ccPIHEU1.s 			page 123


 4389 00bd C1000000 		.4byte	0xc1
 4390 00c1 05       		.uleb128 0x5
 4391 00c2 83000000 		.4byte	0x83
 4392 00c6 06       		.uleb128 0x6
 4393 00c7 0C       		.byte	0xc
 4394 00c8 03       		.byte	0x3
 4395 00c9 30       		.byte	0x30
 4396 00ca 2F010000 		.4byte	0x12f
 4397 00ce 07       		.uleb128 0x7
 4398 00cf 53656300 		.ascii	"Sec\000"
 4399 00d3 03       		.byte	0x3
 4400 00d4 32       		.byte	0x32
 4401 00d5 6B000000 		.4byte	0x6b
 4402 00d9 00       		.byte	0
 4403 00da 07       		.uleb128 0x7
 4404 00db 4D696E00 		.ascii	"Min\000"
 4405 00df 03       		.byte	0x3
 4406 00e0 33       		.byte	0x33
 4407 00e1 6B000000 		.4byte	0x6b
 4408 00e5 01       		.byte	0x1
 4409 00e6 08       		.uleb128 0x8
 4410 00e7 A4000000 		.4byte	.LASF17
 4411 00eb 03       		.byte	0x3
 4412 00ec 34       		.byte	0x34
 4413 00ed 6B000000 		.4byte	0x6b
 4414 00f1 02       		.byte	0x2
 4415 00f2 08       		.uleb128 0x8
 4416 00f3 73060000 		.4byte	.LASF18
 4417 00f7 03       		.byte	0x3
 4418 00f8 35       		.byte	0x35
 4419 00f9 6B000000 		.4byte	0x6b
 4420 00fd 03       		.byte	0x3
 4421 00fe 08       		.uleb128 0x8
 4422 00ff 39030000 		.4byte	.LASF19
 4423 0103 03       		.byte	0x3
 4424 0104 36       		.byte	0x36
 4425 0105 6B000000 		.4byte	0x6b
 4426 0109 04       		.byte	0x4
 4427 010a 08       		.uleb128 0x8
 4428 010b E6070000 		.4byte	.LASF20
 4429 010f 03       		.byte	0x3
 4430 0110 37       		.byte	0x37
 4431 0111 77000000 		.4byte	0x77
 4432 0115 06       		.byte	0x6
 4433 0116 08       		.uleb128 0x8
 4434 0117 BD010000 		.4byte	.LASF21
 4435 011b 03       		.byte	0x3
 4436 011c 38       		.byte	0x38
 4437 011d 6B000000 		.4byte	0x6b
 4438 0121 08       		.byte	0x8
 4439 0122 08       		.uleb128 0x8
 4440 0123 57030000 		.4byte	.LASF22
 4441 0127 03       		.byte	0x3
 4442 0128 39       		.byte	0x39
 4443 0129 77000000 		.4byte	0x77
 4444 012d 0A       		.byte	0xa
 4445 012e 00       		.byte	0
ARM GAS  C:\Users\glenn\AppData\Local\Temp\ccPIHEU1.s 			page 124


 4446 012f 09       		.uleb128 0x9
 4447 0130 CF060000 		.4byte	.LASF23
 4448 0134 03       		.byte	0x3
 4449 0135 3A       		.byte	0x3a
 4450 0136 3A010000 		.4byte	0x13a
 4451 013a 05       		.uleb128 0x5
 4452 013b C6000000 		.4byte	0xc6
 4453 013f 06       		.uleb128 0x6
 4454 0140 05       		.byte	0x5
 4455 0141 03       		.byte	0x3
 4456 0142 3C       		.byte	0x3c
 4457 0143 84010000 		.4byte	0x184
 4458 0147 08       		.uleb128 0x8
 4459 0148 A4000000 		.4byte	.LASF17
 4460 014c 03       		.byte	0x3
 4461 014d 3E       		.byte	0x3e
 4462 014e 6B000000 		.4byte	0x6b
 4463 0152 00       		.byte	0
 4464 0153 08       		.uleb128 0x8
 4465 0154 73060000 		.4byte	.LASF18
 4466 0158 03       		.byte	0x3
 4467 0159 3F       		.byte	0x3f
 4468 015a 6B000000 		.4byte	0x6b
 4469 015e 01       		.byte	0x1
 4470 015f 08       		.uleb128 0x8
 4471 0160 F0000000 		.4byte	.LASF24
 4472 0164 03       		.byte	0x3
 4473 0165 40       		.byte	0x40
 4474 0166 6B000000 		.4byte	0x6b
 4475 016a 02       		.byte	0x2
 4476 016b 08       		.uleb128 0x8
 4477 016c 39030000 		.4byte	.LASF19
 4478 0170 03       		.byte	0x3
 4479 0171 41       		.byte	0x41
 4480 0172 6B000000 		.4byte	0x6b
 4481 0176 03       		.byte	0x3
 4482 0177 08       		.uleb128 0x8
 4483 0178 BD010000 		.4byte	.LASF21
 4484 017c 03       		.byte	0x3
 4485 017d 42       		.byte	0x42
 4486 017e 6B000000 		.4byte	0x6b
 4487 0182 04       		.byte	0x4
 4488 0183 00       		.byte	0
 4489 0184 09       		.uleb128 0x9
 4490 0185 B0040000 		.4byte	.LASF25
 4491 0189 03       		.byte	0x3
 4492 018a 43       		.byte	0x43
 4493 018b 8F010000 		.4byte	0x18f
 4494 018f 05       		.uleb128 0x5
 4495 0190 3F010000 		.4byte	0x13f
 4496 0194 02       		.uleb128 0x2
 4497 0195 04       		.byte	0x4
 4498 0196 07       		.byte	0x7
 4499 0197 A7040000 		.4byte	.LASF26
 4500 019b 0A       		.uleb128 0xa
 4501 019c E8040000 		.4byte	.LASF27
 4502 01a0 01       		.byte	0x1
ARM GAS  C:\Users\glenn\AppData\Local\Temp\ccPIHEU1.s 			page 125


 4503 01a1 81       		.byte	0x81
 4504 01a2 00000000 		.4byte	.LFB0
 4505 01a6 20000000 		.4byte	.LFE0-.LFB0
 4506 01aa 01       		.uleb128 0x1
 4507 01ab 9C       		.byte	0x9c
 4508 01ac 0B       		.uleb128 0xb
 4509 01ad 1B000000 		.4byte	.LASF34
 4510 01b1 01       		.byte	0x1
 4511 01b2 A3       		.byte	0xa3
 4512 01b3 00000000 		.4byte	.LFB1
 4513 01b7 3C000000 		.4byte	.LFE1-.LFB1
 4514 01bb 01       		.uleb128 0x1
 4515 01bc 9C       		.byte	0x9c
 4516 01bd D0010000 		.4byte	0x1d0
 4517 01c1 0C       		.uleb128 0xc
 4518 01c2 3F010000 		.4byte	.LASF30
 4519 01c6 01       		.byte	0x1
 4520 01c7 A5       		.byte	0xa5
 4521 01c8 6B000000 		.4byte	0x6b
 4522 01cc 02       		.uleb128 0x2
 4523 01cd 91       		.byte	0x91
 4524 01ce 77       		.sleb128 -9
 4525 01cf 00       		.byte	0
 4526 01d0 0D       		.uleb128 0xd
 4527 01d1 34020000 		.4byte	.LASF28
 4528 01d5 01       		.byte	0x1
 4529 01d6 C3       		.byte	0xc3
 4530 01d7 00000000 		.4byte	.LFB2
 4531 01db 18000000 		.4byte	.LFE2-.LFB2
 4532 01df 01       		.uleb128 0x1
 4533 01e0 9C       		.byte	0x9c
 4534 01e1 0D       		.uleb128 0xd
 4535 01e2 A8060000 		.4byte	.LASF29
 4536 01e6 01       		.byte	0x1
 4537 01e7 D8       		.byte	0xd8
 4538 01e8 00000000 		.4byte	.LFB3
 4539 01ec 18000000 		.4byte	.LFE3-.LFB3
 4540 01f0 01       		.uleb128 0x1
 4541 01f1 9C       		.byte	0x9c
 4542 01f2 0E       		.uleb128 0xe
 4543 01f3 62010000 		.4byte	.LASF79
 4544 01f7 01       		.byte	0x1
 4545 01f8 FF       		.byte	0xff
 4546 01f9 00000000 		.4byte	.LFB4
 4547 01fd F8000000 		.4byte	.LFE4-.LFB4
 4548 0201 01       		.uleb128 0x1
 4549 0202 9C       		.byte	0x9c
 4550 0203 35020000 		.4byte	0x235
 4551 0207 0F       		.uleb128 0xf
 4552 0208 A1070000 		.4byte	.LASF31
 4553 020c 01       		.byte	0x1
 4554 020d 0101     		.2byte	0x101
 4555 020f 6B000000 		.4byte	0x6b
 4556 0213 02       		.uleb128 0x2
 4557 0214 91       		.byte	0x91
 4558 0215 77       		.sleb128 -9
 4559 0216 10       		.uleb128 0x10
ARM GAS  C:\Users\glenn\AppData\Local\Temp\ccPIHEU1.s 			page 126


 4560 0217 64617900 		.ascii	"day\000"
 4561 021b 01       		.byte	0x1
 4562 021c 0201     		.2byte	0x102
 4563 021e 6B000000 		.4byte	0x6b
 4564 0222 02       		.uleb128 0x2
 4565 0223 91       		.byte	0x91
 4566 0224 76       		.sleb128 -10
 4567 0225 0F       		.uleb128 0xf
 4568 0226 0E040000 		.4byte	.LASF32
 4569 022a 01       		.byte	0x1
 4570 022b 0301     		.2byte	0x103
 4571 022d 6B000000 		.4byte	0x6b
 4572 0231 02       		.uleb128 0x2
 4573 0232 91       		.byte	0x91
 4574 0233 75       		.sleb128 -11
 4575 0234 00       		.byte	0
 4576 0235 11       		.uleb128 0x11
 4577 0236 8D030000 		.4byte	.LASF33
 4578 023a 01       		.byte	0x1
 4579 023b 8701     		.2byte	0x187
 4580 023d 00000000 		.4byte	.LFB5
 4581 0241 28000000 		.4byte	.LFE5-.LFB5
 4582 0245 01       		.uleb128 0x1
 4583 0246 9C       		.byte	0x9c
 4584 0247 12       		.uleb128 0x12
 4585 0248 09070000 		.4byte	.LASF35
 4586 024c 01       		.byte	0x1
 4587 024d AB01     		.2byte	0x1ab
 4588 024f 00000000 		.4byte	.LFB6
 4589 0253 3C000000 		.4byte	.LFE6-.LFB6
 4590 0257 01       		.uleb128 0x1
 4591 0258 9C       		.byte	0x9c
 4592 0259 6D020000 		.4byte	0x26d
 4593 025d 0F       		.uleb128 0xf
 4594 025e 3F010000 		.4byte	.LASF30
 4595 0262 01       		.byte	0x1
 4596 0263 AD01     		.2byte	0x1ad
 4597 0265 6B000000 		.4byte	0x6b
 4598 0269 02       		.uleb128 0x2
 4599 026a 91       		.byte	0x91
 4600 026b 77       		.sleb128 -9
 4601 026c 00       		.byte	0
 4602 026d 13       		.uleb128 0x13
 4603 026e 7E030000 		.4byte	.LASF59
 4604 0272 01       		.byte	0x1
 4605 0273 D501     		.2byte	0x1d5
 4606 0275 83020000 		.4byte	0x283
 4607 0279 00000000 		.4byte	.LFB7
 4608 027d 14000000 		.4byte	.LFE7-.LFB7
 4609 0281 01       		.uleb128 0x1
 4610 0282 9C       		.byte	0x9c
 4611 0283 14       		.uleb128 0x14
 4612 0284 04       		.byte	0x4
 4613 0285 2F010000 		.4byte	0x12f
 4614 0289 12       		.uleb128 0x12
 4615 028a AF030000 		.4byte	.LASF36
 4616 028e 01       		.byte	0x1
ARM GAS  C:\Users\glenn\AppData\Local\Temp\ccPIHEU1.s 			page 127


 4617 028f F401     		.2byte	0x1f4
 4618 0291 00000000 		.4byte	.LFB8
 4619 0295 58000000 		.4byte	.LFE8-.LFB8
 4620 0299 01       		.uleb128 0x1
 4621 029a 9C       		.byte	0x9c
 4622 029b AF020000 		.4byte	0x2af
 4623 029f 15       		.uleb128 0x15
 4624 02a0 11050000 		.4byte	.LASF38
 4625 02a4 01       		.byte	0x1
 4626 02a5 F401     		.2byte	0x1f4
 4627 02a7 AF020000 		.4byte	0x2af
 4628 02ab 02       		.uleb128 0x2
 4629 02ac 91       		.byte	0x91
 4630 02ad 74       		.sleb128 -12
 4631 02ae 00       		.byte	0
 4632 02af 14       		.uleb128 0x14
 4633 02b0 04       		.byte	0x4
 4634 02b1 B5020000 		.4byte	0x2b5
 4635 02b5 16       		.uleb128 0x16
 4636 02b6 2F010000 		.4byte	0x12f
 4637 02ba 17       		.uleb128 0x17
 4638 02bb 96060000 		.4byte	.LASF37
 4639 02bf 01       		.byte	0x1
 4640 02c0 1C02     		.2byte	0x21c
 4641 02c2 00000000 		.4byte	.LFB9
 4642 02c6 20000000 		.4byte	.LFE9-.LFB9
 4643 02ca 01       		.uleb128 0x1
 4644 02cb 9C       		.byte	0x9c
 4645 02cc E0020000 		.4byte	0x2e0
 4646 02d0 15       		.uleb128 0x15
 4647 02d1 7A010000 		.4byte	.LASF39
 4648 02d5 01       		.byte	0x1
 4649 02d6 1C02     		.2byte	0x21c
 4650 02d8 6B000000 		.4byte	0x6b
 4651 02dc 02       		.uleb128 0x2
 4652 02dd 91       		.byte	0x91
 4653 02de 77       		.sleb128 -9
 4654 02df 00       		.byte	0
 4655 02e0 17       		.uleb128 0x17
 4656 02e1 6C030000 		.4byte	.LASF40
 4657 02e5 01       		.byte	0x1
 4658 02e6 3802     		.2byte	0x238
 4659 02e8 00000000 		.4byte	.LFB10
 4660 02ec 20000000 		.4byte	.LFE10-.LFB10
 4661 02f0 01       		.uleb128 0x1
 4662 02f1 9C       		.byte	0x9c
 4663 02f2 06030000 		.4byte	0x306
 4664 02f6 15       		.uleb128 0x15
 4665 02f7 65070000 		.4byte	.LASF41
 4666 02fb 01       		.byte	0x1
 4667 02fc 3802     		.2byte	0x238
 4668 02fe 6B000000 		.4byte	0x6b
 4669 0302 02       		.uleb128 0x2
 4670 0303 91       		.byte	0x91
 4671 0304 77       		.sleb128 -9
 4672 0305 00       		.byte	0
 4673 0306 17       		.uleb128 0x17
ARM GAS  C:\Users\glenn\AppData\Local\Temp\ccPIHEU1.s 			page 128


 4674 0307 16070000 		.4byte	.LASF42
 4675 030b 01       		.byte	0x1
 4676 030c 5402     		.2byte	0x254
 4677 030e 00000000 		.4byte	.LFB11
 4678 0312 20000000 		.4byte	.LFE11-.LFB11
 4679 0316 01       		.uleb128 0x1
 4680 0317 9C       		.byte	0x9c
 4681 0318 2C030000 		.4byte	0x32c
 4682 031c 15       		.uleb128 0x15
 4683 031d D1050000 		.4byte	.LASF43
 4684 0321 01       		.byte	0x1
 4685 0322 5402     		.2byte	0x254
 4686 0324 6B000000 		.4byte	0x6b
 4687 0328 02       		.uleb128 0x2
 4688 0329 91       		.byte	0x91
 4689 032a 77       		.sleb128 -9
 4690 032b 00       		.byte	0
 4691 032c 17       		.uleb128 0x17
 4692 032d 3D070000 		.4byte	.LASF44
 4693 0331 01       		.byte	0x1
 4694 0332 7002     		.2byte	0x270
 4695 0334 00000000 		.4byte	.LFB12
 4696 0338 20000000 		.4byte	.LFE12-.LFB12
 4697 033c 01       		.uleb128 0x1
 4698 033d 9C       		.byte	0x9c
 4699 033e 52030000 		.4byte	0x352
 4700 0342 15       		.uleb128 0x15
 4701 0343 06060000 		.4byte	.LASF45
 4702 0347 01       		.byte	0x1
 4703 0348 7002     		.2byte	0x270
 4704 034a 6B000000 		.4byte	0x6b
 4705 034e 02       		.uleb128 0x2
 4706 034f 91       		.byte	0x91
 4707 0350 77       		.sleb128 -9
 4708 0351 00       		.byte	0
 4709 0352 17       		.uleb128 0x17
 4710 0353 44020000 		.4byte	.LASF46
 4711 0357 01       		.byte	0x1
 4712 0358 8C02     		.2byte	0x28c
 4713 035a 00000000 		.4byte	.LFB13
 4714 035e 20000000 		.4byte	.LFE13-.LFB13
 4715 0362 01       		.uleb128 0x1
 4716 0363 9C       		.byte	0x9c
 4717 0364 78030000 		.4byte	0x378
 4718 0368 15       		.uleb128 0x15
 4719 0369 5A020000 		.4byte	.LASF47
 4720 036d 01       		.byte	0x1
 4721 036e 8C02     		.2byte	0x28c
 4722 0370 6B000000 		.4byte	0x6b
 4723 0374 02       		.uleb128 0x2
 4724 0375 91       		.byte	0x91
 4725 0376 77       		.sleb128 -9
 4726 0377 00       		.byte	0
 4727 0378 17       		.uleb128 0x17
 4728 0379 64000000 		.4byte	.LASF48
 4729 037d 01       		.byte	0x1
 4730 037e A802     		.2byte	0x2a8
ARM GAS  C:\Users\glenn\AppData\Local\Temp\ccPIHEU1.s 			page 129


 4731 0380 00000000 		.4byte	.LFB14
 4732 0384 20000000 		.4byte	.LFE14-.LFB14
 4733 0388 01       		.uleb128 0x1
 4734 0389 9C       		.byte	0x9c
 4735 038a 9E030000 		.4byte	0x39e
 4736 038e 15       		.uleb128 0x15
 4737 038f 81010000 		.4byte	.LASF49
 4738 0393 01       		.byte	0x1
 4739 0394 A802     		.2byte	0x2a8
 4740 0396 77000000 		.4byte	0x77
 4741 039a 02       		.uleb128 0x2
 4742 039b 91       		.byte	0x91
 4743 039c 76       		.sleb128 -10
 4744 039d 00       		.byte	0
 4745 039e 17       		.uleb128 0x17
 4746 039f 98030000 		.4byte	.LASF50
 4747 03a3 01       		.byte	0x1
 4748 03a4 CA02     		.2byte	0x2ca
 4749 03a6 00000000 		.4byte	.LFB15
 4750 03aa 58000000 		.4byte	.LFE15-.LFB15
 4751 03ae 01       		.uleb128 0x1
 4752 03af 9C       		.byte	0x9c
 4753 03b0 C4030000 		.4byte	0x3c4
 4754 03b4 15       		.uleb128 0x15
 4755 03b5 7A010000 		.4byte	.LASF39
 4756 03b9 01       		.byte	0x1
 4757 03ba CA02     		.2byte	0x2ca
 4758 03bc 6B000000 		.4byte	0x6b
 4759 03c0 02       		.uleb128 0x2
 4760 03c1 91       		.byte	0x91
 4761 03c2 77       		.sleb128 -9
 4762 03c3 00       		.byte	0
 4763 03c4 17       		.uleb128 0x17
 4764 03c5 1D020000 		.4byte	.LASF51
 4765 03c9 01       		.byte	0x1
 4766 03ca F702     		.2byte	0x2f7
 4767 03cc 00000000 		.4byte	.LFB16
 4768 03d0 58000000 		.4byte	.LFE16-.LFB16
 4769 03d4 01       		.uleb128 0x1
 4770 03d5 9C       		.byte	0x9c
 4771 03d6 EA030000 		.4byte	0x3ea
 4772 03da 15       		.uleb128 0x15
 4773 03db 65070000 		.4byte	.LASF41
 4774 03df 01       		.byte	0x1
 4775 03e0 F702     		.2byte	0x2f7
 4776 03e2 6B000000 		.4byte	0x6b
 4777 03e6 02       		.uleb128 0x2
 4778 03e7 91       		.byte	0x91
 4779 03e8 77       		.sleb128 -9
 4780 03e9 00       		.byte	0
 4781 03ea 17       		.uleb128 0x17
 4782 03eb 68040000 		.4byte	.LASF52
 4783 03ef 01       		.byte	0x1
 4784 03f0 2403     		.2byte	0x324
 4785 03f2 00000000 		.4byte	.LFB17
 4786 03f6 58000000 		.4byte	.LFE17-.LFB17
 4787 03fa 01       		.uleb128 0x1
ARM GAS  C:\Users\glenn\AppData\Local\Temp\ccPIHEU1.s 			page 130


 4788 03fb 9C       		.byte	0x9c
 4789 03fc 10040000 		.4byte	0x410
 4790 0400 15       		.uleb128 0x15
 4791 0401 D1050000 		.4byte	.LASF43
 4792 0405 01       		.byte	0x1
 4793 0406 2403     		.2byte	0x324
 4794 0408 6B000000 		.4byte	0x6b
 4795 040c 02       		.uleb128 0x2
 4796 040d 91       		.byte	0x91
 4797 040e 77       		.sleb128 -9
 4798 040f 00       		.byte	0
 4799 0410 17       		.uleb128 0x17
 4800 0411 F0070000 		.4byte	.LASF53
 4801 0415 01       		.byte	0x1
 4802 0416 5103     		.2byte	0x351
 4803 0418 00000000 		.4byte	.LFB18
 4804 041c 58000000 		.4byte	.LFE18-.LFB18
 4805 0420 01       		.uleb128 0x1
 4806 0421 9C       		.byte	0x9c
 4807 0422 36040000 		.4byte	0x436
 4808 0426 15       		.uleb128 0x15
 4809 0427 06060000 		.4byte	.LASF45
 4810 042b 01       		.byte	0x1
 4811 042c 5103     		.2byte	0x351
 4812 042e 6B000000 		.4byte	0x6b
 4813 0432 02       		.uleb128 0x2
 4814 0433 91       		.byte	0x91
 4815 0434 77       		.sleb128 -9
 4816 0435 00       		.byte	0
 4817 0436 17       		.uleb128 0x17
 4818 0437 8B070000 		.4byte	.LASF54
 4819 043b 01       		.byte	0x1
 4820 043c 7E03     		.2byte	0x37e
 4821 043e 00000000 		.4byte	.LFB19
 4822 0442 58000000 		.4byte	.LFE19-.LFB19
 4823 0446 01       		.uleb128 0x1
 4824 0447 9C       		.byte	0x9c
 4825 0448 5C040000 		.4byte	0x45c
 4826 044c 15       		.uleb128 0x15
 4827 044d 5A020000 		.4byte	.LASF47
 4828 0451 01       		.byte	0x1
 4829 0452 7E03     		.2byte	0x37e
 4830 0454 6B000000 		.4byte	0x6b
 4831 0458 02       		.uleb128 0x2
 4832 0459 91       		.byte	0x91
 4833 045a 77       		.sleb128 -9
 4834 045b 00       		.byte	0
 4835 045c 17       		.uleb128 0x17
 4836 045d F4060000 		.4byte	.LASF55
 4837 0461 01       		.byte	0x1
 4838 0462 AB03     		.2byte	0x3ab
 4839 0464 00000000 		.4byte	.LFB20
 4840 0468 58000000 		.4byte	.LFE20-.LFB20
 4841 046c 01       		.uleb128 0x1
 4842 046d 9C       		.byte	0x9c
 4843 046e 82040000 		.4byte	0x482
 4844 0472 15       		.uleb128 0x15
ARM GAS  C:\Users\glenn\AppData\Local\Temp\ccPIHEU1.s 			page 131


 4845 0473 81010000 		.4byte	.LASF49
 4846 0477 01       		.byte	0x1
 4847 0478 AB03     		.2byte	0x3ab
 4848 047a 77000000 		.4byte	0x77
 4849 047e 02       		.uleb128 0x2
 4850 047f 91       		.byte	0x91
 4851 0480 76       		.sleb128 -10
 4852 0481 00       		.byte	0
 4853 0482 17       		.uleb128 0x17
 4854 0483 0F010000 		.4byte	.LASF56
 4855 0487 01       		.byte	0x1
 4856 0488 D903     		.2byte	0x3d9
 4857 048a 00000000 		.4byte	.LFB21
 4858 048e 58000000 		.4byte	.LFE21-.LFB21
 4859 0492 01       		.uleb128 0x1
 4860 0493 9C       		.byte	0x9c
 4861 0494 A8040000 		.4byte	0x4a8
 4862 0498 15       		.uleb128 0x15
 4863 0499 0E040000 		.4byte	.LASF32
 4864 049d 01       		.byte	0x1
 4865 049e D903     		.2byte	0x3d9
 4866 04a0 6B000000 		.4byte	0x6b
 4867 04a4 02       		.uleb128 0x2
 4868 04a5 91       		.byte	0x91
 4869 04a6 77       		.sleb128 -9
 4870 04a7 00       		.byte	0
 4871 04a8 17       		.uleb128 0x17
 4872 04a9 C1000000 		.4byte	.LASF57
 4873 04ad 01       		.byte	0x1
 4874 04ae 0604     		.2byte	0x406
 4875 04b0 00000000 		.4byte	.LFB22
 4876 04b4 58000000 		.4byte	.LFE22-.LFB22
 4877 04b8 01       		.uleb128 0x1
 4878 04b9 9C       		.byte	0x9c
 4879 04ba CE040000 		.4byte	0x4ce
 4880 04be 15       		.uleb128 0x15
 4881 04bf 8C060000 		.4byte	.LASF58
 4882 04c3 01       		.byte	0x1
 4883 04c4 0604     		.2byte	0x406
 4884 04c6 77000000 		.4byte	0x77
 4885 04ca 02       		.uleb128 0x2
 4886 04cb 91       		.byte	0x91
 4887 04cc 76       		.sleb128 -10
 4888 04cd 00       		.byte	0
 4889 04ce 13       		.uleb128 0x13
 4890 04cf BE060000 		.4byte	.LASF60
 4891 04d3 01       		.byte	0x1
 4892 04d4 2904     		.2byte	0x429
 4893 04d6 6B000000 		.4byte	0x6b
 4894 04da 00000000 		.4byte	.LFB23
 4895 04de 18000000 		.4byte	.LFE23-.LFB23
 4896 04e2 01       		.uleb128 0x1
 4897 04e3 9C       		.byte	0x9c
 4898 04e4 13       		.uleb128 0x13
 4899 04e5 0C020000 		.4byte	.LASF61
 4900 04e9 01       		.byte	0x1
 4901 04ea 4104     		.2byte	0x441
ARM GAS  C:\Users\glenn\AppData\Local\Temp\ccPIHEU1.s 			page 132


 4902 04ec 6B000000 		.4byte	0x6b
 4903 04f0 00000000 		.4byte	.LFB24
 4904 04f4 18000000 		.4byte	.LFE24-.LFB24
 4905 04f8 01       		.uleb128 0x1
 4906 04f9 9C       		.byte	0x9c
 4907 04fa 13       		.uleb128 0x13
 4908 04fb 7D060000 		.4byte	.LASF62
 4909 04ff 01       		.byte	0x1
 4910 0500 5904     		.2byte	0x459
 4911 0502 6B000000 		.4byte	0x6b
 4912 0506 00000000 		.4byte	.LFB25
 4913 050a 18000000 		.4byte	.LFE25-.LFB25
 4914 050e 01       		.uleb128 0x1
 4915 050f 9C       		.byte	0x9c
 4916 0510 13       		.uleb128 0x13
 4917 0511 DB000000 		.4byte	.LASF63
 4918 0515 01       		.byte	0x1
 4919 0516 7304     		.2byte	0x473
 4920 0518 6B000000 		.4byte	0x6b
 4921 051c 00000000 		.4byte	.LFB26
 4922 0520 18000000 		.4byte	.LFE26-.LFB26
 4923 0524 01       		.uleb128 0x1
 4924 0525 9C       		.byte	0x9c
 4925 0526 13       		.uleb128 0x13
 4926 0527 5C030000 		.4byte	.LASF64
 4927 052b 01       		.byte	0x1
 4928 052c 8B04     		.2byte	0x48b
 4929 052e 6B000000 		.4byte	0x6b
 4930 0532 00000000 		.4byte	.LFB27
 4931 0536 18000000 		.4byte	.LFE27-.LFB27
 4932 053a 01       		.uleb128 0x1
 4933 053b 9C       		.byte	0x9c
 4934 053c 13       		.uleb128 0x13
 4935 053d 26000000 		.4byte	.LASF65
 4936 0541 01       		.byte	0x1
 4937 0542 A304     		.2byte	0x4a3
 4938 0544 77000000 		.4byte	0x77
 4939 0548 00000000 		.4byte	.LFB28
 4940 054c 18000000 		.4byte	.LFE28-.LFB28
 4941 0550 01       		.uleb128 0x1
 4942 0551 9C       		.byte	0x9c
 4943 0552 13       		.uleb128 0x13
 4944 0553 3A040000 		.4byte	.LASF66
 4945 0557 01       		.byte	0x1
 4946 0558 BC04     		.2byte	0x4bc
 4947 055a 6B000000 		.4byte	0x6b
 4948 055e 00000000 		.4byte	.LFB29
 4949 0562 18000000 		.4byte	.LFE29-.LFB29
 4950 0566 01       		.uleb128 0x1
 4951 0567 9C       		.byte	0x9c
 4952 0568 13       		.uleb128 0x13
 4953 0569 29010000 		.4byte	.LASF67
 4954 056d 01       		.byte	0x1
 4955 056e D404     		.2byte	0x4d4
 4956 0570 6B000000 		.4byte	0x6b
 4957 0574 00000000 		.4byte	.LFB30
 4958 0578 18000000 		.4byte	.LFE30-.LFB30
ARM GAS  C:\Users\glenn\AppData\Local\Temp\ccPIHEU1.s 			page 133


 4959 057c 01       		.uleb128 0x1
 4960 057d 9C       		.byte	0x9c
 4961 057e 13       		.uleb128 0x13
 4962 057f 2D060000 		.4byte	.LASF68
 4963 0583 01       		.byte	0x1
 4964 0584 EC04     		.2byte	0x4ec
 4965 0586 6B000000 		.4byte	0x6b
 4966 058a 00000000 		.4byte	.LFB31
 4967 058e 18000000 		.4byte	.LFE31-.LFB31
 4968 0592 01       		.uleb128 0x1
 4969 0593 9C       		.byte	0x9c
 4970 0594 13       		.uleb128 0x13
 4971 0595 59060000 		.4byte	.LASF69
 4972 0599 01       		.byte	0x1
 4973 059a 0505     		.2byte	0x505
 4974 059c 6B000000 		.4byte	0x6b
 4975 05a0 00000000 		.4byte	.LFB32
 4976 05a4 18000000 		.4byte	.LFE32-.LFB32
 4977 05a8 01       		.uleb128 0x1
 4978 05a9 9C       		.byte	0x9c
 4979 05aa 13       		.uleb128 0x13
 4980 05ab 92040000 		.4byte	.LASF70
 4981 05af 01       		.byte	0x1
 4982 05b0 1E05     		.2byte	0x51e
 4983 05b2 6B000000 		.4byte	0x6b
 4984 05b6 00000000 		.4byte	.LFB33
 4985 05ba 18000000 		.4byte	.LFE33-.LFB33
 4986 05be 01       		.uleb128 0x1
 4987 05bf 9C       		.byte	0x9c
 4988 05c0 13       		.uleb128 0x13
 4989 05c1 D4040000 		.4byte	.LASF71
 4990 05c5 01       		.byte	0x1
 4991 05c6 3605     		.2byte	0x536
 4992 05c8 77000000 		.4byte	0x77
 4993 05cc 00000000 		.4byte	.LFB34
 4994 05d0 18000000 		.4byte	.LFE34-.LFB34
 4995 05d4 01       		.uleb128 0x1
 4996 05d5 9C       		.byte	0x9c
 4997 05d6 13       		.uleb128 0x13
 4998 05d7 74000000 		.4byte	.LASF72
 4999 05db 01       		.byte	0x1
 5000 05dc 4F05     		.2byte	0x54f
 5001 05de 6B000000 		.4byte	0x6b
 5002 05e2 00000000 		.4byte	.LFB35
 5003 05e6 18000000 		.4byte	.LFE35-.LFB35
 5004 05ea 01       		.uleb128 0x1
 5005 05eb 9C       		.byte	0x9c
 5006 05ec 13       		.uleb128 0x13
 5007 05ed EC020000 		.4byte	.LASF73
 5008 05f1 01       		.byte	0x1
 5009 05f2 6805     		.2byte	0x568
 5010 05f4 77000000 		.4byte	0x77
 5011 05f8 00000000 		.4byte	.LFB36
 5012 05fc 18000000 		.4byte	.LFE36-.LFB36
 5013 0600 01       		.uleb128 0x1
 5014 0601 9C       		.byte	0x9c
 5015 0602 17       		.uleb128 0x17
ARM GAS  C:\Users\glenn\AppData\Local\Temp\ccPIHEU1.s 			page 134


 5016 0603 86010000 		.4byte	.LASF74
 5017 0607 01       		.byte	0x1
 5018 0608 8505     		.2byte	0x585
 5019 060a 00000000 		.4byte	.LFB37
 5020 060e 20000000 		.4byte	.LFE37-.LFB37
 5021 0612 01       		.uleb128 0x1
 5022 0613 9C       		.byte	0x9c
 5023 0614 28060000 		.4byte	0x628
 5024 0618 15       		.uleb128 0x15
 5025 0619 07020000 		.4byte	.LASF75
 5026 061d 01       		.byte	0x1
 5027 061e 8505     		.2byte	0x585
 5028 0620 6B000000 		.4byte	0x6b
 5029 0624 02       		.uleb128 0x2
 5030 0625 91       		.byte	0x91
 5031 0626 77       		.sleb128 -9
 5032 0627 00       		.byte	0
 5033 0628 17       		.uleb128 0x17
 5034 0629 A9000000 		.4byte	.LASF76
 5035 062d 01       		.byte	0x1
 5036 062e A105     		.2byte	0x5a1
 5037 0630 00000000 		.4byte	.LFB38
 5038 0634 20000000 		.4byte	.LFE38-.LFB38
 5039 0638 01       		.uleb128 0x1
 5040 0639 9C       		.byte	0x9c
 5041 063a 4E060000 		.4byte	0x64e
 5042 063e 15       		.uleb128 0x15
 5043 063f 07020000 		.4byte	.LASF75
 5044 0643 01       		.byte	0x1
 5045 0644 A105     		.2byte	0x5a1
 5046 0646 6B000000 		.4byte	0x6b
 5047 064a 02       		.uleb128 0x2
 5048 064b 91       		.byte	0x91
 5049 064c 77       		.sleb128 -9
 5050 064d 00       		.byte	0
 5051 064e 18       		.uleb128 0x18
 5052 064f FD030000 		.4byte	.LASF113
 5053 0653 01       		.byte	0x1
 5054 0654 C005     		.2byte	0x5c0
 5055 0656 6B000000 		.4byte	0x6b
 5056 065a 00000000 		.4byte	.LFB39
 5057 065e 30000000 		.4byte	.LFE39-.LFB39
 5058 0662 01       		.uleb128 0x1
 5059 0663 9C       		.byte	0x9c
 5060 0664 78060000 		.4byte	0x678
 5061 0668 0F       		.uleb128 0xf
 5062 0669 84070000 		.4byte	.LASF77
 5063 066d 01       		.byte	0x1
 5064 066e C205     		.2byte	0x5c2
 5065 0670 6B000000 		.4byte	0x6b
 5066 0674 02       		.uleb128 0x2
 5067 0675 91       		.byte	0x91
 5068 0676 77       		.sleb128 -9
 5069 0677 00       		.byte	0
 5070 0678 19       		.uleb128 0x19
 5071 0679 2D070000 		.4byte	.LASF114
 5072 067d 01       		.byte	0x1
ARM GAS  C:\Users\glenn\AppData\Local\Temp\ccPIHEU1.s 			page 135


 5073 067e DE05     		.2byte	0x5de
 5074 0680 6B000000 		.4byte	0x6b
 5075 0684 00000000 		.4byte	.LFB40
 5076 0688 88000000 		.4byte	.LFE40-.LFB40
 5077 068c 01       		.uleb128 0x1
 5078 068d 9C       		.byte	0x9c
 5079 068e D2060000 		.4byte	0x6d2
 5080 0692 15       		.uleb128 0x15
 5081 0693 06060000 		.4byte	.LASF45
 5082 0697 01       		.byte	0x1
 5083 0698 DE05     		.2byte	0x5de
 5084 069a 6B000000 		.4byte	0x6b
 5085 069e 02       		.uleb128 0x2
 5086 069f 91       		.byte	0x91
 5087 06a0 77       		.sleb128 -9
 5088 06a1 15       		.uleb128 0x15
 5089 06a2 5A020000 		.4byte	.LASF47
 5090 06a6 01       		.byte	0x1
 5091 06a7 DE05     		.2byte	0x5de
 5092 06a9 6B000000 		.4byte	0x6b
 5093 06ad 02       		.uleb128 0x2
 5094 06ae 91       		.byte	0x91
 5095 06af 76       		.sleb128 -10
 5096 06b0 15       		.uleb128 0x15
 5097 06b1 81010000 		.4byte	.LASF49
 5098 06b5 01       		.byte	0x1
 5099 06b6 DE05     		.2byte	0x5de
 5100 06b8 77000000 		.4byte	0x77
 5101 06bc 02       		.uleb128 0x2
 5102 06bd 91       		.byte	0x91
 5103 06be 74       		.sleb128 -12
 5104 06bf 0F       		.uleb128 0xf
 5105 06c0 07000000 		.4byte	.LASF78
 5106 06c4 01       		.byte	0x1
 5107 06c5 E205     		.2byte	0x5e2
 5108 06c7 E2060000 		.4byte	0x6e2
 5109 06cb 05       		.uleb128 0x5
 5110 06cc 03       		.byte	0x3
 5111 06cd 0C000000 		.4byte	RTC_1_monthTemplate.5101
 5112 06d1 00       		.byte	0
 5113 06d2 1A       		.uleb128 0x1a
 5114 06d3 6B000000 		.4byte	0x6b
 5115 06d7 E2060000 		.4byte	0x6e2
 5116 06db 1B       		.uleb128 0x1b
 5117 06dc 94010000 		.4byte	0x194
 5118 06e0 0B       		.byte	0xb
 5119 06e1 00       		.byte	0
 5120 06e2 16       		.uleb128 0x16
 5121 06e3 D2060000 		.4byte	0x6d2
 5122 06e7 1C       		.uleb128 0x1c
 5123 06e8 A8050000 		.4byte	.LASF80
 5124 06ec 01       		.byte	0x1
 5125 06ed 1806     		.2byte	0x618
 5126 06ef 00000000 		.4byte	.LFB41
 5127 06f3 100A0000 		.4byte	.LFE41-.LFB41
 5128 06f7 01       		.uleb128 0x1
 5129 06f8 9C       		.byte	0x9c
ARM GAS  C:\Users\glenn\AppData\Local\Temp\ccPIHEU1.s 			page 136


 5130 06f9 1A070000 		.4byte	0x71a
 5131 06fd 10       		.uleb128 0x10
 5132 06fe 6900     		.ascii	"i\000"
 5133 0700 01       		.byte	0x1
 5134 0701 1A06     		.2byte	0x61a
 5135 0703 6B000000 		.4byte	0x6b
 5136 0707 02       		.uleb128 0x2
 5137 0708 91       		.byte	0x91
 5138 0709 77       		.sleb128 -9
 5139 070a 0F       		.uleb128 0xf
 5140 070b CF070000 		.4byte	.LASF81
 5141 070f 01       		.byte	0x1
 5142 0710 1B06     		.2byte	0x61b
 5143 0712 6B000000 		.4byte	0x6b
 5144 0716 02       		.uleb128 0x2
 5145 0717 91       		.byte	0x91
 5146 0718 76       		.sleb128 -10
 5147 0719 00       		.byte	0
 5148 071a 12       		.uleb128 0x12
 5149 071b D6050000 		.4byte	.LASF82
 5150 071f 01       		.byte	0x1
 5151 0720 3308     		.2byte	0x833
 5152 0722 00000000 		.4byte	.LFB42
 5153 0726 28000000 		.4byte	.LFE42-.LFB42
 5154 072a 01       		.uleb128 0x1
 5155 072b 9C       		.byte	0x9c
 5156 072c 40070000 		.4byte	0x740
 5157 0730 15       		.uleb128 0x15
 5158 0731 55020000 		.4byte	.LASF83
 5159 0735 01       		.byte	0x1
 5160 0736 3308     		.2byte	0x833
 5161 0738 6B000000 		.4byte	0x6b
 5162 073c 02       		.uleb128 0x2
 5163 073d 91       		.byte	0x91
 5164 073e 77       		.sleb128 -9
 5165 073f 00       		.byte	0
 5166 0740 17       		.uleb128 0x17
 5167 0741 50040000 		.4byte	.LASF84
 5168 0745 01       		.byte	0x1
 5169 0746 5608     		.2byte	0x856
 5170 0748 00000000 		.4byte	.LFB43
 5171 074c 20000000 		.4byte	.LFE43-.LFB43
 5172 0750 01       		.uleb128 0x1
 5173 0751 9C       		.byte	0x9c
 5174 0752 66070000 		.4byte	0x766
 5175 0756 15       		.uleb128 0x15
 5176 0757 D1050000 		.4byte	.LASF43
 5177 075b 01       		.byte	0x1
 5178 075c 5608     		.2byte	0x856
 5179 075e 6B000000 		.4byte	0x6b
 5180 0762 02       		.uleb128 0x2
 5181 0763 91       		.byte	0x91
 5182 0764 77       		.sleb128 -9
 5183 0765 00       		.byte	0
 5184 0766 17       		.uleb128 0x17
 5185 0767 1B030000 		.4byte	.LASF85
 5186 076b 01       		.byte	0x1
ARM GAS  C:\Users\glenn\AppData\Local\Temp\ccPIHEU1.s 			page 137


 5187 076c 7308     		.2byte	0x873
 5188 076e 00000000 		.4byte	.LFB44
 5189 0772 20000000 		.4byte	.LFE44-.LFB44
 5190 0776 01       		.uleb128 0x1
 5191 0777 9C       		.byte	0x9c
 5192 0778 8C070000 		.4byte	0x78c
 5193 077c 15       		.uleb128 0x15
 5194 077d 06060000 		.4byte	.LASF45
 5195 0781 01       		.byte	0x1
 5196 0782 7308     		.2byte	0x873
 5197 0784 6B000000 		.4byte	0x6b
 5198 0788 02       		.uleb128 0x2
 5199 0789 91       		.byte	0x91
 5200 078a 77       		.sleb128 -9
 5201 078b 00       		.byte	0
 5202 078c 17       		.uleb128 0x17
 5203 078d A4010000 		.4byte	.LASF86
 5204 0791 01       		.byte	0x1
 5205 0792 9108     		.2byte	0x891
 5206 0794 00000000 		.4byte	.LFB45
 5207 0798 20000000 		.4byte	.LFE45-.LFB45
 5208 079c 01       		.uleb128 0x1
 5209 079d 9C       		.byte	0x9c
 5210 079e B2070000 		.4byte	0x7b2
 5211 07a2 15       		.uleb128 0x15
 5212 07a3 5A020000 		.4byte	.LASF47
 5213 07a7 01       		.byte	0x1
 5214 07a8 9108     		.2byte	0x891
 5215 07aa 6B000000 		.4byte	0x6b
 5216 07ae 02       		.uleb128 0x2
 5217 07af 91       		.byte	0x91
 5218 07b0 77       		.sleb128 -9
 5219 07b1 00       		.byte	0
 5220 07b2 12       		.uleb128 0x12
 5221 07b3 F4040000 		.4byte	.LASF87
 5222 07b7 01       		.byte	0x1
 5223 07b8 C308     		.2byte	0x8c3
 5224 07ba 00000000 		.4byte	.LFB46
 5225 07be 30000000 		.4byte	.LFE46-.LFB46
 5226 07c2 01       		.uleb128 0x1
 5227 07c3 9C       		.byte	0x9c
 5228 07c4 D8070000 		.4byte	0x7d8
 5229 07c8 15       		.uleb128 0x15
 5230 07c9 0E040000 		.4byte	.LASF32
 5231 07cd 01       		.byte	0x1
 5232 07ce C308     		.2byte	0x8c3
 5233 07d0 6B000000 		.4byte	0x6b
 5234 07d4 02       		.uleb128 0x2
 5235 07d5 91       		.byte	0x91
 5236 07d6 77       		.sleb128 -9
 5237 07d7 00       		.byte	0
 5238 07d8 12       		.uleb128 0x12
 5239 07d9 97020000 		.4byte	.LASF88
 5240 07dd 01       		.byte	0x1
 5241 07de FF08     		.2byte	0x8ff
 5242 07e0 00000000 		.4byte	.LFB47
 5243 07e4 30000000 		.4byte	.LFE47-.LFB47
ARM GAS  C:\Users\glenn\AppData\Local\Temp\ccPIHEU1.s 			page 138


 5244 07e8 01       		.uleb128 0x1
 5245 07e9 9C       		.byte	0x9c
 5246 07ea FE070000 		.4byte	0x7fe
 5247 07ee 15       		.uleb128 0x15
 5248 07ef A1070000 		.4byte	.LASF31
 5249 07f3 01       		.byte	0x1
 5250 07f4 FF08     		.2byte	0x8ff
 5251 07f6 6B000000 		.4byte	0x6b
 5252 07fa 02       		.uleb128 0x2
 5253 07fb 91       		.byte	0x91
 5254 07fc 77       		.sleb128 -9
 5255 07fd 00       		.byte	0
 5256 07fe 17       		.uleb128 0x17
 5257 07ff E9050000 		.4byte	.LASF89
 5258 0803 01       		.byte	0x1
 5259 0804 2209     		.2byte	0x922
 5260 0806 00000000 		.4byte	.LFB48
 5261 080a 20000000 		.4byte	.LFE48-.LFB48
 5262 080e 01       		.uleb128 0x1
 5263 080f 9C       		.byte	0x9c
 5264 0810 24080000 		.4byte	0x824
 5265 0814 15       		.uleb128 0x15
 5266 0815 D1050000 		.4byte	.LASF43
 5267 0819 01       		.byte	0x1
 5268 081a 2209     		.2byte	0x922
 5269 081c 6B000000 		.4byte	0x6b
 5270 0820 02       		.uleb128 0x2
 5271 0821 91       		.byte	0x91
 5272 0822 77       		.sleb128 -9
 5273 0823 00       		.byte	0
 5274 0824 17       		.uleb128 0x17
 5275 0825 C9010000 		.4byte	.LASF90
 5276 0829 01       		.byte	0x1
 5277 082a 3F09     		.2byte	0x93f
 5278 082c 00000000 		.4byte	.LFB49
 5279 0830 20000000 		.4byte	.LFE49-.LFB49
 5280 0834 01       		.uleb128 0x1
 5281 0835 9C       		.byte	0x9c
 5282 0836 4A080000 		.4byte	0x84a
 5283 083a 15       		.uleb128 0x15
 5284 083b 06060000 		.4byte	.LASF45
 5285 083f 01       		.byte	0x1
 5286 0840 3F09     		.2byte	0x93f
 5287 0842 6B000000 		.4byte	0x6b
 5288 0846 02       		.uleb128 0x2
 5289 0847 91       		.byte	0x91
 5290 0848 77       		.sleb128 -9
 5291 0849 00       		.byte	0
 5292 084a 17       		.uleb128 0x17
 5293 084b 6C070000 		.4byte	.LASF91
 5294 084f 01       		.byte	0x1
 5295 0850 5D09     		.2byte	0x95d
 5296 0852 00000000 		.4byte	.LFB50
 5297 0856 20000000 		.4byte	.LFE50-.LFB50
 5298 085a 01       		.uleb128 0x1
 5299 085b 9C       		.byte	0x9c
 5300 085c 70080000 		.4byte	0x870
ARM GAS  C:\Users\glenn\AppData\Local\Temp\ccPIHEU1.s 			page 139


 5301 0860 15       		.uleb128 0x15
 5302 0861 5A020000 		.4byte	.LASF47
 5303 0865 01       		.byte	0x1
 5304 0866 5D09     		.2byte	0x95d
 5305 0868 6B000000 		.4byte	0x6b
 5306 086c 02       		.uleb128 0x2
 5307 086d 91       		.byte	0x91
 5308 086e 77       		.sleb128 -9
 5309 086f 00       		.byte	0
 5310 0870 12       		.uleb128 0x12
 5311 0871 18040000 		.4byte	.LASF92
 5312 0875 01       		.byte	0x1
 5313 0876 9209     		.2byte	0x992
 5314 0878 00000000 		.4byte	.LFB51
 5315 087c 30000000 		.4byte	.LFE51-.LFB51
 5316 0880 01       		.uleb128 0x1
 5317 0881 9C       		.byte	0x9c
 5318 0882 96080000 		.4byte	0x896
 5319 0886 15       		.uleb128 0x15
 5320 0887 0E040000 		.4byte	.LASF32
 5321 088b 01       		.byte	0x1
 5322 088c 9209     		.2byte	0x992
 5323 088e 6B000000 		.4byte	0x6b
 5324 0892 02       		.uleb128 0x2
 5325 0893 91       		.byte	0x91
 5326 0894 77       		.sleb128 -9
 5327 0895 00       		.byte	0
 5328 0896 12       		.uleb128 0x12
 5329 0897 11060000 		.4byte	.LASF93
 5330 089b 01       		.byte	0x1
 5331 089c CE09     		.2byte	0x9ce
 5332 089e 00000000 		.4byte	.LFB52
 5333 08a2 30000000 		.4byte	.LFE52-.LFB52
 5334 08a6 01       		.uleb128 0x1
 5335 08a7 9C       		.byte	0x9c
 5336 08a8 BC080000 		.4byte	0x8bc
 5337 08ac 15       		.uleb128 0x15
 5338 08ad A1070000 		.4byte	.LASF31
 5339 08b1 01       		.byte	0x1
 5340 08b2 CE09     		.2byte	0x9ce
 5341 08b4 6B000000 		.4byte	0x6b
 5342 08b8 02       		.uleb128 0x2
 5343 08b9 91       		.byte	0x91
 5344 08ba 77       		.sleb128 -9
 5345 08bb 00       		.byte	0
 5346 08bc 17       		.uleb128 0x17
 5347 08bd DF060000 		.4byte	.LASF94
 5348 08c1 01       		.byte	0x1
 5349 08c2 F209     		.2byte	0x9f2
 5350 08c4 00000000 		.4byte	.LFB53
 5351 08c8 20000000 		.4byte	.LFE53-.LFB53
 5352 08cc 01       		.uleb128 0x1
 5353 08cd 9C       		.byte	0x9c
 5354 08ce E2080000 		.4byte	0x8e2
 5355 08d2 15       		.uleb128 0x15
 5356 08d3 26070000 		.4byte	.LASF95
 5357 08d7 01       		.byte	0x1
ARM GAS  C:\Users\glenn\AppData\Local\Temp\ccPIHEU1.s 			page 140


 5358 08d8 F209     		.2byte	0x9f2
 5359 08da 6B000000 		.4byte	0x6b
 5360 08de 02       		.uleb128 0x2
 5361 08df 91       		.byte	0x91
 5362 08e0 77       		.sleb128 -9
 5363 08e1 00       		.byte	0
 5364 08e2 1D       		.uleb128 0x1d
 5365 08e3 35000000 		.4byte	.LASF96
 5366 08e7 01       		.byte	0x1
 5367 08e8 1C       		.byte	0x1c
 5368 08e9 6B000000 		.4byte	0x6b
 5369 08ed 05       		.uleb128 0x5
 5370 08ee 03       		.byte	0x3
 5371 08ef 00000000 		.4byte	RTC_1_initVar
 5372 08f3 1D       		.uleb128 0x1d
 5373 08f4 BD040000 		.4byte	.LASF97
 5374 08f8 01       		.byte	0x1
 5375 08f9 28       		.byte	0x28
 5376 08fa 2F010000 		.4byte	0x12f
 5377 08fe 05       		.uleb128 0x5
 5378 08ff 03       		.byte	0x3
 5379 0900 00000000 		.4byte	RTC_1_alarmCfgTimeDate
 5380 0904 1D       		.uleb128 0x1d
 5381 0905 AF020000 		.4byte	.LASF98
 5382 0909 01       		.byte	0x1
 5383 090a 22       		.byte	0x22
 5384 090b 2F010000 		.4byte	0x12f
 5385 090f 05       		.uleb128 0x5
 5386 0910 03       		.byte	0x3
 5387 0911 00000000 		.4byte	RTC_1_currentTimeDate
 5388 0915 1D       		.uleb128 0x1d
 5389 0916 53070000 		.4byte	.LASF99
 5390 091a 01       		.byte	0x1
 5391 091b 2D       		.byte	0x2d
 5392 091c B0000000 		.4byte	0xb0
 5393 0920 05       		.uleb128 0x5
 5394 0921 03       		.byte	0x3
 5395 0922 00000000 		.4byte	RTC_1_dstModeType
 5396 0926 1D       		.uleb128 0x1d
 5397 0927 6D020000 		.4byte	.LASF100
 5398 092b 01       		.byte	0x1
 5399 092c 30       		.byte	0x30
 5400 092d 84010000 		.4byte	0x184
 5401 0931 05       		.uleb128 0x5
 5402 0932 03       		.byte	0x3
 5403 0933 00000000 		.4byte	RTC_1_dstTimeDateStart
 5404 0937 1D       		.uleb128 0x1d
 5405 0938 A6070000 		.4byte	.LASF101
 5406 093c 01       		.byte	0x1
 5407 093d 31       		.byte	0x31
 5408 093e 84010000 		.4byte	0x184
 5409 0942 05       		.uleb128 0x5
 5410 0943 03       		.byte	0x3
 5411 0944 00000000 		.4byte	RTC_1_dstTimeDateStop
 5412 0948 1D       		.uleb128 0x1d
 5413 0949 84020000 		.4byte	.LASF102
 5414 094d 01       		.byte	0x1
ARM GAS  C:\Users\glenn\AppData\Local\Temp\ccPIHEU1.s 			page 141


 5415 094e 34       		.byte	0x34
 5416 094f B0000000 		.4byte	0xb0
 5417 0953 05       		.uleb128 0x5
 5418 0954 03       		.byte	0x3
 5419 0955 00000000 		.4byte	RTC_1_dstOffsetMin
 5420 0959 1D       		.uleb128 0x1d
 5421 095a 7D040000 		.4byte	.LASF103
 5422 095e 01       		.byte	0x1
 5423 095f 35       		.byte	0x35
 5424 0960 B0000000 		.4byte	0xb0
 5425 0964 05       		.uleb128 0x5
 5426 0965 03       		.byte	0x3
 5427 0966 00000000 		.4byte	RTC_1_dstStartStatus
 5428 096a 1D       		.uleb128 0x1d
 5429 096b 4E010000 		.4byte	.LASF104
 5430 096f 01       		.byte	0x1
 5431 0970 36       		.byte	0x36
 5432 0971 B0000000 		.4byte	0xb0
 5433 0975 05       		.uleb128 0x5
 5434 0976 03       		.byte	0x3
 5435 0977 00000000 		.4byte	RTC_1_dstStopStatus
 5436 097b 1D       		.uleb128 0x1d
 5437 097c F4010000 		.4byte	.LASF105
 5438 0980 01       		.byte	0x1
 5439 0981 3B       		.byte	0x3b
 5440 0982 B0000000 		.4byte	0xb0
 5441 0986 05       		.uleb128 0x5
 5442 0987 03       		.byte	0x3
 5443 0988 00000000 		.4byte	RTC_1_alarmCfgMask
 5444 098c 1D       		.uleb128 0x1d
 5445 098d C5020000 		.4byte	.LASF106
 5446 0991 01       		.byte	0x1
 5447 0992 3C       		.byte	0x3c
 5448 0993 B0000000 		.4byte	0xb0
 5449 0997 05       		.uleb128 0x5
 5450 0998 03       		.byte	0x3
 5451 0999 00000000 		.4byte	RTC_1_alarmCurStatus
 5452 099d 1D       		.uleb128 0x1d
 5453 099e 05030000 		.4byte	.LASF107
 5454 09a2 01       		.byte	0x1
 5455 09a3 3D       		.byte	0x3d
 5456 09a4 B0000000 		.4byte	0xb0
 5457 09a8 05       		.uleb128 0x5
 5458 09a9 03       		.byte	0x3
 5459 09aa 00000000 		.4byte	RTC_1_intervalCfgMask
 5460 09ae 1D       		.uleb128 0x1d
 5461 09af BC050000 		.4byte	.LASF108
 5462 09b3 01       		.byte	0x1
 5463 09b4 40       		.byte	0x40
 5464 09b5 B0000000 		.4byte	0xb0
 5465 09b9 05       		.uleb128 0x5
 5466 09ba 03       		.byte	0x3
 5467 09bb 00000000 		.4byte	RTC_1_statusDateTime
 5468 09bf 1D       		.uleb128 0x1d
 5469 09c0 BC070000 		.4byte	.LASF109
 5470 09c4 01       		.byte	0x1
 5471 09c5 43       		.byte	0x43
ARM GAS  C:\Users\glenn\AppData\Local\Temp\ccPIHEU1.s 			page 142


 5472 09c6 D0090000 		.4byte	0x9d0
 5473 09ca 05       		.uleb128 0x5
 5474 09cb 03       		.byte	0x3
 5475 09cc 00000000 		.4byte	RTC_1_daysInMonths
 5476 09d0 16       		.uleb128 0x16
 5477 09d1 D2060000 		.4byte	0x6d2
 5478 09d5 00       		.byte	0
 5479              		.section	.debug_abbrev,"",%progbits
 5480              	.Ldebug_abbrev0:
 5481 0000 01       		.uleb128 0x1
 5482 0001 11       		.uleb128 0x11
 5483 0002 01       		.byte	0x1
 5484 0003 25       		.uleb128 0x25
 5485 0004 0E       		.uleb128 0xe
 5486 0005 13       		.uleb128 0x13
 5487 0006 0B       		.uleb128 0xb
 5488 0007 03       		.uleb128 0x3
 5489 0008 0E       		.uleb128 0xe
 5490 0009 1B       		.uleb128 0x1b
 5491 000a 0E       		.uleb128 0xe
 5492 000b 55       		.uleb128 0x55
 5493 000c 17       		.uleb128 0x17
 5494 000d 11       		.uleb128 0x11
 5495 000e 01       		.uleb128 0x1
 5496 000f 10       		.uleb128 0x10
 5497 0010 17       		.uleb128 0x17
 5498 0011 00       		.byte	0
 5499 0012 00       		.byte	0
 5500 0013 02       		.uleb128 0x2
 5501 0014 24       		.uleb128 0x24
 5502 0015 00       		.byte	0
 5503 0016 0B       		.uleb128 0xb
 5504 0017 0B       		.uleb128 0xb
 5505 0018 3E       		.uleb128 0x3e
 5506 0019 0B       		.uleb128 0xb
 5507 001a 03       		.uleb128 0x3
 5508 001b 0E       		.uleb128 0xe
 5509 001c 00       		.byte	0
 5510 001d 00       		.byte	0
 5511 001e 03       		.uleb128 0x3
 5512 001f 24       		.uleb128 0x24
 5513 0020 00       		.byte	0
 5514 0021 0B       		.uleb128 0xb
 5515 0022 0B       		.uleb128 0xb
 5516 0023 3E       		.uleb128 0x3e
 5517 0024 0B       		.uleb128 0xb
 5518 0025 03       		.uleb128 0x3
 5519 0026 08       		.uleb128 0x8
 5520 0027 00       		.byte	0
 5521 0028 00       		.byte	0
 5522 0029 04       		.uleb128 0x4
 5523 002a 16       		.uleb128 0x16
 5524 002b 00       		.byte	0
 5525 002c 03       		.uleb128 0x3
 5526 002d 0E       		.uleb128 0xe
 5527 002e 3A       		.uleb128 0x3a
 5528 002f 0B       		.uleb128 0xb
ARM GAS  C:\Users\glenn\AppData\Local\Temp\ccPIHEU1.s 			page 143


 5529 0030 3B       		.uleb128 0x3b
 5530 0031 05       		.uleb128 0x5
 5531 0032 49       		.uleb128 0x49
 5532 0033 13       		.uleb128 0x13
 5533 0034 00       		.byte	0
 5534 0035 00       		.byte	0
 5535 0036 05       		.uleb128 0x5
 5536 0037 35       		.uleb128 0x35
 5537 0038 00       		.byte	0
 5538 0039 49       		.uleb128 0x49
 5539 003a 13       		.uleb128 0x13
 5540 003b 00       		.byte	0
 5541 003c 00       		.byte	0
 5542 003d 06       		.uleb128 0x6
 5543 003e 13       		.uleb128 0x13
 5544 003f 01       		.byte	0x1
 5545 0040 0B       		.uleb128 0xb
 5546 0041 0B       		.uleb128 0xb
 5547 0042 3A       		.uleb128 0x3a
 5548 0043 0B       		.uleb128 0xb
 5549 0044 3B       		.uleb128 0x3b
 5550 0045 0B       		.uleb128 0xb
 5551 0046 01       		.uleb128 0x1
 5552 0047 13       		.uleb128 0x13
 5553 0048 00       		.byte	0
 5554 0049 00       		.byte	0
 5555 004a 07       		.uleb128 0x7
 5556 004b 0D       		.uleb128 0xd
 5557 004c 00       		.byte	0
 5558 004d 03       		.uleb128 0x3
 5559 004e 08       		.uleb128 0x8
 5560 004f 3A       		.uleb128 0x3a
 5561 0050 0B       		.uleb128 0xb
 5562 0051 3B       		.uleb128 0x3b
 5563 0052 0B       		.uleb128 0xb
 5564 0053 49       		.uleb128 0x49
 5565 0054 13       		.uleb128 0x13
 5566 0055 38       		.uleb128 0x38
 5567 0056 0B       		.uleb128 0xb
 5568 0057 00       		.byte	0
 5569 0058 00       		.byte	0
 5570 0059 08       		.uleb128 0x8
 5571 005a 0D       		.uleb128 0xd
 5572 005b 00       		.byte	0
 5573 005c 03       		.uleb128 0x3
 5574 005d 0E       		.uleb128 0xe
 5575 005e 3A       		.uleb128 0x3a
 5576 005f 0B       		.uleb128 0xb
 5577 0060 3B       		.uleb128 0x3b
 5578 0061 0B       		.uleb128 0xb
 5579 0062 49       		.uleb128 0x49
 5580 0063 13       		.uleb128 0x13
 5581 0064 38       		.uleb128 0x38
 5582 0065 0B       		.uleb128 0xb
 5583 0066 00       		.byte	0
 5584 0067 00       		.byte	0
 5585 0068 09       		.uleb128 0x9
ARM GAS  C:\Users\glenn\AppData\Local\Temp\ccPIHEU1.s 			page 144


 5586 0069 16       		.uleb128 0x16
 5587 006a 00       		.byte	0
 5588 006b 03       		.uleb128 0x3
 5589 006c 0E       		.uleb128 0xe
 5590 006d 3A       		.uleb128 0x3a
 5591 006e 0B       		.uleb128 0xb
 5592 006f 3B       		.uleb128 0x3b
 5593 0070 0B       		.uleb128 0xb
 5594 0071 49       		.uleb128 0x49
 5595 0072 13       		.uleb128 0x13
 5596 0073 00       		.byte	0
 5597 0074 00       		.byte	0
 5598 0075 0A       		.uleb128 0xa
 5599 0076 2E       		.uleb128 0x2e
 5600 0077 00       		.byte	0
 5601 0078 3F       		.uleb128 0x3f
 5602 0079 19       		.uleb128 0x19
 5603 007a 03       		.uleb128 0x3
 5604 007b 0E       		.uleb128 0xe
 5605 007c 3A       		.uleb128 0x3a
 5606 007d 0B       		.uleb128 0xb
 5607 007e 3B       		.uleb128 0x3b
 5608 007f 0B       		.uleb128 0xb
 5609 0080 27       		.uleb128 0x27
 5610 0081 19       		.uleb128 0x19
 5611 0082 11       		.uleb128 0x11
 5612 0083 01       		.uleb128 0x1
 5613 0084 12       		.uleb128 0x12
 5614 0085 06       		.uleb128 0x6
 5615 0086 40       		.uleb128 0x40
 5616 0087 18       		.uleb128 0x18
 5617 0088 9642     		.uleb128 0x2116
 5618 008a 19       		.uleb128 0x19
 5619 008b 00       		.byte	0
 5620 008c 00       		.byte	0
 5621 008d 0B       		.uleb128 0xb
 5622 008e 2E       		.uleb128 0x2e
 5623 008f 01       		.byte	0x1
 5624 0090 3F       		.uleb128 0x3f
 5625 0091 19       		.uleb128 0x19
 5626 0092 03       		.uleb128 0x3
 5627 0093 0E       		.uleb128 0xe
 5628 0094 3A       		.uleb128 0x3a
 5629 0095 0B       		.uleb128 0xb
 5630 0096 3B       		.uleb128 0x3b
 5631 0097 0B       		.uleb128 0xb
 5632 0098 27       		.uleb128 0x27
 5633 0099 19       		.uleb128 0x19
 5634 009a 11       		.uleb128 0x11
 5635 009b 01       		.uleb128 0x1
 5636 009c 12       		.uleb128 0x12
 5637 009d 06       		.uleb128 0x6
 5638 009e 40       		.uleb128 0x40
 5639 009f 18       		.uleb128 0x18
 5640 00a0 9642     		.uleb128 0x2116
 5641 00a2 19       		.uleb128 0x19
 5642 00a3 01       		.uleb128 0x1
ARM GAS  C:\Users\glenn\AppData\Local\Temp\ccPIHEU1.s 			page 145


 5643 00a4 13       		.uleb128 0x13
 5644 00a5 00       		.byte	0
 5645 00a6 00       		.byte	0
 5646 00a7 0C       		.uleb128 0xc
 5647 00a8 34       		.uleb128 0x34
 5648 00a9 00       		.byte	0
 5649 00aa 03       		.uleb128 0x3
 5650 00ab 0E       		.uleb128 0xe
 5651 00ac 3A       		.uleb128 0x3a
 5652 00ad 0B       		.uleb128 0xb
 5653 00ae 3B       		.uleb128 0x3b
 5654 00af 0B       		.uleb128 0xb
 5655 00b0 49       		.uleb128 0x49
 5656 00b1 13       		.uleb128 0x13
 5657 00b2 02       		.uleb128 0x2
 5658 00b3 18       		.uleb128 0x18
 5659 00b4 00       		.byte	0
 5660 00b5 00       		.byte	0
 5661 00b6 0D       		.uleb128 0xd
 5662 00b7 2E       		.uleb128 0x2e
 5663 00b8 00       		.byte	0
 5664 00b9 3F       		.uleb128 0x3f
 5665 00ba 19       		.uleb128 0x19
 5666 00bb 03       		.uleb128 0x3
 5667 00bc 0E       		.uleb128 0xe
 5668 00bd 3A       		.uleb128 0x3a
 5669 00be 0B       		.uleb128 0xb
 5670 00bf 3B       		.uleb128 0x3b
 5671 00c0 0B       		.uleb128 0xb
 5672 00c1 27       		.uleb128 0x27
 5673 00c2 19       		.uleb128 0x19
 5674 00c3 11       		.uleb128 0x11
 5675 00c4 01       		.uleb128 0x1
 5676 00c5 12       		.uleb128 0x12
 5677 00c6 06       		.uleb128 0x6
 5678 00c7 40       		.uleb128 0x40
 5679 00c8 18       		.uleb128 0x18
 5680 00c9 9742     		.uleb128 0x2117
 5681 00cb 19       		.uleb128 0x19
 5682 00cc 00       		.byte	0
 5683 00cd 00       		.byte	0
 5684 00ce 0E       		.uleb128 0xe
 5685 00cf 2E       		.uleb128 0x2e
 5686 00d0 01       		.byte	0x1
 5687 00d1 03       		.uleb128 0x3
 5688 00d2 0E       		.uleb128 0xe
 5689 00d3 3A       		.uleb128 0x3a
 5690 00d4 0B       		.uleb128 0xb
 5691 00d5 3B       		.uleb128 0x3b
 5692 00d6 0B       		.uleb128 0xb
 5693 00d7 27       		.uleb128 0x27
 5694 00d8 19       		.uleb128 0x19
 5695 00d9 11       		.uleb128 0x11
 5696 00da 01       		.uleb128 0x1
 5697 00db 12       		.uleb128 0x12
 5698 00dc 06       		.uleb128 0x6
 5699 00dd 40       		.uleb128 0x40
ARM GAS  C:\Users\glenn\AppData\Local\Temp\ccPIHEU1.s 			page 146


 5700 00de 18       		.uleb128 0x18
 5701 00df 9642     		.uleb128 0x2116
 5702 00e1 19       		.uleb128 0x19
 5703 00e2 01       		.uleb128 0x1
 5704 00e3 13       		.uleb128 0x13
 5705 00e4 00       		.byte	0
 5706 00e5 00       		.byte	0
 5707 00e6 0F       		.uleb128 0xf
 5708 00e7 34       		.uleb128 0x34
 5709 00e8 00       		.byte	0
 5710 00e9 03       		.uleb128 0x3
 5711 00ea 0E       		.uleb128 0xe
 5712 00eb 3A       		.uleb128 0x3a
 5713 00ec 0B       		.uleb128 0xb
 5714 00ed 3B       		.uleb128 0x3b
 5715 00ee 05       		.uleb128 0x5
 5716 00ef 49       		.uleb128 0x49
 5717 00f0 13       		.uleb128 0x13
 5718 00f1 02       		.uleb128 0x2
 5719 00f2 18       		.uleb128 0x18
 5720 00f3 00       		.byte	0
 5721 00f4 00       		.byte	0
 5722 00f5 10       		.uleb128 0x10
 5723 00f6 34       		.uleb128 0x34
 5724 00f7 00       		.byte	0
 5725 00f8 03       		.uleb128 0x3
 5726 00f9 08       		.uleb128 0x8
 5727 00fa 3A       		.uleb128 0x3a
 5728 00fb 0B       		.uleb128 0xb
 5729 00fc 3B       		.uleb128 0x3b
 5730 00fd 05       		.uleb128 0x5
 5731 00fe 49       		.uleb128 0x49
 5732 00ff 13       		.uleb128 0x13
 5733 0100 02       		.uleb128 0x2
 5734 0101 18       		.uleb128 0x18
 5735 0102 00       		.byte	0
 5736 0103 00       		.byte	0
 5737 0104 11       		.uleb128 0x11
 5738 0105 2E       		.uleb128 0x2e
 5739 0106 00       		.byte	0
 5740 0107 3F       		.uleb128 0x3f
 5741 0108 19       		.uleb128 0x19
 5742 0109 03       		.uleb128 0x3
 5743 010a 0E       		.uleb128 0xe
 5744 010b 3A       		.uleb128 0x3a
 5745 010c 0B       		.uleb128 0xb
 5746 010d 3B       		.uleb128 0x3b
 5747 010e 05       		.uleb128 0x5
 5748 010f 27       		.uleb128 0x27
 5749 0110 19       		.uleb128 0x19
 5750 0111 11       		.uleb128 0x11
 5751 0112 01       		.uleb128 0x1
 5752 0113 12       		.uleb128 0x12
 5753 0114 06       		.uleb128 0x6
 5754 0115 40       		.uleb128 0x40
 5755 0116 18       		.uleb128 0x18
 5756 0117 9642     		.uleb128 0x2116
ARM GAS  C:\Users\glenn\AppData\Local\Temp\ccPIHEU1.s 			page 147


 5757 0119 19       		.uleb128 0x19
 5758 011a 00       		.byte	0
 5759 011b 00       		.byte	0
 5760 011c 12       		.uleb128 0x12
 5761 011d 2E       		.uleb128 0x2e
 5762 011e 01       		.byte	0x1
 5763 011f 3F       		.uleb128 0x3f
 5764 0120 19       		.uleb128 0x19
 5765 0121 03       		.uleb128 0x3
 5766 0122 0E       		.uleb128 0xe
 5767 0123 3A       		.uleb128 0x3a
 5768 0124 0B       		.uleb128 0xb
 5769 0125 3B       		.uleb128 0x3b
 5770 0126 05       		.uleb128 0x5
 5771 0127 27       		.uleb128 0x27
 5772 0128 19       		.uleb128 0x19
 5773 0129 11       		.uleb128 0x11
 5774 012a 01       		.uleb128 0x1
 5775 012b 12       		.uleb128 0x12
 5776 012c 06       		.uleb128 0x6
 5777 012d 40       		.uleb128 0x40
 5778 012e 18       		.uleb128 0x18
 5779 012f 9642     		.uleb128 0x2116
 5780 0131 19       		.uleb128 0x19
 5781 0132 01       		.uleb128 0x1
 5782 0133 13       		.uleb128 0x13
 5783 0134 00       		.byte	0
 5784 0135 00       		.byte	0
 5785 0136 13       		.uleb128 0x13
 5786 0137 2E       		.uleb128 0x2e
 5787 0138 00       		.byte	0
 5788 0139 3F       		.uleb128 0x3f
 5789 013a 19       		.uleb128 0x19
 5790 013b 03       		.uleb128 0x3
 5791 013c 0E       		.uleb128 0xe
 5792 013d 3A       		.uleb128 0x3a
 5793 013e 0B       		.uleb128 0xb
 5794 013f 3B       		.uleb128 0x3b
 5795 0140 05       		.uleb128 0x5
 5796 0141 27       		.uleb128 0x27
 5797 0142 19       		.uleb128 0x19
 5798 0143 49       		.uleb128 0x49
 5799 0144 13       		.uleb128 0x13
 5800 0145 11       		.uleb128 0x11
 5801 0146 01       		.uleb128 0x1
 5802 0147 12       		.uleb128 0x12
 5803 0148 06       		.uleb128 0x6
 5804 0149 40       		.uleb128 0x40
 5805 014a 18       		.uleb128 0x18
 5806 014b 9742     		.uleb128 0x2117
 5807 014d 19       		.uleb128 0x19
 5808 014e 00       		.byte	0
 5809 014f 00       		.byte	0
 5810 0150 14       		.uleb128 0x14
 5811 0151 0F       		.uleb128 0xf
 5812 0152 00       		.byte	0
 5813 0153 0B       		.uleb128 0xb
ARM GAS  C:\Users\glenn\AppData\Local\Temp\ccPIHEU1.s 			page 148


 5814 0154 0B       		.uleb128 0xb
 5815 0155 49       		.uleb128 0x49
 5816 0156 13       		.uleb128 0x13
 5817 0157 00       		.byte	0
 5818 0158 00       		.byte	0
 5819 0159 15       		.uleb128 0x15
 5820 015a 05       		.uleb128 0x5
 5821 015b 00       		.byte	0
 5822 015c 03       		.uleb128 0x3
 5823 015d 0E       		.uleb128 0xe
 5824 015e 3A       		.uleb128 0x3a
 5825 015f 0B       		.uleb128 0xb
 5826 0160 3B       		.uleb128 0x3b
 5827 0161 05       		.uleb128 0x5
 5828 0162 49       		.uleb128 0x49
 5829 0163 13       		.uleb128 0x13
 5830 0164 02       		.uleb128 0x2
 5831 0165 18       		.uleb128 0x18
 5832 0166 00       		.byte	0
 5833 0167 00       		.byte	0
 5834 0168 16       		.uleb128 0x16
 5835 0169 26       		.uleb128 0x26
 5836 016a 00       		.byte	0
 5837 016b 49       		.uleb128 0x49
 5838 016c 13       		.uleb128 0x13
 5839 016d 00       		.byte	0
 5840 016e 00       		.byte	0
 5841 016f 17       		.uleb128 0x17
 5842 0170 2E       		.uleb128 0x2e
 5843 0171 01       		.byte	0x1
 5844 0172 3F       		.uleb128 0x3f
 5845 0173 19       		.uleb128 0x19
 5846 0174 03       		.uleb128 0x3
 5847 0175 0E       		.uleb128 0xe
 5848 0176 3A       		.uleb128 0x3a
 5849 0177 0B       		.uleb128 0xb
 5850 0178 3B       		.uleb128 0x3b
 5851 0179 05       		.uleb128 0x5
 5852 017a 27       		.uleb128 0x27
 5853 017b 19       		.uleb128 0x19
 5854 017c 11       		.uleb128 0x11
 5855 017d 01       		.uleb128 0x1
 5856 017e 12       		.uleb128 0x12
 5857 017f 06       		.uleb128 0x6
 5858 0180 40       		.uleb128 0x40
 5859 0181 18       		.uleb128 0x18
 5860 0182 9742     		.uleb128 0x2117
 5861 0184 19       		.uleb128 0x19
 5862 0185 01       		.uleb128 0x1
 5863 0186 13       		.uleb128 0x13
 5864 0187 00       		.byte	0
 5865 0188 00       		.byte	0
 5866 0189 18       		.uleb128 0x18
 5867 018a 2E       		.uleb128 0x2e
 5868 018b 01       		.byte	0x1
 5869 018c 3F       		.uleb128 0x3f
 5870 018d 19       		.uleb128 0x19
ARM GAS  C:\Users\glenn\AppData\Local\Temp\ccPIHEU1.s 			page 149


 5871 018e 03       		.uleb128 0x3
 5872 018f 0E       		.uleb128 0xe
 5873 0190 3A       		.uleb128 0x3a
 5874 0191 0B       		.uleb128 0xb
 5875 0192 3B       		.uleb128 0x3b
 5876 0193 05       		.uleb128 0x5
 5877 0194 27       		.uleb128 0x27
 5878 0195 19       		.uleb128 0x19
 5879 0196 49       		.uleb128 0x49
 5880 0197 13       		.uleb128 0x13
 5881 0198 11       		.uleb128 0x11
 5882 0199 01       		.uleb128 0x1
 5883 019a 12       		.uleb128 0x12
 5884 019b 06       		.uleb128 0x6
 5885 019c 40       		.uleb128 0x40
 5886 019d 18       		.uleb128 0x18
 5887 019e 9742     		.uleb128 0x2117
 5888 01a0 19       		.uleb128 0x19
 5889 01a1 01       		.uleb128 0x1
 5890 01a2 13       		.uleb128 0x13
 5891 01a3 00       		.byte	0
 5892 01a4 00       		.byte	0
 5893 01a5 19       		.uleb128 0x19
 5894 01a6 2E       		.uleb128 0x2e
 5895 01a7 01       		.byte	0x1
 5896 01a8 03       		.uleb128 0x3
 5897 01a9 0E       		.uleb128 0xe
 5898 01aa 3A       		.uleb128 0x3a
 5899 01ab 0B       		.uleb128 0xb
 5900 01ac 3B       		.uleb128 0x3b
 5901 01ad 05       		.uleb128 0x5
 5902 01ae 27       		.uleb128 0x27
 5903 01af 19       		.uleb128 0x19
 5904 01b0 49       		.uleb128 0x49
 5905 01b1 13       		.uleb128 0x13
 5906 01b2 11       		.uleb128 0x11
 5907 01b3 01       		.uleb128 0x1
 5908 01b4 12       		.uleb128 0x12
 5909 01b5 06       		.uleb128 0x6
 5910 01b6 40       		.uleb128 0x40
 5911 01b7 18       		.uleb128 0x18
 5912 01b8 9742     		.uleb128 0x2117
 5913 01ba 19       		.uleb128 0x19
 5914 01bb 01       		.uleb128 0x1
 5915 01bc 13       		.uleb128 0x13
 5916 01bd 00       		.byte	0
 5917 01be 00       		.byte	0
 5918 01bf 1A       		.uleb128 0x1a
 5919 01c0 01       		.uleb128 0x1
 5920 01c1 01       		.byte	0x1
 5921 01c2 49       		.uleb128 0x49
 5922 01c3 13       		.uleb128 0x13
 5923 01c4 01       		.uleb128 0x1
 5924 01c5 13       		.uleb128 0x13
 5925 01c6 00       		.byte	0
 5926 01c7 00       		.byte	0
 5927 01c8 1B       		.uleb128 0x1b
ARM GAS  C:\Users\glenn\AppData\Local\Temp\ccPIHEU1.s 			page 150


 5928 01c9 21       		.uleb128 0x21
 5929 01ca 00       		.byte	0
 5930 01cb 49       		.uleb128 0x49
 5931 01cc 13       		.uleb128 0x13
 5932 01cd 2F       		.uleb128 0x2f
 5933 01ce 0B       		.uleb128 0xb
 5934 01cf 00       		.byte	0
 5935 01d0 00       		.byte	0
 5936 01d1 1C       		.uleb128 0x1c
 5937 01d2 2E       		.uleb128 0x2e
 5938 01d3 01       		.byte	0x1
 5939 01d4 03       		.uleb128 0x3
 5940 01d5 0E       		.uleb128 0xe
 5941 01d6 3A       		.uleb128 0x3a
 5942 01d7 0B       		.uleb128 0xb
 5943 01d8 3B       		.uleb128 0x3b
 5944 01d9 05       		.uleb128 0x5
 5945 01da 27       		.uleb128 0x27
 5946 01db 19       		.uleb128 0x19
 5947 01dc 11       		.uleb128 0x11
 5948 01dd 01       		.uleb128 0x1
 5949 01de 12       		.uleb128 0x12
 5950 01df 06       		.uleb128 0x6
 5951 01e0 40       		.uleb128 0x40
 5952 01e1 18       		.uleb128 0x18
 5953 01e2 9642     		.uleb128 0x2116
 5954 01e4 19       		.uleb128 0x19
 5955 01e5 01       		.uleb128 0x1
 5956 01e6 13       		.uleb128 0x13
 5957 01e7 00       		.byte	0
 5958 01e8 00       		.byte	0
 5959 01e9 1D       		.uleb128 0x1d
 5960 01ea 34       		.uleb128 0x34
 5961 01eb 00       		.byte	0
 5962 01ec 03       		.uleb128 0x3
 5963 01ed 0E       		.uleb128 0xe
 5964 01ee 3A       		.uleb128 0x3a
 5965 01ef 0B       		.uleb128 0xb
 5966 01f0 3B       		.uleb128 0x3b
 5967 01f1 0B       		.uleb128 0xb
 5968 01f2 49       		.uleb128 0x49
 5969 01f3 13       		.uleb128 0x13
 5970 01f4 3F       		.uleb128 0x3f
 5971 01f5 19       		.uleb128 0x19
 5972 01f6 02       		.uleb128 0x2
 5973 01f7 18       		.uleb128 0x18
 5974 01f8 00       		.byte	0
 5975 01f9 00       		.byte	0
 5976 01fa 00       		.byte	0
 5977              		.section	.debug_aranges,"",%progbits
 5978 0000 C4010000 		.4byte	0x1c4
 5979 0004 0200     		.2byte	0x2
 5980 0006 00000000 		.4byte	.Ldebug_info0
 5981 000a 04       		.byte	0x4
 5982 000b 00       		.byte	0
 5983 000c 0000     		.2byte	0
 5984 000e 0000     		.2byte	0
ARM GAS  C:\Users\glenn\AppData\Local\Temp\ccPIHEU1.s 			page 151


 5985 0010 00000000 		.4byte	.LFB0
 5986 0014 20000000 		.4byte	.LFE0-.LFB0
 5987 0018 00000000 		.4byte	.LFB1
 5988 001c 3C000000 		.4byte	.LFE1-.LFB1
 5989 0020 00000000 		.4byte	.LFB2
 5990 0024 18000000 		.4byte	.LFE2-.LFB2
 5991 0028 00000000 		.4byte	.LFB3
 5992 002c 18000000 		.4byte	.LFE3-.LFB3
 5993 0030 00000000 		.4byte	.LFB4
 5994 0034 F8000000 		.4byte	.LFE4-.LFB4
 5995 0038 00000000 		.4byte	.LFB5
 5996 003c 28000000 		.4byte	.LFE5-.LFB5
 5997 0040 00000000 		.4byte	.LFB6
 5998 0044 3C000000 		.4byte	.LFE6-.LFB6
 5999 0048 00000000 		.4byte	.LFB7
 6000 004c 14000000 		.4byte	.LFE7-.LFB7
 6001 0050 00000000 		.4byte	.LFB8
 6002 0054 58000000 		.4byte	.LFE8-.LFB8
 6003 0058 00000000 		.4byte	.LFB9
 6004 005c 20000000 		.4byte	.LFE9-.LFB9
 6005 0060 00000000 		.4byte	.LFB10
 6006 0064 20000000 		.4byte	.LFE10-.LFB10
 6007 0068 00000000 		.4byte	.LFB11
 6008 006c 20000000 		.4byte	.LFE11-.LFB11
 6009 0070 00000000 		.4byte	.LFB12
 6010 0074 20000000 		.4byte	.LFE12-.LFB12
 6011 0078 00000000 		.4byte	.LFB13
 6012 007c 20000000 		.4byte	.LFE13-.LFB13
 6013 0080 00000000 		.4byte	.LFB14
 6014 0084 20000000 		.4byte	.LFE14-.LFB14
 6015 0088 00000000 		.4byte	.LFB15
 6016 008c 58000000 		.4byte	.LFE15-.LFB15
 6017 0090 00000000 		.4byte	.LFB16
 6018 0094 58000000 		.4byte	.LFE16-.LFB16
 6019 0098 00000000 		.4byte	.LFB17
 6020 009c 58000000 		.4byte	.LFE17-.LFB17
 6021 00a0 00000000 		.4byte	.LFB18
 6022 00a4 58000000 		.4byte	.LFE18-.LFB18
 6023 00a8 00000000 		.4byte	.LFB19
 6024 00ac 58000000 		.4byte	.LFE19-.LFB19
 6025 00b0 00000000 		.4byte	.LFB20
 6026 00b4 58000000 		.4byte	.LFE20-.LFB20
 6027 00b8 00000000 		.4byte	.LFB21
 6028 00bc 58000000 		.4byte	.LFE21-.LFB21
 6029 00c0 00000000 		.4byte	.LFB22
 6030 00c4 58000000 		.4byte	.LFE22-.LFB22
 6031 00c8 00000000 		.4byte	.LFB23
 6032 00cc 18000000 		.4byte	.LFE23-.LFB23
 6033 00d0 00000000 		.4byte	.LFB24
 6034 00d4 18000000 		.4byte	.LFE24-.LFB24
 6035 00d8 00000000 		.4byte	.LFB25
 6036 00dc 18000000 		.4byte	.LFE25-.LFB25
 6037 00e0 00000000 		.4byte	.LFB26
 6038 00e4 18000000 		.4byte	.LFE26-.LFB26
 6039 00e8 00000000 		.4byte	.LFB27
 6040 00ec 18000000 		.4byte	.LFE27-.LFB27
 6041 00f0 00000000 		.4byte	.LFB28
ARM GAS  C:\Users\glenn\AppData\Local\Temp\ccPIHEU1.s 			page 152


 6042 00f4 18000000 		.4byte	.LFE28-.LFB28
 6043 00f8 00000000 		.4byte	.LFB29
 6044 00fc 18000000 		.4byte	.LFE29-.LFB29
 6045 0100 00000000 		.4byte	.LFB30
 6046 0104 18000000 		.4byte	.LFE30-.LFB30
 6047 0108 00000000 		.4byte	.LFB31
 6048 010c 18000000 		.4byte	.LFE31-.LFB31
 6049 0110 00000000 		.4byte	.LFB32
 6050 0114 18000000 		.4byte	.LFE32-.LFB32
 6051 0118 00000000 		.4byte	.LFB33
 6052 011c 18000000 		.4byte	.LFE33-.LFB33
 6053 0120 00000000 		.4byte	.LFB34
 6054 0124 18000000 		.4byte	.LFE34-.LFB34
 6055 0128 00000000 		.4byte	.LFB35
 6056 012c 18000000 		.4byte	.LFE35-.LFB35
 6057 0130 00000000 		.4byte	.LFB36
 6058 0134 18000000 		.4byte	.LFE36-.LFB36
 6059 0138 00000000 		.4byte	.LFB37
 6060 013c 20000000 		.4byte	.LFE37-.LFB37
 6061 0140 00000000 		.4byte	.LFB38
 6062 0144 20000000 		.4byte	.LFE38-.LFB38
 6063 0148 00000000 		.4byte	.LFB39
 6064 014c 30000000 		.4byte	.LFE39-.LFB39
 6065 0150 00000000 		.4byte	.LFB40
 6066 0154 88000000 		.4byte	.LFE40-.LFB40
 6067 0158 00000000 		.4byte	.LFB41
 6068 015c 100A0000 		.4byte	.LFE41-.LFB41
 6069 0160 00000000 		.4byte	.LFB42
 6070 0164 28000000 		.4byte	.LFE42-.LFB42
 6071 0168 00000000 		.4byte	.LFB43
 6072 016c 20000000 		.4byte	.LFE43-.LFB43
 6073 0170 00000000 		.4byte	.LFB44
 6074 0174 20000000 		.4byte	.LFE44-.LFB44
 6075 0178 00000000 		.4byte	.LFB45
 6076 017c 20000000 		.4byte	.LFE45-.LFB45
 6077 0180 00000000 		.4byte	.LFB46
 6078 0184 30000000 		.4byte	.LFE46-.LFB46
 6079 0188 00000000 		.4byte	.LFB47
 6080 018c 30000000 		.4byte	.LFE47-.LFB47
 6081 0190 00000000 		.4byte	.LFB48
 6082 0194 20000000 		.4byte	.LFE48-.LFB48
 6083 0198 00000000 		.4byte	.LFB49
 6084 019c 20000000 		.4byte	.LFE49-.LFB49
 6085 01a0 00000000 		.4byte	.LFB50
 6086 01a4 20000000 		.4byte	.LFE50-.LFB50
 6087 01a8 00000000 		.4byte	.LFB51
 6088 01ac 30000000 		.4byte	.LFE51-.LFB51
 6089 01b0 00000000 		.4byte	.LFB52
 6090 01b4 30000000 		.4byte	.LFE52-.LFB52
 6091 01b8 00000000 		.4byte	.LFB53
 6092 01bc 20000000 		.4byte	.LFE53-.LFB53
 6093 01c0 00000000 		.4byte	0
 6094 01c4 00000000 		.4byte	0
 6095              		.section	.debug_ranges,"",%progbits
 6096              	.Ldebug_ranges0:
 6097 0000 00000000 		.4byte	.LFB0
 6098 0004 20000000 		.4byte	.LFE0
ARM GAS  C:\Users\glenn\AppData\Local\Temp\ccPIHEU1.s 			page 153


 6099 0008 00000000 		.4byte	.LFB1
 6100 000c 3C000000 		.4byte	.LFE1
 6101 0010 00000000 		.4byte	.LFB2
 6102 0014 18000000 		.4byte	.LFE2
 6103 0018 00000000 		.4byte	.LFB3
 6104 001c 18000000 		.4byte	.LFE3
 6105 0020 00000000 		.4byte	.LFB4
 6106 0024 F8000000 		.4byte	.LFE4
 6107 0028 00000000 		.4byte	.LFB5
 6108 002c 28000000 		.4byte	.LFE5
 6109 0030 00000000 		.4byte	.LFB6
 6110 0034 3C000000 		.4byte	.LFE6
 6111 0038 00000000 		.4byte	.LFB7
 6112 003c 14000000 		.4byte	.LFE7
 6113 0040 00000000 		.4byte	.LFB8
 6114 0044 58000000 		.4byte	.LFE8
 6115 0048 00000000 		.4byte	.LFB9
 6116 004c 20000000 		.4byte	.LFE9
 6117 0050 00000000 		.4byte	.LFB10
 6118 0054 20000000 		.4byte	.LFE10
 6119 0058 00000000 		.4byte	.LFB11
 6120 005c 20000000 		.4byte	.LFE11
 6121 0060 00000000 		.4byte	.LFB12
 6122 0064 20000000 		.4byte	.LFE12
 6123 0068 00000000 		.4byte	.LFB13
 6124 006c 20000000 		.4byte	.LFE13
 6125 0070 00000000 		.4byte	.LFB14
 6126 0074 20000000 		.4byte	.LFE14
 6127 0078 00000000 		.4byte	.LFB15
 6128 007c 58000000 		.4byte	.LFE15
 6129 0080 00000000 		.4byte	.LFB16
 6130 0084 58000000 		.4byte	.LFE16
 6131 0088 00000000 		.4byte	.LFB17
 6132 008c 58000000 		.4byte	.LFE17
 6133 0090 00000000 		.4byte	.LFB18
 6134 0094 58000000 		.4byte	.LFE18
 6135 0098 00000000 		.4byte	.LFB19
 6136 009c 58000000 		.4byte	.LFE19
 6137 00a0 00000000 		.4byte	.LFB20
 6138 00a4 58000000 		.4byte	.LFE20
 6139 00a8 00000000 		.4byte	.LFB21
 6140 00ac 58000000 		.4byte	.LFE21
 6141 00b0 00000000 		.4byte	.LFB22
 6142 00b4 58000000 		.4byte	.LFE22
 6143 00b8 00000000 		.4byte	.LFB23
 6144 00bc 18000000 		.4byte	.LFE23
 6145 00c0 00000000 		.4byte	.LFB24
 6146 00c4 18000000 		.4byte	.LFE24
 6147 00c8 00000000 		.4byte	.LFB25
 6148 00cc 18000000 		.4byte	.LFE25
 6149 00d0 00000000 		.4byte	.LFB26
 6150 00d4 18000000 		.4byte	.LFE26
 6151 00d8 00000000 		.4byte	.LFB27
 6152 00dc 18000000 		.4byte	.LFE27
 6153 00e0 00000000 		.4byte	.LFB28
 6154 00e4 18000000 		.4byte	.LFE28
 6155 00e8 00000000 		.4byte	.LFB29
ARM GAS  C:\Users\glenn\AppData\Local\Temp\ccPIHEU1.s 			page 154


 6156 00ec 18000000 		.4byte	.LFE29
 6157 00f0 00000000 		.4byte	.LFB30
 6158 00f4 18000000 		.4byte	.LFE30
 6159 00f8 00000000 		.4byte	.LFB31
 6160 00fc 18000000 		.4byte	.LFE31
 6161 0100 00000000 		.4byte	.LFB32
 6162 0104 18000000 		.4byte	.LFE32
 6163 0108 00000000 		.4byte	.LFB33
 6164 010c 18000000 		.4byte	.LFE33
 6165 0110 00000000 		.4byte	.LFB34
 6166 0114 18000000 		.4byte	.LFE34
 6167 0118 00000000 		.4byte	.LFB35
 6168 011c 18000000 		.4byte	.LFE35
 6169 0120 00000000 		.4byte	.LFB36
 6170 0124 18000000 		.4byte	.LFE36
 6171 0128 00000000 		.4byte	.LFB37
 6172 012c 20000000 		.4byte	.LFE37
 6173 0130 00000000 		.4byte	.LFB38
 6174 0134 20000000 		.4byte	.LFE38
 6175 0138 00000000 		.4byte	.LFB39
 6176 013c 30000000 		.4byte	.LFE39
 6177 0140 00000000 		.4byte	.LFB40
 6178 0144 88000000 		.4byte	.LFE40
 6179 0148 00000000 		.4byte	.LFB41
 6180 014c 100A0000 		.4byte	.LFE41
 6181 0150 00000000 		.4byte	.LFB42
 6182 0154 28000000 		.4byte	.LFE42
 6183 0158 00000000 		.4byte	.LFB43
 6184 015c 20000000 		.4byte	.LFE43
 6185 0160 00000000 		.4byte	.LFB44
 6186 0164 20000000 		.4byte	.LFE44
 6187 0168 00000000 		.4byte	.LFB45
 6188 016c 20000000 		.4byte	.LFE45
 6189 0170 00000000 		.4byte	.LFB46
 6190 0174 30000000 		.4byte	.LFE46
 6191 0178 00000000 		.4byte	.LFB47
 6192 017c 30000000 		.4byte	.LFE47
 6193 0180 00000000 		.4byte	.LFB48
 6194 0184 20000000 		.4byte	.LFE48
 6195 0188 00000000 		.4byte	.LFB49
 6196 018c 20000000 		.4byte	.LFE49
 6197 0190 00000000 		.4byte	.LFB50
 6198 0194 20000000 		.4byte	.LFE50
 6199 0198 00000000 		.4byte	.LFB51
 6200 019c 30000000 		.4byte	.LFE51
 6201 01a0 00000000 		.4byte	.LFB52
 6202 01a4 30000000 		.4byte	.LFE52
 6203 01a8 00000000 		.4byte	.LFB53
 6204 01ac 20000000 		.4byte	.LFE53
 6205 01b0 00000000 		.4byte	0
 6206 01b4 00000000 		.4byte	0
 6207              		.section	.debug_line,"",%progbits
 6208              	.Ldebug_line0:
 6209 0000 6A050000 		.section	.debug_str,"MS",%progbits,1
 6209      02004F00 
 6209      00000201 
 6209      FB0E0D00 
ARM GAS  C:\Users\glenn\AppData\Local\Temp\ccPIHEU1.s 			page 155


 6209      01010101 
 6210              	.LASF10:
 6211 0000 75696E74 		.ascii	"uint16\000"
 6211      313600
 6212              	.LASF78:
 6213 0007 5254435F 		.ascii	"RTC_1_monthTemplate\000"
 6213      315F6D6F 
 6213      6E746854 
 6213      656D706C 
 6213      61746500 
 6214              	.LASF34:
 6215 001b 5254435F 		.ascii	"RTC_1_Stop\000"
 6215      315F5374 
 6215      6F7000
 6216              	.LASF65:
 6217 0026 5254435F 		.ascii	"RTC_1_ReadYear\000"
 6217      315F5265 
 6217      61645965 
 6217      617200
 6218              	.LASF96:
 6219 0035 5254435F 		.ascii	"RTC_1_initVar\000"
 6219      315F696E 
 6219      69745661 
 6219      7200
 6220              	.LASF111:
 6221 0043 2E5C4765 		.ascii	".\\Generated_Source\\PSoC5\\RTC_1.c\000"
 6221      6E657261 
 6221      7465645F 
 6221      536F7572 
 6221      63655C50 
 6222              	.LASF48:
 6223 0064 5254435F 		.ascii	"RTC_1_WriteYear\000"
 6223      315F5772 
 6223      69746559 
 6223      65617200 
 6224              	.LASF72:
 6225 0074 5254435F 		.ascii	"RTC_1_ReadAlarmDayOfWeek\000"
 6225      315F5265 
 6225      6164416C 
 6225      61726D44 
 6225      61794F66 
 6226              	.LASF7:
 6227 008d 6C6F6E67 		.ascii	"long long unsigned int\000"
 6227      206C6F6E 
 6227      6720756E 
 6227      7369676E 
 6227      65642069 
 6228              	.LASF17:
 6229 00a4 486F7572 		.ascii	"Hour\000"
 6229      00
 6230              	.LASF76:
 6231 00a9 5254435F 		.ascii	"RTC_1_WriteIntervalMask\000"
 6231      315F5772 
 6231      69746549 
 6231      6E746572 
 6231      76616C4D 
 6232              	.LASF57:
ARM GAS  C:\Users\glenn\AppData\Local\Temp\ccPIHEU1.s 			page 156


 6233 00c1 5254435F 		.ascii	"RTC_1_WriteAlarmDayOfYear\000"
 6233      315F5772 
 6233      69746541 
 6233      6C61726D 
 6233      4461794F 
 6234              	.LASF63:
 6235 00db 5254435F 		.ascii	"RTC_1_ReadDayOfMonth\000"
 6235      315F5265 
 6235      61644461 
 6235      794F664D 
 6235      6F6E7468 
 6236              	.LASF24:
 6237 00f0 5765656B 		.ascii	"Week\000"
 6237      00
 6238              	.LASF6:
 6239 00f5 6C6F6E67 		.ascii	"long long int\000"
 6239      206C6F6E 
 6239      6720696E 
 6239      7400
 6240              	.LASF0:
 6241 0103 7369676E 		.ascii	"signed char\000"
 6241      65642063 
 6241      68617200 
 6242              	.LASF56:
 6243 010f 5254435F 		.ascii	"RTC_1_WriteAlarmDayOfWeek\000"
 6243      315F5772 
 6243      69746541 
 6243      6C61726D 
 6243      4461794F 
 6244              	.LASF67:
 6245 0129 5254435F 		.ascii	"RTC_1_ReadAlarmMinute\000"
 6245      315F5265 
 6245      6164416C 
 6245      61726D4D 
 6245      696E7574 
 6246              	.LASF30:
 6247 013f 696E7465 		.ascii	"interruptState\000"
 6247      72727570 
 6247      74537461 
 6247      746500
 6248              	.LASF104:
 6249 014e 5254435F 		.ascii	"RTC_1_dstStopStatus\000"
 6249      315F6473 
 6249      7453746F 
 6249      70537461 
 6249      74757300 
 6250              	.LASF79:
 6251 0162 5254435F 		.ascii	"RTC_1_DSTDateConversion\000"
 6251      315F4453 
 6251      54446174 
 6251      65436F6E 
 6251      76657273 
 6252              	.LASF39:
 6253 017a 7365636F 		.ascii	"second\000"
 6253      6E6400
 6254              	.LASF49:
 6255 0181 79656172 		.ascii	"year\000"
ARM GAS  C:\Users\glenn\AppData\Local\Temp\ccPIHEU1.s 			page 157


 6255      00
 6256              	.LASF74:
 6257 0186 5254435F 		.ascii	"RTC_1_WriteAlarmMask\000"
 6257      315F5772 
 6257      69746541 
 6257      6C61726D 
 6257      4D61736B 
 6258              	.LASF4:
 6259 019b 6C6F6E67 		.ascii	"long int\000"
 6259      20696E74 
 6259      00
 6260              	.LASF86:
 6261 01a4 5254435F 		.ascii	"RTC_1_WriteDSTStartMonth\000"
 6261      315F5772 
 6261      69746544 
 6261      53545374 
 6261      6172744D 
 6262              	.LASF21:
 6263 01bd 4D6F6E74 		.ascii	"Month\000"
 6263      6800
 6264              	.LASF9:
 6265 01c3 75696E74 		.ascii	"uint8\000"
 6265      3800
 6266              	.LASF90:
 6267 01c9 5254435F 		.ascii	"RTC_1_WriteDSTStopDayOfMonth\000"
 6267      315F5772 
 6267      69746544 
 6267      53545374 
 6267      6F704461 
 6268              	.LASF13:
 6269 01e6 646F7562 		.ascii	"double\000"
 6269      6C6500
 6270              	.LASF11:
 6271 01ed 75696E74 		.ascii	"uint32\000"
 6271      333200
 6272              	.LASF105:
 6273 01f4 5254435F 		.ascii	"RTC_1_alarmCfgMask\000"
 6273      315F616C 
 6273      61726D43 
 6273      66674D61 
 6273      736B00
 6274              	.LASF75:
 6275 0207 6D61736B 		.ascii	"mask\000"
 6275      00
 6276              	.LASF61:
 6277 020c 5254435F 		.ascii	"RTC_1_ReadMinute\000"
 6277      315F5265 
 6277      61644D69 
 6277      6E757465 
 6277      00
 6278              	.LASF51:
 6279 021d 5254435F 		.ascii	"RTC_1_WriteAlarmMinute\000"
 6279      315F5772 
 6279      69746541 
 6279      6C61726D 
 6279      4D696E75 
 6280              	.LASF28:
ARM GAS  C:\Users\glenn\AppData\Local\Temp\ccPIHEU1.s 			page 158


 6281 0234 5254435F 		.ascii	"RTC_1_EnableInt\000"
 6281      315F456E 
 6281      61626C65 
 6281      496E7400 
 6282              	.LASF46:
 6283 0244 5254435F 		.ascii	"RTC_1_WriteMonth\000"
 6283      315F5772 
 6283      6974654D 
 6283      6F6E7468 
 6283      00
 6284              	.LASF83:
 6285 0255 6D6F6465 		.ascii	"mode\000"
 6285      00
 6286              	.LASF47:
 6287 025a 6D6F6E74 		.ascii	"month\000"
 6287      6800
 6288              	.LASF8:
 6289 0260 756E7369 		.ascii	"unsigned int\000"
 6289      676E6564 
 6289      20696E74 
 6289      00
 6290              	.LASF100:
 6291 026d 5254435F 		.ascii	"RTC_1_dstTimeDateStart\000"
 6291      315F6473 
 6291      7454696D 
 6291      65446174 
 6291      65537461 
 6292              	.LASF102:
 6293 0284 5254435F 		.ascii	"RTC_1_dstOffsetMin\000"
 6293      315F6473 
 6293      744F6666 
 6293      7365744D 
 6293      696E00
 6294              	.LASF88:
 6295 0297 5254435F 		.ascii	"RTC_1_WriteDSTStartWeek\000"
 6295      315F5772 
 6295      69746544 
 6295      53545374 
 6295      61727457 
 6296              	.LASF98:
 6297 02af 5254435F 		.ascii	"RTC_1_currentTimeDate\000"
 6297      315F6375 
 6297      7272656E 
 6297      7454696D 
 6297      65446174 
 6298              	.LASF106:
 6299 02c5 5254435F 		.ascii	"RTC_1_alarmCurStatus\000"
 6299      315F616C 
 6299      61726D43 
 6299      75725374 
 6299      61747573 
 6300              	.LASF5:
 6301 02da 6C6F6E67 		.ascii	"long unsigned int\000"
 6301      20756E73 
 6301      69676E65 
 6301      6420696E 
 6301      7400
ARM GAS  C:\Users\glenn\AppData\Local\Temp\ccPIHEU1.s 			page 159


 6302              	.LASF73:
 6303 02ec 5254435F 		.ascii	"RTC_1_ReadAlarmDayOfYear\000"
 6303      315F5265 
 6303      6164416C 
 6303      61726D44 
 6303      61794F66 
 6304              	.LASF107:
 6305 0305 5254435F 		.ascii	"RTC_1_intervalCfgMask\000"
 6305      315F696E 
 6305      74657276 
 6305      616C4366 
 6305      674D6173 
 6306              	.LASF85:
 6307 031b 5254435F 		.ascii	"RTC_1_WriteDSTStartDayOfMonth\000"
 6307      315F5772 
 6307      69746544 
 6307      53545374 
 6307      61727444 
 6308              	.LASF19:
 6309 0339 4461794F 		.ascii	"DayOfMonth\000"
 6309      664D6F6E 
 6309      746800
 6310              	.LASF3:
 6311 0344 73686F72 		.ascii	"short unsigned int\000"
 6311      7420756E 
 6311      7369676E 
 6311      65642069 
 6311      6E7400
 6312              	.LASF22:
 6313 0357 59656172 		.ascii	"Year\000"
 6313      00
 6314              	.LASF64:
 6315 035c 5254435F 		.ascii	"RTC_1_ReadMonth\000"
 6315      315F5265 
 6315      61644D6F 
 6315      6E746800 
 6316              	.LASF40:
 6317 036c 5254435F 		.ascii	"RTC_1_WriteMinute\000"
 6317      315F5772 
 6317      6974654D 
 6317      696E7574 
 6317      6500
 6318              	.LASF59:
 6319 037e 5254435F 		.ascii	"RTC_1_ReadTime\000"
 6319      315F5265 
 6319      61645469 
 6319      6D6500
 6320              	.LASF33:
 6321 038d 5254435F 		.ascii	"RTC_1_Init\000"
 6321      315F496E 
 6321      697400
 6322              	.LASF50:
 6323 0398 5254435F 		.ascii	"RTC_1_WriteAlarmSecond\000"
 6323      315F5772 
 6323      69746541 
 6323      6C61726D 
 6323      5365636F 
ARM GAS  C:\Users\glenn\AppData\Local\Temp\ccPIHEU1.s 			page 160


 6324              	.LASF36:
 6325 03af 5254435F 		.ascii	"RTC_1_WriteTime\000"
 6325      315F5772 
 6325      69746554 
 6325      696D6500 
 6326              	.LASF112:
 6327 03bf 433A5C55 		.ascii	"C:\\Users\\glenn\\OneDrive\\PSOC\\moisture_sensor\\"
 6327      73657273 
 6327      5C676C65 
 6327      6E6E5C4F 
 6327      6E654472 
 6328 03ec 5553425F 		.ascii	"USB_UART01.cydsn\000"
 6328      55415254 
 6328      30312E63 
 6328      7964736E 
 6328      00
 6329              	.LASF113:
 6330 03fd 5254435F 		.ascii	"RTC_1_ReadStatus\000"
 6330      315F5265 
 6330      61645374 
 6330      61747573 
 6330      00
 6331              	.LASF32:
 6332 040e 6461794F 		.ascii	"dayOfWeek\000"
 6332      66576565 
 6332      6B00
 6333              	.LASF92:
 6334 0418 5254435F 		.ascii	"RTC_1_WriteDSTStopDayOfWeek\000"
 6334      315F5772 
 6334      69746544 
 6334      53545374 
 6334      6F704461 
 6335              	.LASF16:
 6336 0434 72656733 		.ascii	"reg32\000"
 6336      3200
 6337              	.LASF66:
 6338 043a 5254435F 		.ascii	"RTC_1_ReadAlarmSecond\000"
 6338      315F5265 
 6338      6164416C 
 6338      61726D53 
 6338      65636F6E 
 6339              	.LASF84:
 6340 0450 5254435F 		.ascii	"RTC_1_WriteDSTStartHour\000"
 6340      315F5772 
 6340      69746544 
 6340      53545374 
 6340      61727448 
 6341              	.LASF52:
 6342 0468 5254435F 		.ascii	"RTC_1_WriteAlarmHour\000"
 6342      315F5772 
 6342      69746541 
 6342      6C61726D 
 6342      486F7572 
 6343              	.LASF103:
 6344 047d 5254435F 		.ascii	"RTC_1_dstStartStatus\000"
 6344      315F6473 
 6344      74537461 
ARM GAS  C:\Users\glenn\AppData\Local\Temp\ccPIHEU1.s 			page 161


 6344      72745374 
 6344      61747573 
 6345              	.LASF70:
 6346 0492 5254435F 		.ascii	"RTC_1_ReadAlarmMonth\000"
 6346      315F5265 
 6346      6164416C 
 6346      61726D4D 
 6346      6F6E7468 
 6347              	.LASF26:
 6348 04a7 73697A65 		.ascii	"sizetype\000"
 6348      74797065 
 6348      00
 6349              	.LASF25:
 6350 04b0 5254435F 		.ascii	"RTC_1_DSTIME\000"
 6350      315F4453 
 6350      54494D45 
 6350      00
 6351              	.LASF97:
 6352 04bd 5254435F 		.ascii	"RTC_1_alarmCfgTimeDate\000"
 6352      315F616C 
 6352      61726D43 
 6352      66675469 
 6352      6D654461 
 6353              	.LASF71:
 6354 04d4 5254435F 		.ascii	"RTC_1_ReadAlarmYear\000"
 6354      315F5265 
 6354      6164416C 
 6354      61726D59 
 6354      65617200 
 6355              	.LASF27:
 6356 04e8 5254435F 		.ascii	"RTC_1_Start\000"
 6356      315F5374 
 6356      61727400 
 6357              	.LASF87:
 6358 04f4 5254435F 		.ascii	"RTC_1_WriteDSTStartDayOfWeek\000"
 6358      315F5772 
 6358      69746544 
 6358      53545374 
 6358      61727444 
 6359              	.LASF38:
 6360 0511 74696D65 		.ascii	"timeDate\000"
 6360      44617465 
 6360      00
 6361              	.LASF110:
 6362 051a 474E5520 		.ascii	"GNU C 4.9.3 20150303 (release) [ARM/embedded-4_9-br"
 6362      4320342E 
 6362      392E3320 
 6362      32303135 
 6362      30333033 
 6363 054d 616E6368 		.ascii	"anch revision 221220] -mcpu=cortex-m3 -mthumb -g -O"
 6363      20726576 
 6363      6973696F 
 6363      6E203232 
 6363      31323230 
 6364 0580 30202D66 		.ascii	"0 -ffunction-sections -ffat-lto-objects\000"
 6364      66756E63 
 6364      74696F6E 
ARM GAS  C:\Users\glenn\AppData\Local\Temp\ccPIHEU1.s 			page 162


 6364      2D736563 
 6364      74696F6E 
 6365              	.LASF80:
 6366 05a8 5254435F 		.ascii	"RTC_1_SetInitValues\000"
 6366      315F5365 
 6366      74496E69 
 6366      7456616C 
 6366      75657300 
 6367              	.LASF108:
 6368 05bc 5254435F 		.ascii	"RTC_1_statusDateTime\000"
 6368      315F7374 
 6368      61747573 
 6368      44617465 
 6368      54696D65 
 6369              	.LASF43:
 6370 05d1 686F7572 		.ascii	"hour\000"
 6370      00
 6371              	.LASF82:
 6372 05d6 5254435F 		.ascii	"RTC_1_WriteDSTMode\000"
 6372      315F5772 
 6372      69746544 
 6372      53544D6F 
 6372      646500
 6373              	.LASF89:
 6374 05e9 5254435F 		.ascii	"RTC_1_WriteDSTStopHour\000"
 6374      315F5772 
 6374      69746544 
 6374      53545374 
 6374      6F70486F 
 6375              	.LASF12:
 6376 0600 666C6F61 		.ascii	"float\000"
 6376      7400
 6377              	.LASF45:
 6378 0606 6461794F 		.ascii	"dayOfMonth\000"
 6378      664D6F6E 
 6378      746800
 6379              	.LASF93:
 6380 0611 5254435F 		.ascii	"RTC_1_WriteDSTStopWeek\000"
 6380      315F5772 
 6380      69746544 
 6380      53545374 
 6380      6F705765 
 6381              	.LASF15:
 6382 0628 72656738 		.ascii	"reg8\000"
 6382      00
 6383              	.LASF68:
 6384 062d 5254435F 		.ascii	"RTC_1_ReadAlarmHour\000"
 6384      315F5265 
 6384      6164416C 
 6384      61726D48 
 6384      6F757200 
 6385              	.LASF1:
 6386 0641 756E7369 		.ascii	"unsigned char\000"
 6386      676E6564 
 6386      20636861 
 6386      7200
 6387              	.LASF2:
ARM GAS  C:\Users\glenn\AppData\Local\Temp\ccPIHEU1.s 			page 163


 6388 064f 73686F72 		.ascii	"short int\000"
 6388      7420696E 
 6388      7400
 6389              	.LASF69:
 6390 0659 5254435F 		.ascii	"RTC_1_ReadAlarmDayOfMonth\000"
 6390      315F5265 
 6390      6164416C 
 6390      61726D44 
 6390      61794F66 
 6391              	.LASF18:
 6392 0673 4461794F 		.ascii	"DayOfWeek\000"
 6392      66576565 
 6392      6B00
 6393              	.LASF62:
 6394 067d 5254435F 		.ascii	"RTC_1_ReadHour\000"
 6394      315F5265 
 6394      6164486F 
 6394      757200
 6395              	.LASF58:
 6396 068c 6461794F 		.ascii	"dayOfYear\000"
 6396      66596561 
 6396      7200
 6397              	.LASF37:
 6398 0696 5254435F 		.ascii	"RTC_1_WriteSecond\000"
 6398      315F5772 
 6398      69746553 
 6398      65636F6E 
 6398      6400
 6399              	.LASF29:
 6400 06a8 5254435F 		.ascii	"RTC_1_DisableInt\000"
 6400      315F4469 
 6400      7361626C 
 6400      65496E74 
 6400      00
 6401              	.LASF14:
 6402 06b9 63686172 		.ascii	"char\000"
 6402      00
 6403              	.LASF60:
 6404 06be 5254435F 		.ascii	"RTC_1_ReadSecond\000"
 6404      315F5265 
 6404      61645365 
 6404      636F6E64 
 6404      00
 6405              	.LASF23:
 6406 06cf 5254435F 		.ascii	"RTC_1_TIME_DATE\000"
 6406      315F5449 
 6406      4D455F44 
 6406      41544500 
 6407              	.LASF94:
 6408 06df 5254435F 		.ascii	"RTC_1_WriteDSTOffset\000"
 6408      315F5772 
 6408      69746544 
 6408      53544F66 
 6408      66736574 
 6409              	.LASF55:
 6410 06f4 5254435F 		.ascii	"RTC_1_WriteAlarmYear\000"
 6410      315F5772 
ARM GAS  C:\Users\glenn\AppData\Local\Temp\ccPIHEU1.s 			page 164


 6410      69746541 
 6410      6C61726D 
 6410      59656172 
 6411              	.LASF35:
 6412 0709 5254435F 		.ascii	"RTC_1_Enable\000"
 6412      315F456E 
 6412      61626C65 
 6412      00
 6413              	.LASF42:
 6414 0716 5254435F 		.ascii	"RTC_1_WriteHour\000"
 6414      315F5772 
 6414      69746548 
 6414      6F757200 
 6415              	.LASF95:
 6416 0726 6F666673 		.ascii	"offset\000"
 6416      657400
 6417              	.LASF114:
 6418 072d 5254435F 		.ascii	"RTC_1_DayOfWeek\000"
 6418      315F4461 
 6418      794F6657 
 6418      65656B00 
 6419              	.LASF44:
 6420 073d 5254435F 		.ascii	"RTC_1_WriteDayOfMonth\000"
 6420      315F5772 
 6420      69746544 
 6420      61794F66 
 6420      4D6F6E74 
 6421              	.LASF99:
 6422 0753 5254435F 		.ascii	"RTC_1_dstModeType\000"
 6422      315F6473 
 6422      744D6F64 
 6422      65547970 
 6422      6500
 6423              	.LASF41:
 6424 0765 6D696E75 		.ascii	"minute\000"
 6424      746500
 6425              	.LASF91:
 6426 076c 5254435F 		.ascii	"RTC_1_WriteDSTStopMonth\000"
 6426      315F5772 
 6426      69746544 
 6426      53545374 
 6426      6F704D6F 
 6427              	.LASF77:
 6428 0784 73746174 		.ascii	"status\000"
 6428      757300
 6429              	.LASF54:
 6430 078b 5254435F 		.ascii	"RTC_1_WriteAlarmMonth\000"
 6430      315F5772 
 6430      69746541 
 6430      6C61726D 
 6430      4D6F6E74 
 6431              	.LASF31:
 6432 07a1 7765656B 		.ascii	"week\000"
 6432      00
 6433              	.LASF101:
 6434 07a6 5254435F 		.ascii	"RTC_1_dstTimeDateStop\000"
 6434      315F6473 
ARM GAS  C:\Users\glenn\AppData\Local\Temp\ccPIHEU1.s 			page 165


 6434      7454696D 
 6434      65446174 
 6434      6553746F 
 6435              	.LASF109:
 6436 07bc 5254435F 		.ascii	"RTC_1_daysInMonths\000"
 6436      315F6461 
 6436      7973496E 
 6436      4D6F6E74 
 6436      687300
 6437              	.LASF81:
 6438 07cf 5254435F 		.ascii	"RTC_1_alarmCfgMaskTemp\000"
 6438      315F616C 
 6438      61726D43 
 6438      66674D61 
 6438      736B5465 
 6439              	.LASF20:
 6440 07e6 4461794F 		.ascii	"DayOfYear\000"
 6440      66596561 
 6440      7200
 6441              	.LASF53:
 6442 07f0 5254435F 		.ascii	"RTC_1_WriteAlarmDayOfMonth\000"
 6442      315F5772 
 6442      69746541 
 6442      6C61726D 
 6442      4461794F 
 6443              		.ident	"GCC: (GNU Tools for ARM Embedded Processors) 4.9.3 20150303 (release) [ARM/embedded-4_9-br
