ARM GAS  C:\Users\glenn\AppData\Local\Temp\ccicPwyE.s 			page 1


   1              		.syntax unified
   2              		.cpu cortex-m3
   3              		.fpu softvfp
   4              		.eabi_attribute 20, 1
   5              		.eabi_attribute 21, 1
   6              		.eabi_attribute 23, 3
   7              		.eabi_attribute 24, 1
   8              		.eabi_attribute 25, 1
   9              		.eabi_attribute 26, 1
  10              		.eabi_attribute 30, 6
  11              		.eabi_attribute 34, 1
  12              		.eabi_attribute 18, 4
  13              		.thumb
  14              		.file	"rtc_functions.c"
  15              		.text
  16              	.Ltext0:
  17              		.cfi_sections	.debug_frame
  18              		.section	.text.init_rtc,"ax",%progbits
  19              		.align	2
  20              		.global	init_rtc
  21              		.thumb
  22              		.thumb_func
  23              		.type	init_rtc, %function
  24              	init_rtc:
  25              	.LFB63:
  26              		.file 1 ".\\rtc_functions\\rtc_functions.c"
   1:.\rtc_functions/rtc_functions.c **** /*
   2:.\rtc_functions/rtc_functions.c **** **
   3:.\rtc_functions/rtc_functions.c **** **
   4:.\rtc_functions/rtc_functions.c **** ** File Name: rtc_functions.c
   5:.\rtc_functions/rtc_functions.c **** **
   6:.\rtc_functions/rtc_functions.c **** **
   7:.\rtc_functions/rtc_functions.c **** */
   8:.\rtc_functions/rtc_functions.c **** 
   9:.\rtc_functions/rtc_functions.c **** #include <device.h>
  10:.\rtc_functions/rtc_functions.c **** #include "rtc_functions.h"
  11:.\rtc_functions/rtc_functions.c **** #include "cf_external_functions.h"
  12:.\rtc_functions/rtc_functions.c **** #include "cf_chain_flow_support.h"
  13:.\rtc_functions/rtc_functions.c **** #include "cf_events.h"
  14:.\rtc_functions/rtc_functions.c **** #define CF_HOUR_TICK           7
  15:.\rtc_functions/rtc_functions.c ****     
  16:.\rtc_functions/rtc_functions.c **** 
  17:.\rtc_functions/rtc_functions.c **** int init_rtc(unsigned link_id, unsigned param_1,
  18:.\rtc_functions/rtc_functions.c ****   unsigned param_2, unsigned param_3, unsigned event, unsigned data)
  19:.\rtc_functions/rtc_functions.c **** {
  27              		.loc 1 19 0
  28              		.cfi_startproc
  29              		@ args = 8, pretend = 0, frame = 16
  30              		@ frame_needed = 1, uses_anonymous_args = 0
  31 0000 80B5     		push	{r7, lr}
  32              		.cfi_def_cfa_offset 8
  33              		.cfi_offset 7, -8
  34              		.cfi_offset 14, -4
  35 0002 84B0     		sub	sp, sp, #16
  36              		.cfi_def_cfa_offset 24
  37 0004 00AF     		add	r7, sp, #0
  38              		.cfi_def_cfa_register 7
ARM GAS  C:\Users\glenn\AppData\Local\Temp\ccicPwyE.s 			page 2


  39 0006 F860     		str	r0, [r7, #12]
  40 0008 B960     		str	r1, [r7, #8]
  41 000a 7A60     		str	r2, [r7, #4]
  42 000c 3B60     		str	r3, [r7]
  20:.\rtc_functions/rtc_functions.c ****     
  21:.\rtc_functions/rtc_functions.c ****     RTC_1_Start();
  43              		.loc 1 21 0
  44 000e FFF7FEFF 		bl	RTC_1_Start
  22:.\rtc_functions/rtc_functions.c ****     RTC_1_EnableInt();
  45              		.loc 1 22 0
  46 0012 FFF7FEFF 		bl	RTC_1_EnableInt
  23:.\rtc_functions/rtc_functions.c ****     RTC_1_WriteIntervalMask(RTC_1_ALARM_SEC_MASK
  47              		.loc 1 23 0
  48 0016 0720     		movs	r0, #7
  49 0018 FFF7FEFF 		bl	RTC_1_WriteIntervalMask
  24:.\rtc_functions/rtc_functions.c ****                             |RTC_1_ALARM_MIN_MASK
  25:.\rtc_functions/rtc_functions.c ****                             |RTC_1_ALARM_HOUR_MASK );
  26:.\rtc_functions/rtc_functions.c ****     
  27:.\rtc_functions/rtc_functions.c ****     return CF_DISABLE;
  50              		.loc 1 27 0
  51 001c 0223     		movs	r3, #2
  28:.\rtc_functions/rtc_functions.c **** }
  52              		.loc 1 28 0
  53 001e 1846     		mov	r0, r3
  54 0020 1037     		adds	r7, r7, #16
  55              		.cfi_def_cfa_offset 8
  56 0022 BD46     		mov	sp, r7
  57              		.cfi_def_cfa_register 13
  58              		@ sp needed
  59 0024 80BD     		pop	{r7, pc}
  60              		.cfi_endproc
  61              	.LFE63:
  62              		.size	init_rtc, .-init_rtc
  63 0026 00BF     		.section	.text.rtc_second_tick,"ax",%progbits
  64              		.align	2
  65              		.global	rtc_second_tick
  66              		.thumb
  67              		.thumb_func
  68              		.type	rtc_second_tick, %function
  69              	rtc_second_tick:
  70              	.LFB64:
  29:.\rtc_functions/rtc_functions.c **** 
  30:.\rtc_functions/rtc_functions.c **** 
  31:.\rtc_functions/rtc_functions.c **** 
  32:.\rtc_functions/rtc_functions.c **** void rtc_second_tick( void )
  33:.\rtc_functions/rtc_functions.c **** {
  71              		.loc 1 33 0
  72              		.cfi_startproc
  73              		@ args = 0, pretend = 0, frame = 0
  74              		@ frame_needed = 1, uses_anonymous_args = 0
  75 0000 80B5     		push	{r7, lr}
  76              		.cfi_def_cfa_offset 8
  77              		.cfi_offset 7, -8
  78              		.cfi_offset 14, -4
  79 0002 00AF     		add	r7, sp, #0
  80              		.cfi_def_cfa_register 7
  34:.\rtc_functions/rtc_functions.c ****     cf_send_interrupt_event( CF_SECOND_TICK, 1);
ARM GAS  C:\Users\glenn\AppData\Local\Temp\ccicPwyE.s 			page 3


  81              		.loc 1 34 0
  82 0004 0520     		movs	r0, #5
  83 0006 0121     		movs	r1, #1
  84 0008 FFF7FEFF 		bl	cf_send_interrupt_event
  35:.\rtc_functions/rtc_functions.c **** }
  85              		.loc 1 35 0
  86 000c 80BD     		pop	{r7, pc}
  87              		.cfi_endproc
  88              	.LFE64:
  89              		.size	rtc_second_tick, .-rtc_second_tick
  90 000e 00BF     		.section	.text.rtc_minute_tick,"ax",%progbits
  91              		.align	2
  92              		.global	rtc_minute_tick
  93              		.thumb
  94              		.thumb_func
  95              		.type	rtc_minute_tick, %function
  96              	rtc_minute_tick:
  97              	.LFB65:
  36:.\rtc_functions/rtc_functions.c **** 
  37:.\rtc_functions/rtc_functions.c **** void rtc_minute_tick( void )
  38:.\rtc_functions/rtc_functions.c **** {
  98              		.loc 1 38 0
  99              		.cfi_startproc
 100              		@ args = 0, pretend = 0, frame = 0
 101              		@ frame_needed = 1, uses_anonymous_args = 0
 102 0000 80B5     		push	{r7, lr}
 103              		.cfi_def_cfa_offset 8
 104              		.cfi_offset 7, -8
 105              		.cfi_offset 14, -4
 106 0002 00AF     		add	r7, sp, #0
 107              		.cfi_def_cfa_register 7
  39:.\rtc_functions/rtc_functions.c ****     cf_send_interrupt_event( CF_MINUTE_TICK, 1);
 108              		.loc 1 39 0
 109 0004 0620     		movs	r0, #6
 110 0006 0121     		movs	r1, #1
 111 0008 FFF7FEFF 		bl	cf_send_interrupt_event
  40:.\rtc_functions/rtc_functions.c **** }
 112              		.loc 1 40 0
 113 000c 80BD     		pop	{r7, pc}
 114              		.cfi_endproc
 115              	.LFE65:
 116              		.size	rtc_minute_tick, .-rtc_minute_tick
 117 000e 00BF     		.section	.text.rtc_hour_tick,"ax",%progbits
 118              		.align	2
 119              		.global	rtc_hour_tick
 120              		.thumb
 121              		.thumb_func
 122              		.type	rtc_hour_tick, %function
 123              	rtc_hour_tick:
 124              	.LFB66:
  41:.\rtc_functions/rtc_functions.c **** 
  42:.\rtc_functions/rtc_functions.c **** void rtc_hour_tick( void )
  43:.\rtc_functions/rtc_functions.c **** {
 125              		.loc 1 43 0
 126              		.cfi_startproc
 127              		@ args = 0, pretend = 0, frame = 0
 128              		@ frame_needed = 1, uses_anonymous_args = 0
ARM GAS  C:\Users\glenn\AppData\Local\Temp\ccicPwyE.s 			page 4


 129 0000 80B5     		push	{r7, lr}
 130              		.cfi_def_cfa_offset 8
 131              		.cfi_offset 7, -8
 132              		.cfi_offset 14, -4
 133 0002 00AF     		add	r7, sp, #0
 134              		.cfi_def_cfa_register 7
  44:.\rtc_functions/rtc_functions.c ****     cf_send_interrupt_event( CF_HOUR_TICK, 1);
 135              		.loc 1 44 0
 136 0004 0720     		movs	r0, #7
 137 0006 0121     		movs	r1, #1
 138 0008 FFF7FEFF 		bl	cf_send_interrupt_event
  45:.\rtc_functions/rtc_functions.c **** }...
 139              		.loc 1 45 0
 140 000c 80BD     		pop	{r7, pc}
 141              		.cfi_endproc
 142              	.LFE66:
 143              		.size	rtc_hour_tick, .-rtc_hour_tick
 144 000e 00BF     		.text
 145              	.Letext0:
 146              		.file 2 "c:\\program files (x86)\\cypress\\psoc creator\\3.3\\psoc creator\\import\\gnu\\arm\\4.9.
 147              		.file 3 "c:\\program files (x86)\\cypress\\psoc creator\\3.3\\psoc creator\\import\\gnu\\arm\\4.9.
 148              		.file 4 "Generated_Source\\PSoC5/core_cm3.h"