ARM GAS  C:\Users\glenn\AppData\Local\Temp\ccPIHEU1.s 			page 1


   1              		.syntax unified
   2              		.cpu cortex-m3
   3              		.fpu softvfp
   4              		.eabi_attribute 20, 1
   5              		.eabi_attribute 21, 1
   6              		.eabi_attribute 23, 3
   7              		.eabi_attribute 24, 1
   8              		.eabi_attribute 25, 1
   9              		.eabi_attribute 26, 1
  10              		.eabi_attribute 30, 6
  11              		.eabi_attribute 34, 1
  12              		.eabi_attribute 18, 4
  13              		.thumb
  14              		.file	"RTC_1.c"
  15              		.text
  16              	.Ltext0:
  17              		.cfi_sections	.debug_frame
  18              		.global	RTC_1_initVar
  19              		.bss
  20              		.type	RTC_1_initVar, %object
  21              		.size	RTC_1_initVar, 1
  22              	RTC_1_initVar:
  23 0000 00       		.space	1
  24              		.global	RTC_1_currentTimeDate
  25              		.data
  26              		.align	2
  27              		.type	RTC_1_currentTimeDate, %object
  28              		.size	RTC_1_currentTimeDate, 12
  29              	RTC_1_currentTimeDate:
  30 0000 00       		.byte	0
  31 0001 00       		.byte	0
  32 0002 00       		.byte	0
  33 0003 01       		.byte	1
  34 0004 01       		.byte	1
  35 0005 00       		.space	1
  36 0006 0100     		.short	1
  37 0008 01       		.byte	1
  38 0009 00       		.space	1
  39 000a 6C07     		.short	1900
  40              		.global	RTC_1_alarmCfgTimeDate
  41              		.align	2
  42              		.type	RTC_1_alarmCfgTimeDate, %object
  43              		.size	RTC_1_alarmCfgTimeDate, 12
  44              	RTC_1_alarmCfgTimeDate:
  45 000c 00       		.byte	0
  46 000d 00       		.byte	0
  47 000e 00       		.byte	0
  48 000f 01       		.byte	1
  49 0010 01       		.byte	1
  50 0011 00       		.space	1
  51 0012 0100     		.short	1
  52 0014 01       		.byte	1
  53 0015 00       		.space	1
  54 0016 6C07     		.short	1900
  55              		.global	RTC_1_dstModeType
  56              		.bss
  57              		.type	RTC_1_dstModeType, %object
ARM GAS  C:\Users\glenn\AppData\Local\Temp\ccPIHEU1.s 			page 2


  58              		.size	RTC_1_dstModeType, 1
  59              	RTC_1_dstModeType:
  60 0001 00       		.space	1
  61              		.global	RTC_1_dstTimeDateStart
  62              		.data
  63              		.align	2
  64              		.type	RTC_1_dstTimeDateStart, %object
  65              		.size	RTC_1_dstTimeDateStart, 5
  66              	RTC_1_dstTimeDateStart:
  67 0018 00       		.byte	0
  68 0019 01       		.byte	1
  69 001a 01       		.byte	1
  70 001b 01       		.byte	1
  71 001c 01       		.byte	1
  72              		.global	RTC_1_dstTimeDateStop
  73 001d 000000   		.align	2
  74              		.type	RTC_1_dstTimeDateStop, %object
  75              		.size	RTC_1_dstTimeDateStop, 5
  76              	RTC_1_dstTimeDateStop:
  77 0020 00       		.byte	0
  78 0021 01       		.byte	1
  79 0022 01       		.byte	1
  80 0023 01       		.byte	1
  81 0024 01       		.byte	1
  82              		.global	RTC_1_dstOffsetMin
  83 0025 000000   		.bss
  84              		.type	RTC_1_dstOffsetMin, %object
  85              		.size	RTC_1_dstOffsetMin, 1
  86              	RTC_1_dstOffsetMin:
  87 0002 00       		.space	1
  88              		.global	RTC_1_dstStartStatus
  89              		.type	RTC_1_dstStartStatus, %object
  90              		.size	RTC_1_dstStartStatus, 1
  91              	RTC_1_dstStartStatus:
  92 0003 00       		.space	1
  93              		.global	RTC_1_dstStopStatus
  94              		.type	RTC_1_dstStopStatus, %object
  95              		.size	RTC_1_dstStopStatus, 1
  96              	RTC_1_dstStopStatus:
  97 0004 00       		.space	1
  98              		.global	RTC_1_alarmCfgMask
  99              		.type	RTC_1_alarmCfgMask, %object
 100              		.size	RTC_1_alarmCfgMask, 1
 101              	RTC_1_alarmCfgMask:
 102 0005 00       		.space	1
 103              		.global	RTC_1_alarmCurStatus
 104              		.type	RTC_1_alarmCurStatus, %object
 105              		.size	RTC_1_alarmCurStatus, 1
 106              	RTC_1_alarmCurStatus:
 107 0006 00       		.space	1
 108              		.global	RTC_1_intervalCfgMask
 109              		.type	RTC_1_intervalCfgMask, %object
 110              		.size	RTC_1_intervalCfgMask, 1
 111              	RTC_1_intervalCfgMask:
 112 0007 00       		.space	1
 113              		.global	RTC_1_statusDateTime
 114              		.type	RTC_1_statusDateTime, %object
ARM GAS  C:\Users\glenn\AppData\Local\Temp\ccPIHEU1.s 			page 3


 115              		.size	RTC_1_statusDateTime, 1
 116              	RTC_1_statusDateTime:
 117 0008 00       		.space	1
 118              		.global	RTC_1_daysInMonths
 119              		.section	.rodata
 120              		.align	2
 121              		.type	RTC_1_daysInMonths, %object
 122              		.size	RTC_1_daysInMonths, 12
 123              	RTC_1_daysInMonths:
 124 0000 1F       		.byte	31
 125 0001 1C       		.byte	28
 126 0002 1F       		.byte	31
 127 0003 1E       		.byte	30
 128 0004 1F       		.byte	31
 129 0005 1E       		.byte	30
 130 0006 1F       		.byte	31
 131 0007 1F       		.byte	31
 132 0008 1E       		.byte	30
 133 0009 1F       		.byte	31
 134 000a 1E       		.byte	30
 135 000b 1F       		.byte	31
 136              		.section	.text.RTC_1_Start,"ax",%progbits
 137              		.align	2
 138              		.global	RTC_1_Start
 139              		.thumb
 140              		.thumb_func
 141              		.type	RTC_1_Start, %function
 142              	RTC_1_Start:
 143              	.LFB0:
 144              		.file 1 ".\\Generated_Source\\PSoC5\\RTC_1.c"
   1:.\Generated_Source\PSoC5/RTC_1.c **** /*******************************************************************************
   2:.\Generated_Source\PSoC5/RTC_1.c **** * File Name: RTC_1.c
   3:.\Generated_Source\PSoC5/RTC_1.c **** * Version 2.0
   4:.\Generated_Source\PSoC5/RTC_1.c **** *
   5:.\Generated_Source\PSoC5/RTC_1.c **** * Description:
   6:.\Generated_Source\PSoC5/RTC_1.c **** *  This file provides the source code to the API for the RTC Component.
   7:.\Generated_Source\PSoC5/RTC_1.c **** *
   8:.\Generated_Source\PSoC5/RTC_1.c **** ********************************************************************************
   9:.\Generated_Source\PSoC5/RTC_1.c **** * Copyright 2008-2013, Cypress Semiconductor Corporation.  All rights reserved.
  10:.\Generated_Source\PSoC5/RTC_1.c **** * You may use this file only in accordance with the license, terms, conditions,
  11:.\Generated_Source\PSoC5/RTC_1.c **** * disclaimers, and limitations in the end user license agreement accompanying
  12:.\Generated_Source\PSoC5/RTC_1.c **** * the software package with which this file was provided.
  13:.\Generated_Source\PSoC5/RTC_1.c **** *******************************************************************************/
  14:.\Generated_Source\PSoC5/RTC_1.c **** 
  15:.\Generated_Source\PSoC5/RTC_1.c **** #include "RTC_1.h"
  16:.\Generated_Source\PSoC5/RTC_1.c **** #include "CyLib.h"
  17:.\Generated_Source\PSoC5/RTC_1.c **** 
  18:.\Generated_Source\PSoC5/RTC_1.c **** /* Function Prototypes */
  19:.\Generated_Source\PSoC5/RTC_1.c **** static void  RTC_1_SetInitValues(void)     ;
  20:.\Generated_Source\PSoC5/RTC_1.c **** static uint8 RTC_1_DayOfWeek(uint8 dayOfMonth, uint8 month, uint16 year)
  21:.\Generated_Source\PSoC5/RTC_1.c ****                                                       ;
  22:.\Generated_Source\PSoC5/RTC_1.c **** #if (1u == RTC_1_DST_FUNC_ENABLE)
  23:.\Generated_Source\PSoC5/RTC_1.c ****     static void  RTC_1_DSTDateConversion(void) ;
  24:.\Generated_Source\PSoC5/RTC_1.c **** #endif /* 1u == RTC_1_DST_FUNC_ENABLE */
  25:.\Generated_Source\PSoC5/RTC_1.c **** 
  26:.\Generated_Source\PSoC5/RTC_1.c **** 
  27:.\Generated_Source\PSoC5/RTC_1.c **** /* Variables were not initialized */
ARM GAS  C:\Users\glenn\AppData\Local\Temp\ccPIHEU1.s 			page 4


  28:.\Generated_Source\PSoC5/RTC_1.c **** uint8 RTC_1_initVar = 0u;
  29:.\Generated_Source\PSoC5/RTC_1.c **** 
  30:.\Generated_Source\PSoC5/RTC_1.c **** /* Time and date variables
  31:.\Generated_Source\PSoC5/RTC_1.c **** * Initial value are: Second = 0-59, Minute = 0-59, Hour = 0-23, DayOfWeek = 1-7,
  32:.\Generated_Source\PSoC5/RTC_1.c **** * DayOfMonth = 1-31, DayOfYear = 1-366, Month = 1-12, Year = 1900-2200.
  33:.\Generated_Source\PSoC5/RTC_1.c **** */
  34:.\Generated_Source\PSoC5/RTC_1.c **** RTC_1_TIME_DATE RTC_1_currentTimeDate = {0u, 0u, 0u, 1u, 1u, 1u, 1u, 1900u};
  35:.\Generated_Source\PSoC5/RTC_1.c **** 
  36:.\Generated_Source\PSoC5/RTC_1.c **** /* Alarm time and date variables
  37:.\Generated_Source\PSoC5/RTC_1.c **** * Initial value are: Second = 0-59, Minute = 0-59, Hour = 0-23, DayOfWeek = 1-7,
  38:.\Generated_Source\PSoC5/RTC_1.c **** * DayOfMonth = 1-31, DayOfYear = 1-366, Month = 1-12, Year = 1900-2200.
  39:.\Generated_Source\PSoC5/RTC_1.c **** */
  40:.\Generated_Source\PSoC5/RTC_1.c **** RTC_1_TIME_DATE RTC_1_alarmCfgTimeDate = {0u, 0u, 0u, 1u, 1u, 1u, 1u, 1900u};
  41:.\Generated_Source\PSoC5/RTC_1.c **** 
  42:.\Generated_Source\PSoC5/RTC_1.c **** #if (1u == RTC_1_DST_FUNC_ENABLE) /* DST enabled */
  43:.\Generated_Source\PSoC5/RTC_1.c **** 
  44:.\Generated_Source\PSoC5/RTC_1.c ****     /* Define DST format: '0' - fixed, '1' - relative */
  45:.\Generated_Source\PSoC5/RTC_1.c ****     volatile uint8 RTC_1_dstModeType = 0u;
  46:.\Generated_Source\PSoC5/RTC_1.c **** 
  47:.\Generated_Source\PSoC5/RTC_1.c ****     /* Hour 0-23, DayOfWeek 1-7, Week 1-5, DayOfMonth 1-31, Month 1-12 */
  48:.\Generated_Source\PSoC5/RTC_1.c ****     RTC_1_DSTIME RTC_1_dstTimeDateStart = {0u, 1u, 1u, 1u, 1u};
  49:.\Generated_Source\PSoC5/RTC_1.c ****     RTC_1_DSTIME RTC_1_dstTimeDateStop = {0u, 1u, 1u, 1u, 1u};
  50:.\Generated_Source\PSoC5/RTC_1.c **** 
  51:.\Generated_Source\PSoC5/RTC_1.c ****     /* Number of Hours to add/dec to time */
  52:.\Generated_Source\PSoC5/RTC_1.c ****     volatile uint8 RTC_1_dstOffsetMin = 0u;
  53:.\Generated_Source\PSoC5/RTC_1.c ****     volatile uint8 RTC_1_dstStartStatus = 0u;
  54:.\Generated_Source\PSoC5/RTC_1.c ****     volatile uint8 RTC_1_dstStopStatus = 0u;
  55:.\Generated_Source\PSoC5/RTC_1.c **** 
  56:.\Generated_Source\PSoC5/RTC_1.c **** #endif /* 1u == RTC_1_DST_FUNC_ENABLE*/
  57:.\Generated_Source\PSoC5/RTC_1.c **** 
  58:.\Generated_Source\PSoC5/RTC_1.c **** /* Mask Registers */
  59:.\Generated_Source\PSoC5/RTC_1.c **** volatile uint8 RTC_1_alarmCfgMask = 0u;
  60:.\Generated_Source\PSoC5/RTC_1.c **** volatile uint8 RTC_1_alarmCurStatus = 0u;
  61:.\Generated_Source\PSoC5/RTC_1.c **** volatile uint8 RTC_1_intervalCfgMask = 0u;
  62:.\Generated_Source\PSoC5/RTC_1.c **** 
  63:.\Generated_Source\PSoC5/RTC_1.c **** /* Status & Control Variables */
  64:.\Generated_Source\PSoC5/RTC_1.c **** volatile uint8 RTC_1_statusDateTime = 0u;
  65:.\Generated_Source\PSoC5/RTC_1.c **** 
  66:.\Generated_Source\PSoC5/RTC_1.c **** /* Month Day Array - number of days in the months */
  67:.\Generated_Source\PSoC5/RTC_1.c **** const uint8 CYCODE RTC_1_daysInMonths[RTC_1_MONTHS_IN_YEAR] = {
  68:.\Generated_Source\PSoC5/RTC_1.c ****     RTC_1_DAYS_IN_JANUARY,
  69:.\Generated_Source\PSoC5/RTC_1.c ****     RTC_1_DAYS_IN_FEBRUARY,
  70:.\Generated_Source\PSoC5/RTC_1.c ****     RTC_1_DAYS_IN_MARCH,
  71:.\Generated_Source\PSoC5/RTC_1.c ****     RTC_1_DAYS_IN_APRIL,
  72:.\Generated_Source\PSoC5/RTC_1.c ****     RTC_1_DAYS_IN_MAY,
  73:.\Generated_Source\PSoC5/RTC_1.c ****     RTC_1_DAYS_IN_JUNE,
  74:.\Generated_Source\PSoC5/RTC_1.c ****     RTC_1_DAYS_IN_JULY,
  75:.\Generated_Source\PSoC5/RTC_1.c ****     RTC_1_DAYS_IN_AUGUST,
  76:.\Generated_Source\PSoC5/RTC_1.c ****     RTC_1_DAYS_IN_SEPTEMBER,
  77:.\Generated_Source\PSoC5/RTC_1.c ****     RTC_1_DAYS_IN_OCTOBER,
  78:.\Generated_Source\PSoC5/RTC_1.c ****     RTC_1_DAYS_IN_NOVEMBER,
  79:.\Generated_Source\PSoC5/RTC_1.c ****     RTC_1_DAYS_IN_DECEMBER};
  80:.\Generated_Source\PSoC5/RTC_1.c **** 
  81:.\Generated_Source\PSoC5/RTC_1.c **** 
  82:.\Generated_Source\PSoC5/RTC_1.c **** /*******************************************************************************
  83:.\Generated_Source\PSoC5/RTC_1.c **** * Function Name:   RTC_1_Start
  84:.\Generated_Source\PSoC5/RTC_1.c **** ********************************************************************************
ARM GAS  C:\Users\glenn\AppData\Local\Temp\ccPIHEU1.s 			page 5


  85:.\Generated_Source\PSoC5/RTC_1.c **** *
  86:.\Generated_Source\PSoC5/RTC_1.c **** * Summary:
  87:.\Generated_Source\PSoC5/RTC_1.c **** *  Enables RTC component: configures counter, setup interrupts, done all
  88:.\Generated_Source\PSoC5/RTC_1.c **** *  required calculation and starts counter.
  89:.\Generated_Source\PSoC5/RTC_1.c **** *
  90:.\Generated_Source\PSoC5/RTC_1.c **** * Parameters:
  91:.\Generated_Source\PSoC5/RTC_1.c **** *  None.
  92:.\Generated_Source\PSoC5/RTC_1.c **** *
  93:.\Generated_Source\PSoC5/RTC_1.c **** * Return:
  94:.\Generated_Source\PSoC5/RTC_1.c **** *  None.
  95:.\Generated_Source\PSoC5/RTC_1.c **** *
  96:.\Generated_Source\PSoC5/RTC_1.c **** * Global variables:
  97:.\Generated_Source\PSoC5/RTC_1.c **** *  RTC_1_initVar: global variable is used to indicate initial
  98:.\Generated_Source\PSoC5/RTC_1.c **** *  configuration of this component.  The variable is initialized to zero and set
  99:.\Generated_Source\PSoC5/RTC_1.c **** *  to 1 the first time RTC_1_Start() is called. This allows for
 100:.\Generated_Source\PSoC5/RTC_1.c **** *  component initialization without re-initialization in all subsequent calls
 101:.\Generated_Source\PSoC5/RTC_1.c **** *  to the RTC_1_Start() routine.
 102:.\Generated_Source\PSoC5/RTC_1.c **** *
 103:.\Generated_Source\PSoC5/RTC_1.c **** *  RTC_1_currentTimeDate, RTC_1_dstTimeDateStart,
 104:.\Generated_Source\PSoC5/RTC_1.c **** *  RTC_1_dstTimeDateStop, RTC_1_dstTimeDateStart,
 105:.\Generated_Source\PSoC5/RTC_1.c **** *  RTC_1_alarmCfgTimeDate, RTC_1_statusDateTime,
 106:.\Generated_Source\PSoC5/RTC_1.c **** *  RTC_1_dstStartStatus, RTC_1_dstStopStatus,
 107:.\Generated_Source\PSoC5/RTC_1.c **** *  RTC_1_alarmCurStatus: global variables are modified by the
 108:.\Generated_Source\PSoC5/RTC_1.c **** *  functions called from RTC_1_Init().
 109:.\Generated_Source\PSoC5/RTC_1.c **** *
 110:.\Generated_Source\PSoC5/RTC_1.c **** * Reentrant:
 111:.\Generated_Source\PSoC5/RTC_1.c **** *  No.
 112:.\Generated_Source\PSoC5/RTC_1.c **** *
 113:.\Generated_Source\PSoC5/RTC_1.c **** * Side Effects:
 114:.\Generated_Source\PSoC5/RTC_1.c **** *  Enables for the one pulse per second (for the RTC component) and
 115:.\Generated_Source\PSoC5/RTC_1.c **** *  Central Time Wheel (for the Sleep Timer component) signals to wake up device
 116:.\Generated_Source\PSoC5/RTC_1.c **** *  from the low power (Sleep and Alternate Active) modes and leaves them
 117:.\Generated_Source\PSoC5/RTC_1.c **** *  enabled.
 118:.\Generated_Source\PSoC5/RTC_1.c **** *
 119:.\Generated_Source\PSoC5/RTC_1.c **** *  The Power Manager API has the higher priority on resource usage: it is NOT
 120:.\Generated_Source\PSoC5/RTC_1.c **** *  guaranteed that the Sleep Timer's configuration will be the same on exit
 121:.\Generated_Source\PSoC5/RTC_1.c **** *  from the Power Manager APIs as on the entry. To prevent this use the Sleep
 122:.\Generated_Source\PSoC5/RTC_1.c **** *  Timer's Sleep() - to save configuration and stop the component and Wakeup()
 123:.\Generated_Source\PSoC5/RTC_1.c **** *  function to restore configuration and enable the component.
 124:.\Generated_Source\PSoC5/RTC_1.c **** *
 125:.\Generated_Source\PSoC5/RTC_1.c **** *  The Sleep Timer and Real Time Clock (RTC) components could be configured as
 126:.\Generated_Source\PSoC5/RTC_1.c **** *  a wake up source from the low power modes only both at once.
 127:.\Generated_Source\PSoC5/RTC_1.c **** *
 128:.\Generated_Source\PSoC5/RTC_1.c **** *******************************************************************************/
 129:.\Generated_Source\PSoC5/RTC_1.c **** void RTC_1_Start(void) 
 130:.\Generated_Source\PSoC5/RTC_1.c **** {
 145              		.loc 1 130 0
 146              		.cfi_startproc
 147              		@ args = 0, pretend = 0, frame = 0
 148              		@ frame_needed = 1, uses_anonymous_args = 0
 149 0000 80B5     		push	{r7, lr}
 150              		.cfi_def_cfa_offset 8
 151              		.cfi_offset 7, -8
 152              		.cfi_offset 14, -4
 153 0002 00AF     		add	r7, sp, #0
 154              		.cfi_def_cfa_register 7
 131:.\Generated_Source\PSoC5/RTC_1.c ****     /* Execute once in normal flow */
ARM GAS  C:\Users\glenn\AppData\Local\Temp\ccPIHEU1.s 			page 6


 132:.\Generated_Source\PSoC5/RTC_1.c ****     if(0u == RTC_1_initVar)
 155              		.loc 1 132 0
 156 0004 054B     		ldr	r3, .L3
 157 0006 1B78     		ldrb	r3, [r3]	@ zero_extendqisi2
 158 0008 002B     		cmp	r3, #0
 159 000a 04D1     		bne	.L2
 133:.\Generated_Source\PSoC5/RTC_1.c ****     {
 134:.\Generated_Source\PSoC5/RTC_1.c ****         RTC_1_Init();
 160              		.loc 1 134 0
 161 000c FFF7FEFF 		bl	RTC_1_Init
 135:.\Generated_Source\PSoC5/RTC_1.c ****         RTC_1_initVar = 1u;
 162              		.loc 1 135 0
 163 0010 024B     		ldr	r3, .L3
 164 0012 0122     		movs	r2, #1
 165 0014 1A70     		strb	r2, [r3]
 166              	.L2:
 136:.\Generated_Source\PSoC5/RTC_1.c ****     }
 137:.\Generated_Source\PSoC5/RTC_1.c **** 
 138:.\Generated_Source\PSoC5/RTC_1.c ****     /* Enable component's operation */
 139:.\Generated_Source\PSoC5/RTC_1.c ****     RTC_1_Enable();
 167              		.loc 1 139 0
 168 0016 FFF7FEFF 		bl	RTC_1_Enable
 140:.\Generated_Source\PSoC5/RTC_1.c **** }
 169              		.loc 1 140 0
 170 001a 80BD     		pop	{r7, pc}
 171              	.L4:
 172              		.align	2
 173              	.L3:
 174 001c 00000000 		.word	RTC_1_initVar
 175              		.cfi_endproc
 176              	.LFE0:
 177              		.size	RTC_1_Start, .-RTC_1_Start
 178              		.section	.text.RTC_1_Stop,"ax",%progbits
 179              		.align	2
 180              		.global	RTC_1_Stop
 181              		.thumb
 182              		.thumb_func
 183              		.type	RTC_1_Stop, %function
 184              	RTC_1_Stop:
 185              	.LFB1:
 141:.\Generated_Source\PSoC5/RTC_1.c **** 
 142:.\Generated_Source\PSoC5/RTC_1.c **** 
 143:.\Generated_Source\PSoC5/RTC_1.c **** /*******************************************************************************
 144:.\Generated_Source\PSoC5/RTC_1.c **** * Function Name: RTC_1_Stop
 145:.\Generated_Source\PSoC5/RTC_1.c **** ********************************************************************************
 146:.\Generated_Source\PSoC5/RTC_1.c **** *
 147:.\Generated_Source\PSoC5/RTC_1.c **** * Summary:
 148:.\Generated_Source\PSoC5/RTC_1.c **** *  Stops the RTC component.
 149:.\Generated_Source\PSoC5/RTC_1.c **** *
 150:.\Generated_Source\PSoC5/RTC_1.c **** * Parameters:
 151:.\Generated_Source\PSoC5/RTC_1.c **** *  None.
 152:.\Generated_Source\PSoC5/RTC_1.c **** *
 153:.\Generated_Source\PSoC5/RTC_1.c **** * Return:
 154:.\Generated_Source\PSoC5/RTC_1.c **** *  None.
 155:.\Generated_Source\PSoC5/RTC_1.c **** *
 156:.\Generated_Source\PSoC5/RTC_1.c **** * Side Effects:
 157:.\Generated_Source\PSoC5/RTC_1.c **** *  Leaves the one pulse per second (for the RTC component) and the Central Time
ARM GAS  C:\Users\glenn\AppData\Local\Temp\ccPIHEU1.s 			page 7


 158:.\Generated_Source\PSoC5/RTC_1.c **** *  Wheel (for the Sleep Timer component) signals to wake up device from the low
 159:.\Generated_Source\PSoC5/RTC_1.c **** *  power (Sleep and Alternate Active) modes enabled after Sleep Time component
 160:.\Generated_Source\PSoC5/RTC_1.c **** *  is stopped.
 161:.\Generated_Source\PSoC5/RTC_1.c **** *
 162:.\Generated_Source\PSoC5/RTC_1.c **** *******************************************************************************/
 163:.\Generated_Source\PSoC5/RTC_1.c **** void RTC_1_Stop(void) 
 164:.\Generated_Source\PSoC5/RTC_1.c **** {
 186              		.loc 1 164 0
 187              		.cfi_startproc
 188              		@ args = 0, pretend = 0, frame = 8
 189              		@ frame_needed = 1, uses_anonymous_args = 0
 190 0000 80B5     		push	{r7, lr}
 191              		.cfi_def_cfa_offset 8
 192              		.cfi_offset 7, -8
 193              		.cfi_offset 14, -4
 194 0002 82B0     		sub	sp, sp, #8
 195              		.cfi_def_cfa_offset 16
 196 0004 00AF     		add	r7, sp, #0
 197              		.cfi_def_cfa_register 7
 165:.\Generated_Source\PSoC5/RTC_1.c ****     uint8 interruptState;
 166:.\Generated_Source\PSoC5/RTC_1.c **** 
 167:.\Generated_Source\PSoC5/RTC_1.c ****     /* Disable the interrupt. */
 168:.\Generated_Source\PSoC5/RTC_1.c ****     CyIntDisable(RTC_1_ISR_NUMBER);
 198              		.loc 1 168 0
 199 0006 0B4B     		ldr	r3, .L6
 200 0008 0822     		movs	r2, #8
 201 000a 1A60     		str	r2, [r3]
 169:.\Generated_Source\PSoC5/RTC_1.c **** 
 170:.\Generated_Source\PSoC5/RTC_1.c ****     /* Enter critical section */
 171:.\Generated_Source\PSoC5/RTC_1.c ****     interruptState = CyEnterCriticalSection();
 202              		.loc 1 171 0
 203 000c FFF7FEFF 		bl	CyEnterCriticalSection
 204 0010 0346     		mov	r3, r0
 205 0012 FB71     		strb	r3, [r7, #7]
 172:.\Generated_Source\PSoC5/RTC_1.c **** 
 173:.\Generated_Source\PSoC5/RTC_1.c ****     /* Stop one pulse per second counter and interrupt */
 174:.\Generated_Source\PSoC5/RTC_1.c ****     RTC_1_OPPS_CFG_REG &= (uint8)(~(RTC_1_OPPSIE_EN_MASK | RTC_1_OPPS_EN_MASK));
 206              		.loc 1 174 0
 207 0014 084A     		ldr	r2, .L6+4
 208 0016 084B     		ldr	r3, .L6+4
 209 0018 1B78     		ldrb	r3, [r3]
 210 001a DBB2     		uxtb	r3, r3
 211 001c 23F03003 		bic	r3, r3, #48
 212 0020 DBB2     		uxtb	r3, r3
 213 0022 1370     		strb	r3, [r2]
 175:.\Generated_Source\PSoC5/RTC_1.c **** 
 176:.\Generated_Source\PSoC5/RTC_1.c ****     /* Exit critical section */
 177:.\Generated_Source\PSoC5/RTC_1.c ****     CyExitCriticalSection(interruptState);
 214              		.loc 1 177 0
 215 0024 FB79     		ldrb	r3, [r7, #7]	@ zero_extendqisi2
 216 0026 1846     		mov	r0, r3
 217 0028 FFF7FEFF 		bl	CyExitCriticalSection
 178:.\Generated_Source\PSoC5/RTC_1.c **** }
 218              		.loc 1 178 0
 219 002c 0837     		adds	r7, r7, #8
 220              		.cfi_def_cfa_offset 8
 221 002e BD46     		mov	sp, r7
ARM GAS  C:\Users\glenn\AppData\Local\Temp\ccPIHEU1.s 			page 8


 222              		.cfi_def_cfa_register 13
 223              		@ sp needed
 224 0030 80BD     		pop	{r7, pc}
 225              	.L7:
 226 0032 00BF     		.align	2
 227              	.L6:
 228 0034 80E100E0 		.word	-536813184
 229 0038 82430040 		.word	1073759106
 230              		.cfi_endproc
 231              	.LFE1:
 232              		.size	RTC_1_Stop, .-RTC_1_Stop
 233              		.section	.text.RTC_1_EnableInt,"ax",%progbits
 234              		.align	2
 235              		.global	RTC_1_EnableInt
 236              		.thumb
 237              		.thumb_func
 238              		.type	RTC_1_EnableInt, %function
 239              	RTC_1_EnableInt:
 240              	.LFB2:
 179:.\Generated_Source\PSoC5/RTC_1.c **** 
 180:.\Generated_Source\PSoC5/RTC_1.c **** 
 181:.\Generated_Source\PSoC5/RTC_1.c **** /*******************************************************************************
 182:.\Generated_Source\PSoC5/RTC_1.c **** * Function Name:   RTC_1_EnableInt
 183:.\Generated_Source\PSoC5/RTC_1.c **** ********************************************************************************
 184:.\Generated_Source\PSoC5/RTC_1.c **** *
 185:.\Generated_Source\PSoC5/RTC_1.c **** * Summary:
 186:.\Generated_Source\PSoC5/RTC_1.c **** *  Enables interrupts of RTC Component.
 187:.\Generated_Source\PSoC5/RTC_1.c **** *
 188:.\Generated_Source\PSoC5/RTC_1.c **** * Parameters:
 189:.\Generated_Source\PSoC5/RTC_1.c **** *  None.
 190:.\Generated_Source\PSoC5/RTC_1.c **** *
 191:.\Generated_Source\PSoC5/RTC_1.c **** * Return:
 192:.\Generated_Source\PSoC5/RTC_1.c **** *  None.
 193:.\Generated_Source\PSoC5/RTC_1.c **** *
 194:.\Generated_Source\PSoC5/RTC_1.c **** *******************************************************************************/
 195:.\Generated_Source\PSoC5/RTC_1.c **** void RTC_1_EnableInt(void) 
 196:.\Generated_Source\PSoC5/RTC_1.c **** {
 241              		.loc 1 196 0
 242              		.cfi_startproc
 243              		@ args = 0, pretend = 0, frame = 0
 244              		@ frame_needed = 1, uses_anonymous_args = 0
 245              		@ link register save eliminated.
 246 0000 80B4     		push	{r7}
 247              		.cfi_def_cfa_offset 4
 248              		.cfi_offset 7, -4
 249 0002 00AF     		add	r7, sp, #0
 250              		.cfi_def_cfa_register 7
 197:.\Generated_Source\PSoC5/RTC_1.c ****     /* Enable the interrupt */
 198:.\Generated_Source\PSoC5/RTC_1.c ****     CyIntEnable(RTC_1_ISR_NUMBER);
 251              		.loc 1 198 0
 252 0004 034B     		ldr	r3, .L9
 253 0006 0822     		movs	r2, #8
 254 0008 1A60     		str	r2, [r3]
 199:.\Generated_Source\PSoC5/RTC_1.c **** }
 255              		.loc 1 199 0
 256 000a BD46     		mov	sp, r7
 257              		.cfi_def_cfa_register 13
ARM GAS  C:\Users\glenn\AppData\Local\Temp\ccPIHEU1.s 			page 9


 258              		@ sp needed
 259 000c 5DF8047B 		ldr	r7, [sp], #4
 260              		.cfi_restore 7
 261              		.cfi_def_cfa_offset 0
 262 0010 7047     		bx	lr
 263              	.L10:
 264 0012 00BF     		.align	2
 265              	.L9:
 266 0014 00E100E0 		.word	-536813312
 267              		.cfi_endproc
 268              	.LFE2:
 269              		.size	RTC_1_EnableInt, .-RTC_1_EnableInt
 270              		.section	.text.RTC_1_DisableInt,"ax",%progbits
 271              		.align	2
 272              		.global	RTC_1_DisableInt
 273              		.thumb
 274              		.thumb_func
 275              		.type	RTC_1_DisableInt, %function
 276              	RTC_1_DisableInt:
 277              	.LFB3:
 200:.\Generated_Source\PSoC5/RTC_1.c **** 
 201:.\Generated_Source\PSoC5/RTC_1.c **** 
 202:.\Generated_Source\PSoC5/RTC_1.c **** /*******************************************************************************
 203:.\Generated_Source\PSoC5/RTC_1.c **** * Function Name:   RTC_1_DisableInt
 204:.\Generated_Source\PSoC5/RTC_1.c **** ********************************************************************************
 205:.\Generated_Source\PSoC5/RTC_1.c **** *
 206:.\Generated_Source\PSoC5/RTC_1.c **** * Summary:
 207:.\Generated_Source\PSoC5/RTC_1.c **** *  Disables interrupts of RTC Component, time and date stop running.
 208:.\Generated_Source\PSoC5/RTC_1.c **** *
 209:.\Generated_Source\PSoC5/RTC_1.c **** * Parameters:
 210:.\Generated_Source\PSoC5/RTC_1.c **** *  None.
 211:.\Generated_Source\PSoC5/RTC_1.c **** *
 212:.\Generated_Source\PSoC5/RTC_1.c **** * Return:
 213:.\Generated_Source\PSoC5/RTC_1.c **** *  None.
 214:.\Generated_Source\PSoC5/RTC_1.c **** *
 215:.\Generated_Source\PSoC5/RTC_1.c **** *******************************************************************************/
 216:.\Generated_Source\PSoC5/RTC_1.c **** void RTC_1_DisableInt(void) 
 217:.\Generated_Source\PSoC5/RTC_1.c **** {
 278              		.loc 1 217 0
 279              		.cfi_startproc
 280              		@ args = 0, pretend = 0, frame = 0
 281              		@ frame_needed = 1, uses_anonymous_args = 0
 282              		@ link register save eliminated.
 283 0000 80B4     		push	{r7}
 284              		.cfi_def_cfa_offset 4
 285              		.cfi_offset 7, -4
 286 0002 00AF     		add	r7, sp, #0
 287              		.cfi_def_cfa_register 7
 218:.\Generated_Source\PSoC5/RTC_1.c ****     /* Disable the interrupt. */
 219:.\Generated_Source\PSoC5/RTC_1.c ****     CyIntDisable(RTC_1_ISR_NUMBER);
 288              		.loc 1 219 0
 289 0004 034B     		ldr	r3, .L12
 290 0006 0822     		movs	r2, #8
 291 0008 1A60     		str	r2, [r3]
 220:.\Generated_Source\PSoC5/RTC_1.c **** }
 292              		.loc 1 220 0
 293 000a BD46     		mov	sp, r7
ARM GAS  C:\Users\glenn\AppData\Local\Temp\ccPIHEU1.s 			page 10


 294              		.cfi_def_cfa_register 13
 295              		@ sp needed
 296 000c 5DF8047B 		ldr	r7, [sp], #4
 297              		.cfi_restore 7
 298              		.cfi_def_cfa_offset 0
 299 0010 7047     		bx	lr
 300              	.L13:
 301 0012 00BF     		.align	2
 302              	.L12:
 303 0014 80E100E0 		.word	-536813184
 304              		.cfi_endproc
 305              	.LFE3:
 306              		.size	RTC_1_DisableInt, .-RTC_1_DisableInt
 307              		.section	.text.RTC_1_DSTDateConversion,"ax",%progbits
 308              		.align	2
 309              		.thumb
 310              		.thumb_func
 311              		.type	RTC_1_DSTDateConversion, %function
 312              	RTC_1_DSTDateConversion:
 313              	.LFB4:
 221:.\Generated_Source\PSoC5/RTC_1.c **** 
 222:.\Generated_Source\PSoC5/RTC_1.c **** 
 223:.\Generated_Source\PSoC5/RTC_1.c **** #if (1u == RTC_1_DST_FUNC_ENABLE)
 224:.\Generated_Source\PSoC5/RTC_1.c ****     /*******************************************************************************
 225:.\Generated_Source\PSoC5/RTC_1.c ****     * Function Name:   RTC_1_DSTDateConversion
 226:.\Generated_Source\PSoC5/RTC_1.c ****     ********************************************************************************
 227:.\Generated_Source\PSoC5/RTC_1.c ****     *
 228:.\Generated_Source\PSoC5/RTC_1.c ****     * Summary:
 229:.\Generated_Source\PSoC5/RTC_1.c ****     * Converts relative to absolute date.
 230:.\Generated_Source\PSoC5/RTC_1.c ****     *
 231:.\Generated_Source\PSoC5/RTC_1.c ****     * Parameters:
 232:.\Generated_Source\PSoC5/RTC_1.c ****     *  None.
 233:.\Generated_Source\PSoC5/RTC_1.c ****     *
 234:.\Generated_Source\PSoC5/RTC_1.c ****     * Return:
 235:.\Generated_Source\PSoC5/RTC_1.c ****     *  None.
 236:.\Generated_Source\PSoC5/RTC_1.c ****     *
 237:.\Generated_Source\PSoC5/RTC_1.c ****     * Global variables:
 238:.\Generated_Source\PSoC5/RTC_1.c ****     *  RTC_1_dstTimeDateStart.Month,
 239:.\Generated_Source\PSoC5/RTC_1.c ****     *  RTC_1_dstTimeDateStart.DayOfWeek,
 240:.\Generated_Source\PSoC5/RTC_1.c ****     *  RTC_1_dstTimeDateStart.Week,
 241:.\Generated_Source\PSoC5/RTC_1.c ****     *  RTC_1_dstTimeDateStop.Month,
 242:.\Generated_Source\PSoC5/RTC_1.c ****     *  RTC_1_dstTimeDateStop.DayOfWeek,
 243:.\Generated_Source\PSoC5/RTC_1.c ****     *  RTC_1_dstTimeDateStop.Week,
 244:.\Generated_Source\PSoC5/RTC_1.c ****     *  RTC_1_currentTimeDate.Year: these global variables are
 245:.\Generated_Source\PSoC5/RTC_1.c ****     *  used to correct day of week.
 246:.\Generated_Source\PSoC5/RTC_1.c ****     *
 247:.\Generated_Source\PSoC5/RTC_1.c ****     *  RTC_1_dstTimeDateStart.DayOfMonth,
 248:.\Generated_Source\PSoC5/RTC_1.c ****     *  RTC_1_dstTimeDateStop.DayOfMonth: these global variables are
 249:.\Generated_Source\PSoC5/RTC_1.c ****     *  modified after convertion.
 250:.\Generated_Source\PSoC5/RTC_1.c ****     *
 251:.\Generated_Source\PSoC5/RTC_1.c ****     * Reentrant:
 252:.\Generated_Source\PSoC5/RTC_1.c ****     *  No.
 253:.\Generated_Source\PSoC5/RTC_1.c ****     *
 254:.\Generated_Source\PSoC5/RTC_1.c ****     *******************************************************************************/
 255:.\Generated_Source\PSoC5/RTC_1.c ****     static void RTC_1_DSTDateConversion(void) 
 256:.\Generated_Source\PSoC5/RTC_1.c ****     {
 314              		.loc 1 256 0
ARM GAS  C:\Users\glenn\AppData\Local\Temp\ccPIHEU1.s 			page 11


 315              		.cfi_startproc
 316              		@ args = 0, pretend = 0, frame = 8
 317              		@ frame_needed = 1, uses_anonymous_args = 0
 318 0000 80B5     		push	{r7, lr}
 319              		.cfi_def_cfa_offset 8
 320              		.cfi_offset 7, -8
 321              		.cfi_offset 14, -4
 322 0002 82B0     		sub	sp, sp, #8
 323              		.cfi_def_cfa_offset 16
 324 0004 00AF     		add	r7, sp, #0
 325              		.cfi_def_cfa_register 7
 257:.\Generated_Source\PSoC5/RTC_1.c ****         uint8 week = 1u;
 326              		.loc 1 257 0
 327 0006 0123     		movs	r3, #1
 328 0008 FB71     		strb	r3, [r7, #7]
 258:.\Generated_Source\PSoC5/RTC_1.c ****         uint8 day = 1u;
 329              		.loc 1 258 0
 330 000a 0123     		movs	r3, #1
 331 000c BB71     		strb	r3, [r7, #6]
 259:.\Generated_Source\PSoC5/RTC_1.c ****         uint8 dayOfWeek;
 260:.\Generated_Source\PSoC5/RTC_1.c **** 
 261:.\Generated_Source\PSoC5/RTC_1.c ****         /* Get day of week */
 262:.\Generated_Source\PSoC5/RTC_1.c ****         dayOfWeek = RTC_1_DayOfWeek(day, RTC_1_dstTimeDateStart.Month,
 332              		.loc 1 262 0
 333 000e 374B     		ldr	r3, .L23
 334 0010 1B79     		ldrb	r3, [r3, #4]
 335 0012 DAB2     		uxtb	r2, r3
 336 0014 364B     		ldr	r3, .L23+4
 337 0016 5B89     		ldrh	r3, [r3, #10]	@ movhi
 338 0018 9BB2     		uxth	r3, r3
 339 001a B979     		ldrb	r1, [r7, #6]	@ zero_extendqisi2
 340 001c 0846     		mov	r0, r1
 341 001e 1146     		mov	r1, r2
 342 0020 1A46     		mov	r2, r3
 343 0022 FFF7FEFF 		bl	RTC_1_DayOfWeek
 344 0026 0346     		mov	r3, r0
 345 0028 0133     		adds	r3, r3, #1
 346 002a 7B71     		strb	r3, [r7, #5]
 263:.\Generated_Source\PSoC5/RTC_1.c ****                                                     RTC_1_currentTimeDate.Year) + 1u;
 264:.\Generated_Source\PSoC5/RTC_1.c **** 
 265:.\Generated_Source\PSoC5/RTC_1.c ****         #if (0u != RTC_1_START_OF_WEEK)
 266:.\Generated_Source\PSoC5/RTC_1.c ****         /* Normalize day of week if Start of week is not Sunday */
 267:.\Generated_Source\PSoC5/RTC_1.c ****         if(dayOfWeek > RTC_1_START_OF_WEEK)
 268:.\Generated_Source\PSoC5/RTC_1.c ****         {
 269:.\Generated_Source\PSoC5/RTC_1.c ****             #if (6u != RTC_1_START_OF_WEEK)
 270:.\Generated_Source\PSoC5/RTC_1.c ****                 /* Start of week is not Saturday  */
 271:.\Generated_Source\PSoC5/RTC_1.c ****                 dayOfWeek -= RTC_1_START_OF_WEEK;
 272:.\Generated_Source\PSoC5/RTC_1.c ****             #else /* 6u == RTC_1_START_OF_WEEK */
 273:.\Generated_Source\PSoC5/RTC_1.c ****                 /* Start of week is Saturday  */
 274:.\Generated_Source\PSoC5/RTC_1.c ****                 dayOfWeek = 1u; /* Set day of week to Monday */
 275:.\Generated_Source\PSoC5/RTC_1.c ****             #endif /* 6u != RTC_1_START_OF_WEEK */
 276:.\Generated_Source\PSoC5/RTC_1.c ****         }
 277:.\Generated_Source\PSoC5/RTC_1.c ****         else
 278:.\Generated_Source\PSoC5/RTC_1.c ****         {
 279:.\Generated_Source\PSoC5/RTC_1.c ****             #if (1u != RTC_1_START_OF_WEEK)
 280:.\Generated_Source\PSoC5/RTC_1.c ****                 /* Start of week is not Monday  */
 281:.\Generated_Source\PSoC5/RTC_1.c ****                 dayOfWeek = (RTC_1_DAYS_IN_WEEK - RTC_1_START_OF_WEEK) - dayOfWeek;
ARM GAS  C:\Users\glenn\AppData\Local\Temp\ccPIHEU1.s 			page 12


 282:.\Generated_Source\PSoC5/RTC_1.c ****             #else /* 1u == RTC_1_START_OF_WEEK */
 283:.\Generated_Source\PSoC5/RTC_1.c ****                 /* Start of week is Monday  */
 284:.\Generated_Source\PSoC5/RTC_1.c ****                 dayOfWeek = 5u; /* Set day of week to Friday */
 285:.\Generated_Source\PSoC5/RTC_1.c ****             #endif /* 1u != RTC_1_START_OF_WEEK */
 286:.\Generated_Source\PSoC5/RTC_1.c ****         }
 287:.\Generated_Source\PSoC5/RTC_1.c ****         #endif /* 0u != RTC_1_START_OF_WEEK */
 288:.\Generated_Source\PSoC5/RTC_1.c **** 
 289:.\Generated_Source\PSoC5/RTC_1.c ****         /* Correct if out of DST range */
 290:.\Generated_Source\PSoC5/RTC_1.c ****         while(dayOfWeek != RTC_1_dstTimeDateStart.DayOfWeek)
 347              		.loc 1 290 0
 348 002c 0DE0     		b	.L15
 349              	.L16:
 291:.\Generated_Source\PSoC5/RTC_1.c ****         {
 292:.\Generated_Source\PSoC5/RTC_1.c ****             day++;
 350              		.loc 1 292 0
 351 002e BB79     		ldrb	r3, [r7, #6]	@ zero_extendqisi2
 352 0030 0133     		adds	r3, r3, #1
 353 0032 BB71     		strb	r3, [r7, #6]
 293:.\Generated_Source\PSoC5/RTC_1.c ****             dayOfWeek++;
 354              		.loc 1 293 0
 355 0034 7B79     		ldrb	r3, [r7, #5]	@ zero_extendqisi2
 356 0036 0133     		adds	r3, r3, #1
 357 0038 7B71     		strb	r3, [r7, #5]
 294:.\Generated_Source\PSoC5/RTC_1.c ****             if(dayOfWeek > RTC_1_WEEK_ELAPSED)
 358              		.loc 1 294 0
 359 003a 7B79     		ldrb	r3, [r7, #5]	@ zero_extendqisi2
 360 003c 072B     		cmp	r3, #7
 361 003e 04D9     		bls	.L15
 295:.\Generated_Source\PSoC5/RTC_1.c ****             {
 296:.\Generated_Source\PSoC5/RTC_1.c ****                 dayOfWeek = 1u;
 362              		.loc 1 296 0
 363 0040 0123     		movs	r3, #1
 364 0042 7B71     		strb	r3, [r7, #5]
 297:.\Generated_Source\PSoC5/RTC_1.c ****                 week++;
 365              		.loc 1 297 0
 366 0044 FB79     		ldrb	r3, [r7, #7]	@ zero_extendqisi2
 367 0046 0133     		adds	r3, r3, #1
 368 0048 FB71     		strb	r3, [r7, #7]
 369              	.L15:
 290:.\Generated_Source\PSoC5/RTC_1.c ****         {
 370              		.loc 1 290 0
 371 004a 284B     		ldr	r3, .L23
 372 004c 5B78     		ldrb	r3, [r3, #1]
 373 004e DBB2     		uxtb	r3, r3
 374 0050 7A79     		ldrb	r2, [r7, #5]	@ zero_extendqisi2
 375 0052 9A42     		cmp	r2, r3
 376 0054 EBD1     		bne	.L16
 298:.\Generated_Source\PSoC5/RTC_1.c ****             }
 299:.\Generated_Source\PSoC5/RTC_1.c ****         }
 300:.\Generated_Source\PSoC5/RTC_1.c **** 
 301:.\Generated_Source\PSoC5/RTC_1.c ****         while(week != RTC_1_dstTimeDateStart.Week)
 377              		.loc 1 301 0
 378 0056 05E0     		b	.L17
 379              	.L18:
 302:.\Generated_Source\PSoC5/RTC_1.c ****         {
 303:.\Generated_Source\PSoC5/RTC_1.c ****             day += RTC_1_DAYS_IN_WEEK;
 380              		.loc 1 303 0
ARM GAS  C:\Users\glenn\AppData\Local\Temp\ccPIHEU1.s 			page 13


 381 0058 BB79     		ldrb	r3, [r7, #6]
 382 005a 0733     		adds	r3, r3, #7
 383 005c BB71     		strb	r3, [r7, #6]
 304:.\Generated_Source\PSoC5/RTC_1.c ****             week++;
 384              		.loc 1 304 0
 385 005e FB79     		ldrb	r3, [r7, #7]	@ zero_extendqisi2
 386 0060 0133     		adds	r3, r3, #1
 387 0062 FB71     		strb	r3, [r7, #7]
 388              	.L17:
 301:.\Generated_Source\PSoC5/RTC_1.c ****         {
 389              		.loc 1 301 0
 390 0064 214B     		ldr	r3, .L23
 391 0066 9B78     		ldrb	r3, [r3, #2]
 392 0068 DBB2     		uxtb	r3, r3
 393 006a FA79     		ldrb	r2, [r7, #7]	@ zero_extendqisi2
 394 006c 9A42     		cmp	r2, r3
 395 006e F3D1     		bne	.L18
 305:.\Generated_Source\PSoC5/RTC_1.c ****         }
 306:.\Generated_Source\PSoC5/RTC_1.c ****         RTC_1_dstTimeDateStart.DayOfMonth = day;
 396              		.loc 1 306 0
 397 0070 1E4A     		ldr	r2, .L23
 398 0072 BB79     		ldrb	r3, [r7, #6]
 399 0074 D370     		strb	r3, [r2, #3]
 307:.\Generated_Source\PSoC5/RTC_1.c **** 
 308:.\Generated_Source\PSoC5/RTC_1.c ****         /* Stop of DST time */
 309:.\Generated_Source\PSoC5/RTC_1.c ****         week = 1u;
 400              		.loc 1 309 0
 401 0076 0123     		movs	r3, #1
 402 0078 FB71     		strb	r3, [r7, #7]
 310:.\Generated_Source\PSoC5/RTC_1.c ****         day = 1u;
 403              		.loc 1 310 0
 404 007a 0123     		movs	r3, #1
 405 007c BB71     		strb	r3, [r7, #6]
 311:.\Generated_Source\PSoC5/RTC_1.c **** 
 312:.\Generated_Source\PSoC5/RTC_1.c ****         dayOfWeek = RTC_1_DayOfWeek(day, RTC_1_dstTimeDateStop.Month,
 406              		.loc 1 312 0
 407 007e 1D4B     		ldr	r3, .L23+8
 408 0080 1B79     		ldrb	r3, [r3, #4]
 409 0082 DAB2     		uxtb	r2, r3
 410 0084 1A4B     		ldr	r3, .L23+4
 411 0086 5B89     		ldrh	r3, [r3, #10]	@ movhi
 412 0088 9BB2     		uxth	r3, r3
 413 008a B979     		ldrb	r1, [r7, #6]	@ zero_extendqisi2
 414 008c 0846     		mov	r0, r1
 415 008e 1146     		mov	r1, r2
 416 0090 1A46     		mov	r2, r3
 417 0092 FFF7FEFF 		bl	RTC_1_DayOfWeek
 418 0096 0346     		mov	r3, r0
 419 0098 0133     		adds	r3, r3, #1
 420 009a 7B71     		strb	r3, [r7, #5]
 313:.\Generated_Source\PSoC5/RTC_1.c ****                                                     RTC_1_currentTimeDate.Year) + 1u;
 314:.\Generated_Source\PSoC5/RTC_1.c ****         #if (0u != RTC_1_START_OF_WEEK)
 315:.\Generated_Source\PSoC5/RTC_1.c ****         /* Normalize day of week if Start of week is not Sunday */
 316:.\Generated_Source\PSoC5/RTC_1.c ****         if(dayOfWeek > RTC_1_START_OF_WEEK)
 317:.\Generated_Source\PSoC5/RTC_1.c ****         {
 318:.\Generated_Source\PSoC5/RTC_1.c ****             #if (6u != RTC_1_START_OF_WEEK)
 319:.\Generated_Source\PSoC5/RTC_1.c ****                 /* Start of week is not Saturday  */
ARM GAS  C:\Users\glenn\AppData\Local\Temp\ccPIHEU1.s 			page 14


 320:.\Generated_Source\PSoC5/RTC_1.c ****                 dayOfWeek -= RTC_1_START_OF_WEEK;
 321:.\Generated_Source\PSoC5/RTC_1.c ****             #else /* 6u == RTC_1_START_OF_WEEK */
 322:.\Generated_Source\PSoC5/RTC_1.c ****                 /* Start of week is Saturday  */
 323:.\Generated_Source\PSoC5/RTC_1.c ****                 dayOfWeek = 1u; /* Set day of week to Monday */
 324:.\Generated_Source\PSoC5/RTC_1.c ****             #endif /* 6u != RTC_1_START_OF_WEEK */
 325:.\Generated_Source\PSoC5/RTC_1.c ****         }
 326:.\Generated_Source\PSoC5/RTC_1.c ****         else
 327:.\Generated_Source\PSoC5/RTC_1.c ****         {
 328:.\Generated_Source\PSoC5/RTC_1.c ****             #if (1u != RTC_1_START_OF_WEEK)
 329:.\Generated_Source\PSoC5/RTC_1.c ****                 /* Start of week is not Monday  */
 330:.\Generated_Source\PSoC5/RTC_1.c ****                 dayOfWeek = (RTC_1_DAYS_IN_WEEK - RTC_1_START_OF_WEEK) - dayOfWeek;
 331:.\Generated_Source\PSoC5/RTC_1.c ****             #else /* 1u == RTC_1_START_OF_WEEK */
 332:.\Generated_Source\PSoC5/RTC_1.c ****                 /* Start of week is Monday  */
 333:.\Generated_Source\PSoC5/RTC_1.c ****                 dayOfWeek = 5u; /* Set day of week to Friday */
 334:.\Generated_Source\PSoC5/RTC_1.c ****             #endif /* 1u != RTC_1_START_OF_WEEK */
 335:.\Generated_Source\PSoC5/RTC_1.c ****         }
 336:.\Generated_Source\PSoC5/RTC_1.c ****         #endif /* 0u != RTC_1_START_OF_WEEK */
 337:.\Generated_Source\PSoC5/RTC_1.c **** 
 338:.\Generated_Source\PSoC5/RTC_1.c ****         while(dayOfWeek != RTC_1_dstTimeDateStop.DayOfWeek)
 421              		.loc 1 338 0
 422 009c 0DE0     		b	.L19
 423              	.L20:
 339:.\Generated_Source\PSoC5/RTC_1.c ****         {
 340:.\Generated_Source\PSoC5/RTC_1.c ****             day++;
 424              		.loc 1 340 0
 425 009e BB79     		ldrb	r3, [r7, #6]	@ zero_extendqisi2
 426 00a0 0133     		adds	r3, r3, #1
 427 00a2 BB71     		strb	r3, [r7, #6]
 341:.\Generated_Source\PSoC5/RTC_1.c ****             dayOfWeek++;
 428              		.loc 1 341 0
 429 00a4 7B79     		ldrb	r3, [r7, #5]	@ zero_extendqisi2
 430 00a6 0133     		adds	r3, r3, #1
 431 00a8 7B71     		strb	r3, [r7, #5]
 342:.\Generated_Source\PSoC5/RTC_1.c ****             if(dayOfWeek > RTC_1_WEEK_ELAPSED)
 432              		.loc 1 342 0
 433 00aa 7B79     		ldrb	r3, [r7, #5]	@ zero_extendqisi2
 434 00ac 072B     		cmp	r3, #7
 435 00ae 04D9     		bls	.L19
 343:.\Generated_Source\PSoC5/RTC_1.c ****             {
 344:.\Generated_Source\PSoC5/RTC_1.c ****                 dayOfWeek = 1u;
 436              		.loc 1 344 0
 437 00b0 0123     		movs	r3, #1
 438 00b2 7B71     		strb	r3, [r7, #5]
 345:.\Generated_Source\PSoC5/RTC_1.c ****                 week++;
 439              		.loc 1 345 0
 440 00b4 FB79     		ldrb	r3, [r7, #7]	@ zero_extendqisi2
 441 00b6 0133     		adds	r3, r3, #1
 442 00b8 FB71     		strb	r3, [r7, #7]
 443              	.L19:
 338:.\Generated_Source\PSoC5/RTC_1.c ****         {
 444              		.loc 1 338 0
 445 00ba 0E4B     		ldr	r3, .L23+8
 446 00bc 5B78     		ldrb	r3, [r3, #1]
 447 00be DBB2     		uxtb	r3, r3
 448 00c0 7A79     		ldrb	r2, [r7, #5]	@ zero_extendqisi2
 449 00c2 9A42     		cmp	r2, r3
 450 00c4 EBD1     		bne	.L20
ARM GAS  C:\Users\glenn\AppData\Local\Temp\ccPIHEU1.s 			page 15


 346:.\Generated_Source\PSoC5/RTC_1.c ****             }
 347:.\Generated_Source\PSoC5/RTC_1.c ****         }
 348:.\Generated_Source\PSoC5/RTC_1.c **** 
 349:.\Generated_Source\PSoC5/RTC_1.c ****         while(week != RTC_1_dstTimeDateStop.Week)
 451              		.loc 1 349 0
 452 00c6 05E0     		b	.L21
 453              	.L22:
 350:.\Generated_Source\PSoC5/RTC_1.c ****         {
 351:.\Generated_Source\PSoC5/RTC_1.c ****             day += RTC_1_DAYS_IN_WEEK;
 454              		.loc 1 351 0
 455 00c8 BB79     		ldrb	r3, [r7, #6]
 456 00ca 0733     		adds	r3, r3, #7
 457 00cc BB71     		strb	r3, [r7, #6]
 352:.\Generated_Source\PSoC5/RTC_1.c ****             week++;
 458              		.loc 1 352 0
 459 00ce FB79     		ldrb	r3, [r7, #7]	@ zero_extendqisi2
 460 00d0 0133     		adds	r3, r3, #1
 461 00d2 FB71     		strb	r3, [r7, #7]
 462              	.L21:
 349:.\Generated_Source\PSoC5/RTC_1.c ****         {
 463              		.loc 1 349 0
 464 00d4 074B     		ldr	r3, .L23+8
 465 00d6 9B78     		ldrb	r3, [r3, #2]
 466 00d8 DBB2     		uxtb	r3, r3
 467 00da FA79     		ldrb	r2, [r7, #7]	@ zero_extendqisi2
 468 00dc 9A42     		cmp	r2, r3
 469 00de F3D1     		bne	.L22
 353:.\Generated_Source\PSoC5/RTC_1.c ****         }
 354:.\Generated_Source\PSoC5/RTC_1.c **** 
 355:.\Generated_Source\PSoC5/RTC_1.c ****         RTC_1_dstTimeDateStop.DayOfMonth = day;
 470              		.loc 1 355 0
 471 00e0 044A     		ldr	r2, .L23+8
 472 00e2 BB79     		ldrb	r3, [r7, #6]
 473 00e4 D370     		strb	r3, [r2, #3]
 356:.\Generated_Source\PSoC5/RTC_1.c ****     }
 474              		.loc 1 356 0
 475 00e6 0837     		adds	r7, r7, #8
 476              		.cfi_def_cfa_offset 8
 477 00e8 BD46     		mov	sp, r7
 478              		.cfi_def_cfa_register 13
 479              		@ sp needed
 480 00ea 80BD     		pop	{r7, pc}
 481              	.L24:
 482              		.align	2
 483              	.L23:
 484 00ec 00000000 		.word	RTC_1_dstTimeDateStart
 485 00f0 00000000 		.word	RTC_1_currentTimeDate
 486 00f4 00000000 		.word	RTC_1_dstTimeDateStop
 487              		.cfi_endproc
 488              	.LFE4:
 489              		.size	RTC_1_DSTDateConversion, .-RTC_1_DSTDateConversion
 490              		.section	.text.RTC_1_Init,"ax",%progbits
 491              		.align	2
 492              		.global	RTC_1_Init
 493              		.thumb
 494              		.thumb_func
 495              		.type	RTC_1_Init, %function
ARM GAS  C:\Users\glenn\AppData\Local\Temp\ccPIHEU1.s 			page 16


 496              	RTC_1_Init:
 497              	.LFB5:
 357:.\Generated_Source\PSoC5/RTC_1.c **** #endif /* 1u == RTC_1_DST_FUNC_ENABLE */
 358:.\Generated_Source\PSoC5/RTC_1.c **** 
 359:.\Generated_Source\PSoC5/RTC_1.c **** 
 360:.\Generated_Source\PSoC5/RTC_1.c **** /*******************************************************************************
 361:.\Generated_Source\PSoC5/RTC_1.c **** * Function Name:   RTC_1_Init
 362:.\Generated_Source\PSoC5/RTC_1.c **** ********************************************************************************
 363:.\Generated_Source\PSoC5/RTC_1.c **** *
 364:.\Generated_Source\PSoC5/RTC_1.c **** * Summary:
 365:.\Generated_Source\PSoC5/RTC_1.c **** *  Calculates required date and flags, sets interrupt vector and priority.
 366:.\Generated_Source\PSoC5/RTC_1.c **** *
 367:.\Generated_Source\PSoC5/RTC_1.c **** * Parameters:
 368:.\Generated_Source\PSoC5/RTC_1.c **** *  None.
 369:.\Generated_Source\PSoC5/RTC_1.c **** *
 370:.\Generated_Source\PSoC5/RTC_1.c **** * Return:
 371:.\Generated_Source\PSoC5/RTC_1.c **** *  None.
 372:.\Generated_Source\PSoC5/RTC_1.c **** *
 373:.\Generated_Source\PSoC5/RTC_1.c **** * Global variables:
 374:.\Generated_Source\PSoC5/RTC_1.c **** *  RTC_1_currentTimeDate, RTC_1_dstTimeDateStart,
 375:.\Generated_Source\PSoC5/RTC_1.c **** *  RTC_1_dstTimeDateStop, RTC_1_dstTimeDateStart,
 376:.\Generated_Source\PSoC5/RTC_1.c **** *  RTC_1_alarmCfgTimeDate, RTC_1_statusDateTime,
 377:.\Generated_Source\PSoC5/RTC_1.c **** *  RTC_1_dstStartStatus, RTC_1_dstStartStatus,
 378:.\Generated_Source\PSoC5/RTC_1.c **** *  RTC_1_dstStopStatus, RTC_1_alarmCurStatus:
 379:.\Generated_Source\PSoC5/RTC_1.c **** *  global variables are used by the RTC_1_SetInitValues().
 380:.\Generated_Source\PSoC5/RTC_1.c **** *
 381:.\Generated_Source\PSoC5/RTC_1.c **** *  RTC_1_dstTimeDateStart, RTC_1_currentTimeDate:
 382:.\Generated_Source\PSoC5/RTC_1.c **** *  RTC_1_statusDateTime, RTC_1_dstStartStatus,
 383:.\Generated_Source\PSoC5/RTC_1.c **** *  RTC_1_dstStartStatus, RTC_1_dstStopStatus,
 384:.\Generated_Source\PSoC5/RTC_1.c **** *  RTC_1_alarmCurStatus: are modified by the
 385:.\Generated_Source\PSoC5/RTC_1.c **** *  RTC_1_SetInitValues() function.
 386:.\Generated_Source\PSoC5/RTC_1.c **** *
 387:.\Generated_Source\PSoC5/RTC_1.c **** * Reentrant:
 388:.\Generated_Source\PSoC5/RTC_1.c **** *  No.
 389:.\Generated_Source\PSoC5/RTC_1.c **** *
 390:.\Generated_Source\PSoC5/RTC_1.c **** *******************************************************************************/
 391:.\Generated_Source\PSoC5/RTC_1.c **** void RTC_1_Init(void) 
 392:.\Generated_Source\PSoC5/RTC_1.c **** {
 498              		.loc 1 392 0
 499              		.cfi_startproc
 500              		@ args = 0, pretend = 0, frame = 0
 501              		@ frame_needed = 1, uses_anonymous_args = 0
 502 0000 80B5     		push	{r7, lr}
 503              		.cfi_def_cfa_offset 8
 504              		.cfi_offset 7, -8
 505              		.cfi_offset 14, -4
 506 0002 00AF     		add	r7, sp, #0
 507              		.cfi_def_cfa_register 7
 393:.\Generated_Source\PSoC5/RTC_1.c ****     /* Start calculation of required date and flags */
 394:.\Generated_Source\PSoC5/RTC_1.c ****     RTC_1_SetInitValues();
 508              		.loc 1 394 0
 509 0004 FFF7FEFF 		bl	RTC_1_SetInitValues
 395:.\Generated_Source\PSoC5/RTC_1.c **** 
 396:.\Generated_Source\PSoC5/RTC_1.c ****     /* Disable Interrupt. */
 397:.\Generated_Source\PSoC5/RTC_1.c ****     CyIntDisable(RTC_1_ISR_NUMBER);
 510              		.loc 1 397 0
 511 0008 054B     		ldr	r3, .L26
ARM GAS  C:\Users\glenn\AppData\Local\Temp\ccPIHEU1.s 			page 17


 512 000a 0822     		movs	r2, #8
 513 000c 1A60     		str	r2, [r3]
 398:.\Generated_Source\PSoC5/RTC_1.c **** 
 399:.\Generated_Source\PSoC5/RTC_1.c ****     /* Set the ISR to point to the RTC_SUT_isr Interrupt. */
 400:.\Generated_Source\PSoC5/RTC_1.c ****     (void) CyIntSetVector(RTC_1_ISR_NUMBER, & RTC_1_ISR);
 514              		.loc 1 400 0
 515 000e 0320     		movs	r0, #3
 516 0010 0449     		ldr	r1, .L26+4
 517 0012 FFF7FEFF 		bl	CyIntSetVector
 401:.\Generated_Source\PSoC5/RTC_1.c **** 
 402:.\Generated_Source\PSoC5/RTC_1.c ****     /* Set the priority. */
 403:.\Generated_Source\PSoC5/RTC_1.c ****     CyIntSetPriority(RTC_1_ISR_NUMBER, RTC_1_ISR_PRIORITY);
 518              		.loc 1 403 0
 519 0016 0320     		movs	r0, #3
 520 0018 0721     		movs	r1, #7
 521 001a FFF7FEFF 		bl	CyIntSetPriority
 404:.\Generated_Source\PSoC5/RTC_1.c **** }
 522              		.loc 1 404 0
 523 001e 80BD     		pop	{r7, pc}
 524              	.L27:
 525              		.align	2
 526              	.L26:
 527 0020 80E100E0 		.word	-536813184
 528 0024 00000000 		.word	RTC_1_ISR
 529              		.cfi_endproc
 530              	.LFE5:
 531              		.size	RTC_1_Init, .-RTC_1_Init
 532              		.section	.text.RTC_1_Enable,"ax",%progbits
 533              		.align	2
 534              		.global	RTC_1_Enable
 535              		.thumb
 536              		.thumb_func
 537              		.type	RTC_1_Enable, %function
 538              	RTC_1_Enable:
 539              	.LFB6:
 405:.\Generated_Source\PSoC5/RTC_1.c **** 
 406:.\Generated_Source\PSoC5/RTC_1.c **** 
 407:.\Generated_Source\PSoC5/RTC_1.c **** /*******************************************************************************
 408:.\Generated_Source\PSoC5/RTC_1.c **** * Function Name: RTC_1_Enable
 409:.\Generated_Source\PSoC5/RTC_1.c **** ********************************************************************************
 410:.\Generated_Source\PSoC5/RTC_1.c **** *
 411:.\Generated_Source\PSoC5/RTC_1.c **** * Summary:
 412:.\Generated_Source\PSoC5/RTC_1.c **** *  Enables the interrupts, one pulse per second and interrupt generation on OPPS
 413:.\Generated_Source\PSoC5/RTC_1.c **** *  event.
 414:.\Generated_Source\PSoC5/RTC_1.c **** *
 415:.\Generated_Source\PSoC5/RTC_1.c **** * Parameters:
 416:.\Generated_Source\PSoC5/RTC_1.c **** *  None.
 417:.\Generated_Source\PSoC5/RTC_1.c **** *
 418:.\Generated_Source\PSoC5/RTC_1.c **** * Return:
 419:.\Generated_Source\PSoC5/RTC_1.c **** *  None.
 420:.\Generated_Source\PSoC5/RTC_1.c **** *
 421:.\Generated_Source\PSoC5/RTC_1.c **** * Side Effects:
 422:.\Generated_Source\PSoC5/RTC_1.c **** *  Enables for the one pulse per second and central time wheel signals to wake
 423:.\Generated_Source\PSoC5/RTC_1.c **** *  up device from the low power (Sleep and Alternate Active) modes and leaves
 424:.\Generated_Source\PSoC5/RTC_1.c **** *  them enabled.
 425:.\Generated_Source\PSoC5/RTC_1.c **** *
 426:.\Generated_Source\PSoC5/RTC_1.c **** *******************************************************************************/
ARM GAS  C:\Users\glenn\AppData\Local\Temp\ccPIHEU1.s 			page 18


 427:.\Generated_Source\PSoC5/RTC_1.c **** void RTC_1_Enable(void) 
 428:.\Generated_Source\PSoC5/RTC_1.c **** {
 540              		.loc 1 428 0
 541              		.cfi_startproc
 542              		@ args = 0, pretend = 0, frame = 8
 543              		@ frame_needed = 1, uses_anonymous_args = 0
 544 0000 80B5     		push	{r7, lr}
 545              		.cfi_def_cfa_offset 8
 546              		.cfi_offset 7, -8
 547              		.cfi_offset 14, -4
 548 0002 82B0     		sub	sp, sp, #8
 549              		.cfi_def_cfa_offset 16
 550 0004 00AF     		add	r7, sp, #0
 551              		.cfi_def_cfa_register 7
 429:.\Generated_Source\PSoC5/RTC_1.c ****     uint8 interruptState;
 430:.\Generated_Source\PSoC5/RTC_1.c **** 
 431:.\Generated_Source\PSoC5/RTC_1.c ****     /* Enter critical section */
 432:.\Generated_Source\PSoC5/RTC_1.c ****     interruptState = CyEnterCriticalSection();
 552              		.loc 1 432 0
 553 0006 FFF7FEFF 		bl	CyEnterCriticalSection
 554 000a 0346     		mov	r3, r0
 555 000c FB71     		strb	r3, [r7, #7]
 433:.\Generated_Source\PSoC5/RTC_1.c **** 
 434:.\Generated_Source\PSoC5/RTC_1.c ****     /* Enable one pulse per second event and interrupt */
 435:.\Generated_Source\PSoC5/RTC_1.c ****     RTC_1_OPPS_CFG_REG |= (RTC_1_OPPS_EN_MASK | RTC_1_OPPSIE_EN_MASK);
 556              		.loc 1 435 0
 557 000e 094A     		ldr	r2, .L29
 558 0010 084B     		ldr	r3, .L29
 559 0012 1B78     		ldrb	r3, [r3]
 560 0014 DBB2     		uxtb	r3, r3
 561 0016 43F03003 		orr	r3, r3, #48
 562 001a DBB2     		uxtb	r3, r3
 563 001c 1370     		strb	r3, [r2]
 436:.\Generated_Source\PSoC5/RTC_1.c **** 
 437:.\Generated_Source\PSoC5/RTC_1.c ****     /* Exit critical section */
 438:.\Generated_Source\PSoC5/RTC_1.c ****     CyExitCriticalSection(interruptState);
 564              		.loc 1 438 0
 565 001e FB79     		ldrb	r3, [r7, #7]	@ zero_extendqisi2
 566 0020 1846     		mov	r0, r3
 567 0022 FFF7FEFF 		bl	CyExitCriticalSection
 439:.\Generated_Source\PSoC5/RTC_1.c **** 
 440:.\Generated_Source\PSoC5/RTC_1.c ****     /* Enable interrupt */
 441:.\Generated_Source\PSoC5/RTC_1.c ****     CyIntEnable(RTC_1_ISR_NUMBER);
 568              		.loc 1 441 0
 569 0026 044B     		ldr	r3, .L29+4
 570 0028 0822     		movs	r2, #8
 571 002a 1A60     		str	r2, [r3]
 442:.\Generated_Source\PSoC5/RTC_1.c **** }
 572              		.loc 1 442 0
 573 002c 0837     		adds	r7, r7, #8
 574              		.cfi_def_cfa_offset 8
 575 002e BD46     		mov	sp, r7
 576              		.cfi_def_cfa_register 13
 577              		@ sp needed
 578 0030 80BD     		pop	{r7, pc}
 579              	.L30:
 580 0032 00BF     		.align	2
ARM GAS  C:\Users\glenn\AppData\Local\Temp\ccPIHEU1.s 			page 19


 581              	.L29:
 582 0034 82430040 		.word	1073759106
 583 0038 00E100E0 		.word	-536813312
 584              		.cfi_endproc
 585              	.LFE6:
 586              		.size	RTC_1_Enable, .-RTC_1_Enable
 587              		.section	.text.RTC_1_ReadTime,"ax",%progbits
 588              		.align	2
 589              		.global	RTC_1_ReadTime
 590              		.thumb
 591              		.thumb_func
 592              		.type	RTC_1_ReadTime, %function
 593              	RTC_1_ReadTime:
 594              	.LFB7:
 443:.\Generated_Source\PSoC5/RTC_1.c **** 
 444:.\Generated_Source\PSoC5/RTC_1.c **** 
 445:.\Generated_Source\PSoC5/RTC_1.c **** /*******************************************************************************
 446:.\Generated_Source\PSoC5/RTC_1.c **** * Function Name:   RTC_1_ReadTime
 447:.\Generated_Source\PSoC5/RTC_1.c **** ********************************************************************************
 448:.\Generated_Source\PSoC5/RTC_1.c **** *
 449:.\Generated_Source\PSoC5/RTC_1.c **** * Summary:
 450:.\Generated_Source\PSoC5/RTC_1.c **** *  Returns a pointer to the current time and date structure.
 451:.\Generated_Source\PSoC5/RTC_1.c **** *
 452:.\Generated_Source\PSoC5/RTC_1.c **** * Parameters:
 453:.\Generated_Source\PSoC5/RTC_1.c **** *  None.
 454:.\Generated_Source\PSoC5/RTC_1.c **** *
 455:.\Generated_Source\PSoC5/RTC_1.c **** * Return:
 456:.\Generated_Source\PSoC5/RTC_1.c **** *  RTC_1_currentTimeDate: pointer to the global structure with the
 457:.\Generated_Source\PSoC5/RTC_1.c **** *  current date and time values.
 458:.\Generated_Source\PSoC5/RTC_1.c **** *
 459:.\Generated_Source\PSoC5/RTC_1.c **** * Global variables:
 460:.\Generated_Source\PSoC5/RTC_1.c **** *  RTC_1_currentTimeDate: global variable with current date and
 461:.\Generated_Source\PSoC5/RTC_1.c **** *   time is used.
 462:.\Generated_Source\PSoC5/RTC_1.c **** *
 463:.\Generated_Source\PSoC5/RTC_1.c **** * Side Effects:
 464:.\Generated_Source\PSoC5/RTC_1.c **** *  You should disable the interrupt for the RTC component before calling any
 465:.\Generated_Source\PSoC5/RTC_1.c **** *  read API to avoid an RTC Counter increment in the middle of a time or date
 466:.\Generated_Source\PSoC5/RTC_1.c **** *  read operation. Re-enable the interrupts after the data is read.
 467:.\Generated_Source\PSoC5/RTC_1.c **** *
 468:.\Generated_Source\PSoC5/RTC_1.c **** *******************************************************************************/
 469:.\Generated_Source\PSoC5/RTC_1.c **** RTC_1_TIME_DATE * RTC_1_ReadTime(void) 
 470:.\Generated_Source\PSoC5/RTC_1.c **** {
 595              		.loc 1 470 0
 596              		.cfi_startproc
 597              		@ args = 0, pretend = 0, frame = 0
 598              		@ frame_needed = 1, uses_anonymous_args = 0
 599              		@ link register save eliminated.
 600 0000 80B4     		push	{r7}
 601              		.cfi_def_cfa_offset 4
 602              		.cfi_offset 7, -4
 603 0002 00AF     		add	r7, sp, #0
 604              		.cfi_def_cfa_register 7
 471:.\Generated_Source\PSoC5/RTC_1.c ****     /* Returns a pointer to the current time and date structure */
 472:.\Generated_Source\PSoC5/RTC_1.c ****     return (&RTC_1_currentTimeDate);
 605              		.loc 1 472 0
 606 0004 024B     		ldr	r3, .L33
 473:.\Generated_Source\PSoC5/RTC_1.c **** }
ARM GAS  C:\Users\glenn\AppData\Local\Temp\ccPIHEU1.s 			page 20


 607              		.loc 1 473 0
 608 0006 1846     		mov	r0, r3
 609 0008 BD46     		mov	sp, r7
 610              		.cfi_def_cfa_register 13
 611              		@ sp needed
 612 000a 5DF8047B 		ldr	r7, [sp], #4
 613              		.cfi_restore 7
 614              		.cfi_def_cfa_offset 0
 615 000e 7047     		bx	lr
 616              	.L34:
 617              		.align	2
 618              	.L33:
 619 0010 00000000 		.word	RTC_1_currentTimeDate
 620              		.cfi_endproc
 621              	.LFE7:
 622              		.size	RTC_1_ReadTime, .-RTC_1_ReadTime
 623              		.section	.text.RTC_1_WriteTime,"ax",%progbits
 624              		.align	2
 625              		.global	RTC_1_WriteTime
 626              		.thumb
 627              		.thumb_func
 628              		.type	RTC_1_WriteTime, %function
 629              	RTC_1_WriteTime:
 630              	.LFB8:
 474:.\Generated_Source\PSoC5/RTC_1.c **** 
 475:.\Generated_Source\PSoC5/RTC_1.c **** 
 476:.\Generated_Source\PSoC5/RTC_1.c **** /*******************************************************************************
 477:.\Generated_Source\PSoC5/RTC_1.c **** * Function Name:   RTC_1_WriteTime
 478:.\Generated_Source\PSoC5/RTC_1.c **** ********************************************************************************
 479:.\Generated_Source\PSoC5/RTC_1.c **** *
 480:.\Generated_Source\PSoC5/RTC_1.c **** * Summary:
 481:.\Generated_Source\PSoC5/RTC_1.c **** *  Writes time and date values as current time and date. Only
 482:.\Generated_Source\PSoC5/RTC_1.c **** *  passes Milliseconds(optionally), Seconds, Minutes, Hours, Month,
 483:.\Generated_Source\PSoC5/RTC_1.c **** *  Day Of Month and Year.
 484:.\Generated_Source\PSoC5/RTC_1.c **** *
 485:.\Generated_Source\PSoC5/RTC_1.c **** * Parameters:
 486:.\Generated_Source\PSoC5/RTC_1.c **** *  timeDate: Pointer to RTC_1_TIME_DATE global structure where new
 487:.\Generated_Source\PSoC5/RTC_1.c **** *  values of time and date are stored.
 488:.\Generated_Source\PSoC5/RTC_1.c **** *
 489:.\Generated_Source\PSoC5/RTC_1.c **** * Return:
 490:.\Generated_Source\PSoC5/RTC_1.c **** *  None.
 491:.\Generated_Source\PSoC5/RTC_1.c **** *
 492:.\Generated_Source\PSoC5/RTC_1.c **** * Global variables:
 493:.\Generated_Source\PSoC5/RTC_1.c **** *  RTC_1_currentTimeDate: global structure is modified with the new
 494:.\Generated_Source\PSoC5/RTC_1.c **** *  values of current date and time.
 495:.\Generated_Source\PSoC5/RTC_1.c **** *
 496:.\Generated_Source\PSoC5/RTC_1.c **** * Reentrant:
 497:.\Generated_Source\PSoC5/RTC_1.c **** *  No.
 498:.\Generated_Source\PSoC5/RTC_1.c **** *
 499:.\Generated_Source\PSoC5/RTC_1.c **** *******************************************************************************/
 500:.\Generated_Source\PSoC5/RTC_1.c **** void RTC_1_WriteTime(const RTC_1_TIME_DATE * timeDate)
 501:.\Generated_Source\PSoC5/RTC_1.c ****      
 502:.\Generated_Source\PSoC5/RTC_1.c **** {
 631              		.loc 1 502 0
 632              		.cfi_startproc
 633              		@ args = 0, pretend = 0, frame = 8
 634              		@ frame_needed = 1, uses_anonymous_args = 0
ARM GAS  C:\Users\glenn\AppData\Local\Temp\ccPIHEU1.s 			page 21


 635 0000 80B5     		push	{r7, lr}
 636              		.cfi_def_cfa_offset 8
 637              		.cfi_offset 7, -8
 638              		.cfi_offset 14, -4
 639 0002 82B0     		sub	sp, sp, #8
 640              		.cfi_def_cfa_offset 16
 641 0004 00AF     		add	r7, sp, #0
 642              		.cfi_def_cfa_register 7
 643 0006 7860     		str	r0, [r7, #4]
 503:.\Generated_Source\PSoC5/RTC_1.c ****     /* Disable Interrupt of RTC Component */
 504:.\Generated_Source\PSoC5/RTC_1.c ****     RTC_1_DisableInt();
 644              		.loc 1 504 0
 645 0008 FFF7FEFF 		bl	RTC_1_DisableInt
 505:.\Generated_Source\PSoC5/RTC_1.c **** 
 506:.\Generated_Source\PSoC5/RTC_1.c ****     /* Write current time and date */
 507:.\Generated_Source\PSoC5/RTC_1.c ****     RTC_1_currentTimeDate.Sec = timeDate->Sec;
 646              		.loc 1 507 0
 647 000c 7B68     		ldr	r3, [r7, #4]
 648 000e 1B78     		ldrb	r3, [r3]
 649 0010 DAB2     		uxtb	r2, r3
 650 0012 104B     		ldr	r3, .L36
 651 0014 1A70     		strb	r2, [r3]
 508:.\Generated_Source\PSoC5/RTC_1.c ****     RTC_1_currentTimeDate.Min = timeDate->Min;
 652              		.loc 1 508 0
 653 0016 7B68     		ldr	r3, [r7, #4]
 654 0018 5B78     		ldrb	r3, [r3, #1]
 655 001a DAB2     		uxtb	r2, r3
 656 001c 0D4B     		ldr	r3, .L36
 657 001e 5A70     		strb	r2, [r3, #1]
 509:.\Generated_Source\PSoC5/RTC_1.c ****     RTC_1_currentTimeDate.Hour = timeDate->Hour;
 658              		.loc 1 509 0
 659 0020 7B68     		ldr	r3, [r7, #4]
 660 0022 9B78     		ldrb	r3, [r3, #2]
 661 0024 DAB2     		uxtb	r2, r3
 662 0026 0B4B     		ldr	r3, .L36
 663 0028 9A70     		strb	r2, [r3, #2]
 510:.\Generated_Source\PSoC5/RTC_1.c ****     RTC_1_currentTimeDate.DayOfMonth = timeDate->DayOfMonth;
 664              		.loc 1 510 0
 665 002a 7B68     		ldr	r3, [r7, #4]
 666 002c 1B79     		ldrb	r3, [r3, #4]
 667 002e DAB2     		uxtb	r2, r3
 668 0030 084B     		ldr	r3, .L36
 669 0032 1A71     		strb	r2, [r3, #4]
 511:.\Generated_Source\PSoC5/RTC_1.c ****     RTC_1_currentTimeDate.Month = timeDate->Month;
 670              		.loc 1 511 0
 671 0034 7B68     		ldr	r3, [r7, #4]
 672 0036 1B7A     		ldrb	r3, [r3, #8]
 673 0038 DAB2     		uxtb	r2, r3
 674 003a 064B     		ldr	r3, .L36
 675 003c 1A72     		strb	r2, [r3, #8]
 512:.\Generated_Source\PSoC5/RTC_1.c ****     RTC_1_currentTimeDate.Year = timeDate->Year;
 676              		.loc 1 512 0
 677 003e 7B68     		ldr	r3, [r7, #4]
 678 0040 5B89     		ldrh	r3, [r3, #10]	@ movhi
 679 0042 9AB2     		uxth	r2, r3
 680 0044 034B     		ldr	r3, .L36
 681 0046 5A81     		strh	r2, [r3, #10]	@ movhi
ARM GAS  C:\Users\glenn\AppData\Local\Temp\ccPIHEU1.s 			page 22


 513:.\Generated_Source\PSoC5/RTC_1.c **** 
 514:.\Generated_Source\PSoC5/RTC_1.c ****     /* Enable Interrupt of RTC Component */
 515:.\Generated_Source\PSoC5/RTC_1.c ****     RTC_1_EnableInt();
 682              		.loc 1 515 0
 683 0048 FFF7FEFF 		bl	RTC_1_EnableInt
 516:.\Generated_Source\PSoC5/RTC_1.c **** }
 684              		.loc 1 516 0
 685 004c 0837     		adds	r7, r7, #8
 686              		.cfi_def_cfa_offset 8
 687 004e BD46     		mov	sp, r7
 688              		.cfi_def_cfa_register 13
 689              		@ sp needed
 690 0050 80BD     		pop	{r7, pc}
 691              	.L37:
 692 0052 00BF     		.align	2
 693              	.L36:
 694 0054 00000000 		.word	RTC_1_currentTimeDate
 695              		.cfi_endproc
 696              	.LFE8:
 697              		.size	RTC_1_WriteTime, .-RTC_1_WriteTime
 698              		.section	.text.RTC_1_WriteSecond,"ax",%progbits
 699              		.align	2
 700              		.global	RTC_1_WriteSecond
 701              		.thumb
 702              		.thumb_func
 703              		.type	RTC_1_WriteSecond, %function
 704              	RTC_1_WriteSecond:
 705              	.LFB9:
 517:.\Generated_Source\PSoC5/RTC_1.c **** 
 518:.\Generated_Source\PSoC5/RTC_1.c **** 
 519:.\Generated_Source\PSoC5/RTC_1.c **** /*******************************************************************************
 520:.\Generated_Source\PSoC5/RTC_1.c **** * Function Name:   RTC_1_WriteSecond
 521:.\Generated_Source\PSoC5/RTC_1.c **** ********************************************************************************
 522:.\Generated_Source\PSoC5/RTC_1.c **** *
 523:.\Generated_Source\PSoC5/RTC_1.c **** * Summary:
 524:.\Generated_Source\PSoC5/RTC_1.c **** *  Writes Sec software register value.
 525:.\Generated_Source\PSoC5/RTC_1.c **** *
 526:.\Generated_Source\PSoC5/RTC_1.c **** * Parameters:
 527:.\Generated_Source\PSoC5/RTC_1.c **** *  second: Seconds value.
 528:.\Generated_Source\PSoC5/RTC_1.c **** *
 529:.\Generated_Source\PSoC5/RTC_1.c **** * Return:
 530:.\Generated_Source\PSoC5/RTC_1.c **** *  None.
 531:.\Generated_Source\PSoC5/RTC_1.c **** *
 532:.\Generated_Source\PSoC5/RTC_1.c **** * Global variables:
 533:.\Generated_Source\PSoC5/RTC_1.c **** *  RTC_1_currentTimeDate.Sec: global structure's field where current
 534:.\Generated_Source\PSoC5/RTC_1.c **** *  second's value is modified.
 535:.\Generated_Source\PSoC5/RTC_1.c **** *
 536:.\Generated_Source\PSoC5/RTC_1.c **** * Reentrant:
 537:.\Generated_Source\PSoC5/RTC_1.c **** *  No.
 538:.\Generated_Source\PSoC5/RTC_1.c **** *
 539:.\Generated_Source\PSoC5/RTC_1.c **** *******************************************************************************/
 540:.\Generated_Source\PSoC5/RTC_1.c **** void RTC_1_WriteSecond(uint8 second) 
 541:.\Generated_Source\PSoC5/RTC_1.c **** {
 706              		.loc 1 541 0
 707              		.cfi_startproc
 708              		@ args = 0, pretend = 0, frame = 8
 709              		@ frame_needed = 1, uses_anonymous_args = 0
ARM GAS  C:\Users\glenn\AppData\Local\Temp\ccPIHEU1.s 			page 23


 710              		@ link register save eliminated.
 711 0000 80B4     		push	{r7}
 712              		.cfi_def_cfa_offset 4
 713              		.cfi_offset 7, -4
 714 0002 83B0     		sub	sp, sp, #12
 715              		.cfi_def_cfa_offset 16
 716 0004 00AF     		add	r7, sp, #0
 717              		.cfi_def_cfa_register 7
 718 0006 0346     		mov	r3, r0
 719 0008 FB71     		strb	r3, [r7, #7]
 542:.\Generated_Source\PSoC5/RTC_1.c ****     /* Save seconds to the current time and date structure */
 543:.\Generated_Source\PSoC5/RTC_1.c ****     RTC_1_currentTimeDate.Sec = second;
 720              		.loc 1 543 0
 721 000a 044A     		ldr	r2, .L39
 722 000c FB79     		ldrb	r3, [r7, #7]
 723 000e 1370     		strb	r3, [r2]
 544:.\Generated_Source\PSoC5/RTC_1.c **** }
 724              		.loc 1 544 0
 725 0010 0C37     		adds	r7, r7, #12
 726              		.cfi_def_cfa_offset 4
 727 0012 BD46     		mov	sp, r7
 728              		.cfi_def_cfa_register 13
 729              		@ sp needed
 730 0014 5DF8047B 		ldr	r7, [sp], #4
 731              		.cfi_restore 7
 732              		.cfi_def_cfa_offset 0
 733 0018 7047     		bx	lr
 734              	.L40:
 735 001a 00BF     		.align	2
 736              	.L39:
 737 001c 00000000 		.word	RTC_1_currentTimeDate
 738              		.cfi_endproc
 739              	.LFE9:
 740              		.size	RTC_1_WriteSecond, .-RTC_1_WriteSecond
 741              		.section	.text.RTC_1_WriteMinute,"ax",%progbits
 742              		.align	2
 743              		.global	RTC_1_WriteMinute
 744              		.thumb
 745              		.thumb_func
 746              		.type	RTC_1_WriteMinute, %function
 747              	RTC_1_WriteMinute:
 748              	.LFB10:
 545:.\Generated_Source\PSoC5/RTC_1.c **** 
 546:.\Generated_Source\PSoC5/RTC_1.c **** 
 547:.\Generated_Source\PSoC5/RTC_1.c **** /*******************************************************************************
 548:.\Generated_Source\PSoC5/RTC_1.c **** * Function Name:   RTC_1_WriteMinute
 549:.\Generated_Source\PSoC5/RTC_1.c **** ********************************************************************************
 550:.\Generated_Source\PSoC5/RTC_1.c **** *
 551:.\Generated_Source\PSoC5/RTC_1.c **** * Summary:
 552:.\Generated_Source\PSoC5/RTC_1.c **** *  Writes Minute value in minutes counter register.
 553:.\Generated_Source\PSoC5/RTC_1.c **** *
 554:.\Generated_Source\PSoC5/RTC_1.c **** * Parameters:
 555:.\Generated_Source\PSoC5/RTC_1.c **** *  minute: Minutes value.
 556:.\Generated_Source\PSoC5/RTC_1.c **** *
 557:.\Generated_Source\PSoC5/RTC_1.c **** * Return:
 558:.\Generated_Source\PSoC5/RTC_1.c **** *  None.
 559:.\Generated_Source\PSoC5/RTC_1.c **** *
ARM GAS  C:\Users\glenn\AppData\Local\Temp\ccPIHEU1.s 			page 24


 560:.\Generated_Source\PSoC5/RTC_1.c **** * Global variables:
 561:.\Generated_Source\PSoC5/RTC_1.c **** *  RTC_1_currentTimeDate.Min: global structure's field where
 562:.\Generated_Source\PSoC5/RTC_1.c **** *  current minute's value is modified.
 563:.\Generated_Source\PSoC5/RTC_1.c **** *
 564:.\Generated_Source\PSoC5/RTC_1.c **** * Reentrant:
 565:.\Generated_Source\PSoC5/RTC_1.c **** *  No.
 566:.\Generated_Source\PSoC5/RTC_1.c **** *
 567:.\Generated_Source\PSoC5/RTC_1.c **** *******************************************************************************/
 568:.\Generated_Source\PSoC5/RTC_1.c **** void RTC_1_WriteMinute(uint8 minute) 
 569:.\Generated_Source\PSoC5/RTC_1.c **** {
 749              		.loc 1 569 0
 750              		.cfi_startproc
 751              		@ args = 0, pretend = 0, frame = 8
 752              		@ frame_needed = 1, uses_anonymous_args = 0
 753              		@ link register save eliminated.
 754 0000 80B4     		push	{r7}
 755              		.cfi_def_cfa_offset 4
 756              		.cfi_offset 7, -4
 757 0002 83B0     		sub	sp, sp, #12
 758              		.cfi_def_cfa_offset 16
 759 0004 00AF     		add	r7, sp, #0
 760              		.cfi_def_cfa_register 7
 761 0006 0346     		mov	r3, r0
 762 0008 FB71     		strb	r3, [r7, #7]
 570:.\Generated_Source\PSoC5/RTC_1.c ****     /* Save minutes to the current time and date structure */
 571:.\Generated_Source\PSoC5/RTC_1.c ****     RTC_1_currentTimeDate.Min = minute;
 763              		.loc 1 571 0
 764 000a 044A     		ldr	r2, .L42
 765 000c FB79     		ldrb	r3, [r7, #7]
 766 000e 5370     		strb	r3, [r2, #1]
 572:.\Generated_Source\PSoC5/RTC_1.c **** }
 767              		.loc 1 572 0
 768 0010 0C37     		adds	r7, r7, #12
 769              		.cfi_def_cfa_offset 4
 770 0012 BD46     		mov	sp, r7
 771              		.cfi_def_cfa_register 13
 772              		@ sp needed
 773 0014 5DF8047B 		ldr	r7, [sp], #4
 774              		.cfi_restore 7
 775              		.cfi_def_cfa_offset 0
 776 0018 7047     		bx	lr
 777              	.L43:
 778 001a 00BF     		.align	2
 779              	.L42:
 780 001c 00000000 		.word	RTC_1_currentTimeDate
 781              		.cfi_endproc
 782              	.LFE10:
 783              		.size	RTC_1_WriteMinute, .-RTC_1_WriteMinute
 784              		.section	.text.RTC_1_WriteHour,"ax",%progbits
 785              		.align	2
 786              		.global	RTC_1_WriteHour
 787              		.thumb
 788              		.thumb_func
 789              		.type	RTC_1_WriteHour, %function
 790              	RTC_1_WriteHour:
 791              	.LFB11:
 573:.\Generated_Source\PSoC5/RTC_1.c **** 
ARM GAS  C:\Users\glenn\AppData\Local\Temp\ccPIHEU1.s 			page 25


 574:.\Generated_Source\PSoC5/RTC_1.c **** 
 575:.\Generated_Source\PSoC5/RTC_1.c **** /*******************************************************************************
 576:.\Generated_Source\PSoC5/RTC_1.c **** * Function Name:   RTC_1_WriteHour
 577:.\Generated_Source\PSoC5/RTC_1.c **** ********************************************************************************
 578:.\Generated_Source\PSoC5/RTC_1.c **** *
 579:.\Generated_Source\PSoC5/RTC_1.c **** * Summary:
 580:.\Generated_Source\PSoC5/RTC_1.c **** *  Writes Hour software register value.
 581:.\Generated_Source\PSoC5/RTC_1.c **** *
 582:.\Generated_Source\PSoC5/RTC_1.c **** * Parameters:
 583:.\Generated_Source\PSoC5/RTC_1.c **** *  hour: Hours value.
 584:.\Generated_Source\PSoC5/RTC_1.c **** *
 585:.\Generated_Source\PSoC5/RTC_1.c **** * Return:
 586:.\Generated_Source\PSoC5/RTC_1.c **** *  None.
 587:.\Generated_Source\PSoC5/RTC_1.c **** *
 588:.\Generated_Source\PSoC5/RTC_1.c **** * Global variables:
 589:.\Generated_Source\PSoC5/RTC_1.c **** *  RTC_1_currentTimeDate.Hour: global structure's field where
 590:.\Generated_Source\PSoC5/RTC_1.c **** *  current hour's value is modified.
 591:.\Generated_Source\PSoC5/RTC_1.c **** *
 592:.\Generated_Source\PSoC5/RTC_1.c **** * Reentrant:
 593:.\Generated_Source\PSoC5/RTC_1.c **** *  No.
 594:.\Generated_Source\PSoC5/RTC_1.c **** *
 595:.\Generated_Source\PSoC5/RTC_1.c **** *******************************************************************************/
 596:.\Generated_Source\PSoC5/RTC_1.c **** void RTC_1_WriteHour(uint8 hour) 
 597:.\Generated_Source\PSoC5/RTC_1.c **** {
 792              		.loc 1 597 0
 793              		.cfi_startproc
 794              		@ args = 0, pretend = 0, frame = 8
 795              		@ frame_needed = 1, uses_anonymous_args = 0
 796              		@ link register save eliminated.
 797 0000 80B4     		push	{r7}
 798              		.cfi_def_cfa_offset 4
 799              		.cfi_offset 7, -4
 800 0002 83B0     		sub	sp, sp, #12
 801              		.cfi_def_cfa_offset 16
 802 0004 00AF     		add	r7, sp, #0
 803              		.cfi_def_cfa_register 7
 804 0006 0346     		mov	r3, r0
 805 0008 FB71     		strb	r3, [r7, #7]
 598:.\Generated_Source\PSoC5/RTC_1.c ****     /* Save hours to the current time and date structure */
 599:.\Generated_Source\PSoC5/RTC_1.c ****     RTC_1_currentTimeDate.Hour = hour;
 806              		.loc 1 599 0
 807 000a 044A     		ldr	r2, .L45
 808 000c FB79     		ldrb	r3, [r7, #7]
 809 000e 9370     		strb	r3, [r2, #2]
 600:.\Generated_Source\PSoC5/RTC_1.c **** }
 810              		.loc 1 600 0
 811 0010 0C37     		adds	r7, r7, #12
 812              		.cfi_def_cfa_offset 4
 813 0012 BD46     		mov	sp, r7
 814              		.cfi_def_cfa_register 13
 815              		@ sp needed
 816 0014 5DF8047B 		ldr	r7, [sp], #4
 817              		.cfi_restore 7
 818              		.cfi_def_cfa_offset 0
 819 0018 7047     		bx	lr
 820              	.L46:
 821 001a 00BF     		.align	2
ARM GAS  C:\Users\glenn\AppData\Local\Temp\ccPIHEU1.s 			page 26


 822              	.L45:
 823 001c 00000000 		.word	RTC_1_currentTimeDate
 824              		.cfi_endproc
 825              	.LFE11:
 826              		.size	RTC_1_WriteHour, .-RTC_1_WriteHour
 827              		.section	.text.RTC_1_WriteDayOfMonth,"ax",%progbits
 828              		.align	2
 829              		.global	RTC_1_WriteDayOfMonth
 830              		.thumb
 831              		.thumb_func
 832              		.type	RTC_1_WriteDayOfMonth, %function
 833              	RTC_1_WriteDayOfMonth:
 834              	.LFB12:
 601:.\Generated_Source\PSoC5/RTC_1.c **** 
 602:.\Generated_Source\PSoC5/RTC_1.c **** 
 603:.\Generated_Source\PSoC5/RTC_1.c **** /*******************************************************************************
 604:.\Generated_Source\PSoC5/RTC_1.c **** * Function Name:   RTC_1_WriteDayOfMonth
 605:.\Generated_Source\PSoC5/RTC_1.c **** ********************************************************************************
 606:.\Generated_Source\PSoC5/RTC_1.c **** *
 607:.\Generated_Source\PSoC5/RTC_1.c **** * Summary:
 608:.\Generated_Source\PSoC5/RTC_1.c **** *  Writes DayOfMonth software register value.
 609:.\Generated_Source\PSoC5/RTC_1.c **** *
 610:.\Generated_Source\PSoC5/RTC_1.c **** * Parameters:
 611:.\Generated_Source\PSoC5/RTC_1.c **** *  dayOfMonth: Day Of Month value.
 612:.\Generated_Source\PSoC5/RTC_1.c **** *
 613:.\Generated_Source\PSoC5/RTC_1.c **** * Return:
 614:.\Generated_Source\PSoC5/RTC_1.c **** *  None.
 615:.\Generated_Source\PSoC5/RTC_1.c **** *
 616:.\Generated_Source\PSoC5/RTC_1.c **** * Global variables:
 617:.\Generated_Source\PSoC5/RTC_1.c **** *  RTC_1_currentTimeDate.DayOfMonth: global structure's field where
 618:.\Generated_Source\PSoC5/RTC_1.c **** *  current day of month's value is modified.
 619:.\Generated_Source\PSoC5/RTC_1.c **** *
 620:.\Generated_Source\PSoC5/RTC_1.c **** * Reentrant:
 621:.\Generated_Source\PSoC5/RTC_1.c **** *  No.
 622:.\Generated_Source\PSoC5/RTC_1.c **** *
 623:.\Generated_Source\PSoC5/RTC_1.c **** *******************************************************************************/
 624:.\Generated_Source\PSoC5/RTC_1.c **** void RTC_1_WriteDayOfMonth(uint8 dayOfMonth) 
 625:.\Generated_Source\PSoC5/RTC_1.c **** {
 835              		.loc 1 625 0
 836              		.cfi_startproc
 837              		@ args = 0, pretend = 0, frame = 8
 838              		@ frame_needed = 1, uses_anonymous_args = 0
 839              		@ link register save eliminated.
 840 0000 80B4     		push	{r7}
 841              		.cfi_def_cfa_offset 4
 842              		.cfi_offset 7, -4
 843 0002 83B0     		sub	sp, sp, #12
 844              		.cfi_def_cfa_offset 16
 845 0004 00AF     		add	r7, sp, #0
 846              		.cfi_def_cfa_register 7
 847 0006 0346     		mov	r3, r0
 848 0008 FB71     		strb	r3, [r7, #7]
 626:.\Generated_Source\PSoC5/RTC_1.c ****     /* Save day of month to the current time and date structure */
 627:.\Generated_Source\PSoC5/RTC_1.c ****     RTC_1_currentTimeDate.DayOfMonth = dayOfMonth;
 849              		.loc 1 627 0
 850 000a 044A     		ldr	r2, .L48
 851 000c FB79     		ldrb	r3, [r7, #7]
ARM GAS  C:\Users\glenn\AppData\Local\Temp\ccPIHEU1.s 			page 27


 852 000e 1371     		strb	r3, [r2, #4]
 628:.\Generated_Source\PSoC5/RTC_1.c **** }
 853              		.loc 1 628 0
 854 0010 0C37     		adds	r7, r7, #12
 855              		.cfi_def_cfa_offset 4
 856 0012 BD46     		mov	sp, r7
 857              		.cfi_def_cfa_register 13
 858              		@ sp needed
 859 0014 5DF8047B 		ldr	r7, [sp], #4
 860              		.cfi_restore 7
 861              		.cfi_def_cfa_offset 0
 862 0018 7047     		bx	lr
 863              	.L49:
 864 001a 00BF     		.align	2
 865              	.L48:
 866 001c 00000000 		.word	RTC_1_currentTimeDate
 867              		.cfi_endproc
 868              	.LFE12:
 869              		.size	RTC_1_WriteDayOfMonth, .-RTC_1_WriteDayOfMonth
 870              		.section	.text.RTC_1_WriteMonth,"ax",%progbits
 871              		.align	2
 872              		.global	RTC_1_WriteMonth
 873              		.thumb
 874              		.thumb_func
 875              		.type	RTC_1_WriteMonth, %function
 876              	RTC_1_WriteMonth:
 877              	.LFB13:
 629:.\Generated_Source\PSoC5/RTC_1.c **** 
 630:.\Generated_Source\PSoC5/RTC_1.c **** 
 631:.\Generated_Source\PSoC5/RTC_1.c **** /*******************************************************************************
 632:.\Generated_Source\PSoC5/RTC_1.c **** * Function Name:   RTC_1_WriteMonth
 633:.\Generated_Source\PSoC5/RTC_1.c **** ********************************************************************************
 634:.\Generated_Source\PSoC5/RTC_1.c **** *
 635:.\Generated_Source\PSoC5/RTC_1.c **** * Summary:
 636:.\Generated_Source\PSoC5/RTC_1.c **** *  Writes Month software register value.
 637:.\Generated_Source\PSoC5/RTC_1.c **** *
 638:.\Generated_Source\PSoC5/RTC_1.c **** * Parameters:
 639:.\Generated_Source\PSoC5/RTC_1.c **** *  month: Month value.
 640:.\Generated_Source\PSoC5/RTC_1.c **** *
 641:.\Generated_Source\PSoC5/RTC_1.c **** * Return:
 642:.\Generated_Source\PSoC5/RTC_1.c **** *  None.
 643:.\Generated_Source\PSoC5/RTC_1.c **** *
 644:.\Generated_Source\PSoC5/RTC_1.c **** * Global variables:
 645:.\Generated_Source\PSoC5/RTC_1.c **** *  RTC_1_currentTimeDate.Month: global structure's field where
 646:.\Generated_Source\PSoC5/RTC_1.c **** *  current day of month's value is modified.
 647:.\Generated_Source\PSoC5/RTC_1.c **** *
 648:.\Generated_Source\PSoC5/RTC_1.c **** * Reentrant:
 649:.\Generated_Source\PSoC5/RTC_1.c **** *  No.
 650:.\Generated_Source\PSoC5/RTC_1.c **** *
 651:.\Generated_Source\PSoC5/RTC_1.c **** *******************************************************************************/
 652:.\Generated_Source\PSoC5/RTC_1.c **** void RTC_1_WriteMonth(uint8 month) 
 653:.\Generated_Source\PSoC5/RTC_1.c **** {
 878              		.loc 1 653 0
 879              		.cfi_startproc
 880              		@ args = 0, pretend = 0, frame = 8
 881              		@ frame_needed = 1, uses_anonymous_args = 0
 882              		@ link register save eliminated.
ARM GAS  C:\Users\glenn\AppData\Local\Temp\ccPIHEU1.s 			page 28


 883 0000 80B4     		push	{r7}
 884              		.cfi_def_cfa_offset 4
 885              		.cfi_offset 7, -4
 886 0002 83B0     		sub	sp, sp, #12
 887              		.cfi_def_cfa_offset 16
 888 0004 00AF     		add	r7, sp, #0
 889              		.cfi_def_cfa_register 7
 890 0006 0346     		mov	r3, r0
 891 0008 FB71     		strb	r3, [r7, #7]
 654:.\Generated_Source\PSoC5/RTC_1.c ****     /* Save months to the current time and date structure */
 655:.\Generated_Source\PSoC5/RTC_1.c ****     RTC_1_currentTimeDate.Month = month;
 892              		.loc 1 655 0
 893 000a 044A     		ldr	r2, .L51
 894 000c FB79     		ldrb	r3, [r7, #7]
 895 000e 1372     		strb	r3, [r2, #8]
 656:.\Generated_Source\PSoC5/RTC_1.c **** }
 896              		.loc 1 656 0
 897 0010 0C37     		adds	r7, r7, #12
 898              		.cfi_def_cfa_offset 4
 899 0012 BD46     		mov	sp, r7
 900              		.cfi_def_cfa_register 13
 901              		@ sp needed
 902 0014 5DF8047B 		ldr	r7, [sp], #4
 903              		.cfi_restore 7
 904              		.cfi_def_cfa_offset 0
 905 0018 7047     		bx	lr
 906              	.L52:
 907 001a 00BF     		.align	2
 908              	.L51:
 909 001c 00000000 		.word	RTC_1_currentTimeDate
 910              		.cfi_endproc
 911              	.LFE13:
 912              		.size	RTC_1_WriteMonth, .-RTC_1_WriteMonth
 913              		.section	.text.RTC_1_WriteYear,"ax",%progbits
 914              		.align	2
 915              		.global	RTC_1_WriteYear
 916              		.thumb
 917              		.thumb_func
 918              		.type	RTC_1_WriteYear, %function
 919              	RTC_1_WriteYear:
 920              	.LFB14:
 657:.\Generated_Source\PSoC5/RTC_1.c **** 
 658:.\Generated_Source\PSoC5/RTC_1.c **** 
 659:.\Generated_Source\PSoC5/RTC_1.c **** /*******************************************************************************
 660:.\Generated_Source\PSoC5/RTC_1.c **** * Function Name:   RTC_1_WriteYear
 661:.\Generated_Source\PSoC5/RTC_1.c **** ********************************************************************************
 662:.\Generated_Source\PSoC5/RTC_1.c **** *
 663:.\Generated_Source\PSoC5/RTC_1.c **** * Summary:
 664:.\Generated_Source\PSoC5/RTC_1.c **** *  Writes Year software register value.
 665:.\Generated_Source\PSoC5/RTC_1.c **** *
 666:.\Generated_Source\PSoC5/RTC_1.c **** * Parameters:
 667:.\Generated_Source\PSoC5/RTC_1.c **** *  year: Years value.
 668:.\Generated_Source\PSoC5/RTC_1.c **** *
 669:.\Generated_Source\PSoC5/RTC_1.c **** * Return:
 670:.\Generated_Source\PSoC5/RTC_1.c **** *  None.
 671:.\Generated_Source\PSoC5/RTC_1.c **** *
 672:.\Generated_Source\PSoC5/RTC_1.c **** * Global variables:
ARM GAS  C:\Users\glenn\AppData\Local\Temp\ccPIHEU1.s 			page 29


 673:.\Generated_Source\PSoC5/RTC_1.c **** *  RTC_1_currentTimeDate.Year: global structure's field where
 674:.\Generated_Source\PSoC5/RTC_1.c **** *  current year's value is modified.
 675:.\Generated_Source\PSoC5/RTC_1.c **** *
 676:.\Generated_Source\PSoC5/RTC_1.c **** * Reentrant:
 677:.\Generated_Source\PSoC5/RTC_1.c **** *  No.
 678:.\Generated_Source\PSoC5/RTC_1.c **** *
 679:.\Generated_Source\PSoC5/RTC_1.c **** *******************************************************************************/
 680:.\Generated_Source\PSoC5/RTC_1.c **** void RTC_1_WriteYear(uint16 year) 
 681:.\Generated_Source\PSoC5/RTC_1.c **** {
 921              		.loc 1 681 0
 922              		.cfi_startproc
 923              		@ args = 0, pretend = 0, frame = 8
 924              		@ frame_needed = 1, uses_anonymous_args = 0
 925              		@ link register save eliminated.
 926 0000 80B4     		push	{r7}
 927              		.cfi_def_cfa_offset 4
 928              		.cfi_offset 7, -4
 929 0002 83B0     		sub	sp, sp, #12
 930              		.cfi_def_cfa_offset 16
 931 0004 00AF     		add	r7, sp, #0
 932              		.cfi_def_cfa_register 7
 933 0006 0346     		mov	r3, r0
 934 0008 FB80     		strh	r3, [r7, #6]	@ movhi
 682:.\Generated_Source\PSoC5/RTC_1.c ****     /* Save years to the current time and date structure */
 683:.\Generated_Source\PSoC5/RTC_1.c ****     RTC_1_currentTimeDate.Year = year;
 935              		.loc 1 683 0
 936 000a 044A     		ldr	r2, .L54
 937 000c FB88     		ldrh	r3, [r7, #6]	@ movhi
 938 000e 5381     		strh	r3, [r2, #10]	@ movhi
 684:.\Generated_Source\PSoC5/RTC_1.c **** }
 939              		.loc 1 684 0
 940 0010 0C37     		adds	r7, r7, #12
 941              		.cfi_def_cfa_offset 4
 942 0012 BD46     		mov	sp, r7
 943              		.cfi_def_cfa_register 13
 944              		@ sp needed
 945 0014 5DF8047B 		ldr	r7, [sp], #4
 946              		.cfi_restore 7
 947              		.cfi_def_cfa_offset 0
 948 0018 7047     		bx	lr
 949              	.L55:
 950 001a 00BF     		.align	2
 951              	.L54:
 952 001c 00000000 		.word	RTC_1_currentTimeDate
 953              		.cfi_endproc
 954              	.LFE14:
 955              		.size	RTC_1_WriteYear, .-RTC_1_WriteYear
 956              		.section	.text.RTC_1_WriteAlarmSecond,"ax",%progbits
 957              		.align	2
 958              		.global	RTC_1_WriteAlarmSecond
 959              		.thumb
 960              		.thumb_func
 961              		.type	RTC_1_WriteAlarmSecond, %function
 962              	RTC_1_WriteAlarmSecond:
 963              	.LFB15:
 685:.\Generated_Source\PSoC5/RTC_1.c **** 
 686:.\Generated_Source\PSoC5/RTC_1.c **** 
ARM GAS  C:\Users\glenn\AppData\Local\Temp\ccPIHEU1.s 			page 30


 687:.\Generated_Source\PSoC5/RTC_1.c **** /*******************************************************************************
 688:.\Generated_Source\PSoC5/RTC_1.c **** * Function Name:   RTC_1_WriteAlarmSecond
 689:.\Generated_Source\PSoC5/RTC_1.c **** ********************************************************************************
 690:.\Generated_Source\PSoC5/RTC_1.c **** *
 691:.\Generated_Source\PSoC5/RTC_1.c **** * Summary:
 692:.\Generated_Source\PSoC5/RTC_1.c **** *  Writes Alarm Sec software register value.
 693:.\Generated_Source\PSoC5/RTC_1.c **** *
 694:.\Generated_Source\PSoC5/RTC_1.c **** * Parameters:
 695:.\Generated_Source\PSoC5/RTC_1.c **** *  second: Alarm Seconds value.
 696:.\Generated_Source\PSoC5/RTC_1.c **** *
 697:.\Generated_Source\PSoC5/RTC_1.c **** * Return:
 698:.\Generated_Source\PSoC5/RTC_1.c **** *  None.
 699:.\Generated_Source\PSoC5/RTC_1.c **** *
 700:.\Generated_Source\PSoC5/RTC_1.c **** * Global variables:
 701:.\Generated_Source\PSoC5/RTC_1.c **** *  RTC_1_currentTimeDate.Sec: this global variable is used for
 702:.\Generated_Source\PSoC5/RTC_1.c **** *  comparison while setting and clearing seconds alarm status variable.
 703:.\Generated_Source\PSoC5/RTC_1.c **** *
 704:.\Generated_Source\PSoC5/RTC_1.c **** *  RTC_1_alarmCfgTimeDate.Sec: this global variable is modified to
 705:.\Generated_Source\PSoC5/RTC_1.c **** *  store of the new seconds alarm.
 706:.\Generated_Source\PSoC5/RTC_1.c **** *
 707:.\Generated_Source\PSoC5/RTC_1.c **** *  RTC_1_alarmCurStatus: this global variable could be changed if
 708:.\Generated_Source\PSoC5/RTC_1.c **** *  second's alarm will be raised.
 709:.\Generated_Source\PSoC5/RTC_1.c **** *
 710:.\Generated_Source\PSoC5/RTC_1.c **** * Reentrant:
 711:.\Generated_Source\PSoC5/RTC_1.c **** *  No.
 712:.\Generated_Source\PSoC5/RTC_1.c **** *
 713:.\Generated_Source\PSoC5/RTC_1.c **** *******************************************************************************/
 714:.\Generated_Source\PSoC5/RTC_1.c **** void RTC_1_WriteAlarmSecond(uint8 second) 
 715:.\Generated_Source\PSoC5/RTC_1.c **** {
 964              		.loc 1 715 0
 965              		.cfi_startproc
 966              		@ args = 0, pretend = 0, frame = 8
 967              		@ frame_needed = 1, uses_anonymous_args = 0
 968              		@ link register save eliminated.
 969 0000 80B4     		push	{r7}
 970              		.cfi_def_cfa_offset 4
 971              		.cfi_offset 7, -4
 972 0002 83B0     		sub	sp, sp, #12
 973              		.cfi_def_cfa_offset 16
 974 0004 00AF     		add	r7, sp, #0
 975              		.cfi_def_cfa_register 7
 976 0006 0346     		mov	r3, r0
 977 0008 FB71     		strb	r3, [r7, #7]
 716:.\Generated_Source\PSoC5/RTC_1.c ****     RTC_1_alarmCfgTimeDate.Sec = second;
 978              		.loc 1 716 0
 979 000a 104A     		ldr	r2, .L59
 980 000c FB79     		ldrb	r3, [r7, #7]
 981 000e 1370     		strb	r3, [r2]
 717:.\Generated_Source\PSoC5/RTC_1.c **** 
 718:.\Generated_Source\PSoC5/RTC_1.c ****     /* Check second alarm */
 719:.\Generated_Source\PSoC5/RTC_1.c ****     if(RTC_1_alarmCfgTimeDate.Sec == RTC_1_currentTimeDate.Sec)
 982              		.loc 1 719 0
 983 0010 0E4B     		ldr	r3, .L59
 984 0012 1B78     		ldrb	r3, [r3]
 985 0014 DAB2     		uxtb	r2, r3
 986 0016 0E4B     		ldr	r3, .L59+4
 987 0018 1B78     		ldrb	r3, [r3]
ARM GAS  C:\Users\glenn\AppData\Local\Temp\ccPIHEU1.s 			page 31


 988 001a DBB2     		uxtb	r3, r3
 989 001c 9A42     		cmp	r2, r3
 990 001e 08D1     		bne	.L57
 720:.\Generated_Source\PSoC5/RTC_1.c ****     {
 721:.\Generated_Source\PSoC5/RTC_1.c ****         /* Set second alarm */
 722:.\Generated_Source\PSoC5/RTC_1.c ****         RTC_1_alarmCurStatus |= RTC_1_ALARM_SEC_MASK;
 991              		.loc 1 722 0
 992 0020 0C4B     		ldr	r3, .L59+8
 993 0022 1B78     		ldrb	r3, [r3]
 994 0024 DBB2     		uxtb	r3, r3
 995 0026 43F00103 		orr	r3, r3, #1
 996 002a DAB2     		uxtb	r2, r3
 997 002c 094B     		ldr	r3, .L59+8
 998 002e 1A70     		strb	r2, [r3]
 999 0030 07E0     		b	.L56
 1000              	.L57:
 723:.\Generated_Source\PSoC5/RTC_1.c ****     }
 724:.\Generated_Source\PSoC5/RTC_1.c ****     else /* no second alarm */
 725:.\Generated_Source\PSoC5/RTC_1.c ****     {
 726:.\Generated_Source\PSoC5/RTC_1.c ****         /* Clear second alarm */
 727:.\Generated_Source\PSoC5/RTC_1.c ****         RTC_1_alarmCurStatus &= (uint8)(~RTC_1_ALARM_SEC_MASK);
 1001              		.loc 1 727 0
 1002 0032 084B     		ldr	r3, .L59+8
 1003 0034 1B78     		ldrb	r3, [r3]
 1004 0036 DBB2     		uxtb	r3, r3
 1005 0038 23F00103 		bic	r3, r3, #1
 1006 003c DAB2     		uxtb	r2, r3
 1007 003e 054B     		ldr	r3, .L59+8
 1008 0040 1A70     		strb	r2, [r3]
 1009              	.L56:
 728:.\Generated_Source\PSoC5/RTC_1.c ****     }
 729:.\Generated_Source\PSoC5/RTC_1.c **** }
 1010              		.loc 1 729 0
 1011 0042 0C37     		adds	r7, r7, #12
 1012              		.cfi_def_cfa_offset 4
 1013 0044 BD46     		mov	sp, r7
 1014              		.cfi_def_cfa_register 13
 1015              		@ sp needed
 1016 0046 5DF8047B 		ldr	r7, [sp], #4
 1017              		.cfi_restore 7
 1018              		.cfi_def_cfa_offset 0
 1019 004a 7047     		bx	lr
 1020              	.L60:
 1021              		.align	2
 1022              	.L59:
 1023 004c 00000000 		.word	RTC_1_alarmCfgTimeDate
 1024 0050 00000000 		.word	RTC_1_currentTimeDate
 1025 0054 00000000 		.word	RTC_1_alarmCurStatus
 1026              		.cfi_endproc
 1027              	.LFE15:
 1028              		.size	RTC_1_WriteAlarmSecond, .-RTC_1_WriteAlarmSecond
 1029              		.section	.text.RTC_1_WriteAlarmMinute,"ax",%progbits
 1030              		.align	2
 1031              		.global	RTC_1_WriteAlarmMinute
 1032              		.thumb
 1033              		.thumb_func
 1034              		.type	RTC_1_WriteAlarmMinute, %function
ARM GAS  C:\Users\glenn\AppData\Local\Temp\ccPIHEU1.s 			page 32


 1035              	RTC_1_WriteAlarmMinute:
 1036              	.LFB16:
 730:.\Generated_Source\PSoC5/RTC_1.c **** 
 731:.\Generated_Source\PSoC5/RTC_1.c **** 
 732:.\Generated_Source\PSoC5/RTC_1.c **** /*******************************************************************************
 733:.\Generated_Source\PSoC5/RTC_1.c **** * Function Name:   RTC_1_WriteAlarmMinute
 734:.\Generated_Source\PSoC5/RTC_1.c **** ********************************************************************************
 735:.\Generated_Source\PSoC5/RTC_1.c **** *
 736:.\Generated_Source\PSoC5/RTC_1.c **** * Summary:
 737:.\Generated_Source\PSoC5/RTC_1.c **** *  Writes Alarm Min software register value.
 738:.\Generated_Source\PSoC5/RTC_1.c **** *
 739:.\Generated_Source\PSoC5/RTC_1.c **** * Parameters:
 740:.\Generated_Source\PSoC5/RTC_1.c **** *  minute: Alarm minutes value.
 741:.\Generated_Source\PSoC5/RTC_1.c **** *
 742:.\Generated_Source\PSoC5/RTC_1.c **** * Return:
 743:.\Generated_Source\PSoC5/RTC_1.c **** *  None.
 744:.\Generated_Source\PSoC5/RTC_1.c **** *
 745:.\Generated_Source\PSoC5/RTC_1.c **** * Global variables:
 746:.\Generated_Source\PSoC5/RTC_1.c **** *  RTC_1_currentTimeDate.Min: this global variable is used for
 747:.\Generated_Source\PSoC5/RTC_1.c **** *  comparison while setting and clearing minutes alarm status variable.
 748:.\Generated_Source\PSoC5/RTC_1.c **** *
 749:.\Generated_Source\PSoC5/RTC_1.c **** *  RTC_1_alarmCfgTimeDate.Min: this global variable is modified to
 750:.\Generated_Source\PSoC5/RTC_1.c **** *  store of the new minutes alarm.
 751:.\Generated_Source\PSoC5/RTC_1.c **** *
 752:.\Generated_Source\PSoC5/RTC_1.c **** *  RTC_1_alarmCurStatus: this global variable could be changed if
 753:.\Generated_Source\PSoC5/RTC_1.c **** *  minute's alarm will be raised.
 754:.\Generated_Source\PSoC5/RTC_1.c **** *
 755:.\Generated_Source\PSoC5/RTC_1.c **** * Reentrant:
 756:.\Generated_Source\PSoC5/RTC_1.c **** *  No.
 757:.\Generated_Source\PSoC5/RTC_1.c **** *
 758:.\Generated_Source\PSoC5/RTC_1.c **** *******************************************************************************/
 759:.\Generated_Source\PSoC5/RTC_1.c **** void RTC_1_WriteAlarmMinute(uint8 minute) 
 760:.\Generated_Source\PSoC5/RTC_1.c **** {
 1037              		.loc 1 760 0
 1038              		.cfi_startproc
 1039              		@ args = 0, pretend = 0, frame = 8
 1040              		@ frame_needed = 1, uses_anonymous_args = 0
 1041              		@ link register save eliminated.
 1042 0000 80B4     		push	{r7}
 1043              		.cfi_def_cfa_offset 4
 1044              		.cfi_offset 7, -4
 1045 0002 83B0     		sub	sp, sp, #12
 1046              		.cfi_def_cfa_offset 16
 1047 0004 00AF     		add	r7, sp, #0
 1048              		.cfi_def_cfa_register 7
 1049 0006 0346     		mov	r3, r0
 1050 0008 FB71     		strb	r3, [r7, #7]
 761:.\Generated_Source\PSoC5/RTC_1.c ****     RTC_1_alarmCfgTimeDate.Min = minute;
 1051              		.loc 1 761 0
 1052 000a 104A     		ldr	r2, .L64
 1053 000c FB79     		ldrb	r3, [r7, #7]
 1054 000e 5370     		strb	r3, [r2, #1]
 762:.\Generated_Source\PSoC5/RTC_1.c **** 
 763:.\Generated_Source\PSoC5/RTC_1.c ****     /* Check minute alarm */
 764:.\Generated_Source\PSoC5/RTC_1.c ****     if(RTC_1_alarmCfgTimeDate.Min == RTC_1_currentTimeDate.Min)
 1055              		.loc 1 764 0
 1056 0010 0E4B     		ldr	r3, .L64
ARM GAS  C:\Users\glenn\AppData\Local\Temp\ccPIHEU1.s 			page 33


 1057 0012 5B78     		ldrb	r3, [r3, #1]
 1058 0014 DAB2     		uxtb	r2, r3
 1059 0016 0E4B     		ldr	r3, .L64+4
 1060 0018 5B78     		ldrb	r3, [r3, #1]
 1061 001a DBB2     		uxtb	r3, r3
 1062 001c 9A42     		cmp	r2, r3
 1063 001e 08D1     		bne	.L62
 765:.\Generated_Source\PSoC5/RTC_1.c ****     {
 766:.\Generated_Source\PSoC5/RTC_1.c ****         /* Set minute alarm */
 767:.\Generated_Source\PSoC5/RTC_1.c ****         RTC_1_alarmCurStatus |= RTC_1_ALARM_MIN_MASK;
 1064              		.loc 1 767 0
 1065 0020 0C4B     		ldr	r3, .L64+8
 1066 0022 1B78     		ldrb	r3, [r3]
 1067 0024 DBB2     		uxtb	r3, r3
 1068 0026 43F00203 		orr	r3, r3, #2
 1069 002a DAB2     		uxtb	r2, r3
 1070 002c 094B     		ldr	r3, .L64+8
 1071 002e 1A70     		strb	r2, [r3]
 1072 0030 07E0     		b	.L61
 1073              	.L62:
 768:.\Generated_Source\PSoC5/RTC_1.c ****     }
 769:.\Generated_Source\PSoC5/RTC_1.c ****     else /* no minute alarm */
 770:.\Generated_Source\PSoC5/RTC_1.c ****     {
 771:.\Generated_Source\PSoC5/RTC_1.c ****         /* Clear minute alarm */
 772:.\Generated_Source\PSoC5/RTC_1.c ****         RTC_1_alarmCurStatus &= (uint8)(~RTC_1_ALARM_MIN_MASK);
 1074              		.loc 1 772 0
 1075 0032 084B     		ldr	r3, .L64+8
 1076 0034 1B78     		ldrb	r3, [r3]
 1077 0036 DBB2     		uxtb	r3, r3
 1078 0038 23F00203 		bic	r3, r3, #2
 1079 003c DAB2     		uxtb	r2, r3
 1080 003e 054B     		ldr	r3, .L64+8
 1081 0040 1A70     		strb	r2, [r3]
 1082              	.L61:
 773:.\Generated_Source\PSoC5/RTC_1.c ****     }
 774:.\Generated_Source\PSoC5/RTC_1.c **** }
 1083              		.loc 1 774 0
 1084 0042 0C37     		adds	r7, r7, #12
 1085              		.cfi_def_cfa_offset 4
 1086 0044 BD46     		mov	sp, r7
 1087              		.cfi_def_cfa_register 13
 1088              		@ sp needed
 1089 0046 5DF8047B 		ldr	r7, [sp], #4
 1090              		.cfi_restore 7
 1091              		.cfi_def_cfa_offset 0
 1092 004a 7047     		bx	lr
 1093              	.L65:
 1094              		.align	2
 1095              	.L64:
 1096 004c 00000000 		.word	RTC_1_alarmCfgTimeDate
 1097 0050 00000000 		.word	RTC_1_currentTimeDate
 1098 0054 00000000 		.word	RTC_1_alarmCurStatus
 1099              		.cfi_endproc
 1100              	.LFE16:
 1101              		.size	RTC_1_WriteAlarmMinute, .-RTC_1_WriteAlarmMinute
 1102              		.section	.text.RTC_1_WriteAlarmHour,"ax",%progbits
 1103              		.align	2
ARM GAS  C:\Users\glenn\AppData\Local\Temp\ccPIHEU1.s 			page 34


 1104              		.global	RTC_1_WriteAlarmHour
 1105              		.thumb
 1106              		.thumb_func
 1107              		.type	RTC_1_WriteAlarmHour, %function
 1108              	RTC_1_WriteAlarmHour:
 1109              	.LFB17:
 775:.\Generated_Source\PSoC5/RTC_1.c **** 
 776:.\Generated_Source\PSoC5/RTC_1.c **** 
 777:.\Generated_Source\PSoC5/RTC_1.c **** /*******************************************************************************
 778:.\Generated_Source\PSoC5/RTC_1.c **** * Function Name:   RTC_1_WriteAlarmHour
 779:.\Generated_Source\PSoC5/RTC_1.c **** ********************************************************************************
 780:.\Generated_Source\PSoC5/RTC_1.c **** *
 781:.\Generated_Source\PSoC5/RTC_1.c **** * Summary:
 782:.\Generated_Source\PSoC5/RTC_1.c **** *  Writes Alarm Hour software register value.
 783:.\Generated_Source\PSoC5/RTC_1.c **** *
 784:.\Generated_Source\PSoC5/RTC_1.c **** * Parameters:
 785:.\Generated_Source\PSoC5/RTC_1.c **** *  hour: Alarm hours value.
 786:.\Generated_Source\PSoC5/RTC_1.c **** *
 787:.\Generated_Source\PSoC5/RTC_1.c **** * Return:
 788:.\Generated_Source\PSoC5/RTC_1.c **** *  None.
 789:.\Generated_Source\PSoC5/RTC_1.c **** *
 790:.\Generated_Source\PSoC5/RTC_1.c **** * Global variables:
 791:.\Generated_Source\PSoC5/RTC_1.c **** *  RTC_1_currentTimeDate.Hour: this global variable is used for
 792:.\Generated_Source\PSoC5/RTC_1.c **** *  comparison while setting and clearing hours alarm status variable.
 793:.\Generated_Source\PSoC5/RTC_1.c **** *
 794:.\Generated_Source\PSoC5/RTC_1.c **** *  RTC_1_alarmCfgTimeDate.Hour: this global variable is modified to
 795:.\Generated_Source\PSoC5/RTC_1.c **** *  store of the new hours alarm.
 796:.\Generated_Source\PSoC5/RTC_1.c **** *
 797:.\Generated_Source\PSoC5/RTC_1.c **** *  RTC_1_alarmCurStatus: this global variable could be changed if
 798:.\Generated_Source\PSoC5/RTC_1.c **** *  hours alarm will be raised.
 799:.\Generated_Source\PSoC5/RTC_1.c **** *
 800:.\Generated_Source\PSoC5/RTC_1.c **** * Reentrant:
 801:.\Generated_Source\PSoC5/RTC_1.c **** *  No.
 802:.\Generated_Source\PSoC5/RTC_1.c **** *
 803:.\Generated_Source\PSoC5/RTC_1.c **** *******************************************************************************/
 804:.\Generated_Source\PSoC5/RTC_1.c **** void RTC_1_WriteAlarmHour(uint8 hour) 
 805:.\Generated_Source\PSoC5/RTC_1.c **** {
 1110              		.loc 1 805 0
 1111              		.cfi_startproc
 1112              		@ args = 0, pretend = 0, frame = 8
 1113              		@ frame_needed = 1, uses_anonymous_args = 0
 1114              		@ link register save eliminated.
 1115 0000 80B4     		push	{r7}
 1116              		.cfi_def_cfa_offset 4
 1117              		.cfi_offset 7, -4
 1118 0002 83B0     		sub	sp, sp, #12
 1119              		.cfi_def_cfa_offset 16
 1120 0004 00AF     		add	r7, sp, #0
 1121              		.cfi_def_cfa_register 7
 1122 0006 0346     		mov	r3, r0
 1123 0008 FB71     		strb	r3, [r7, #7]
 806:.\Generated_Source\PSoC5/RTC_1.c ****     RTC_1_alarmCfgTimeDate.Hour = hour;
 1124              		.loc 1 806 0
 1125 000a 104A     		ldr	r2, .L69
 1126 000c FB79     		ldrb	r3, [r7, #7]
 1127 000e 9370     		strb	r3, [r2, #2]
 807:.\Generated_Source\PSoC5/RTC_1.c **** 
ARM GAS  C:\Users\glenn\AppData\Local\Temp\ccPIHEU1.s 			page 35


 808:.\Generated_Source\PSoC5/RTC_1.c ****     /* Check hour alarm */
 809:.\Generated_Source\PSoC5/RTC_1.c ****     if(RTC_1_alarmCfgTimeDate.Hour == RTC_1_currentTimeDate.Hour)
 1128              		.loc 1 809 0
 1129 0010 0E4B     		ldr	r3, .L69
 1130 0012 9B78     		ldrb	r3, [r3, #2]
 1131 0014 DAB2     		uxtb	r2, r3
 1132 0016 0E4B     		ldr	r3, .L69+4
 1133 0018 9B78     		ldrb	r3, [r3, #2]
 1134 001a DBB2     		uxtb	r3, r3
 1135 001c 9A42     		cmp	r2, r3
 1136 001e 08D1     		bne	.L67
 810:.\Generated_Source\PSoC5/RTC_1.c ****     {
 811:.\Generated_Source\PSoC5/RTC_1.c ****         /* Set hour alarm */
 812:.\Generated_Source\PSoC5/RTC_1.c ****         RTC_1_alarmCurStatus |= RTC_1_ALARM_HOUR_MASK;
 1137              		.loc 1 812 0
 1138 0020 0C4B     		ldr	r3, .L69+8
 1139 0022 1B78     		ldrb	r3, [r3]
 1140 0024 DBB2     		uxtb	r3, r3
 1141 0026 43F00403 		orr	r3, r3, #4
 1142 002a DAB2     		uxtb	r2, r3
 1143 002c 094B     		ldr	r3, .L69+8
 1144 002e 1A70     		strb	r2, [r3]
 1145 0030 07E0     		b	.L66
 1146              	.L67:
 813:.\Generated_Source\PSoC5/RTC_1.c ****     }
 814:.\Generated_Source\PSoC5/RTC_1.c ****     else /* no hour alarm */
 815:.\Generated_Source\PSoC5/RTC_1.c ****     {
 816:.\Generated_Source\PSoC5/RTC_1.c ****         /* Clear hour alarm */
 817:.\Generated_Source\PSoC5/RTC_1.c ****         RTC_1_alarmCurStatus &= (uint8)(~RTC_1_ALARM_HOUR_MASK);
 1147              		.loc 1 817 0
 1148 0032 084B     		ldr	r3, .L69+8
 1149 0034 1B78     		ldrb	r3, [r3]
 1150 0036 DBB2     		uxtb	r3, r3
 1151 0038 23F00403 		bic	r3, r3, #4
 1152 003c DAB2     		uxtb	r2, r3
 1153 003e 054B     		ldr	r3, .L69+8
 1154 0040 1A70     		strb	r2, [r3]
 1155              	.L66:
 818:.\Generated_Source\PSoC5/RTC_1.c ****     }
 819:.\Generated_Source\PSoC5/RTC_1.c **** }
 1156              		.loc 1 819 0
 1157 0042 0C37     		adds	r7, r7, #12
 1158              		.cfi_def_cfa_offset 4
 1159 0044 BD46     		mov	sp, r7
 1160              		.cfi_def_cfa_register 13
 1161              		@ sp needed
 1162 0046 5DF8047B 		ldr	r7, [sp], #4
 1163              		.cfi_restore 7
 1164              		.cfi_def_cfa_offset 0
 1165 004a 7047     		bx	lr
 1166              	.L70:
 1167              		.align	2
 1168              	.L69:
 1169 004c 00000000 		.word	RTC_1_alarmCfgTimeDate
 1170 0050 00000000 		.word	RTC_1_currentTimeDate
 1171 0054 00000000 		.word	RTC_1_alarmCurStatus
 1172              		.cfi_endproc
ARM GAS  C:\Users\glenn\AppData\Local\Temp\ccPIHEU1.s 			page 36


 1173              	.LFE17:
 1174              		.size	RTC_1_WriteAlarmHour, .-RTC_1_WriteAlarmHour
 1175              		.section	.text.RTC_1_WriteAlarmDayOfMonth,"ax",%progbits
 1176              		.align	2
 1177              		.global	RTC_1_WriteAlarmDayOfMonth
 1178              		.thumb
 1179              		.thumb_func
 1180              		.type	RTC_1_WriteAlarmDayOfMonth, %function
 1181              	RTC_1_WriteAlarmDayOfMonth:
 1182              	.LFB18:
 820:.\Generated_Source\PSoC5/RTC_1.c **** 
 821:.\Generated_Source\PSoC5/RTC_1.c **** 
 822:.\Generated_Source\PSoC5/RTC_1.c **** /*******************************************************************************
 823:.\Generated_Source\PSoC5/RTC_1.c **** * Function Name:   RTC_1_WriteAlarmDayOfMonth
 824:.\Generated_Source\PSoC5/RTC_1.c **** ********************************************************************************
 825:.\Generated_Source\PSoC5/RTC_1.c **** *
 826:.\Generated_Source\PSoC5/RTC_1.c **** * Summary:
 827:.\Generated_Source\PSoC5/RTC_1.c **** *  Writes Alarm DayOfMonth software register value.
 828:.\Generated_Source\PSoC5/RTC_1.c **** *
 829:.\Generated_Source\PSoC5/RTC_1.c **** * Parameters:
 830:.\Generated_Source\PSoC5/RTC_1.c **** *  dayOfMonth: Alarm day of month value.
 831:.\Generated_Source\PSoC5/RTC_1.c **** *
 832:.\Generated_Source\PSoC5/RTC_1.c **** * Return:
 833:.\Generated_Source\PSoC5/RTC_1.c **** *  None.
 834:.\Generated_Source\PSoC5/RTC_1.c **** *
 835:.\Generated_Source\PSoC5/RTC_1.c **** * Global variables:
 836:.\Generated_Source\PSoC5/RTC_1.c **** *  RTC_1_currentTimeDate.DayOfMonth: this global variable is used for
 837:.\Generated_Source\PSoC5/RTC_1.c **** *  comparison while setting and clearing day of month alarm status variable.
 838:.\Generated_Source\PSoC5/RTC_1.c **** *
 839:.\Generated_Source\PSoC5/RTC_1.c **** *  RTC_1_alarmCfgTimeDate.DayOfMonth: this global variable is
 840:.\Generated_Source\PSoC5/RTC_1.c **** *  modified to store of the new day of month alarm.
 841:.\Generated_Source\PSoC5/RTC_1.c **** *
 842:.\Generated_Source\PSoC5/RTC_1.c **** *  RTC_1_alarmCurStatus: this global variable could be changed if
 843:.\Generated_Source\PSoC5/RTC_1.c **** *  day of month alarm will be raised.
 844:.\Generated_Source\PSoC5/RTC_1.c **** *
 845:.\Generated_Source\PSoC5/RTC_1.c **** * Reentrant:
 846:.\Generated_Source\PSoC5/RTC_1.c **** *  No.
 847:.\Generated_Source\PSoC5/RTC_1.c **** *
 848:.\Generated_Source\PSoC5/RTC_1.c **** *******************************************************************************/
 849:.\Generated_Source\PSoC5/RTC_1.c **** void RTC_1_WriteAlarmDayOfMonth(uint8 dayOfMonth) 
 850:.\Generated_Source\PSoC5/RTC_1.c **** {
 1183              		.loc 1 850 0
 1184              		.cfi_startproc
 1185              		@ args = 0, pretend = 0, frame = 8
 1186              		@ frame_needed = 1, uses_anonymous_args = 0
 1187              		@ link register save eliminated.
 1188 0000 80B4     		push	{r7}
 1189              		.cfi_def_cfa_offset 4
 1190              		.cfi_offset 7, -4
 1191 0002 83B0     		sub	sp, sp, #12
 1192              		.cfi_def_cfa_offset 16
 1193 0004 00AF     		add	r7, sp, #0
 1194              		.cfi_def_cfa_register 7
 1195 0006 0346     		mov	r3, r0
 1196 0008 FB71     		strb	r3, [r7, #7]
 851:.\Generated_Source\PSoC5/RTC_1.c ****     RTC_1_alarmCfgTimeDate.DayOfMonth = dayOfMonth;
 1197              		.loc 1 851 0
ARM GAS  C:\Users\glenn\AppData\Local\Temp\ccPIHEU1.s 			page 37


 1198 000a 104A     		ldr	r2, .L74
 1199 000c FB79     		ldrb	r3, [r7, #7]
 1200 000e 1371     		strb	r3, [r2, #4]
 852:.\Generated_Source\PSoC5/RTC_1.c **** 
 853:.\Generated_Source\PSoC5/RTC_1.c ****     /* Check day of month alarm */
 854:.\Generated_Source\PSoC5/RTC_1.c ****     if(RTC_1_alarmCfgTimeDate.DayOfMonth == RTC_1_currentTimeDate.DayOfMonth)
 1201              		.loc 1 854 0
 1202 0010 0E4B     		ldr	r3, .L74
 1203 0012 1B79     		ldrb	r3, [r3, #4]
 1204 0014 DAB2     		uxtb	r2, r3
 1205 0016 0E4B     		ldr	r3, .L74+4
 1206 0018 1B79     		ldrb	r3, [r3, #4]
 1207 001a DBB2     		uxtb	r3, r3
 1208 001c 9A42     		cmp	r2, r3
 1209 001e 08D1     		bne	.L72
 855:.\Generated_Source\PSoC5/RTC_1.c ****     {
 856:.\Generated_Source\PSoC5/RTC_1.c ****         /* Set day of month alarm */
 857:.\Generated_Source\PSoC5/RTC_1.c ****         RTC_1_alarmCurStatus |= RTC_1_ALARM_DAYOFMONTH_MASK;
 1210              		.loc 1 857 0
 1211 0020 0C4B     		ldr	r3, .L74+8
 1212 0022 1B78     		ldrb	r3, [r3]
 1213 0024 DBB2     		uxtb	r3, r3
 1214 0026 43F01003 		orr	r3, r3, #16
 1215 002a DAB2     		uxtb	r2, r3
 1216 002c 094B     		ldr	r3, .L74+8
 1217 002e 1A70     		strb	r2, [r3]
 1218 0030 07E0     		b	.L71
 1219              	.L72:
 858:.\Generated_Source\PSoC5/RTC_1.c ****     }
 859:.\Generated_Source\PSoC5/RTC_1.c ****     else /* no day of month alarm */
 860:.\Generated_Source\PSoC5/RTC_1.c ****     {
 861:.\Generated_Source\PSoC5/RTC_1.c ****         /* Clear day of month alarm */
 862:.\Generated_Source\PSoC5/RTC_1.c ****         RTC_1_alarmCurStatus &= (uint8)(~RTC_1_ALARM_DAYOFMONTH_MASK);
 1220              		.loc 1 862 0
 1221 0032 084B     		ldr	r3, .L74+8
 1222 0034 1B78     		ldrb	r3, [r3]
 1223 0036 DBB2     		uxtb	r3, r3
 1224 0038 23F01003 		bic	r3, r3, #16
 1225 003c DAB2     		uxtb	r2, r3
 1226 003e 054B     		ldr	r3, .L74+8
 1227 0040 1A70     		strb	r2, [r3]
 1228              	.L71:
 863:.\Generated_Source\PSoC5/RTC_1.c ****     }
 864:.\Generated_Source\PSoC5/RTC_1.c **** }
 1229              		.loc 1 864 0
 1230 0042 0C37     		adds	r7, r7, #12
 1231              		.cfi_def_cfa_offset 4
 1232 0044 BD46     		mov	sp, r7
 1233              		.cfi_def_cfa_register 13
 1234              		@ sp needed
 1235 0046 5DF8047B 		ldr	r7, [sp], #4
 1236              		.cfi_restore 7
 1237              		.cfi_def_cfa_offset 0
 1238 004a 7047     		bx	lr
 1239              	.L75:
 1240              		.align	2
 1241              	.L74:
ARM GAS  C:\Users\glenn\AppData\Local\Temp\ccPIHEU1.s 			page 38


 1242 004c 00000000 		.word	RTC_1_alarmCfgTimeDate
 1243 0050 00000000 		.word	RTC_1_currentTimeDate
 1244 0054 00000000 		.word	RTC_1_alarmCurStatus
 1245              		.cfi_endproc
 1246              	.LFE18:
 1247              		.size	RTC_1_WriteAlarmDayOfMonth, .-RTC_1_WriteAlarmDayOfMonth
 1248              		.section	.text.RTC_1_WriteAlarmMonth,"ax",%progbits
 1249              		.align	2
 1250              		.global	RTC_1_WriteAlarmMonth
 1251              		.thumb
 1252              		.thumb_func
 1253              		.type	RTC_1_WriteAlarmMonth, %function
 1254              	RTC_1_WriteAlarmMonth:
 1255              	.LFB19:
 865:.\Generated_Source\PSoC5/RTC_1.c **** 
 866:.\Generated_Source\PSoC5/RTC_1.c **** 
 867:.\Generated_Source\PSoC5/RTC_1.c **** /*******************************************************************************
 868:.\Generated_Source\PSoC5/RTC_1.c **** * Function Name:   RTC_1_WriteAlarmMonth
 869:.\Generated_Source\PSoC5/RTC_1.c **** ********************************************************************************
 870:.\Generated_Source\PSoC5/RTC_1.c **** *
 871:.\Generated_Source\PSoC5/RTC_1.c **** * Summary:
 872:.\Generated_Source\PSoC5/RTC_1.c **** *  Writes Alarm Month software register value.
 873:.\Generated_Source\PSoC5/RTC_1.c **** *
 874:.\Generated_Source\PSoC5/RTC_1.c **** * Parameters:
 875:.\Generated_Source\PSoC5/RTC_1.c **** *  month: Alarm month value.
 876:.\Generated_Source\PSoC5/RTC_1.c **** *
 877:.\Generated_Source\PSoC5/RTC_1.c **** * Return:
 878:.\Generated_Source\PSoC5/RTC_1.c **** *  None.
 879:.\Generated_Source\PSoC5/RTC_1.c **** *
 880:.\Generated_Source\PSoC5/RTC_1.c **** * Global variables:
 881:.\Generated_Source\PSoC5/RTC_1.c **** *  RTC_1_currentTimeDate.Month: this global variable is used for
 882:.\Generated_Source\PSoC5/RTC_1.c **** *  comparison while setting and clearing month alarm status variable.
 883:.\Generated_Source\PSoC5/RTC_1.c **** *
 884:.\Generated_Source\PSoC5/RTC_1.c **** *  RTC_1_alarmCfgTimeDate.Month: this global variable is modified
 885:.\Generated_Source\PSoC5/RTC_1.c **** *  to store of the new month alarm.
 886:.\Generated_Source\PSoC5/RTC_1.c **** *
 887:.\Generated_Source\PSoC5/RTC_1.c **** *  RTC_1_alarmCurStatus: this global variable could be changed if
 888:.\Generated_Source\PSoC5/RTC_1.c **** *  month alarm will be raised.
 889:.\Generated_Source\PSoC5/RTC_1.c **** *
 890:.\Generated_Source\PSoC5/RTC_1.c **** * Reentrant:
 891:.\Generated_Source\PSoC5/RTC_1.c **** *  No.
 892:.\Generated_Source\PSoC5/RTC_1.c **** *
 893:.\Generated_Source\PSoC5/RTC_1.c **** *******************************************************************************/
 894:.\Generated_Source\PSoC5/RTC_1.c **** void RTC_1_WriteAlarmMonth(uint8 month) 
 895:.\Generated_Source\PSoC5/RTC_1.c **** {
 1256              		.loc 1 895 0
 1257              		.cfi_startproc
 1258              		@ args = 0, pretend = 0, frame = 8
 1259              		@ frame_needed = 1, uses_anonymous_args = 0
 1260              		@ link register save eliminated.
 1261 0000 80B4     		push	{r7}
 1262              		.cfi_def_cfa_offset 4
 1263              		.cfi_offset 7, -4
 1264 0002 83B0     		sub	sp, sp, #12
 1265              		.cfi_def_cfa_offset 16
 1266 0004 00AF     		add	r7, sp, #0
 1267              		.cfi_def_cfa_register 7
ARM GAS  C:\Users\glenn\AppData\Local\Temp\ccPIHEU1.s 			page 39


 1268 0006 0346     		mov	r3, r0
 1269 0008 FB71     		strb	r3, [r7, #7]
 896:.\Generated_Source\PSoC5/RTC_1.c ****     RTC_1_alarmCfgTimeDate.Month = month;
 1270              		.loc 1 896 0
 1271 000a 104A     		ldr	r2, .L79
 1272 000c FB79     		ldrb	r3, [r7, #7]
 1273 000e 1372     		strb	r3, [r2, #8]
 897:.\Generated_Source\PSoC5/RTC_1.c **** 
 898:.\Generated_Source\PSoC5/RTC_1.c ****     /* Check month alarm */
 899:.\Generated_Source\PSoC5/RTC_1.c ****     if(RTC_1_alarmCfgTimeDate.Month == RTC_1_currentTimeDate.Month)
 1274              		.loc 1 899 0
 1275 0010 0E4B     		ldr	r3, .L79
 1276 0012 1B7A     		ldrb	r3, [r3, #8]
 1277 0014 DAB2     		uxtb	r2, r3
 1278 0016 0E4B     		ldr	r3, .L79+4
 1279 0018 1B7A     		ldrb	r3, [r3, #8]
 1280 001a DBB2     		uxtb	r3, r3
 1281 001c 9A42     		cmp	r2, r3
 1282 001e 08D1     		bne	.L77
 900:.\Generated_Source\PSoC5/RTC_1.c ****     {
 901:.\Generated_Source\PSoC5/RTC_1.c ****         /* Set month alarm */
 902:.\Generated_Source\PSoC5/RTC_1.c ****         RTC_1_alarmCurStatus |= RTC_1_ALARM_MONTH_MASK;
 1283              		.loc 1 902 0
 1284 0020 0C4B     		ldr	r3, .L79+8
 1285 0022 1B78     		ldrb	r3, [r3]
 1286 0024 DBB2     		uxtb	r3, r3
 1287 0026 43F04003 		orr	r3, r3, #64
 1288 002a DAB2     		uxtb	r2, r3
 1289 002c 094B     		ldr	r3, .L79+8
 1290 002e 1A70     		strb	r2, [r3]
 1291 0030 07E0     		b	.L76
 1292              	.L77:
 903:.\Generated_Source\PSoC5/RTC_1.c ****     }
 904:.\Generated_Source\PSoC5/RTC_1.c ****     else /* no month alarm */
 905:.\Generated_Source\PSoC5/RTC_1.c ****     {
 906:.\Generated_Source\PSoC5/RTC_1.c ****         /* Clear month alarm */
 907:.\Generated_Source\PSoC5/RTC_1.c ****         RTC_1_alarmCurStatus &= (uint8)(~RTC_1_ALARM_MONTH_MASK);
 1293              		.loc 1 907 0
 1294 0032 084B     		ldr	r3, .L79+8
 1295 0034 1B78     		ldrb	r3, [r3]
 1296 0036 DBB2     		uxtb	r3, r3
 1297 0038 23F04003 		bic	r3, r3, #64
 1298 003c DAB2     		uxtb	r2, r3
 1299 003e 054B     		ldr	r3, .L79+8
 1300 0040 1A70     		strb	r2, [r3]
 1301              	.L76:
 908:.\Generated_Source\PSoC5/RTC_1.c ****     }
 909:.\Generated_Source\PSoC5/RTC_1.c **** }
 1302              		.loc 1 909 0
 1303 0042 0C37     		adds	r7, r7, #12
 1304              		.cfi_def_cfa_offset 4
 1305 0044 BD46     		mov	sp, r7
 1306              		.cfi_def_cfa_register 13
 1307              		@ sp needed
 1308 0046 5DF8047B 		ldr	r7, [sp], #4
 1309              		.cfi_restore 7
 1310              		.cfi_def_cfa_offset 0
ARM GAS  C:\Users\glenn\AppData\Local\Temp\ccPIHEU1.s 			page 40


 1311 004a 7047     		bx	lr
 1312              	.L80:
 1313              		.align	2
 1314              	.L79:
 1315 004c 00000000 		.word	RTC_1_alarmCfgTimeDate
 1316 0050 00000000 		.word	RTC_1_currentTimeDate
 1317 0054 00000000 		.word	RTC_1_alarmCurStatus
 1318              		.cfi_endproc
 1319              	.LFE19:
 1320              		.size	RTC_1_WriteAlarmMonth, .-RTC_1_WriteAlarmMonth
 1321              		.section	.text.RTC_1_WriteAlarmYear,"ax",%progbits
 1322              		.align	2
 1323              		.global	RTC_1_WriteAlarmYear
 1324              		.thumb
 1325              		.thumb_func
 1326              		.type	RTC_1_WriteAlarmYear, %function
 1327              	RTC_1_WriteAlarmYear:
 1328              	.LFB20:
 910:.\Generated_Source\PSoC5/RTC_1.c **** 
 911:.\Generated_Source\PSoC5/RTC_1.c **** 
 912:.\Generated_Source\PSoC5/RTC_1.c **** /*******************************************************************************
 913:.\Generated_Source\PSoC5/RTC_1.c **** * Function Name:   RTC_1_WriteAlarmYear
 914:.\Generated_Source\PSoC5/RTC_1.c **** ********************************************************************************
 915:.\Generated_Source\PSoC5/RTC_1.c **** *
 916:.\Generated_Source\PSoC5/RTC_1.c **** * Summary:
 917:.\Generated_Source\PSoC5/RTC_1.c **** *  Writes Alarm Year software register value.
 918:.\Generated_Source\PSoC5/RTC_1.c **** *
 919:.\Generated_Source\PSoC5/RTC_1.c **** * Parameters:
 920:.\Generated_Source\PSoC5/RTC_1.c **** *  year: Alarm year value.
 921:.\Generated_Source\PSoC5/RTC_1.c **** *
 922:.\Generated_Source\PSoC5/RTC_1.c **** * Return:
 923:.\Generated_Source\PSoC5/RTC_1.c **** *  None.
 924:.\Generated_Source\PSoC5/RTC_1.c **** *
 925:.\Generated_Source\PSoC5/RTC_1.c **** * Global variables:
 926:.\Generated_Source\PSoC5/RTC_1.c **** *  RTC_1_currentTimeDate.Year: this global variable is used for
 927:.\Generated_Source\PSoC5/RTC_1.c **** *  comparison while setting and clearing year alarm status variable.
 928:.\Generated_Source\PSoC5/RTC_1.c **** *
 929:.\Generated_Source\PSoC5/RTC_1.c **** *  RTC_1_alarmCfgTimeDate.Year: this global variable is modified
 930:.\Generated_Source\PSoC5/RTC_1.c **** *  to store of the new year alarm.
 931:.\Generated_Source\PSoC5/RTC_1.c **** *
 932:.\Generated_Source\PSoC5/RTC_1.c **** *  RTC_1_alarmCurStatus: this global variable could be changed if
 933:.\Generated_Source\PSoC5/RTC_1.c **** *  year alarm will be raised.
 934:.\Generated_Source\PSoC5/RTC_1.c **** *
 935:.\Generated_Source\PSoC5/RTC_1.c **** * Reentrant:
 936:.\Generated_Source\PSoC5/RTC_1.c **** *  No.
 937:.\Generated_Source\PSoC5/RTC_1.c **** *
 938:.\Generated_Source\PSoC5/RTC_1.c **** *******************************************************************************/
 939:.\Generated_Source\PSoC5/RTC_1.c **** void RTC_1_WriteAlarmYear(uint16 year) 
 940:.\Generated_Source\PSoC5/RTC_1.c **** {
 1329              		.loc 1 940 0
 1330              		.cfi_startproc
 1331              		@ args = 0, pretend = 0, frame = 8
 1332              		@ frame_needed = 1, uses_anonymous_args = 0
 1333              		@ link register save eliminated.
 1334 0000 80B4     		push	{r7}
 1335              		.cfi_def_cfa_offset 4
 1336              		.cfi_offset 7, -4
ARM GAS  C:\Users\glenn\AppData\Local\Temp\ccPIHEU1.s 			page 41


 1337 0002 83B0     		sub	sp, sp, #12
 1338              		.cfi_def_cfa_offset 16
 1339 0004 00AF     		add	r7, sp, #0
 1340              		.cfi_def_cfa_register 7
 1341 0006 0346     		mov	r3, r0
 1342 0008 FB80     		strh	r3, [r7, #6]	@ movhi
 941:.\Generated_Source\PSoC5/RTC_1.c ****    RTC_1_alarmCfgTimeDate.Year = year;
 1343              		.loc 1 941 0
 1344 000a 104A     		ldr	r2, .L84
 1345 000c FB88     		ldrh	r3, [r7, #6]	@ movhi
 1346 000e 5381     		strh	r3, [r2, #10]	@ movhi
 942:.\Generated_Source\PSoC5/RTC_1.c **** 
 943:.\Generated_Source\PSoC5/RTC_1.c ****     /* Check year alarm */
 944:.\Generated_Source\PSoC5/RTC_1.c ****     if(RTC_1_alarmCfgTimeDate.Year == RTC_1_currentTimeDate.Year)
 1347              		.loc 1 944 0
 1348 0010 0E4B     		ldr	r3, .L84
 1349 0012 5B89     		ldrh	r3, [r3, #10]	@ movhi
 1350 0014 9AB2     		uxth	r2, r3
 1351 0016 0E4B     		ldr	r3, .L84+4
 1352 0018 5B89     		ldrh	r3, [r3, #10]	@ movhi
 1353 001a 9BB2     		uxth	r3, r3
 1354 001c 9A42     		cmp	r2, r3
 1355 001e 08D1     		bne	.L82
 945:.\Generated_Source\PSoC5/RTC_1.c ****     {
 946:.\Generated_Source\PSoC5/RTC_1.c ****         /* Set year alarm */
 947:.\Generated_Source\PSoC5/RTC_1.c ****         RTC_1_alarmCurStatus |= RTC_1_ALARM_YEAR_MASK;
 1356              		.loc 1 947 0
 1357 0020 0C4B     		ldr	r3, .L84+8
 1358 0022 1B78     		ldrb	r3, [r3]
 1359 0024 DBB2     		uxtb	r3, r3
 1360 0026 63F07F03 		orn	r3, r3, #127
 1361 002a DAB2     		uxtb	r2, r3
 1362 002c 094B     		ldr	r3, .L84+8
 1363 002e 1A70     		strb	r2, [r3]
 1364 0030 07E0     		b	.L81
 1365              	.L82:
 948:.\Generated_Source\PSoC5/RTC_1.c ****     }
 949:.\Generated_Source\PSoC5/RTC_1.c ****     else /* no year alarm */
 950:.\Generated_Source\PSoC5/RTC_1.c ****     {
 951:.\Generated_Source\PSoC5/RTC_1.c ****         /* Set year alarm */
 952:.\Generated_Source\PSoC5/RTC_1.c ****         RTC_1_alarmCurStatus &= (uint8)(~RTC_1_ALARM_YEAR_MASK);
 1366              		.loc 1 952 0
 1367 0032 084B     		ldr	r3, .L84+8
 1368 0034 1B78     		ldrb	r3, [r3]
 1369 0036 DBB2     		uxtb	r3, r3
 1370 0038 03F07F03 		and	r3, r3, #127
 1371 003c DAB2     		uxtb	r2, r3
 1372 003e 054B     		ldr	r3, .L84+8
 1373 0040 1A70     		strb	r2, [r3]
 1374              	.L81:
 953:.\Generated_Source\PSoC5/RTC_1.c ****     }
 954:.\Generated_Source\PSoC5/RTC_1.c **** }
 1375              		.loc 1 954 0
 1376 0042 0C37     		adds	r7, r7, #12
 1377              		.cfi_def_cfa_offset 4
 1378 0044 BD46     		mov	sp, r7
 1379              		.cfi_def_cfa_register 13
ARM GAS  C:\Users\glenn\AppData\Local\Temp\ccPIHEU1.s 			page 42


 1380              		@ sp needed
 1381 0046 5DF8047B 		ldr	r7, [sp], #4
 1382              		.cfi_restore 7
 1383              		.cfi_def_cfa_offset 0
 1384 004a 7047     		bx	lr
 1385              	.L85:
 1386              		.align	2
 1387              	.L84:
 1388 004c 00000000 		.word	RTC_1_alarmCfgTimeDate
 1389 0050 00000000 		.word	RTC_1_currentTimeDate
 1390 0054 00000000 		.word	RTC_1_alarmCurStatus
 1391              		.cfi_endproc
 1392              	.LFE20:
 1393              		.size	RTC_1_WriteAlarmYear, .-RTC_1_WriteAlarmYear
 1394              		.section	.text.RTC_1_WriteAlarmDayOfWeek,"ax",%progbits
 1395              		.align	2
 1396              		.global	RTC_1_WriteAlarmDayOfWeek
 1397              		.thumb
 1398              		.thumb_func
 1399              		.type	RTC_1_WriteAlarmDayOfWeek, %function
 1400              	RTC_1_WriteAlarmDayOfWeek:
 1401              	.LFB21:
 955:.\Generated_Source\PSoC5/RTC_1.c **** 
 956:.\Generated_Source\PSoC5/RTC_1.c **** 
 957:.\Generated_Source\PSoC5/RTC_1.c **** /*******************************************************************************
 958:.\Generated_Source\PSoC5/RTC_1.c **** * Function Name:   RTC_1_WriteAlarmDayOfWeek
 959:.\Generated_Source\PSoC5/RTC_1.c **** ********************************************************************************
 960:.\Generated_Source\PSoC5/RTC_1.c **** *
 961:.\Generated_Source\PSoC5/RTC_1.c **** * Summary:
 962:.\Generated_Source\PSoC5/RTC_1.c **** *   Writes Alarm DayOfWeek software register value.
 963:.\Generated_Source\PSoC5/RTC_1.c **** *   Days values {Sun = 1, Mon = 2, Tue = 3, Wen = 4, Thu = 5, Fri = 6, Sat = 7}
 964:.\Generated_Source\PSoC5/RTC_1.c **** *
 965:.\Generated_Source\PSoC5/RTC_1.c **** * Parameters:
 966:.\Generated_Source\PSoC5/RTC_1.c **** *  dayOfWeek: Alarm day of week value.
 967:.\Generated_Source\PSoC5/RTC_1.c **** *
 968:.\Generated_Source\PSoC5/RTC_1.c **** * Return:
 969:.\Generated_Source\PSoC5/RTC_1.c **** *  None.
 970:.\Generated_Source\PSoC5/RTC_1.c **** *
 971:.\Generated_Source\PSoC5/RTC_1.c **** * Global variables:
 972:.\Generated_Source\PSoC5/RTC_1.c **** *  RTC_1_currentTimeDate.DayOfWeek: this global variable is used for
 973:.\Generated_Source\PSoC5/RTC_1.c **** *  comparison while setting and clearing day of week alarm status variable.
 974:.\Generated_Source\PSoC5/RTC_1.c **** *
 975:.\Generated_Source\PSoC5/RTC_1.c **** *  RTC_1_alarmCfgTimeDate.DayOfWeek: this global variable is modified
 976:.\Generated_Source\PSoC5/RTC_1.c **** *  to store of the new day of week alarm.
 977:.\Generated_Source\PSoC5/RTC_1.c **** *
 978:.\Generated_Source\PSoC5/RTC_1.c **** *  RTC_1_alarmCurStatus: this global variable could be changed if
 979:.\Generated_Source\PSoC5/RTC_1.c **** *  day of week alarm will be raised.
 980:.\Generated_Source\PSoC5/RTC_1.c **** *
 981:.\Generated_Source\PSoC5/RTC_1.c **** * Reentrant:
 982:.\Generated_Source\PSoC5/RTC_1.c **** *  No.
 983:.\Generated_Source\PSoC5/RTC_1.c **** *
 984:.\Generated_Source\PSoC5/RTC_1.c **** *******************************************************************************/
 985:.\Generated_Source\PSoC5/RTC_1.c **** void RTC_1_WriteAlarmDayOfWeek(uint8 dayOfWeek) 
 986:.\Generated_Source\PSoC5/RTC_1.c **** {
 1402              		.loc 1 986 0
 1403              		.cfi_startproc
 1404              		@ args = 0, pretend = 0, frame = 8
ARM GAS  C:\Users\glenn\AppData\Local\Temp\ccPIHEU1.s 			page 43


 1405              		@ frame_needed = 1, uses_anonymous_args = 0
 1406              		@ link register save eliminated.
 1407 0000 80B4     		push	{r7}
 1408              		.cfi_def_cfa_offset 4
 1409              		.cfi_offset 7, -4
 1410 0002 83B0     		sub	sp, sp, #12
 1411              		.cfi_def_cfa_offset 16
 1412 0004 00AF     		add	r7, sp, #0
 1413              		.cfi_def_cfa_register 7
 1414 0006 0346     		mov	r3, r0
 1415 0008 FB71     		strb	r3, [r7, #7]
 987:.\Generated_Source\PSoC5/RTC_1.c ****     RTC_1_alarmCfgTimeDate.DayOfWeek = dayOfWeek;
 1416              		.loc 1 987 0
 1417 000a 104A     		ldr	r2, .L89
 1418 000c FB79     		ldrb	r3, [r7, #7]
 1419 000e D370     		strb	r3, [r2, #3]
 988:.\Generated_Source\PSoC5/RTC_1.c **** 
 989:.\Generated_Source\PSoC5/RTC_1.c ****     /* Check day of week alarm */
 990:.\Generated_Source\PSoC5/RTC_1.c ****     if(RTC_1_alarmCfgTimeDate.DayOfWeek == RTC_1_currentTimeDate.DayOfWeek)
 1420              		.loc 1 990 0
 1421 0010 0E4B     		ldr	r3, .L89
 1422 0012 DB78     		ldrb	r3, [r3, #3]
 1423 0014 DAB2     		uxtb	r2, r3
 1424 0016 0E4B     		ldr	r3, .L89+4
 1425 0018 DB78     		ldrb	r3, [r3, #3]
 1426 001a DBB2     		uxtb	r3, r3
 1427 001c 9A42     		cmp	r2, r3
 1428 001e 08D1     		bne	.L87
 991:.\Generated_Source\PSoC5/RTC_1.c ****     {
 992:.\Generated_Source\PSoC5/RTC_1.c ****         /* Set day of week alarm */
 993:.\Generated_Source\PSoC5/RTC_1.c ****         RTC_1_alarmCurStatus |= RTC_1_ALARM_DAYOFWEEK_MASK;
 1429              		.loc 1 993 0
 1430 0020 0C4B     		ldr	r3, .L89+8
 1431 0022 1B78     		ldrb	r3, [r3]
 1432 0024 DBB2     		uxtb	r3, r3
 1433 0026 43F00803 		orr	r3, r3, #8
 1434 002a DAB2     		uxtb	r2, r3
 1435 002c 094B     		ldr	r3, .L89+8
 1436 002e 1A70     		strb	r2, [r3]
 1437 0030 07E0     		b	.L86
 1438              	.L87:
 994:.\Generated_Source\PSoC5/RTC_1.c ****     }
 995:.\Generated_Source\PSoC5/RTC_1.c ****     else /* no day of week alarm */
 996:.\Generated_Source\PSoC5/RTC_1.c ****     {
 997:.\Generated_Source\PSoC5/RTC_1.c ****         /* Set day of week alarm */
 998:.\Generated_Source\PSoC5/RTC_1.c ****         RTC_1_alarmCurStatus &= (uint8)(~RTC_1_ALARM_DAYOFWEEK_MASK);
 1439              		.loc 1 998 0
 1440 0032 084B     		ldr	r3, .L89+8
 1441 0034 1B78     		ldrb	r3, [r3]
 1442 0036 DBB2     		uxtb	r3, r3
 1443 0038 23F00803 		bic	r3, r3, #8
 1444 003c DAB2     		uxtb	r2, r3
 1445 003e 054B     		ldr	r3, .L89+8
 1446 0040 1A70     		strb	r2, [r3]
 1447              	.L86:
 999:.\Generated_Source\PSoC5/RTC_1.c ****     }
1000:.\Generated_Source\PSoC5/RTC_1.c **** }
ARM GAS  C:\Users\glenn\AppData\Local\Temp\ccPIHEU1.s 			page 44


 1448              		.loc 1 1000 0
 1449 0042 0C37     		adds	r7, r7, #12
 1450              		.cfi_def_cfa_offset 4
 1451 0044 BD46     		mov	sp, r7
 1452              		.cfi_def_cfa_register 13
 1453              		@ sp needed
 1454 0046 5DF8047B 		ldr	r7, [sp], #4
 1455              		.cfi_restore 7
 1456              		.cfi_def_cfa_offset 0
 1457 004a 7047     		bx	lr
 1458              	.L90:
 1459              		.align	2
 1460              	.L89:
 1461 004c 00000000 		.word	RTC_1_alarmCfgTimeDate
 1462 0050 00000000 		.word	RTC_1_currentTimeDate
 1463 0054 00000000 		.word	RTC_1_alarmCurStatus
 1464              		.cfi_endproc
 1465              	.LFE21:
 1466              		.size	RTC_1_WriteAlarmDayOfWeek, .-RTC_1_WriteAlarmDayOfWeek
 1467              		.section	.text.RTC_1_WriteAlarmDayOfYear,"ax",%progbits
 1468              		.align	2
 1469              		.global	RTC_1_WriteAlarmDayOfYear
 1470              		.thumb
 1471              		.thumb_func
 1472              		.type	RTC_1_WriteAlarmDayOfYear, %function
 1473              	RTC_1_WriteAlarmDayOfYear:
 1474              	.LFB22:
1001:.\Generated_Source\PSoC5/RTC_1.c **** 
1002:.\Generated_Source\PSoC5/RTC_1.c **** 
1003:.\Generated_Source\PSoC5/RTC_1.c **** /*******************************************************************************
1004:.\Generated_Source\PSoC5/RTC_1.c **** * Function Name:   RTC_1_WriteAlarmDayOfYear
1005:.\Generated_Source\PSoC5/RTC_1.c **** ********************************************************************************
1006:.\Generated_Source\PSoC5/RTC_1.c **** *
1007:.\Generated_Source\PSoC5/RTC_1.c **** * Summary:
1008:.\Generated_Source\PSoC5/RTC_1.c **** *  Writes Alarm DayOfYear software register value.
1009:.\Generated_Source\PSoC5/RTC_1.c **** *
1010:.\Generated_Source\PSoC5/RTC_1.c **** * Parameters:
1011:.\Generated_Source\PSoC5/RTC_1.c **** *  dayOfYear: Alarm day of year value.
1012:.\Generated_Source\PSoC5/RTC_1.c **** *
1013:.\Generated_Source\PSoC5/RTC_1.c **** * Return:
1014:.\Generated_Source\PSoC5/RTC_1.c **** *  None.
1015:.\Generated_Source\PSoC5/RTC_1.c **** *
1016:.\Generated_Source\PSoC5/RTC_1.c **** * Global variables:
1017:.\Generated_Source\PSoC5/RTC_1.c **** *  RTC_1_currentTimeDate.DayOfYear: this global variable is used for
1018:.\Generated_Source\PSoC5/RTC_1.c **** *  comparison while setting and clearing day of year alarm status variable.
1019:.\Generated_Source\PSoC5/RTC_1.c **** *
1020:.\Generated_Source\PSoC5/RTC_1.c **** *  RTC_1_alarmCfgTimeDate.DayOfYear: this global variable is modified
1021:.\Generated_Source\PSoC5/RTC_1.c **** *  to store of the new day of year alarm.
1022:.\Generated_Source\PSoC5/RTC_1.c **** *
1023:.\Generated_Source\PSoC5/RTC_1.c **** *  RTC_1_alarmCurStatus: this global variable could be changed if
1024:.\Generated_Source\PSoC5/RTC_1.c **** *  day of year alarm will be raised.
1025:.\Generated_Source\PSoC5/RTC_1.c **** *
1026:.\Generated_Source\PSoC5/RTC_1.c **** * Reentrant:
1027:.\Generated_Source\PSoC5/RTC_1.c **** *  No.
1028:.\Generated_Source\PSoC5/RTC_1.c **** *
1029:.\Generated_Source\PSoC5/RTC_1.c **** *******************************************************************************/
1030:.\Generated_Source\PSoC5/RTC_1.c **** void RTC_1_WriteAlarmDayOfYear(uint16 dayOfYear) 
ARM GAS  C:\Users\glenn\AppData\Local\Temp\ccPIHEU1.s 			page 45


1031:.\Generated_Source\PSoC5/RTC_1.c **** {
 1475              		.loc 1 1031 0
 1476              		.cfi_startproc
 1477              		@ args = 0, pretend = 0, frame = 8
 1478              		@ frame_needed = 1, uses_anonymous_args = 0
 1479              		@ link register save eliminated.
 1480 0000 80B4     		push	{r7}
 1481              		.cfi_def_cfa_offset 4
 1482              		.cfi_offset 7, -4
 1483 0002 83B0     		sub	sp, sp, #12
 1484              		.cfi_def_cfa_offset 16
 1485 0004 00AF     		add	r7, sp, #0
 1486              		.cfi_def_cfa_register 7
 1487 0006 0346     		mov	r3, r0
 1488 0008 FB80     		strh	r3, [r7, #6]	@ movhi
1032:.\Generated_Source\PSoC5/RTC_1.c ****   RTC_1_alarmCfgTimeDate.DayOfYear = dayOfYear;
 1489              		.loc 1 1032 0
 1490 000a 104A     		ldr	r2, .L94
 1491 000c FB88     		ldrh	r3, [r7, #6]	@ movhi
 1492 000e D380     		strh	r3, [r2, #6]	@ movhi
1033:.\Generated_Source\PSoC5/RTC_1.c **** 
1034:.\Generated_Source\PSoC5/RTC_1.c ****     /* Check day of year alarm */
1035:.\Generated_Source\PSoC5/RTC_1.c ****     if(RTC_1_alarmCfgTimeDate.DayOfYear == RTC_1_currentTimeDate.DayOfYear)
 1493              		.loc 1 1035 0
 1494 0010 0E4B     		ldr	r3, .L94
 1495 0012 DB88     		ldrh	r3, [r3, #6]	@ movhi
 1496 0014 9AB2     		uxth	r2, r3
 1497 0016 0E4B     		ldr	r3, .L94+4
 1498 0018 DB88     		ldrh	r3, [r3, #6]	@ movhi
 1499 001a 9BB2     		uxth	r3, r3
 1500 001c 9A42     		cmp	r2, r3
 1501 001e 08D1     		bne	.L92
1036:.\Generated_Source\PSoC5/RTC_1.c ****     {
1037:.\Generated_Source\PSoC5/RTC_1.c ****         /* Set day of year alarm */
1038:.\Generated_Source\PSoC5/RTC_1.c ****         RTC_1_alarmCurStatus |= RTC_1_ALARM_DAYOFYEAR_MASK;
 1502              		.loc 1 1038 0
 1503 0020 0C4B     		ldr	r3, .L94+8
 1504 0022 1B78     		ldrb	r3, [r3]
 1505 0024 DBB2     		uxtb	r3, r3
 1506 0026 43F02003 		orr	r3, r3, #32
 1507 002a DAB2     		uxtb	r2, r3
 1508 002c 094B     		ldr	r3, .L94+8
 1509 002e 1A70     		strb	r2, [r3]
 1510 0030 07E0     		b	.L91
 1511              	.L92:
1039:.\Generated_Source\PSoC5/RTC_1.c ****     }
1040:.\Generated_Source\PSoC5/RTC_1.c ****     else /* no day of year alarm */
1041:.\Generated_Source\PSoC5/RTC_1.c ****     {
1042:.\Generated_Source\PSoC5/RTC_1.c ****         /* Set day of year alarm */
1043:.\Generated_Source\PSoC5/RTC_1.c ****         RTC_1_alarmCurStatus &= (uint8)(~RTC_1_ALARM_DAYOFYEAR_MASK);
 1512              		.loc 1 1043 0
 1513 0032 084B     		ldr	r3, .L94+8
 1514 0034 1B78     		ldrb	r3, [r3]
 1515 0036 DBB2     		uxtb	r3, r3
 1516 0038 23F02003 		bic	r3, r3, #32
 1517 003c DAB2     		uxtb	r2, r3
 1518 003e 054B     		ldr	r3, .L94+8
ARM GAS  C:\Users\glenn\AppData\Local\Temp\ccPIHEU1.s 			page 46


 1519 0040 1A70     		strb	r2, [r3]
 1520              	.L91:
1044:.\Generated_Source\PSoC5/RTC_1.c ****     }
1045:.\Generated_Source\PSoC5/RTC_1.c **** }
 1521              		.loc 1 1045 0
 1522 0042 0C37     		adds	r7, r7, #12
 1523              		.cfi_def_cfa_offset 4
 1524 0044 BD46     		mov	sp, r7
 1525              		.cfi_def_cfa_register 13
 1526              		@ sp needed
 1527 0046 5DF8047B 		ldr	r7, [sp], #4
 1528              		.cfi_restore 7
 1529              		.cfi_def_cfa_offset 0
 1530 004a 7047     		bx	lr
 1531              	.L95:
 1532              		.align	2
 1533              	.L94:
 1534 004c 00000000 		.word	RTC_1_alarmCfgTimeDate
 1535 0050 00000000 		.word	RTC_1_currentTimeDate
 1536 0054 00000000 		.word	RTC_1_alarmCurStatus
 1537              		.cfi_endproc
 1538              	.LFE22:
 1539              		.size	RTC_1_WriteAlarmDayOfYear, .-RTC_1_WriteAlarmDayOfYear
 1540              		.section	.text.RTC_1_ReadSecond,"ax",%progbits
 1541              		.align	2
 1542              		.global	RTC_1_ReadSecond
 1543              		.thumb
 1544              		.thumb_func
 1545              		.type	RTC_1_ReadSecond, %function
 1546              	RTC_1_ReadSecond:
 1547              	.LFB23:
1046:.\Generated_Source\PSoC5/RTC_1.c **** 
1047:.\Generated_Source\PSoC5/RTC_1.c **** 
1048:.\Generated_Source\PSoC5/RTC_1.c **** /*******************************************************************************
1049:.\Generated_Source\PSoC5/RTC_1.c **** * Function Name:   RTC_1_ReadSecond
1050:.\Generated_Source\PSoC5/RTC_1.c **** ********************************************************************************
1051:.\Generated_Source\PSoC5/RTC_1.c **** *
1052:.\Generated_Source\PSoC5/RTC_1.c **** * Summary:
1053:.\Generated_Source\PSoC5/RTC_1.c **** *  Reads Sec software register value.
1054:.\Generated_Source\PSoC5/RTC_1.c **** *
1055:.\Generated_Source\PSoC5/RTC_1.c **** * Parameters:
1056:.\Generated_Source\PSoC5/RTC_1.c **** *  None.
1057:.\Generated_Source\PSoC5/RTC_1.c **** *
1058:.\Generated_Source\PSoC5/RTC_1.c **** * Return:
1059:.\Generated_Source\PSoC5/RTC_1.c **** *  Current seconds value.
1060:.\Generated_Source\PSoC5/RTC_1.c **** *
1061:.\Generated_Source\PSoC5/RTC_1.c **** * Global variables:
1062:.\Generated_Source\PSoC5/RTC_1.c **** *  RTC_1_currentTimeDate.Sec: the current second's value is used.
1063:.\Generated_Source\PSoC5/RTC_1.c **** *
1064:.\Generated_Source\PSoC5/RTC_1.c **** *******************************************************************************/
1065:.\Generated_Source\PSoC5/RTC_1.c **** uint8 RTC_1_ReadSecond(void) 
1066:.\Generated_Source\PSoC5/RTC_1.c **** {
 1548              		.loc 1 1066 0
 1549              		.cfi_startproc
 1550              		@ args = 0, pretend = 0, frame = 0
 1551              		@ frame_needed = 1, uses_anonymous_args = 0
 1552              		@ link register save eliminated.
ARM GAS  C:\Users\glenn\AppData\Local\Temp\ccPIHEU1.s 			page 47


 1553 0000 80B4     		push	{r7}
 1554              		.cfi_def_cfa_offset 4
 1555              		.cfi_offset 7, -4
 1556 0002 00AF     		add	r7, sp, #0
 1557              		.cfi_def_cfa_register 7
1067:.\Generated_Source\PSoC5/RTC_1.c ****     /* Return current second */
1068:.\Generated_Source\PSoC5/RTC_1.c ****     return (RTC_1_currentTimeDate.Sec);
 1558              		.loc 1 1068 0
 1559 0004 034B     		ldr	r3, .L98
 1560 0006 1B78     		ldrb	r3, [r3]
 1561 0008 DBB2     		uxtb	r3, r3
1069:.\Generated_Source\PSoC5/RTC_1.c **** }
 1562              		.loc 1 1069 0
 1563 000a 1846     		mov	r0, r3
 1564 000c BD46     		mov	sp, r7
 1565              		.cfi_def_cfa_register 13
 1566              		@ sp needed
 1567 000e 5DF8047B 		ldr	r7, [sp], #4
 1568              		.cfi_restore 7
 1569              		.cfi_def_cfa_offset 0
 1570 0012 7047     		bx	lr
 1571              	.L99:
 1572              		.align	2
 1573              	.L98:
 1574 0014 00000000 		.word	RTC_1_currentTimeDate
 1575              		.cfi_endproc
 1576              	.LFE23:
 1577              		.size	RTC_1_ReadSecond, .-RTC_1_ReadSecond
 1578              		.section	.text.RTC_1_ReadMinute,"ax",%progbits
 1579              		.align	2
 1580              		.global	RTC_1_ReadMinute
 1581              		.thumb
 1582              		.thumb_func
 1583              		.type	RTC_1_ReadMinute, %function
 1584              	RTC_1_ReadMinute:
 1585              	.LFB24:
1070:.\Generated_Source\PSoC5/RTC_1.c **** 
1071:.\Generated_Source\PSoC5/RTC_1.c **** 
1072:.\Generated_Source\PSoC5/RTC_1.c **** /*******************************************************************************
1073:.\Generated_Source\PSoC5/RTC_1.c **** * Function Name:   RTC_1_ReadMinute
1074:.\Generated_Source\PSoC5/RTC_1.c **** ********************************************************************************
1075:.\Generated_Source\PSoC5/RTC_1.c **** *
1076:.\Generated_Source\PSoC5/RTC_1.c **** * Summary:
1077:.\Generated_Source\PSoC5/RTC_1.c **** *  Reads Min software register value.
1078:.\Generated_Source\PSoC5/RTC_1.c **** *
1079:.\Generated_Source\PSoC5/RTC_1.c **** * Parameters:
1080:.\Generated_Source\PSoC5/RTC_1.c **** *  None.
1081:.\Generated_Source\PSoC5/RTC_1.c **** *
1082:.\Generated_Source\PSoC5/RTC_1.c **** * Return:
1083:.\Generated_Source\PSoC5/RTC_1.c **** *  Current field's value is returned.
1084:.\Generated_Source\PSoC5/RTC_1.c **** *
1085:.\Generated_Source\PSoC5/RTC_1.c **** * Global variables:
1086:.\Generated_Source\PSoC5/RTC_1.c **** *  RTC_1_currentTimeDate.Min: the current field's value is used.
1087:.\Generated_Source\PSoC5/RTC_1.c **** *
1088:.\Generated_Source\PSoC5/RTC_1.c **** *******************************************************************************/
1089:.\Generated_Source\PSoC5/RTC_1.c **** uint8 RTC_1_ReadMinute(void) 
1090:.\Generated_Source\PSoC5/RTC_1.c **** {
ARM GAS  C:\Users\glenn\AppData\Local\Temp\ccPIHEU1.s 			page 48


 1586              		.loc 1 1090 0
 1587              		.cfi_startproc
 1588              		@ args = 0, pretend = 0, frame = 0
 1589              		@ frame_needed = 1, uses_anonymous_args = 0
 1590              		@ link register save eliminated.
 1591 0000 80B4     		push	{r7}
 1592              		.cfi_def_cfa_offset 4
 1593              		.cfi_offset 7, -4
 1594 0002 00AF     		add	r7, sp, #0
 1595              		.cfi_def_cfa_register 7
1091:.\Generated_Source\PSoC5/RTC_1.c ****     /* Return current minute */
1092:.\Generated_Source\PSoC5/RTC_1.c ****     return (RTC_1_currentTimeDate.Min);
 1596              		.loc 1 1092 0
 1597 0004 034B     		ldr	r3, .L102
 1598 0006 5B78     		ldrb	r3, [r3, #1]
 1599 0008 DBB2     		uxtb	r3, r3
1093:.\Generated_Source\PSoC5/RTC_1.c **** }
 1600              		.loc 1 1093 0
 1601 000a 1846     		mov	r0, r3
 1602 000c BD46     		mov	sp, r7
 1603              		.cfi_def_cfa_register 13
 1604              		@ sp needed
 1605 000e 5DF8047B 		ldr	r7, [sp], #4
 1606              		.cfi_restore 7
 1607              		.cfi_def_cfa_offset 0
 1608 0012 7047     		bx	lr
 1609              	.L103:
 1610              		.align	2
 1611              	.L102:
 1612 0014 00000000 		.word	RTC_1_currentTimeDate
 1613              		.cfi_endproc
 1614              	.LFE24:
 1615              		.size	RTC_1_ReadMinute, .-RTC_1_ReadMinute
 1616              		.section	.text.RTC_1_ReadHour,"ax",%progbits
 1617              		.align	2
 1618              		.global	RTC_1_ReadHour
 1619              		.thumb
 1620              		.thumb_func
 1621              		.type	RTC_1_ReadHour, %function
 1622              	RTC_1_ReadHour:
 1623              	.LFB25:
1094:.\Generated_Source\PSoC5/RTC_1.c **** 
1095:.\Generated_Source\PSoC5/RTC_1.c **** 
1096:.\Generated_Source\PSoC5/RTC_1.c **** /*******************************************************************************
1097:.\Generated_Source\PSoC5/RTC_1.c **** * Function Name:   RTC_1_ReadHour
1098:.\Generated_Source\PSoC5/RTC_1.c **** ********************************************************************************
1099:.\Generated_Source\PSoC5/RTC_1.c **** *
1100:.\Generated_Source\PSoC5/RTC_1.c **** * Summary:
1101:.\Generated_Source\PSoC5/RTC_1.c **** *  Reads Hour software register value.
1102:.\Generated_Source\PSoC5/RTC_1.c **** *
1103:.\Generated_Source\PSoC5/RTC_1.c **** * Parameters:
1104:.\Generated_Source\PSoC5/RTC_1.c **** *  None.
1105:.\Generated_Source\PSoC5/RTC_1.c **** *
1106:.\Generated_Source\PSoC5/RTC_1.c **** * Return:
1107:.\Generated_Source\PSoC5/RTC_1.c **** *  Current hour's value.
1108:.\Generated_Source\PSoC5/RTC_1.c **** *
1109:.\Generated_Source\PSoC5/RTC_1.c **** * Global variables:
ARM GAS  C:\Users\glenn\AppData\Local\Temp\ccPIHEU1.s 			page 49


1110:.\Generated_Source\PSoC5/RTC_1.c **** *  RTC_1_currentTimeDate.Hour: the current field's value is used.
1111:.\Generated_Source\PSoC5/RTC_1.c **** *
1112:.\Generated_Source\PSoC5/RTC_1.c **** *******************************************************************************/
1113:.\Generated_Source\PSoC5/RTC_1.c **** uint8 RTC_1_ReadHour(void) 
1114:.\Generated_Source\PSoC5/RTC_1.c **** {
 1624              		.loc 1 1114 0
 1625              		.cfi_startproc
 1626              		@ args = 0, pretend = 0, frame = 0
 1627              		@ frame_needed = 1, uses_anonymous_args = 0
 1628              		@ link register save eliminated.
 1629 0000 80B4     		push	{r7}
 1630              		.cfi_def_cfa_offset 4
 1631              		.cfi_offset 7, -4
 1632 0002 00AF     		add	r7, sp, #0
 1633              		.cfi_def_cfa_register 7
1115:.\Generated_Source\PSoC5/RTC_1.c ****     /* Return current hour */
1116:.\Generated_Source\PSoC5/RTC_1.c ****     return (RTC_1_currentTimeDate.Hour);
 1634              		.loc 1 1116 0
 1635 0004 034B     		ldr	r3, .L106
 1636 0006 9B78     		ldrb	r3, [r3, #2]
 1637 0008 DBB2     		uxtb	r3, r3
1117:.\Generated_Source\PSoC5/RTC_1.c **** }
 1638              		.loc 1 1117 0
 1639 000a 1846     		mov	r0, r3
 1640 000c BD46     		mov	sp, r7
 1641              		.cfi_def_cfa_register 13
 1642              		@ sp needed
 1643 000e 5DF8047B 		ldr	r7, [sp], #4
 1644              		.cfi_restore 7
 1645              		.cfi_def_cfa_offset 0
 1646 0012 7047     		bx	lr
 1647              	.L107:
 1648              		.align	2
 1649              	.L106:
 1650 0014 00000000 		.word	RTC_1_currentTimeDate
 1651              		.cfi_endproc
 1652              	.LFE25:
 1653              		.size	RTC_1_ReadHour, .-RTC_1_ReadHour
 1654              		.section	.text.RTC_1_ReadDayOfMonth,"ax",%progbits
 1655              		.align	2
 1656              		.global	RTC_1_ReadDayOfMonth
 1657              		.thumb
 1658              		.thumb_func
 1659              		.type	RTC_1_ReadDayOfMonth, %function
 1660              	RTC_1_ReadDayOfMonth:
 1661              	.LFB26:
1118:.\Generated_Source\PSoC5/RTC_1.c **** 
1119:.\Generated_Source\PSoC5/RTC_1.c **** 
1120:.\Generated_Source\PSoC5/RTC_1.c **** /*******************************************************************************
1121:.\Generated_Source\PSoC5/RTC_1.c **** * Function Name:   RTC_1_ReadDayOfMonth
1122:.\Generated_Source\PSoC5/RTC_1.c **** ********************************************************************************
1123:.\Generated_Source\PSoC5/RTC_1.c **** *
1124:.\Generated_Source\PSoC5/RTC_1.c **** * Summary:
1125:.\Generated_Source\PSoC5/RTC_1.c **** *  Reads DayOfMonth software register value.
1126:.\Generated_Source\PSoC5/RTC_1.c **** *
1127:.\Generated_Source\PSoC5/RTC_1.c **** * Parameters:
1128:.\Generated_Source\PSoC5/RTC_1.c **** *  None.
ARM GAS  C:\Users\glenn\AppData\Local\Temp\ccPIHEU1.s 			page 50


1129:.\Generated_Source\PSoC5/RTC_1.c **** *
1130:.\Generated_Source\PSoC5/RTC_1.c **** * Return:
1131:.\Generated_Source\PSoC5/RTC_1.c **** *  Current value of the day of month.
1132:.\Generated_Source\PSoC5/RTC_1.c **** *  returned.
1133:.\Generated_Source\PSoC5/RTC_1.c **** *
1134:.\Generated_Source\PSoC5/RTC_1.c **** * Global variables:
1135:.\Generated_Source\PSoC5/RTC_1.c **** *  RTC_1_currentTimeDate.DayOfMonth: the current day of month's
1136:.\Generated_Source\PSoC5/RTC_1.c **** *  value is used.
1137:.\Generated_Source\PSoC5/RTC_1.c **** *
1138:.\Generated_Source\PSoC5/RTC_1.c **** *******************************************************************************/
1139:.\Generated_Source\PSoC5/RTC_1.c **** uint8 RTC_1_ReadDayOfMonth(void) 
1140:.\Generated_Source\PSoC5/RTC_1.c **** {
 1662              		.loc 1 1140 0
 1663              		.cfi_startproc
 1664              		@ args = 0, pretend = 0, frame = 0
 1665              		@ frame_needed = 1, uses_anonymous_args = 0
 1666              		@ link register save eliminated.
 1667 0000 80B4     		push	{r7}
 1668              		.cfi_def_cfa_offset 4
 1669              		.cfi_offset 7, -4
 1670 0002 00AF     		add	r7, sp, #0
 1671              		.cfi_def_cfa_register 7
1141:.\Generated_Source\PSoC5/RTC_1.c ****     /* Return current day of the month */
1142:.\Generated_Source\PSoC5/RTC_1.c ****     return (RTC_1_currentTimeDate.DayOfMonth);
 1672              		.loc 1 1142 0
 1673 0004 034B     		ldr	r3, .L110
 1674 0006 1B79     		ldrb	r3, [r3, #4]
 1675 0008 DBB2     		uxtb	r3, r3
1143:.\Generated_Source\PSoC5/RTC_1.c **** }
 1676              		.loc 1 1143 0
 1677 000a 1846     		mov	r0, r3
 1678 000c BD46     		mov	sp, r7
 1679              		.cfi_def_cfa_register 13
 1680              		@ sp needed
 1681 000e 5DF8047B 		ldr	r7, [sp], #4
 1682              		.cfi_restore 7
 1683              		.cfi_def_cfa_offset 0
 1684 0012 7047     		bx	lr
 1685              	.L111:
 1686              		.align	2
 1687              	.L110:
 1688 0014 00000000 		.word	RTC_1_currentTimeDate
 1689              		.cfi_endproc
 1690              	.LFE26:
 1691              		.size	RTC_1_ReadDayOfMonth, .-RTC_1_ReadDayOfMonth
 1692              		.section	.text.RTC_1_ReadMonth,"ax",%progbits
 1693              		.align	2
 1694              		.global	RTC_1_ReadMonth
 1695              		.thumb
 1696              		.thumb_func
 1697              		.type	RTC_1_ReadMonth, %function
 1698              	RTC_1_ReadMonth:
 1699              	.LFB27:
1144:.\Generated_Source\PSoC5/RTC_1.c **** 
1145:.\Generated_Source\PSoC5/RTC_1.c **** 
1146:.\Generated_Source\PSoC5/RTC_1.c **** /*******************************************************************************
1147:.\Generated_Source\PSoC5/RTC_1.c **** * Function Name:   RTC_1_ReadMonth
ARM GAS  C:\Users\glenn\AppData\Local\Temp\ccPIHEU1.s 			page 51


1148:.\Generated_Source\PSoC5/RTC_1.c **** ********************************************************************************
1149:.\Generated_Source\PSoC5/RTC_1.c **** *
1150:.\Generated_Source\PSoC5/RTC_1.c **** * Summary:
1151:.\Generated_Source\PSoC5/RTC_1.c **** *  Reads Month software register value.
1152:.\Generated_Source\PSoC5/RTC_1.c **** *
1153:.\Generated_Source\PSoC5/RTC_1.c **** * Parameters:
1154:.\Generated_Source\PSoC5/RTC_1.c **** *  None.
1155:.\Generated_Source\PSoC5/RTC_1.c **** *
1156:.\Generated_Source\PSoC5/RTC_1.c **** * Return:
1157:.\Generated_Source\PSoC5/RTC_1.c **** *  Current value of the month.
1158:.\Generated_Source\PSoC5/RTC_1.c **** *
1159:.\Generated_Source\PSoC5/RTC_1.c **** * Global variables:
1160:.\Generated_Source\PSoC5/RTC_1.c **** *  RTC_1_currentTimeDate.Month: the current month's value is used.
1161:.\Generated_Source\PSoC5/RTC_1.c **** *
1162:.\Generated_Source\PSoC5/RTC_1.c **** *******************************************************************************/
1163:.\Generated_Source\PSoC5/RTC_1.c **** uint8 RTC_1_ReadMonth(void) 
1164:.\Generated_Source\PSoC5/RTC_1.c **** {
 1700              		.loc 1 1164 0
 1701              		.cfi_startproc
 1702              		@ args = 0, pretend = 0, frame = 0
 1703              		@ frame_needed = 1, uses_anonymous_args = 0
 1704              		@ link register save eliminated.
 1705 0000 80B4     		push	{r7}
 1706              		.cfi_def_cfa_offset 4
 1707              		.cfi_offset 7, -4
 1708 0002 00AF     		add	r7, sp, #0
 1709              		.cfi_def_cfa_register 7
1165:.\Generated_Source\PSoC5/RTC_1.c ****     /* Return current month */
1166:.\Generated_Source\PSoC5/RTC_1.c ****     return (RTC_1_currentTimeDate.Month);
 1710              		.loc 1 1166 0
 1711 0004 034B     		ldr	r3, .L114
 1712 0006 1B7A     		ldrb	r3, [r3, #8]
 1713 0008 DBB2     		uxtb	r3, r3
1167:.\Generated_Source\PSoC5/RTC_1.c **** }
 1714              		.loc 1 1167 0
 1715 000a 1846     		mov	r0, r3
 1716 000c BD46     		mov	sp, r7
 1717              		.cfi_def_cfa_register 13
 1718              		@ sp needed
 1719 000e 5DF8047B 		ldr	r7, [sp], #4
 1720              		.cfi_restore 7
 1721              		.cfi_def_cfa_offset 0
 1722 0012 7047     		bx	lr
 1723              	.L115:
 1724              		.align	2
 1725              	.L114:
 1726 0014 00000000 		.word	RTC_1_currentTimeDate
 1727              		.cfi_endproc
 1728              	.LFE27:
 1729              		.size	RTC_1_ReadMonth, .-RTC_1_ReadMonth
 1730              		.section	.text.RTC_1_ReadYear,"ax",%progbits
 1731              		.align	2
 1732              		.global	RTC_1_ReadYear
 1733              		.thumb
 1734              		.thumb_func
 1735              		.type	RTC_1_ReadYear, %function
 1736              	RTC_1_ReadYear:
ARM GAS  C:\Users\glenn\AppData\Local\Temp\ccPIHEU1.s 			page 52


 1737              	.LFB28:
1168:.\Generated_Source\PSoC5/RTC_1.c **** 
1169:.\Generated_Source\PSoC5/RTC_1.c **** 
1170:.\Generated_Source\PSoC5/RTC_1.c **** /*******************************************************************************
1171:.\Generated_Source\PSoC5/RTC_1.c **** * Function Name:   RTC_1_ReadYear
1172:.\Generated_Source\PSoC5/RTC_1.c **** ********************************************************************************
1173:.\Generated_Source\PSoC5/RTC_1.c **** *
1174:.\Generated_Source\PSoC5/RTC_1.c **** * Summary:
1175:.\Generated_Source\PSoC5/RTC_1.c **** *  Reads Year software register value.
1176:.\Generated_Source\PSoC5/RTC_1.c **** *
1177:.\Generated_Source\PSoC5/RTC_1.c **** * Parameters:
1178:.\Generated_Source\PSoC5/RTC_1.c **** *  None.
1179:.\Generated_Source\PSoC5/RTC_1.c **** *
1180:.\Generated_Source\PSoC5/RTC_1.c **** * Return:
1181:.\Generated_Source\PSoC5/RTC_1.c **** *  Current value of the year.
1182:.\Generated_Source\PSoC5/RTC_1.c **** *
1183:.\Generated_Source\PSoC5/RTC_1.c **** * Global variables:
1184:.\Generated_Source\PSoC5/RTC_1.c **** *  RTC_1_currentTimeDate.Year: the current year's value is used.
1185:.\Generated_Source\PSoC5/RTC_1.c **** *
1186:.\Generated_Source\PSoC5/RTC_1.c **** *******************************************************************************/
1187:.\Generated_Source\PSoC5/RTC_1.c **** uint16 RTC_1_ReadYear(void) 
1188:.\Generated_Source\PSoC5/RTC_1.c **** {
 1738              		.loc 1 1188 0
 1739              		.cfi_startproc
 1740              		@ args = 0, pretend = 0, frame = 0
 1741              		@ frame_needed = 1, uses_anonymous_args = 0
 1742              		@ link register save eliminated.
 1743 0000 80B4     		push	{r7}
 1744              		.cfi_def_cfa_offset 4
 1745              		.cfi_offset 7, -4
 1746 0002 00AF     		add	r7, sp, #0
 1747              		.cfi_def_cfa_register 7
1189:.\Generated_Source\PSoC5/RTC_1.c ****     /* Return current year */
1190:.\Generated_Source\PSoC5/RTC_1.c ****     return (RTC_1_currentTimeDate.Year);
 1748              		.loc 1 1190 0
 1749 0004 034B     		ldr	r3, .L118
 1750 0006 5B89     		ldrh	r3, [r3, #10]	@ movhi
 1751 0008 9BB2     		uxth	r3, r3
1191:.\Generated_Source\PSoC5/RTC_1.c **** }
 1752              		.loc 1 1191 0
 1753 000a 1846     		mov	r0, r3
 1754 000c BD46     		mov	sp, r7
 1755              		.cfi_def_cfa_register 13
 1756              		@ sp needed
 1757 000e 5DF8047B 		ldr	r7, [sp], #4
 1758              		.cfi_restore 7
 1759              		.cfi_def_cfa_offset 0
 1760 0012 7047     		bx	lr
 1761              	.L119:
 1762              		.align	2
 1763              	.L118:
 1764 0014 00000000 		.word	RTC_1_currentTimeDate
 1765              		.cfi_endproc
 1766              	.LFE28:
 1767              		.size	RTC_1_ReadYear, .-RTC_1_ReadYear
 1768              		.section	.text.RTC_1_ReadAlarmSecond,"ax",%progbits
 1769              		.align	2
ARM GAS  C:\Users\glenn\AppData\Local\Temp\ccPIHEU1.s 			page 53


 1770              		.global	RTC_1_ReadAlarmSecond
 1771              		.thumb
 1772              		.thumb_func
 1773              		.type	RTC_1_ReadAlarmSecond, %function
 1774              	RTC_1_ReadAlarmSecond:
 1775              	.LFB29:
1192:.\Generated_Source\PSoC5/RTC_1.c **** 
1193:.\Generated_Source\PSoC5/RTC_1.c **** 
1194:.\Generated_Source\PSoC5/RTC_1.c **** /*******************************************************************************
1195:.\Generated_Source\PSoC5/RTC_1.c **** * Function Name:   RTC_1_ReadAlarmSecond
1196:.\Generated_Source\PSoC5/RTC_1.c **** ********************************************************************************
1197:.\Generated_Source\PSoC5/RTC_1.c **** *
1198:.\Generated_Source\PSoC5/RTC_1.c **** * Summary:
1199:.\Generated_Source\PSoC5/RTC_1.c **** *  Reads Alarm Sec software register value.
1200:.\Generated_Source\PSoC5/RTC_1.c **** *
1201:.\Generated_Source\PSoC5/RTC_1.c **** * Parameters:
1202:.\Generated_Source\PSoC5/RTC_1.c **** *  None.
1203:.\Generated_Source\PSoC5/RTC_1.c **** *
1204:.\Generated_Source\PSoC5/RTC_1.c **** * Return:
1205:.\Generated_Source\PSoC5/RTC_1.c **** *  Current alarm value of the seconds.
1206:.\Generated_Source\PSoC5/RTC_1.c **** *
1207:.\Generated_Source\PSoC5/RTC_1.c **** * Global variables:
1208:.\Generated_Source\PSoC5/RTC_1.c **** *  RTC_1_alarmCfgTimeDate.Sec: the current second alarm value is
1209:.\Generated_Source\PSoC5/RTC_1.c **** *  used.
1210:.\Generated_Source\PSoC5/RTC_1.c **** *
1211:.\Generated_Source\PSoC5/RTC_1.c **** ********************************************************************************/
1212:.\Generated_Source\PSoC5/RTC_1.c **** uint8 RTC_1_ReadAlarmSecond(void) 
1213:.\Generated_Source\PSoC5/RTC_1.c **** {
 1776              		.loc 1 1213 0
 1777              		.cfi_startproc
 1778              		@ args = 0, pretend = 0, frame = 0
 1779              		@ frame_needed = 1, uses_anonymous_args = 0
 1780              		@ link register save eliminated.
 1781 0000 80B4     		push	{r7}
 1782              		.cfi_def_cfa_offset 4
 1783              		.cfi_offset 7, -4
 1784 0002 00AF     		add	r7, sp, #0
 1785              		.cfi_def_cfa_register 7
1214:.\Generated_Source\PSoC5/RTC_1.c ****     /* Return current alarm second */
1215:.\Generated_Source\PSoC5/RTC_1.c ****     return (RTC_1_alarmCfgTimeDate.Sec);
 1786              		.loc 1 1215 0
 1787 0004 034B     		ldr	r3, .L122
 1788 0006 1B78     		ldrb	r3, [r3]
 1789 0008 DBB2     		uxtb	r3, r3
1216:.\Generated_Source\PSoC5/RTC_1.c **** }
 1790              		.loc 1 1216 0
 1791 000a 1846     		mov	r0, r3
 1792 000c BD46     		mov	sp, r7
 1793              		.cfi_def_cfa_register 13
 1794              		@ sp needed
 1795 000e 5DF8047B 		ldr	r7, [sp], #4
 1796              		.cfi_restore 7
 1797              		.cfi_def_cfa_offset 0
 1798 0012 7047     		bx	lr
 1799              	.L123:
 1800              		.align	2
 1801              	.L122:
ARM GAS  C:\Users\glenn\AppData\Local\Temp\ccPIHEU1.s 			page 54


 1802 0014 00000000 		.word	RTC_1_alarmCfgTimeDate
 1803              		.cfi_endproc
 1804              	.LFE29:
 1805              		.size	RTC_1_ReadAlarmSecond, .-RTC_1_ReadAlarmSecond
 1806              		.section	.text.RTC_1_ReadAlarmMinute,"ax",%progbits
 1807              		.align	2
 1808              		.global	RTC_1_ReadAlarmMinute
 1809              		.thumb
 1810              		.thumb_func
 1811              		.type	RTC_1_ReadAlarmMinute, %function
 1812              	RTC_1_ReadAlarmMinute:
 1813              	.LFB30:
1217:.\Generated_Source\PSoC5/RTC_1.c **** 
1218:.\Generated_Source\PSoC5/RTC_1.c **** 
1219:.\Generated_Source\PSoC5/RTC_1.c **** /*******************************************************************************
1220:.\Generated_Source\PSoC5/RTC_1.c **** * Function Name:   RTC_1_ReadAlarmMinute
1221:.\Generated_Source\PSoC5/RTC_1.c **** ********************************************************************************
1222:.\Generated_Source\PSoC5/RTC_1.c **** *
1223:.\Generated_Source\PSoC5/RTC_1.c **** * Summary:
1224:.\Generated_Source\PSoC5/RTC_1.c **** *  Reads Alarm Min software register value.
1225:.\Generated_Source\PSoC5/RTC_1.c **** *
1226:.\Generated_Source\PSoC5/RTC_1.c **** * Parameters:
1227:.\Generated_Source\PSoC5/RTC_1.c **** *  None.
1228:.\Generated_Source\PSoC5/RTC_1.c **** *
1229:.\Generated_Source\PSoC5/RTC_1.c **** * Return:
1230:.\Generated_Source\PSoC5/RTC_1.c **** *  Current alarm value of the minutes.
1231:.\Generated_Source\PSoC5/RTC_1.c **** *
1232:.\Generated_Source\PSoC5/RTC_1.c **** * Global variables:
1233:.\Generated_Source\PSoC5/RTC_1.c **** *  RTC_1_alarmCfgTimeDate.Min: the current minute alarm is used.
1234:.\Generated_Source\PSoC5/RTC_1.c **** *
1235:.\Generated_Source\PSoC5/RTC_1.c **** *******************************************************************************/
1236:.\Generated_Source\PSoC5/RTC_1.c **** uint8 RTC_1_ReadAlarmMinute(void) 
1237:.\Generated_Source\PSoC5/RTC_1.c **** {
 1814              		.loc 1 1237 0
 1815              		.cfi_startproc
 1816              		@ args = 0, pretend = 0, frame = 0
 1817              		@ frame_needed = 1, uses_anonymous_args = 0
 1818              		@ link register save eliminated.
 1819 0000 80B4     		push	{r7}
 1820              		.cfi_def_cfa_offset 4
 1821              		.cfi_offset 7, -4
 1822 0002 00AF     		add	r7, sp, #0
 1823              		.cfi_def_cfa_register 7
1238:.\Generated_Source\PSoC5/RTC_1.c ****     /* Return current alarm minute */
1239:.\Generated_Source\PSoC5/RTC_1.c ****     return (RTC_1_alarmCfgTimeDate.Min);
 1824              		.loc 1 1239 0
 1825 0004 034B     		ldr	r3, .L126
 1826 0006 5B78     		ldrb	r3, [r3, #1]
 1827 0008 DBB2     		uxtb	r3, r3
1240:.\Generated_Source\PSoC5/RTC_1.c **** }
 1828              		.loc 1 1240 0
 1829 000a 1846     		mov	r0, r3
 1830 000c BD46     		mov	sp, r7
 1831              		.cfi_def_cfa_register 13
 1832              		@ sp needed
 1833 000e 5DF8047B 		ldr	r7, [sp], #4
 1834              		.cfi_restore 7
ARM GAS  C:\Users\glenn\AppData\Local\Temp\ccPIHEU1.s 			page 55


 1835              		.cfi_def_cfa_offset 0
 1836 0012 7047     		bx	lr
 1837              	.L127:
 1838              		.align	2
 1839              	.L126:
 1840 0014 00000000 		.word	RTC_1_alarmCfgTimeDate
 1841              		.cfi_endproc
 1842              	.LFE30:
 1843              		.size	RTC_1_ReadAlarmMinute, .-RTC_1_ReadAlarmMinute
 1844              		.section	.text.RTC_1_ReadAlarmHour,"ax",%progbits
 1845              		.align	2
 1846              		.global	RTC_1_ReadAlarmHour
 1847              		.thumb
 1848              		.thumb_func
 1849              		.type	RTC_1_ReadAlarmHour, %function
 1850              	RTC_1_ReadAlarmHour:
 1851              	.LFB31:
1241:.\Generated_Source\PSoC5/RTC_1.c **** 
1242:.\Generated_Source\PSoC5/RTC_1.c **** 
1243:.\Generated_Source\PSoC5/RTC_1.c **** /*******************************************************************************
1244:.\Generated_Source\PSoC5/RTC_1.c **** * Function Name:   RTC_1_ReadAlarmHour
1245:.\Generated_Source\PSoC5/RTC_1.c **** ********************************************************************************
1246:.\Generated_Source\PSoC5/RTC_1.c **** *
1247:.\Generated_Source\PSoC5/RTC_1.c **** * Summary:
1248:.\Generated_Source\PSoC5/RTC_1.c **** *  Reads Alarm Hour software register value.
1249:.\Generated_Source\PSoC5/RTC_1.c **** *
1250:.\Generated_Source\PSoC5/RTC_1.c **** * Parameters:
1251:.\Generated_Source\PSoC5/RTC_1.c **** *  None.
1252:.\Generated_Source\PSoC5/RTC_1.c **** *
1253:.\Generated_Source\PSoC5/RTC_1.c **** * Return:
1254:.\Generated_Source\PSoC5/RTC_1.c **** *  Current alarm value of the hours.
1255:.\Generated_Source\PSoC5/RTC_1.c **** *
1256:.\Generated_Source\PSoC5/RTC_1.c **** * Global variables:
1257:.\Generated_Source\PSoC5/RTC_1.c **** *  RTC_1_alarmCfgTimeDate.Hour: the current hour alarm value is used.
1258:.\Generated_Source\PSoC5/RTC_1.c **** *
1259:.\Generated_Source\PSoC5/RTC_1.c **** *******************************************************************************/
1260:.\Generated_Source\PSoC5/RTC_1.c **** uint8 RTC_1_ReadAlarmHour(void) 
1261:.\Generated_Source\PSoC5/RTC_1.c **** {
 1852              		.loc 1 1261 0
 1853              		.cfi_startproc
 1854              		@ args = 0, pretend = 0, frame = 0
 1855              		@ frame_needed = 1, uses_anonymous_args = 0
 1856              		@ link register save eliminated.
 1857 0000 80B4     		push	{r7}
 1858              		.cfi_def_cfa_offset 4
 1859              		.cfi_offset 7, -4
 1860 0002 00AF     		add	r7, sp, #0
 1861              		.cfi_def_cfa_register 7
1262:.\Generated_Source\PSoC5/RTC_1.c ****     /* Return current alarm hour */
1263:.\Generated_Source\PSoC5/RTC_1.c ****     return (RTC_1_alarmCfgTimeDate.Hour);
 1862              		.loc 1 1263 0
 1863 0004 034B     		ldr	r3, .L130
 1864 0006 9B78     		ldrb	r3, [r3, #2]
 1865 0008 DBB2     		uxtb	r3, r3
1264:.\Generated_Source\PSoC5/RTC_1.c **** }
 1866              		.loc 1 1264 0
 1867 000a 1846     		mov	r0, r3
ARM GAS  C:\Users\glenn\AppData\Local\Temp\ccPIHEU1.s 			page 56


 1868 000c BD46     		mov	sp, r7
 1869              		.cfi_def_cfa_register 13
 1870              		@ sp needed
 1871 000e 5DF8047B 		ldr	r7, [sp], #4
 1872              		.cfi_restore 7
 1873              		.cfi_def_cfa_offset 0
 1874 0012 7047     		bx	lr
 1875              	.L131:
 1876              		.align	2
 1877              	.L130:
 1878 0014 00000000 		.word	RTC_1_alarmCfgTimeDate
 1879              		.cfi_endproc
 1880              	.LFE31:
 1881              		.size	RTC_1_ReadAlarmHour, .-RTC_1_ReadAlarmHour
 1882              		.section	.text.RTC_1_ReadAlarmDayOfMonth,"ax",%progbits
 1883              		.align	2
 1884              		.global	RTC_1_ReadAlarmDayOfMonth
 1885              		.thumb
 1886              		.thumb_func
 1887              		.type	RTC_1_ReadAlarmDayOfMonth, %function
 1888              	RTC_1_ReadAlarmDayOfMonth:
 1889              	.LFB32:
1265:.\Generated_Source\PSoC5/RTC_1.c **** 
1266:.\Generated_Source\PSoC5/RTC_1.c **** 
1267:.\Generated_Source\PSoC5/RTC_1.c **** /*******************************************************************************
1268:.\Generated_Source\PSoC5/RTC_1.c **** * Function Name:   RTC_1_ReadAlarmDayOfMonth
1269:.\Generated_Source\PSoC5/RTC_1.c **** ********************************************************************************
1270:.\Generated_Source\PSoC5/RTC_1.c **** *
1271:.\Generated_Source\PSoC5/RTC_1.c **** * Summary:
1272:.\Generated_Source\PSoC5/RTC_1.c **** *  Reads Alarm DayOfMonth software register value.
1273:.\Generated_Source\PSoC5/RTC_1.c **** *
1274:.\Generated_Source\PSoC5/RTC_1.c **** * Parameters:
1275:.\Generated_Source\PSoC5/RTC_1.c **** *  None.
1276:.\Generated_Source\PSoC5/RTC_1.c **** *
1277:.\Generated_Source\PSoC5/RTC_1.c **** * Return:
1278:.\Generated_Source\PSoC5/RTC_1.c **** *  Current alarm value of the day of month.
1279:.\Generated_Source\PSoC5/RTC_1.c **** *
1280:.\Generated_Source\PSoC5/RTC_1.c **** * Global variables:
1281:.\Generated_Source\PSoC5/RTC_1.c **** *  RTC_1_alarmCfgTimeDate.DayOfMonth: the current day of month alarm
1282:.\Generated_Source\PSoC5/RTC_1.c **** *  value is used.
1283:.\Generated_Source\PSoC5/RTC_1.c **** *
1284:.\Generated_Source\PSoC5/RTC_1.c **** *******************************************************************************/
1285:.\Generated_Source\PSoC5/RTC_1.c **** uint8 RTC_1_ReadAlarmDayOfMonth(void) 
1286:.\Generated_Source\PSoC5/RTC_1.c **** {
 1890              		.loc 1 1286 0
 1891              		.cfi_startproc
 1892              		@ args = 0, pretend = 0, frame = 0
 1893              		@ frame_needed = 1, uses_anonymous_args = 0
 1894              		@ link register save eliminated.
 1895 0000 80B4     		push	{r7}
 1896              		.cfi_def_cfa_offset 4
 1897              		.cfi_offset 7, -4
 1898 0002 00AF     		add	r7, sp, #0
 1899              		.cfi_def_cfa_register 7
1287:.\Generated_Source\PSoC5/RTC_1.c ****     /* Return current alarm day of month */
1288:.\Generated_Source\PSoC5/RTC_1.c ****     return (RTC_1_alarmCfgTimeDate.DayOfMonth);
 1900              		.loc 1 1288 0
ARM GAS  C:\Users\glenn\AppData\Local\Temp\ccPIHEU1.s 			page 57


 1901 0004 034B     		ldr	r3, .L134
 1902 0006 1B79     		ldrb	r3, [r3, #4]
 1903 0008 DBB2     		uxtb	r3, r3
1289:.\Generated_Source\PSoC5/RTC_1.c **** }
 1904              		.loc 1 1289 0
 1905 000a 1846     		mov	r0, r3
 1906 000c BD46     		mov	sp, r7
 1907              		.cfi_def_cfa_register 13
 1908              		@ sp needed
 1909 000e 5DF8047B 		ldr	r7, [sp], #4
 1910              		.cfi_restore 7
 1911              		.cfi_def_cfa_offset 0
 1912 0012 7047     		bx	lr
 1913              	.L135:
 1914              		.align	2
 1915              	.L134:
 1916 0014 00000000 		.word	RTC_1_alarmCfgTimeDate
 1917              		.cfi_endproc
 1918              	.LFE32:
 1919              		.size	RTC_1_ReadAlarmDayOfMonth, .-RTC_1_ReadAlarmDayOfMonth
 1920              		.section	.text.RTC_1_ReadAlarmMonth,"ax",%progbits
 1921              		.align	2
 1922              		.global	RTC_1_ReadAlarmMonth
 1923              		.thumb
 1924              		.thumb_func
 1925              		.type	RTC_1_ReadAlarmMonth, %function
 1926              	RTC_1_ReadAlarmMonth:
 1927              	.LFB33:
1290:.\Generated_Source\PSoC5/RTC_1.c **** 
1291:.\Generated_Source\PSoC5/RTC_1.c **** 
1292:.\Generated_Source\PSoC5/RTC_1.c **** /*******************************************************************************
1293:.\Generated_Source\PSoC5/RTC_1.c **** * Function Name:   RTC_1_ReadAlarmMonth
1294:.\Generated_Source\PSoC5/RTC_1.c **** ********************************************************************************
1295:.\Generated_Source\PSoC5/RTC_1.c **** *
1296:.\Generated_Source\PSoC5/RTC_1.c **** * Summary:
1297:.\Generated_Source\PSoC5/RTC_1.c **** *  Reads Alarm Month software register value.
1298:.\Generated_Source\PSoC5/RTC_1.c **** *
1299:.\Generated_Source\PSoC5/RTC_1.c **** * Parameters:
1300:.\Generated_Source\PSoC5/RTC_1.c **** *  None.
1301:.\Generated_Source\PSoC5/RTC_1.c **** *
1302:.\Generated_Source\PSoC5/RTC_1.c **** * Return:
1303:.\Generated_Source\PSoC5/RTC_1.c **** *  Current alarm value of the month.
1304:.\Generated_Source\PSoC5/RTC_1.c **** *
1305:.\Generated_Source\PSoC5/RTC_1.c **** * Global variables:
1306:.\Generated_Source\PSoC5/RTC_1.c **** *  RTC_1_alarmCfgTimeDate.Month: the current month alarm value is
1307:.\Generated_Source\PSoC5/RTC_1.c **** *  used.
1308:.\Generated_Source\PSoC5/RTC_1.c **** *
1309:.\Generated_Source\PSoC5/RTC_1.c **** *******************************************************************************/
1310:.\Generated_Source\PSoC5/RTC_1.c **** uint8 RTC_1_ReadAlarmMonth(void) 
1311:.\Generated_Source\PSoC5/RTC_1.c **** {
 1928              		.loc 1 1311 0
 1929              		.cfi_startproc
 1930              		@ args = 0, pretend = 0, frame = 0
 1931              		@ frame_needed = 1, uses_anonymous_args = 0
 1932              		@ link register save eliminated.
 1933 0000 80B4     		push	{r7}
 1934              		.cfi_def_cfa_offset 4
ARM GAS  C:\Users\glenn\AppData\Local\Temp\ccPIHEU1.s 			page 58


 1935              		.cfi_offset 7, -4
 1936 0002 00AF     		add	r7, sp, #0
 1937              		.cfi_def_cfa_register 7
1312:.\Generated_Source\PSoC5/RTC_1.c ****     /* Return current alarm month */
1313:.\Generated_Source\PSoC5/RTC_1.c ****     return (RTC_1_alarmCfgTimeDate.Month);
 1938              		.loc 1 1313 0
 1939 0004 034B     		ldr	r3, .L138
 1940 0006 1B7A     		ldrb	r3, [r3, #8]
 1941 0008 DBB2     		uxtb	r3, r3
1314:.\Generated_Source\PSoC5/RTC_1.c **** }
 1942              		.loc 1 1314 0
 1943 000a 1846     		mov	r0, r3
 1944 000c BD46     		mov	sp, r7
 1945              		.cfi_def_cfa_register 13
 1946              		@ sp needed
 1947 000e 5DF8047B 		ldr	r7, [sp], #4
 1948              		.cfi_restore 7
 1949              		.cfi_def_cfa_offset 0
 1950 0012 7047     		bx	lr
 1951              	.L139:
 1952              		.align	2
 1953              	.L138:
 1954 0014 00000000 		.word	RTC_1_alarmCfgTimeDate
 1955              		.cfi_endproc
 1956              	.LFE33:
 1957              		.size	RTC_1_ReadAlarmMonth, .-RTC_1_ReadAlarmMonth
 1958              		.section	.text.RTC_1_ReadAlarmYear,"ax",%progbits
 1959              		.align	2
 1960              		.global	RTC_1_ReadAlarmYear
 1961              		.thumb
 1962              		.thumb_func
 1963              		.type	RTC_1_ReadAlarmYear, %function
 1964              	RTC_1_ReadAlarmYear:
 1965              	.LFB34:
1315:.\Generated_Source\PSoC5/RTC_1.c **** 
1316:.\Generated_Source\PSoC5/RTC_1.c **** 
1317:.\Generated_Source\PSoC5/RTC_1.c **** /*******************************************************************************
1318:.\Generated_Source\PSoC5/RTC_1.c **** * Function Name:   RTC_1_ReadAlarmYear
1319:.\Generated_Source\PSoC5/RTC_1.c **** ********************************************************************************
1320:.\Generated_Source\PSoC5/RTC_1.c **** *
1321:.\Generated_Source\PSoC5/RTC_1.c **** * Summary:
1322:.\Generated_Source\PSoC5/RTC_1.c **** *  Reads Alarm Year software register value.
1323:.\Generated_Source\PSoC5/RTC_1.c **** *
1324:.\Generated_Source\PSoC5/RTC_1.c **** * Parameters:
1325:.\Generated_Source\PSoC5/RTC_1.c **** *  None.
1326:.\Generated_Source\PSoC5/RTC_1.c **** *
1327:.\Generated_Source\PSoC5/RTC_1.c **** * Return:
1328:.\Generated_Source\PSoC5/RTC_1.c **** *  Current alarm value of the years.
1329:.\Generated_Source\PSoC5/RTC_1.c **** *
1330:.\Generated_Source\PSoC5/RTC_1.c **** * Global variables:
1331:.\Generated_Source\PSoC5/RTC_1.c **** *  RTC_1_alarmCfgTimeDate.Year: the current year alarm value is used.
1332:.\Generated_Source\PSoC5/RTC_1.c **** *
1333:.\Generated_Source\PSoC5/RTC_1.c **** *******************************************************************************/
1334:.\Generated_Source\PSoC5/RTC_1.c **** uint16 RTC_1_ReadAlarmYear(void) 
1335:.\Generated_Source\PSoC5/RTC_1.c **** {
 1966              		.loc 1 1335 0
 1967              		.cfi_startproc
ARM GAS  C:\Users\glenn\AppData\Local\Temp\ccPIHEU1.s 			page 59


 1968              		@ args = 0, pretend = 0, frame = 0
 1969              		@ frame_needed = 1, uses_anonymous_args = 0
 1970              		@ link register save eliminated.
 1971 0000 80B4     		push	{r7}
 1972              		.cfi_def_cfa_offset 4
 1973              		.cfi_offset 7, -4
 1974 0002 00AF     		add	r7, sp, #0
 1975              		.cfi_def_cfa_register 7
1336:.\Generated_Source\PSoC5/RTC_1.c ****     /* Return current alarm year */
1337:.\Generated_Source\PSoC5/RTC_1.c ****     return (RTC_1_alarmCfgTimeDate.Year);
 1976              		.loc 1 1337 0
 1977 0004 034B     		ldr	r3, .L142
 1978 0006 5B89     		ldrh	r3, [r3, #10]	@ movhi
 1979 0008 9BB2     		uxth	r3, r3
1338:.\Generated_Source\PSoC5/RTC_1.c **** }
 1980              		.loc 1 1338 0
 1981 000a 1846     		mov	r0, r3
 1982 000c BD46     		mov	sp, r7
 1983              		.cfi_def_cfa_register 13
 1984              		@ sp needed
 1985 000e 5DF8047B 		ldr	r7, [sp], #4
 1986              		.cfi_restore 7
 1987              		.cfi_def_cfa_offset 0
 1988 0012 7047     		bx	lr
 1989              	.L143:
 1990              		.align	2
 1991              	.L142:
 1992 0014 00000000 		.word	RTC_1_alarmCfgTimeDate
 1993              		.cfi_endproc
 1994              	.LFE34:
 1995              		.size	RTC_1_ReadAlarmYear, .-RTC_1_ReadAlarmYear
 1996              		.section	.text.RTC_1_ReadAlarmDayOfWeek,"ax",%progbits
 1997              		.align	2
 1998              		.global	RTC_1_ReadAlarmDayOfWeek
 1999              		.thumb
 2000              		.thumb_func
 2001              		.type	RTC_1_ReadAlarmDayOfWeek, %function
 2002              	RTC_1_ReadAlarmDayOfWeek:
 2003              	.LFB35:
1339:.\Generated_Source\PSoC5/RTC_1.c **** 
1340:.\Generated_Source\PSoC5/RTC_1.c **** 
1341:.\Generated_Source\PSoC5/RTC_1.c **** /*******************************************************************************
1342:.\Generated_Source\PSoC5/RTC_1.c **** * Function Name:   RTC_1_ReadAlarmDayOfWeek
1343:.\Generated_Source\PSoC5/RTC_1.c **** ********************************************************************************
1344:.\Generated_Source\PSoC5/RTC_1.c **** *
1345:.\Generated_Source\PSoC5/RTC_1.c **** * Summary:
1346:.\Generated_Source\PSoC5/RTC_1.c **** *  Reads Alarm DayOfWeek software register value.
1347:.\Generated_Source\PSoC5/RTC_1.c **** *
1348:.\Generated_Source\PSoC5/RTC_1.c **** * Parameters:
1349:.\Generated_Source\PSoC5/RTC_1.c **** *  None.
1350:.\Generated_Source\PSoC5/RTC_1.c **** *
1351:.\Generated_Source\PSoC5/RTC_1.c **** * Return:
1352:.\Generated_Source\PSoC5/RTC_1.c **** *  Current alarm value of the day of week.
1353:.\Generated_Source\PSoC5/RTC_1.c **** *
1354:.\Generated_Source\PSoC5/RTC_1.c **** * Global variables:
1355:.\Generated_Source\PSoC5/RTC_1.c **** *  RTC_1_alarmCfgTimeDate.DayOfWeek: the current day of week alarm
1356:.\Generated_Source\PSoC5/RTC_1.c **** *  value is used.
ARM GAS  C:\Users\glenn\AppData\Local\Temp\ccPIHEU1.s 			page 60


1357:.\Generated_Source\PSoC5/RTC_1.c **** *
1358:.\Generated_Source\PSoC5/RTC_1.c **** *******************************************************************************/
1359:.\Generated_Source\PSoC5/RTC_1.c **** uint8 RTC_1_ReadAlarmDayOfWeek(void) 
1360:.\Generated_Source\PSoC5/RTC_1.c **** {
 2004              		.loc 1 1360 0
 2005              		.cfi_startproc
 2006              		@ args = 0, pretend = 0, frame = 0
 2007              		@ frame_needed = 1, uses_anonymous_args = 0
 2008              		@ link register save eliminated.
 2009 0000 80B4     		push	{r7}
 2010              		.cfi_def_cfa_offset 4
 2011              		.cfi_offset 7, -4
 2012 0002 00AF     		add	r7, sp, #0
 2013              		.cfi_def_cfa_register 7
1361:.\Generated_Source\PSoC5/RTC_1.c ****     /* Return current alarm day of the week */
1362:.\Generated_Source\PSoC5/RTC_1.c ****     return (RTC_1_alarmCfgTimeDate.DayOfWeek);
 2014              		.loc 1 1362 0
 2015 0004 034B     		ldr	r3, .L146
 2016 0006 DB78     		ldrb	r3, [r3, #3]
 2017 0008 DBB2     		uxtb	r3, r3
1363:.\Generated_Source\PSoC5/RTC_1.c **** }
 2018              		.loc 1 1363 0
 2019 000a 1846     		mov	r0, r3
 2020 000c BD46     		mov	sp, r7
 2021              		.cfi_def_cfa_register 13
 2022              		@ sp needed
 2023 000e 5DF8047B 		ldr	r7, [sp], #4
 2024              		.cfi_restore 7
 2025              		.cfi_def_cfa_offset 0
 2026 0012 7047     		bx	lr
 2027              	.L147:
 2028              		.align	2
 2029              	.L146:
 2030 0014 00000000 		.word	RTC_1_alarmCfgTimeDate
 2031              		.cfi_endproc
 2032              	.LFE35:
 2033              		.size	RTC_1_ReadAlarmDayOfWeek, .-RTC_1_ReadAlarmDayOfWeek
 2034              		.section	.text.RTC_1_ReadAlarmDayOfYear,"ax",%progbits
 2035              		.align	2
 2036              		.global	RTC_1_ReadAlarmDayOfYear
 2037              		.thumb
 2038              		.thumb_func
 2039              		.type	RTC_1_ReadAlarmDayOfYear, %function
 2040              	RTC_1_ReadAlarmDayOfYear:
 2041              	.LFB36:
1364:.\Generated_Source\PSoC5/RTC_1.c **** 
1365:.\Generated_Source\PSoC5/RTC_1.c **** 
1366:.\Generated_Source\PSoC5/RTC_1.c **** /*******************************************************************************
1367:.\Generated_Source\PSoC5/RTC_1.c **** * Function Name:   RTC_1_ReadAlarmDayOfYear
1368:.\Generated_Source\PSoC5/RTC_1.c **** ********************************************************************************
1369:.\Generated_Source\PSoC5/RTC_1.c **** *
1370:.\Generated_Source\PSoC5/RTC_1.c **** * Summary:
1371:.\Generated_Source\PSoC5/RTC_1.c **** *  Reads Alarm DayOfYear software register value.
1372:.\Generated_Source\PSoC5/RTC_1.c **** *
1373:.\Generated_Source\PSoC5/RTC_1.c **** * Parameters:
1374:.\Generated_Source\PSoC5/RTC_1.c **** *  None.
1375:.\Generated_Source\PSoC5/RTC_1.c **** *
ARM GAS  C:\Users\glenn\AppData\Local\Temp\ccPIHEU1.s 			page 61


1376:.\Generated_Source\PSoC5/RTC_1.c **** * Return:
1377:.\Generated_Source\PSoC5/RTC_1.c **** *  Current alarm value of the day of year.
1378:.\Generated_Source\PSoC5/RTC_1.c **** *
1379:.\Generated_Source\PSoC5/RTC_1.c **** * Global variables:
1380:.\Generated_Source\PSoC5/RTC_1.c **** *  RTC_1_alarmCfgTimeDate.DayOfYear: the current day of year alarm
1381:.\Generated_Source\PSoC5/RTC_1.c **** *  value is used.
1382:.\Generated_Source\PSoC5/RTC_1.c **** *
1383:.\Generated_Source\PSoC5/RTC_1.c **** *******************************************************************************/
1384:.\Generated_Source\PSoC5/RTC_1.c **** uint16 RTC_1_ReadAlarmDayOfYear(void) 
1385:.\Generated_Source\PSoC5/RTC_1.c **** {
 2042              		.loc 1 1385 0
 2043              		.cfi_startproc
 2044              		@ args = 0, pretend = 0, frame = 0
 2045              		@ frame_needed = 1, uses_anonymous_args = 0
 2046              		@ link register save eliminated.
 2047 0000 80B4     		push	{r7}
 2048              		.cfi_def_cfa_offset 4
 2049              		.cfi_offset 7, -4
 2050 0002 00AF     		add	r7, sp, #0
 2051              		.cfi_def_cfa_register 7
1386:.\Generated_Source\PSoC5/RTC_1.c ****     /* Return current alarm day of the year */
1387:.\Generated_Source\PSoC5/RTC_1.c ****     return  (RTC_1_alarmCfgTimeDate.DayOfYear);
 2052              		.loc 1 1387 0
 2053 0004 034B     		ldr	r3, .L150
 2054 0006 DB88     		ldrh	r3, [r3, #6]	@ movhi
 2055 0008 9BB2     		uxth	r3, r3
1388:.\Generated_Source\PSoC5/RTC_1.c **** }
 2056              		.loc 1 1388 0
 2057 000a 1846     		mov	r0, r3
 2058 000c BD46     		mov	sp, r7
 2059              		.cfi_def_cfa_register 13
 2060              		@ sp needed
 2061 000e 5DF8047B 		ldr	r7, [sp], #4
 2062              		.cfi_restore 7
 2063              		.cfi_def_cfa_offset 0
 2064 0012 7047     		bx	lr
 2065              	.L151:
 2066              		.align	2
 2067              	.L150:
 2068 0014 00000000 		.word	RTC_1_alarmCfgTimeDate
 2069              		.cfi_endproc
 2070              	.LFE36:
 2071              		.size	RTC_1_ReadAlarmDayOfYear, .-RTC_1_ReadAlarmDayOfYear
 2072              		.section	.text.RTC_1_WriteAlarmMask,"ax",%progbits
 2073              		.align	2
 2074              		.global	RTC_1_WriteAlarmMask
 2075              		.thumb
 2076              		.thumb_func
 2077              		.type	RTC_1_WriteAlarmMask, %function
 2078              	RTC_1_WriteAlarmMask:
 2079              	.LFB37:
1389:.\Generated_Source\PSoC5/RTC_1.c **** 
1390:.\Generated_Source\PSoC5/RTC_1.c **** 
1391:.\Generated_Source\PSoC5/RTC_1.c **** /*******************************************************************************
1392:.\Generated_Source\PSoC5/RTC_1.c **** * Function Name:   RTC_1_WriteAlarmMask
1393:.\Generated_Source\PSoC5/RTC_1.c **** ********************************************************************************
1394:.\Generated_Source\PSoC5/RTC_1.c **** *
ARM GAS  C:\Users\glenn\AppData\Local\Temp\ccPIHEU1.s 			page 62


1395:.\Generated_Source\PSoC5/RTC_1.c **** * Summary:
1396:.\Generated_Source\PSoC5/RTC_1.c **** *  Writes the Alarm Mask software register with 1 bit per time/date entry. Alarm
1397:.\Generated_Source\PSoC5/RTC_1.c **** *  true when all masked time/date values match Alarm values.
1398:.\Generated_Source\PSoC5/RTC_1.c **** *
1399:.\Generated_Source\PSoC5/RTC_1.c **** * Parameters:
1400:.\Generated_Source\PSoC5/RTC_1.c **** *  mask: Alarm Mask software register value.
1401:.\Generated_Source\PSoC5/RTC_1.c **** *
1402:.\Generated_Source\PSoC5/RTC_1.c **** * Return:
1403:.\Generated_Source\PSoC5/RTC_1.c **** *  None.
1404:.\Generated_Source\PSoC5/RTC_1.c **** *
1405:.\Generated_Source\PSoC5/RTC_1.c **** * Global variables:
1406:.\Generated_Source\PSoC5/RTC_1.c **** *  RTC_1_alarmCfgMask: global variable which stores masks for
1407:.\Generated_Source\PSoC5/RTC_1.c **** *  time/date alarm configuration is modified.
1408:.\Generated_Source\PSoC5/RTC_1.c **** *
1409:.\Generated_Source\PSoC5/RTC_1.c **** * Reentrant:
1410:.\Generated_Source\PSoC5/RTC_1.c **** *  No.
1411:.\Generated_Source\PSoC5/RTC_1.c **** *
1412:.\Generated_Source\PSoC5/RTC_1.c **** *******************************************************************************/
1413:.\Generated_Source\PSoC5/RTC_1.c **** void RTC_1_WriteAlarmMask(uint8 mask) 
1414:.\Generated_Source\PSoC5/RTC_1.c **** {
 2080              		.loc 1 1414 0
 2081              		.cfi_startproc
 2082              		@ args = 0, pretend = 0, frame = 8
 2083              		@ frame_needed = 1, uses_anonymous_args = 0
 2084              		@ link register save eliminated.
 2085 0000 80B4     		push	{r7}
 2086              		.cfi_def_cfa_offset 4
 2087              		.cfi_offset 7, -4
 2088 0002 83B0     		sub	sp, sp, #12
 2089              		.cfi_def_cfa_offset 16
 2090 0004 00AF     		add	r7, sp, #0
 2091              		.cfi_def_cfa_register 7
 2092 0006 0346     		mov	r3, r0
 2093 0008 FB71     		strb	r3, [r7, #7]
1415:.\Generated_Source\PSoC5/RTC_1.c ****     RTC_1_alarmCfgMask = mask;
 2094              		.loc 1 1415 0
 2095 000a 044A     		ldr	r2, .L153
 2096 000c FB79     		ldrb	r3, [r7, #7]
 2097 000e 1370     		strb	r3, [r2]
1416:.\Generated_Source\PSoC5/RTC_1.c **** }
 2098              		.loc 1 1416 0
 2099 0010 0C37     		adds	r7, r7, #12
 2100              		.cfi_def_cfa_offset 4
 2101 0012 BD46     		mov	sp, r7
 2102              		.cfi_def_cfa_register 13
 2103              		@ sp needed
 2104 0014 5DF8047B 		ldr	r7, [sp], #4
 2105              		.cfi_restore 7
 2106              		.cfi_def_cfa_offset 0
 2107 0018 7047     		bx	lr
 2108              	.L154:
 2109 001a 00BF     		.align	2
 2110              	.L153:
 2111 001c 00000000 		.word	RTC_1_alarmCfgMask
 2112              		.cfi_endproc
 2113              	.LFE37:
 2114              		.size	RTC_1_WriteAlarmMask, .-RTC_1_WriteAlarmMask
ARM GAS  C:\Users\glenn\AppData\Local\Temp\ccPIHEU1.s 			page 63


 2115              		.section	.text.RTC_1_WriteIntervalMask,"ax",%progbits
 2116              		.align	2
 2117              		.global	RTC_1_WriteIntervalMask
 2118              		.thumb
 2119              		.thumb_func
 2120              		.type	RTC_1_WriteIntervalMask, %function
 2121              	RTC_1_WriteIntervalMask:
 2122              	.LFB38:
1417:.\Generated_Source\PSoC5/RTC_1.c **** 
1418:.\Generated_Source\PSoC5/RTC_1.c **** 
1419:.\Generated_Source\PSoC5/RTC_1.c **** /*******************************************************************************
1420:.\Generated_Source\PSoC5/RTC_1.c **** * Function Name:   RTC_1_WriteIntervalMask
1421:.\Generated_Source\PSoC5/RTC_1.c **** ********************************************************************************
1422:.\Generated_Source\PSoC5/RTC_1.c **** *
1423:.\Generated_Source\PSoC5/RTC_1.c **** * Summary:
1424:.\Generated_Source\PSoC5/RTC_1.c **** *  Writes the Interval Mask software register with 1 bit per time/date entry.
1425:.\Generated_Source\PSoC5/RTC_1.c **** *  Interrupt true when any masked time/date overflow occur.
1426:.\Generated_Source\PSoC5/RTC_1.c **** *
1427:.\Generated_Source\PSoC5/RTC_1.c **** * Parameters:
1428:.\Generated_Source\PSoC5/RTC_1.c **** *  mask: Alarm Mask software register value.
1429:.\Generated_Source\PSoC5/RTC_1.c **** *
1430:.\Generated_Source\PSoC5/RTC_1.c **** * Return:
1431:.\Generated_Source\PSoC5/RTC_1.c **** *  None.
1432:.\Generated_Source\PSoC5/RTC_1.c **** *
1433:.\Generated_Source\PSoC5/RTC_1.c **** * Global variables:
1434:.\Generated_Source\PSoC5/RTC_1.c **** *  RTC_1_intervalCfgMask: this global variable is modified - the new
1435:.\Generated_Source\PSoC5/RTC_1.c **** *  value of interval mask is stored here.
1436:.\Generated_Source\PSoC5/RTC_1.c **** *
1437:.\Generated_Source\PSoC5/RTC_1.c **** * Reentrant:
1438:.\Generated_Source\PSoC5/RTC_1.c **** *  No.
1439:.\Generated_Source\PSoC5/RTC_1.c **** *
1440:.\Generated_Source\PSoC5/RTC_1.c **** *******************************************************************************/
1441:.\Generated_Source\PSoC5/RTC_1.c **** void RTC_1_WriteIntervalMask(uint8 mask) 
1442:.\Generated_Source\PSoC5/RTC_1.c **** {
 2123              		.loc 1 1442 0
 2124              		.cfi_startproc
 2125              		@ args = 0, pretend = 0, frame = 8
 2126              		@ frame_needed = 1, uses_anonymous_args = 0
 2127              		@ link register save eliminated.
 2128 0000 80B4     		push	{r7}
 2129              		.cfi_def_cfa_offset 4
 2130              		.cfi_offset 7, -4
 2131 0002 83B0     		sub	sp, sp, #12
 2132              		.cfi_def_cfa_offset 16
 2133 0004 00AF     		add	r7, sp, #0
 2134              		.cfi_def_cfa_register 7
 2135 0006 0346     		mov	r3, r0
 2136 0008 FB71     		strb	r3, [r7, #7]
1443:.\Generated_Source\PSoC5/RTC_1.c ****     RTC_1_intervalCfgMask = mask;
 2137              		.loc 1 1443 0
 2138 000a 044A     		ldr	r2, .L156
 2139 000c FB79     		ldrb	r3, [r7, #7]
 2140 000e 1370     		strb	r3, [r2]
1444:.\Generated_Source\PSoC5/RTC_1.c **** }
 2141              		.loc 1 1444 0
 2142 0010 0C37     		adds	r7, r7, #12
 2143              		.cfi_def_cfa_offset 4
ARM GAS  C:\Users\glenn\AppData\Local\Temp\ccPIHEU1.s 			page 64


 2144 0012 BD46     		mov	sp, r7
 2145              		.cfi_def_cfa_register 13
 2146              		@ sp needed
 2147 0014 5DF8047B 		ldr	r7, [sp], #4
 2148              		.cfi_restore 7
 2149              		.cfi_def_cfa_offset 0
 2150 0018 7047     		bx	lr
 2151              	.L157:
 2152 001a 00BF     		.align	2
 2153              	.L156:
 2154 001c 00000000 		.word	RTC_1_intervalCfgMask
 2155              		.cfi_endproc
 2156              	.LFE38:
 2157              		.size	RTC_1_WriteIntervalMask, .-RTC_1_WriteIntervalMask
 2158              		.section	.text.RTC_1_ReadStatus,"ax",%progbits
 2159              		.align	2
 2160              		.global	RTC_1_ReadStatus
 2161              		.thumb
 2162              		.thumb_func
 2163              		.type	RTC_1_ReadStatus, %function
 2164              	RTC_1_ReadStatus:
 2165              	.LFB39:
1445:.\Generated_Source\PSoC5/RTC_1.c **** 
1446:.\Generated_Source\PSoC5/RTC_1.c **** 
1447:.\Generated_Source\PSoC5/RTC_1.c **** /*******************************************************************************
1448:.\Generated_Source\PSoC5/RTC_1.c **** * Function Name:   RTC_1_ReadStatus
1449:.\Generated_Source\PSoC5/RTC_1.c **** ********************************************************************************
1450:.\Generated_Source\PSoC5/RTC_1.c **** *
1451:.\Generated_Source\PSoC5/RTC_1.c **** * Summary:
1452:.\Generated_Source\PSoC5/RTC_1.c **** *  Reads the Status software register which has flags for DST
1453:.\Generated_Source\PSoC5/RTC_1.c **** *  (DST), Leap Year (LY) and AM/PM (AM_PM), Alarm active (AA).
1454:.\Generated_Source\PSoC5/RTC_1.c **** *
1455:.\Generated_Source\PSoC5/RTC_1.c **** * Parameters:
1456:.\Generated_Source\PSoC5/RTC_1.c **** *  None.
1457:.\Generated_Source\PSoC5/RTC_1.c **** *
1458:.\Generated_Source\PSoC5/RTC_1.c **** * Return:
1459:.\Generated_Source\PSoC5/RTC_1.c **** *  None.
1460:.\Generated_Source\PSoC5/RTC_1.c **** *
1461:.\Generated_Source\PSoC5/RTC_1.c **** * Global variables:
1462:.\Generated_Source\PSoC5/RTC_1.c **** *  RTC_1_statusDateTime: global variable is modified - active alarm
1463:.\Generated_Source\PSoC5/RTC_1.c **** *  status bit is cleared.
1464:.\Generated_Source\PSoC5/RTC_1.c **** *
1465:.\Generated_Source\PSoC5/RTC_1.c **** * Reentrant:
1466:.\Generated_Source\PSoC5/RTC_1.c **** *  No.
1467:.\Generated_Source\PSoC5/RTC_1.c **** *
1468:.\Generated_Source\PSoC5/RTC_1.c **** * Side Effects:
1469:.\Generated_Source\PSoC5/RTC_1.c **** *  Alarm active(AA) flag clear after read.
1470:.\Generated_Source\PSoC5/RTC_1.c **** *
1471:.\Generated_Source\PSoC5/RTC_1.c **** *******************************************************************************/
1472:.\Generated_Source\PSoC5/RTC_1.c **** uint8 RTC_1_ReadStatus(void) 
1473:.\Generated_Source\PSoC5/RTC_1.c **** {
 2166              		.loc 1 1473 0
 2167              		.cfi_startproc
 2168              		@ args = 0, pretend = 0, frame = 8
 2169              		@ frame_needed = 1, uses_anonymous_args = 0
 2170              		@ link register save eliminated.
 2171 0000 80B4     		push	{r7}
ARM GAS  C:\Users\glenn\AppData\Local\Temp\ccPIHEU1.s 			page 65


 2172              		.cfi_def_cfa_offset 4
 2173              		.cfi_offset 7, -4
 2174 0002 83B0     		sub	sp, sp, #12
 2175              		.cfi_def_cfa_offset 16
 2176 0004 00AF     		add	r7, sp, #0
 2177              		.cfi_def_cfa_register 7
1474:.\Generated_Source\PSoC5/RTC_1.c ****     uint8 status;
1475:.\Generated_Source\PSoC5/RTC_1.c **** 
1476:.\Generated_Source\PSoC5/RTC_1.c ****     /* Save status */
1477:.\Generated_Source\PSoC5/RTC_1.c ****     status = (uint8)RTC_1_statusDateTime;
 2178              		.loc 1 1477 0
 2179 0006 094B     		ldr	r3, .L160
 2180 0008 1B78     		ldrb	r3, [r3]
 2181 000a FB71     		strb	r3, [r7, #7]
1478:.\Generated_Source\PSoC5/RTC_1.c **** 
1479:.\Generated_Source\PSoC5/RTC_1.c ****     /* Clean AA flag after read of Status Register */
1480:.\Generated_Source\PSoC5/RTC_1.c ****     RTC_1_statusDateTime &= (uint8)(~RTC_1_STATUS_AA);
 2182              		.loc 1 1480 0
 2183 000c 074B     		ldr	r3, .L160
 2184 000e 1B78     		ldrb	r3, [r3]
 2185 0010 DBB2     		uxtb	r3, r3
 2186 0012 23F00803 		bic	r3, r3, #8
 2187 0016 DAB2     		uxtb	r2, r3
 2188 0018 044B     		ldr	r3, .L160
 2189 001a 1A70     		strb	r2, [r3]
1481:.\Generated_Source\PSoC5/RTC_1.c **** 
1482:.\Generated_Source\PSoC5/RTC_1.c ****     return (status);
 2190              		.loc 1 1482 0
 2191 001c FB79     		ldrb	r3, [r7, #7]	@ zero_extendqisi2
1483:.\Generated_Source\PSoC5/RTC_1.c **** }
 2192              		.loc 1 1483 0
 2193 001e 1846     		mov	r0, r3
 2194 0020 0C37     		adds	r7, r7, #12
 2195              		.cfi_def_cfa_offset 4
 2196 0022 BD46     		mov	sp, r7
 2197              		.cfi_def_cfa_register 13
 2198              		@ sp needed
 2199 0024 5DF8047B 		ldr	r7, [sp], #4
 2200              		.cfi_restore 7
 2201              		.cfi_def_cfa_offset 0
 2202 0028 7047     		bx	lr
 2203              	.L161:
 2204 002a 00BF     		.align	2
 2205              	.L160:
 2206 002c 00000000 		.word	RTC_1_statusDateTime
 2207              		.cfi_endproc
 2208              	.LFE39:
 2209              		.size	RTC_1_ReadStatus, .-RTC_1_ReadStatus
 2210              		.section	.text.RTC_1_DayOfWeek,"ax",%progbits
 2211              		.align	2
 2212              		.thumb
 2213              		.thumb_func
 2214              		.type	RTC_1_DayOfWeek, %function
 2215              	RTC_1_DayOfWeek:
 2216              	.LFB40:
1484:.\Generated_Source\PSoC5/RTC_1.c **** 
1485:.\Generated_Source\PSoC5/RTC_1.c **** 
ARM GAS  C:\Users\glenn\AppData\Local\Temp\ccPIHEU1.s 			page 66


1486:.\Generated_Source\PSoC5/RTC_1.c **** /*******************************************************************************
1487:.\Generated_Source\PSoC5/RTC_1.c **** * Function Name:   RTC_1_DayOfWeek
1488:.\Generated_Source\PSoC5/RTC_1.c **** ********************************************************************************
1489:.\Generated_Source\PSoC5/RTC_1.c **** *
1490:.\Generated_Source\PSoC5/RTC_1.c **** * Summary:
1491:.\Generated_Source\PSoC5/RTC_1.c **** *  Calculates Day Of Week value use Zeller's congruence.
1492:.\Generated_Source\PSoC5/RTC_1.c **** *
1493:.\Generated_Source\PSoC5/RTC_1.c **** * Parameters:
1494:.\Generated_Source\PSoC5/RTC_1.c **** *  dayOfMonth: Day Of Month value.
1495:.\Generated_Source\PSoC5/RTC_1.c **** *  month: Month value.
1496:.\Generated_Source\PSoC5/RTC_1.c **** *  year: Year value.
1497:.\Generated_Source\PSoC5/RTC_1.c **** *
1498:.\Generated_Source\PSoC5/RTC_1.c **** * Return:
1499:.\Generated_Source\PSoC5/RTC_1.c **** *  Day Of Week value.
1500:.\Generated_Source\PSoC5/RTC_1.c **** *
1501:.\Generated_Source\PSoC5/RTC_1.c **** *******************************************************************************/
1502:.\Generated_Source\PSoC5/RTC_1.c **** static uint8 RTC_1_DayOfWeek(uint8 dayOfMonth, uint8 month, uint16 year)
1503:.\Generated_Source\PSoC5/RTC_1.c **** 
1504:.\Generated_Source\PSoC5/RTC_1.c **** {
 2217              		.loc 1 1504 0
 2218              		.cfi_startproc
 2219              		@ args = 0, pretend = 0, frame = 8
 2220              		@ frame_needed = 1, uses_anonymous_args = 0
 2221              		@ link register save eliminated.
 2222 0000 80B4     		push	{r7}
 2223              		.cfi_def_cfa_offset 4
 2224              		.cfi_offset 7, -4
 2225 0002 83B0     		sub	sp, sp, #12
 2226              		.cfi_def_cfa_offset 16
 2227 0004 00AF     		add	r7, sp, #0
 2228              		.cfi_def_cfa_register 7
 2229 0006 0346     		mov	r3, r0
 2230 0008 FB71     		strb	r3, [r7, #7]
 2231 000a 0B46     		mov	r3, r1
 2232 000c BB71     		strb	r3, [r7, #6]
 2233 000e 1346     		mov	r3, r2	@ movhi
 2234 0010 BB80     		strh	r3, [r7, #4]	@ movhi
1505:.\Generated_Source\PSoC5/RTC_1.c ****     /* Calculated sequence ((31 * month) / 12) mod 7 from the Zeller's congruence */
1506:.\Generated_Source\PSoC5/RTC_1.c ****     static const uint8 CYCODE RTC_1_monthTemplate[RTC_1_MONTHS_IN_YEAR] =
1507:.\Generated_Source\PSoC5/RTC_1.c ****                                                             {0u, 3u, 2u, 5u, 0u, 3u, 5u, 1u, 4u, 6u
1508:.\Generated_Source\PSoC5/RTC_1.c **** 
1509:.\Generated_Source\PSoC5/RTC_1.c ****     /* It is simpler to handle the modified year, which is year - 1 during
1510:.\Generated_Source\PSoC5/RTC_1.c ****     * January and February
1511:.\Generated_Source\PSoC5/RTC_1.c ****     */
1512:.\Generated_Source\PSoC5/RTC_1.c ****     if(month < RTC_1_MARCH)
 2235              		.loc 1 1512 0
 2236 0012 BB79     		ldrb	r3, [r7, #6]	@ zero_extendqisi2
 2237 0014 022B     		cmp	r3, #2
 2238 0016 02D8     		bhi	.L163
1513:.\Generated_Source\PSoC5/RTC_1.c ****     {
1514:.\Generated_Source\PSoC5/RTC_1.c ****         year = year - 1u;
 2239              		.loc 1 1514 0
 2240 0018 BB88     		ldrh	r3, [r7, #4]	@ movhi
 2241 001a 013B     		subs	r3, r3, #1
 2242 001c BB80     		strh	r3, [r7, #4]	@ movhi
 2243              	.L163:
1515:.\Generated_Source\PSoC5/RTC_1.c ****     }
ARM GAS  C:\Users\glenn\AppData\Local\Temp\ccPIHEU1.s 			page 67


1516:.\Generated_Source\PSoC5/RTC_1.c **** 
1517:.\Generated_Source\PSoC5/RTC_1.c ****     /* For Gregorian calendar: d = (day + y + y/4 - y/100 + y/400 + (31*m)/12) mod 7 */
1518:.\Generated_Source\PSoC5/RTC_1.c ****     return ((uint8)(((year + (((year/4u) - (year/100u)) + (year/400u))) +
 2244              		.loc 1 1518 0
 2245 001e BA88     		ldrh	r2, [r7, #4]
 2246 0020 BB88     		ldrh	r3, [r7, #4]
 2247 0022 9B08     		lsrs	r3, r3, #2
 2248 0024 9BB2     		uxth	r3, r3
 2249 0026 1846     		mov	r0, r3
 2250 0028 BB88     		ldrh	r3, [r7, #4]
 2251 002a 1449     		ldr	r1, .L165
 2252 002c A1FB0313 		umull	r1, r3, r1, r3
 2253 0030 5B09     		lsrs	r3, r3, #5
 2254 0032 9BB2     		uxth	r3, r3
 2255 0034 C31A     		subs	r3, r0, r3
 2256 0036 B988     		ldrh	r1, [r7, #4]
 2257 0038 1048     		ldr	r0, .L165
 2258 003a A0FB0101 		umull	r0, r1, r0, r1
 2259 003e C909     		lsrs	r1, r1, #7
 2260 0040 89B2     		uxth	r1, r1
 2261 0042 0B44     		add	r3, r3, r1
 2262 0044 1344     		add	r3, r3, r2
1519:.\Generated_Source\PSoC5/RTC_1.c ****     (((uint16)RTC_1_monthTemplate[month - 1u]) + ((uint16) dayOfMonth))) % RTC_1_DAYS_IN_WEEK));
 2263              		.loc 1 1519 0
 2264 0046 BA79     		ldrb	r2, [r7, #6]	@ zero_extendqisi2
 2265 0048 013A     		subs	r2, r2, #1
 2266 004a 0D49     		ldr	r1, .L165+4
 2267 004c 8A5C     		ldrb	r2, [r1, r2]	@ zero_extendqisi2
 2268 004e 1146     		mov	r1, r2
 2269 0050 FA79     		ldrb	r2, [r7, #7]	@ zero_extendqisi2
 2270 0052 0A44     		add	r2, r2, r1
1518:.\Generated_Source\PSoC5/RTC_1.c ****     (((uint16)RTC_1_monthTemplate[month - 1u]) + ((uint16) dayOfMonth))) % RTC_1_DAYS_IN_WEEK));
 2271              		.loc 1 1518 0
 2272 0054 1A44     		add	r2, r2, r3
 2273              		.loc 1 1519 0
 2274 0056 0B4B     		ldr	r3, .L165+8
 2275 0058 A2FB0301 		umull	r0, r1, r2, r3
 2276 005c 531A     		subs	r3, r2, r1
 2277 005e 5B08     		lsrs	r3, r3, #1
 2278 0060 0B44     		add	r3, r3, r1
 2279 0062 9908     		lsrs	r1, r3, #2
 2280 0064 0B46     		mov	r3, r1
 2281 0066 DB00     		lsls	r3, r3, #3
 2282 0068 5B1A     		subs	r3, r3, r1
 2283 006a D11A     		subs	r1, r2, r3
1518:.\Generated_Source\PSoC5/RTC_1.c ****     (((uint16)RTC_1_monthTemplate[month - 1u]) + ((uint16) dayOfMonth))) % RTC_1_DAYS_IN_WEEK));
 2284              		.loc 1 1518 0
 2285 006c CBB2     		uxtb	r3, r1
1520:.\Generated_Source\PSoC5/RTC_1.c **** }
 2286              		.loc 1 1520 0
 2287 006e 1846     		mov	r0, r3
 2288 0070 0C37     		adds	r7, r7, #12
 2289              		.cfi_def_cfa_offset 4
 2290 0072 BD46     		mov	sp, r7
 2291              		.cfi_def_cfa_register 13
 2292              		@ sp needed
 2293 0074 5DF8047B 		ldr	r7, [sp], #4
ARM GAS  C:\Users\glenn\AppData\Local\Temp\ccPIHEU1.s 			page 68


 2294              		.cfi_restore 7
 2295              		.cfi_def_cfa_offset 0
 2296 0078 7047     		bx	lr
 2297              	.L166:
 2298 007a 00BF     		.align	2
 2299              	.L165:
 2300 007c 1F85EB51 		.word	1374389535
 2301 0080 0C000000 		.word	RTC_1_monthTemplate.5101
 2302 0084 25499224 		.word	613566757
 2303              		.cfi_endproc
 2304              	.LFE40:
 2305              		.size	RTC_1_DayOfWeek, .-RTC_1_DayOfWeek
 2306              		.section	.text.RTC_1_SetInitValues,"ax",%progbits
 2307              		.align	2
 2308              		.thumb
 2309              		.thumb_func
 2310              		.type	RTC_1_SetInitValues, %function
 2311              	RTC_1_SetInitValues:
 2312              	.LFB41:
1521:.\Generated_Source\PSoC5/RTC_1.c **** 
1522:.\Generated_Source\PSoC5/RTC_1.c **** 
1523:.\Generated_Source\PSoC5/RTC_1.c **** /*******************************************************************************
1524:.\Generated_Source\PSoC5/RTC_1.c **** * Function Name:   RTC_1_SetInitValues
1525:.\Generated_Source\PSoC5/RTC_1.c **** ********************************************************************************
1526:.\Generated_Source\PSoC5/RTC_1.c **** *
1527:.\Generated_Source\PSoC5/RTC_1.c **** * Summary:
1528:.\Generated_Source\PSoC5/RTC_1.c **** *    Does all initial calculation.
1529:.\Generated_Source\PSoC5/RTC_1.c **** *    - Set LP Year flag;
1530:.\Generated_Source\PSoC5/RTC_1.c **** *    - Set AM/PM flag;
1531:.\Generated_Source\PSoC5/RTC_1.c **** *    - DayOfWeek;
1532:.\Generated_Source\PSoC5/RTC_1.c **** *    - DayOfYear;
1533:.\Generated_Source\PSoC5/RTC_1.c **** *    - Set DST flag;
1534:.\Generated_Source\PSoC5/RTC_1.c **** *    - Convert relative to absolute date.
1535:.\Generated_Source\PSoC5/RTC_1.c **** *
1536:.\Generated_Source\PSoC5/RTC_1.c **** * Parameters:
1537:.\Generated_Source\PSoC5/RTC_1.c **** *  None.
1538:.\Generated_Source\PSoC5/RTC_1.c **** *
1539:.\Generated_Source\PSoC5/RTC_1.c **** * Return:
1540:.\Generated_Source\PSoC5/RTC_1.c **** *  None.
1541:.\Generated_Source\PSoC5/RTC_1.c **** *
1542:.\Generated_Source\PSoC5/RTC_1.c **** * Global variables:
1543:.\Generated_Source\PSoC5/RTC_1.c **** *  RTC_1_currentTimeDate, RTC_1_dstTimeDateStart,
1544:.\Generated_Source\PSoC5/RTC_1.c **** *  RTC_1_dstTimeDateStop, RTC_1_dstTimeDateStart,
1545:.\Generated_Source\PSoC5/RTC_1.c **** *  RTC_1_alarmCfgTimeDate, RTC_1_statusDateTime,
1546:.\Generated_Source\PSoC5/RTC_1.c **** *  RTC_1_dstStartStatus, RTC_1_dstStartStatus,
1547:.\Generated_Source\PSoC5/RTC_1.c **** *  RTC_1_dstStopStatus, RTC_1_alarmCurStatus:
1548:.\Generated_Source\PSoC5/RTC_1.c **** *  global variables are used while the initial calculation.
1549:.\Generated_Source\PSoC5/RTC_1.c **** *
1550:.\Generated_Source\PSoC5/RTC_1.c **** * RTC_1_dstTimeDateStart, RTC_1_currentTimeDate,
1551:.\Generated_Source\PSoC5/RTC_1.c **** *  RTC_1_statusDateTime, RTC_1_dstStartStatus,
1552:.\Generated_Source\PSoC5/RTC_1.c **** *  RTC_1_dstStartStatus, RTC_1_dstStopStatus,
1553:.\Generated_Source\PSoC5/RTC_1.c **** *  RTC_1_alarmCurStatus: global variables are modified with the
1554:.\Generated_Source\PSoC5/RTC_1.c **** *  initial calculated data.
1555:.\Generated_Source\PSoC5/RTC_1.c **** *
1556:.\Generated_Source\PSoC5/RTC_1.c **** * Reentrant:
1557:.\Generated_Source\PSoC5/RTC_1.c **** *  No.
1558:.\Generated_Source\PSoC5/RTC_1.c **** *
ARM GAS  C:\Users\glenn\AppData\Local\Temp\ccPIHEU1.s 			page 69


1559:.\Generated_Source\PSoC5/RTC_1.c **** *******************************************************************************/
1560:.\Generated_Source\PSoC5/RTC_1.c **** static void RTC_1_SetInitValues(void) 
1561:.\Generated_Source\PSoC5/RTC_1.c **** {
 2313              		.loc 1 1561 0
 2314              		.cfi_startproc
 2315              		@ args = 0, pretend = 0, frame = 8
 2316              		@ frame_needed = 1, uses_anonymous_args = 0
 2317 0000 80B5     		push	{r7, lr}
 2318              		.cfi_def_cfa_offset 8
 2319              		.cfi_offset 7, -8
 2320              		.cfi_offset 14, -4
 2321 0002 82B0     		sub	sp, sp, #8
 2322              		.cfi_def_cfa_offset 16
 2323 0004 00AF     		add	r7, sp, #0
 2324              		.cfi_def_cfa_register 7
1562:.\Generated_Source\PSoC5/RTC_1.c ****     uint8 i;
1563:.\Generated_Source\PSoC5/RTC_1.c ****     uint8 RTC_1_alarmCfgMaskTemp;
1564:.\Generated_Source\PSoC5/RTC_1.c **** 
1565:.\Generated_Source\PSoC5/RTC_1.c ****     /* Clears day of month counter */
1566:.\Generated_Source\PSoC5/RTC_1.c ****     RTC_1_currentTimeDate.DayOfYear = 0u;
 2325              		.loc 1 1566 0
 2326 0006 9C4B     		ldr	r3, .L232
 2327 0008 0022     		movs	r2, #0
 2328 000a DA80     		strh	r2, [r3, #6]	@ movhi
1567:.\Generated_Source\PSoC5/RTC_1.c **** 
1568:.\Generated_Source\PSoC5/RTC_1.c ****     /* Increments day of year value with day in current month */
1569:.\Generated_Source\PSoC5/RTC_1.c ****     RTC_1_currentTimeDate.DayOfYear += RTC_1_currentTimeDate.DayOfMonth;
 2329              		.loc 1 1569 0
 2330 000c 9A4B     		ldr	r3, .L232
 2331 000e 1B79     		ldrb	r3, [r3, #4]
 2332 0010 D9B2     		uxtb	r1, r3
 2333 0012 994B     		ldr	r3, .L232
 2334 0014 DB88     		ldrh	r3, [r3, #6]	@ movhi
 2335 0016 9AB2     		uxth	r2, r3
 2336 0018 8BB2     		uxth	r3, r1
 2337 001a 1344     		add	r3, r3, r2
 2338 001c 9AB2     		uxth	r2, r3
 2339 001e 964B     		ldr	r3, .L232
 2340 0020 DA80     		strh	r2, [r3, #6]	@ movhi
1570:.\Generated_Source\PSoC5/RTC_1.c **** 
1571:.\Generated_Source\PSoC5/RTC_1.c ****     /* Check leap year */
1572:.\Generated_Source\PSoC5/RTC_1.c ****     if(1u == RTC_1_LEAP_YEAR(RTC_1_currentTimeDate.Year))
 2341              		.loc 1 1572 0
 2342 0022 954B     		ldr	r3, .L232
 2343 0024 5B89     		ldrh	r3, [r3, #10]	@ movhi
 2344 0026 9BB2     		uxth	r3, r3
 2345 0028 944A     		ldr	r2, .L232+4
 2346 002a A2FB0312 		umull	r1, r2, r2, r3
 2347 002e D209     		lsrs	r2, r2, #7
 2348 0030 4FF4C871 		mov	r1, #400
 2349 0034 01FB02F2 		mul	r2, r1, r2
 2350 0038 9B1A     		subs	r3, r3, r2
 2351 003a 9BB2     		uxth	r3, r3
 2352 003c 002B     		cmp	r3, #0
 2353 003e 15D0     		beq	.L168
 2354              		.loc 1 1572 0 is_stmt 0 discriminator 1
 2355 0040 8D4B     		ldr	r3, .L232
ARM GAS  C:\Users\glenn\AppData\Local\Temp\ccPIHEU1.s 			page 70


 2356 0042 5B89     		ldrh	r3, [r3, #10]	@ movhi
 2357 0044 9BB2     		uxth	r3, r3
 2358 0046 03F00303 		and	r3, r3, #3
 2359 004a 9BB2     		uxth	r3, r3
 2360 004c 002B     		cmp	r3, #0
 2361 004e 16D1     		bne	.L169
 2362              		.loc 1 1572 0 discriminator 2
 2363 0050 894B     		ldr	r3, .L232
 2364 0052 5B89     		ldrh	r3, [r3, #10]	@ movhi
 2365 0054 9BB2     		uxth	r3, r3
 2366 0056 894A     		ldr	r2, .L232+4
 2367 0058 A2FB0312 		umull	r1, r2, r2, r3
 2368 005c 5209     		lsrs	r2, r2, #5
 2369 005e 6421     		movs	r1, #100
 2370 0060 01FB02F2 		mul	r2, r1, r2
 2371 0064 9B1A     		subs	r3, r3, r2
 2372 0066 9BB2     		uxth	r3, r3
 2373 0068 002B     		cmp	r3, #0
 2374 006a 08D0     		beq	.L169
 2375              	.L168:
1573:.\Generated_Source\PSoC5/RTC_1.c ****     {
1574:.\Generated_Source\PSoC5/RTC_1.c ****         /* Set LP Year flag */
1575:.\Generated_Source\PSoC5/RTC_1.c ****         RTC_1_statusDateTime |= RTC_1_STATUS_LY;
 2376              		.loc 1 1575 0 is_stmt 1
 2377 006c 844B     		ldr	r3, .L232+8
 2378 006e 1B78     		ldrb	r3, [r3]
 2379 0070 DBB2     		uxtb	r3, r3
 2380 0072 43F00203 		orr	r3, r3, #2
 2381 0076 DAB2     		uxtb	r2, r3
 2382 0078 814B     		ldr	r3, .L232+8
 2383 007a 1A70     		strb	r2, [r3]
 2384 007c 07E0     		b	.L170
 2385              	.L169:
1576:.\Generated_Source\PSoC5/RTC_1.c ****     }   /* leap year flag was set */
1577:.\Generated_Source\PSoC5/RTC_1.c ****     else
1578:.\Generated_Source\PSoC5/RTC_1.c ****     {
1579:.\Generated_Source\PSoC5/RTC_1.c ****         /* Clear LP Year flag */
1580:.\Generated_Source\PSoC5/RTC_1.c ****         RTC_1_statusDateTime &= (uint8)(~RTC_1_STATUS_LY);
 2386              		.loc 1 1580 0
 2387 007e 804B     		ldr	r3, .L232+8
 2388 0080 1B78     		ldrb	r3, [r3]
 2389 0082 DBB2     		uxtb	r3, r3
 2390 0084 23F00203 		bic	r3, r3, #2
 2391 0088 DAB2     		uxtb	r2, r3
 2392 008a 7D4B     		ldr	r3, .L232+8
 2393 008c 1A70     		strb	r2, [r3]
 2394              	.L170:
1581:.\Generated_Source\PSoC5/RTC_1.c ****     }   /* leap year flag was cleared */
1582:.\Generated_Source\PSoC5/RTC_1.c **** 
1583:.\Generated_Source\PSoC5/RTC_1.c ****     /* Day of Year */
1584:.\Generated_Source\PSoC5/RTC_1.c ****     for(i = 0u; i < (RTC_1_currentTimeDate.Month - 1u); i++)
 2395              		.loc 1 1584 0
 2396 008e 0023     		movs	r3, #0
 2397 0090 FB71     		strb	r3, [r7, #7]
 2398 0092 0DE0     		b	.L171
 2399              	.L172:
1585:.\Generated_Source\PSoC5/RTC_1.c ****     {
ARM GAS  C:\Users\glenn\AppData\Local\Temp\ccPIHEU1.s 			page 71


1586:.\Generated_Source\PSoC5/RTC_1.c ****         /* Increment on days in passed months */
1587:.\Generated_Source\PSoC5/RTC_1.c ****         RTC_1_currentTimeDate.DayOfYear += RTC_1_daysInMonths[i];
 2400              		.loc 1 1587 0 discriminator 3
 2401 0094 784B     		ldr	r3, .L232
 2402 0096 DB88     		ldrh	r3, [r3, #6]	@ movhi
 2403 0098 9AB2     		uxth	r2, r3
 2404 009a FB79     		ldrb	r3, [r7, #7]	@ zero_extendqisi2
 2405 009c 7949     		ldr	r1, .L232+12
 2406 009e CB5C     		ldrb	r3, [r1, r3]	@ zero_extendqisi2
 2407 00a0 9BB2     		uxth	r3, r3
 2408 00a2 1344     		add	r3, r3, r2
 2409 00a4 9AB2     		uxth	r2, r3
 2410 00a6 744B     		ldr	r3, .L232
 2411 00a8 DA80     		strh	r2, [r3, #6]	@ movhi
1584:.\Generated_Source\PSoC5/RTC_1.c ****     {
 2412              		.loc 1 1584 0 discriminator 3
 2413 00aa FB79     		ldrb	r3, [r7, #7]	@ zero_extendqisi2
 2414 00ac 0133     		adds	r3, r3, #1
 2415 00ae FB71     		strb	r3, [r7, #7]
 2416              	.L171:
1584:.\Generated_Source\PSoC5/RTC_1.c ****     {
 2417              		.loc 1 1584 0 is_stmt 0 discriminator 1
 2418 00b0 FA79     		ldrb	r2, [r7, #7]	@ zero_extendqisi2
 2419 00b2 714B     		ldr	r3, .L232
 2420 00b4 1B7A     		ldrb	r3, [r3, #8]
 2421 00b6 DBB2     		uxtb	r3, r3
 2422 00b8 013B     		subs	r3, r3, #1
 2423 00ba 9A42     		cmp	r2, r3
 2424 00bc EAD3     		bcc	.L172
1588:.\Generated_Source\PSoC5/RTC_1.c ****     }   /* day of year is calculated */
1589:.\Generated_Source\PSoC5/RTC_1.c **** 
1590:.\Generated_Source\PSoC5/RTC_1.c ****     /* Leap year check */
1591:.\Generated_Source\PSoC5/RTC_1.c ****     if(0u != RTC_1_IS_BIT_SET(RTC_1_statusDateTime, RTC_1_STATUS_LY))
 2425              		.loc 1 1591 0 is_stmt 1
 2426 00be 704B     		ldr	r3, .L232+8
 2427 00c0 1B78     		ldrb	r3, [r3]
 2428 00c2 DBB2     		uxtb	r3, r3
 2429 00c4 03F00203 		and	r3, r3, #2
 2430 00c8 002B     		cmp	r3, #0
 2431 00ca 0BD0     		beq	.L173
1592:.\Generated_Source\PSoC5/RTC_1.c ****     {
1593:.\Generated_Source\PSoC5/RTC_1.c ****         /* Leap day check */
1594:.\Generated_Source\PSoC5/RTC_1.c ****         if(RTC_1_currentTimeDate.Month > RTC_1_FEBRUARY)
 2432              		.loc 1 1594 0
 2433 00cc 6A4B     		ldr	r3, .L232
 2434 00ce 1B7A     		ldrb	r3, [r3, #8]
 2435 00d0 DBB2     		uxtb	r3, r3
 2436 00d2 022B     		cmp	r3, #2
 2437 00d4 06D9     		bls	.L173
1595:.\Generated_Source\PSoC5/RTC_1.c ****         {
1596:.\Generated_Source\PSoC5/RTC_1.c ****             /* Add leap day */
1597:.\Generated_Source\PSoC5/RTC_1.c ****             RTC_1_currentTimeDate.DayOfYear++;
 2438              		.loc 1 1597 0
 2439 00d6 684B     		ldr	r3, .L232
 2440 00d8 DB88     		ldrh	r3, [r3, #6]	@ movhi
 2441 00da 9BB2     		uxth	r3, r3
 2442 00dc 0133     		adds	r3, r3, #1
ARM GAS  C:\Users\glenn\AppData\Local\Temp\ccPIHEU1.s 			page 72


 2443 00de 9AB2     		uxth	r2, r3
 2444 00e0 654B     		ldr	r3, .L232
 2445 00e2 DA80     		strh	r2, [r3, #6]	@ movhi
 2446              	.L173:
1598:.\Generated_Source\PSoC5/RTC_1.c ****         }   /* Do nothing for non leap day */
1599:.\Generated_Source\PSoC5/RTC_1.c ****     }   /* Do nothing for not leap year */
1600:.\Generated_Source\PSoC5/RTC_1.c **** 
1601:.\Generated_Source\PSoC5/RTC_1.c ****     /* DayOfWeek */
1602:.\Generated_Source\PSoC5/RTC_1.c ****     RTC_1_currentTimeDate.DayOfWeek = RTC_1_DayOfWeek(
 2447              		.loc 1 1602 0
 2448 00e4 644B     		ldr	r3, .L232
 2449 00e6 1B79     		ldrb	r3, [r3, #4]
 2450 00e8 D9B2     		uxtb	r1, r3
 2451 00ea 634B     		ldr	r3, .L232
 2452 00ec 1B7A     		ldrb	r3, [r3, #8]
 2453 00ee DAB2     		uxtb	r2, r3
 2454 00f0 614B     		ldr	r3, .L232
 2455 00f2 5B89     		ldrh	r3, [r3, #10]	@ movhi
 2456 00f4 9BB2     		uxth	r3, r3
 2457 00f6 0846     		mov	r0, r1
 2458 00f8 1146     		mov	r1, r2
 2459 00fa 1A46     		mov	r2, r3
 2460 00fc FFF7FEFF 		bl	RTC_1_DayOfWeek
 2461 0100 0346     		mov	r3, r0
 2462 0102 0133     		adds	r3, r3, #1
 2463 0104 DAB2     		uxtb	r2, r3
 2464 0106 5C4B     		ldr	r3, .L232
 2465 0108 DA70     		strb	r2, [r3, #3]
1603:.\Generated_Source\PSoC5/RTC_1.c ****                                                                         RTC_1_currentTimeDate.DayOf
1604:.\Generated_Source\PSoC5/RTC_1.c ****                                                                         RTC_1_currentTimeDate.Month
1605:.\Generated_Source\PSoC5/RTC_1.c ****                                                                         RTC_1_currentTimeDate.Year)
1606:.\Generated_Source\PSoC5/RTC_1.c **** 
1607:.\Generated_Source\PSoC5/RTC_1.c ****     if(RTC_1_currentTimeDate.DayOfWeek > RTC_1_START_OF_WEEK)
 2466              		.loc 1 1607 0
 2467 010a 5B4B     		ldr	r3, .L232
 2468 010c DB78     		ldrb	r3, [r3, #3]
 2469 010e DBB2     		uxtb	r3, r3
 2470 0110 002B     		cmp	r3, #0
 2471 0112 05D0     		beq	.L174
1608:.\Generated_Source\PSoC5/RTC_1.c ****     {
1609:.\Generated_Source\PSoC5/RTC_1.c ****         RTC_1_currentTimeDate.DayOfWeek -= RTC_1_START_OF_WEEK;
 2472              		.loc 1 1609 0
 2473 0114 584B     		ldr	r3, .L232
 2474 0116 DB78     		ldrb	r3, [r3, #3]
 2475 0118 DAB2     		uxtb	r2, r3
 2476 011a 574B     		ldr	r3, .L232
 2477 011c DA70     		strb	r2, [r3, #3]
 2478 011e 06E0     		b	.L175
 2479              	.L174:
1610:.\Generated_Source\PSoC5/RTC_1.c ****     }
1611:.\Generated_Source\PSoC5/RTC_1.c ****     else
1612:.\Generated_Source\PSoC5/RTC_1.c ****     {
1613:.\Generated_Source\PSoC5/RTC_1.c ****         RTC_1_currentTimeDate.DayOfWeek = RTC_1_DAYS_IN_WEEK -
1614:.\Generated_Source\PSoC5/RTC_1.c ****                                         (RTC_1_START_OF_WEEK - RTC_1_currentTimeDate.DayOfWeek);
 2480              		.loc 1 1614 0
 2481 0120 554B     		ldr	r3, .L232
 2482 0122 DB78     		ldrb	r3, [r3, #3]
ARM GAS  C:\Users\glenn\AppData\Local\Temp\ccPIHEU1.s 			page 73


 2483 0124 DBB2     		uxtb	r3, r3
1613:.\Generated_Source\PSoC5/RTC_1.c ****                                         (RTC_1_START_OF_WEEK - RTC_1_currentTimeDate.DayOfWeek);
 2484              		.loc 1 1613 0
 2485 0126 0733     		adds	r3, r3, #7
 2486 0128 DAB2     		uxtb	r2, r3
 2487 012a 534B     		ldr	r3, .L232
 2488 012c DA70     		strb	r2, [r3, #3]
 2489              	.L175:
1615:.\Generated_Source\PSoC5/RTC_1.c ****     }
1616:.\Generated_Source\PSoC5/RTC_1.c **** 
1617:.\Generated_Source\PSoC5/RTC_1.c ****     #if (1u == RTC_1_DST_FUNC_ENABLE)
1618:.\Generated_Source\PSoC5/RTC_1.c **** 
1619:.\Generated_Source\PSoC5/RTC_1.c ****         /* If DST values is given in a relative manner, converts to the absolute values */
1620:.\Generated_Source\PSoC5/RTC_1.c ****         if(0u != RTC_1_IS_BIT_SET(RTC_1_dstModeType, RTC_1_DST_RELDATE))
 2490              		.loc 1 1620 0
 2491 012e 564B     		ldr	r3, .L232+16
 2492 0130 1B78     		ldrb	r3, [r3]
 2493 0132 DBB2     		uxtb	r3, r3
 2494 0134 03F00203 		and	r3, r3, #2
 2495 0138 002B     		cmp	r3, #0
 2496 013a 01D0     		beq	.L176
1621:.\Generated_Source\PSoC5/RTC_1.c ****         {
1622:.\Generated_Source\PSoC5/RTC_1.c ****             RTC_1_DSTDateConversion();
 2497              		.loc 1 1622 0
 2498 013c FFF7FEFF 		bl	RTC_1_DSTDateConversion
 2499              	.L176:
1623:.\Generated_Source\PSoC5/RTC_1.c ****         }
1624:.\Generated_Source\PSoC5/RTC_1.c **** 
1625:.\Generated_Source\PSoC5/RTC_1.c ****         /* Sets DST status respect to the DST start date and time */
1626:.\Generated_Source\PSoC5/RTC_1.c ****         if(RTC_1_currentTimeDate.Month > RTC_1_dstTimeDateStart.Month)
 2500              		.loc 1 1626 0
 2501 0140 4D4B     		ldr	r3, .L232
 2502 0142 1B7A     		ldrb	r3, [r3, #8]
 2503 0144 DAB2     		uxtb	r2, r3
 2504 0146 514B     		ldr	r3, .L232+20
 2505 0148 1B79     		ldrb	r3, [r3, #4]
 2506 014a DBB2     		uxtb	r3, r3
 2507 014c 9A42     		cmp	r2, r3
 2508 014e 08D9     		bls	.L177
1627:.\Generated_Source\PSoC5/RTC_1.c ****         {
1628:.\Generated_Source\PSoC5/RTC_1.c ****             RTC_1_statusDateTime |= RTC_1_STATUS_DST;
 2509              		.loc 1 1628 0
 2510 0150 4B4B     		ldr	r3, .L232+8
 2511 0152 1B78     		ldrb	r3, [r3]
 2512 0154 DBB2     		uxtb	r3, r3
 2513 0156 43F00103 		orr	r3, r3, #1
 2514 015a DAB2     		uxtb	r2, r3
 2515 015c 484B     		ldr	r3, .L232+8
 2516 015e 1A70     		strb	r2, [r3]
 2517 0160 30E0     		b	.L178
 2518              	.L177:
1629:.\Generated_Source\PSoC5/RTC_1.c ****         }
1630:.\Generated_Source\PSoC5/RTC_1.c ****         else if(RTC_1_currentTimeDate.Month == RTC_1_dstTimeDateStart.Month)
 2519              		.loc 1 1630 0
 2520 0162 454B     		ldr	r3, .L232
 2521 0164 1B7A     		ldrb	r3, [r3, #8]
 2522 0166 DAB2     		uxtb	r2, r3
ARM GAS  C:\Users\glenn\AppData\Local\Temp\ccPIHEU1.s 			page 74


 2523 0168 484B     		ldr	r3, .L232+20
 2524 016a 1B79     		ldrb	r3, [r3, #4]
 2525 016c DBB2     		uxtb	r3, r3
 2526 016e 9A42     		cmp	r2, r3
 2527 0170 28D1     		bne	.L178
1631:.\Generated_Source\PSoC5/RTC_1.c ****         {
1632:.\Generated_Source\PSoC5/RTC_1.c ****             if(RTC_1_currentTimeDate.DayOfMonth > RTC_1_dstTimeDateStart.DayOfMonth)
 2528              		.loc 1 1632 0
 2529 0172 414B     		ldr	r3, .L232
 2530 0174 1B79     		ldrb	r3, [r3, #4]
 2531 0176 DAB2     		uxtb	r2, r3
 2532 0178 444B     		ldr	r3, .L232+20
 2533 017a DB78     		ldrb	r3, [r3, #3]
 2534 017c DBB2     		uxtb	r3, r3
 2535 017e 9A42     		cmp	r2, r3
 2536 0180 08D9     		bls	.L179
1633:.\Generated_Source\PSoC5/RTC_1.c ****             {
1634:.\Generated_Source\PSoC5/RTC_1.c ****                 RTC_1_statusDateTime |= RTC_1_STATUS_DST;
 2537              		.loc 1 1634 0
 2538 0182 3F4B     		ldr	r3, .L232+8
 2539 0184 1B78     		ldrb	r3, [r3]
 2540 0186 DBB2     		uxtb	r3, r3
 2541 0188 43F00103 		orr	r3, r3, #1
 2542 018c DAB2     		uxtb	r2, r3
 2543 018e 3C4B     		ldr	r3, .L232+8
 2544 0190 1A70     		strb	r2, [r3]
 2545 0192 17E0     		b	.L178
 2546              	.L179:
1635:.\Generated_Source\PSoC5/RTC_1.c ****             }
1636:.\Generated_Source\PSoC5/RTC_1.c ****             else if(RTC_1_currentTimeDate.DayOfMonth == RTC_1_dstTimeDateStart.DayOfMonth)
 2547              		.loc 1 1636 0
 2548 0194 384B     		ldr	r3, .L232
 2549 0196 1B79     		ldrb	r3, [r3, #4]
 2550 0198 DAB2     		uxtb	r2, r3
 2551 019a 3C4B     		ldr	r3, .L232+20
 2552 019c DB78     		ldrb	r3, [r3, #3]
 2553 019e DBB2     		uxtb	r3, r3
 2554 01a0 9A42     		cmp	r2, r3
 2555 01a2 0FD1     		bne	.L178
1637:.\Generated_Source\PSoC5/RTC_1.c ****             {
1638:.\Generated_Source\PSoC5/RTC_1.c ****                 if(RTC_1_currentTimeDate.Hour > RTC_1_dstTimeDateStart.Hour)
 2556              		.loc 1 1638 0
 2557 01a4 344B     		ldr	r3, .L232
 2558 01a6 9B78     		ldrb	r3, [r3, #2]
 2559 01a8 DAB2     		uxtb	r2, r3
 2560 01aa 384B     		ldr	r3, .L232+20
 2561 01ac 1B78     		ldrb	r3, [r3]
 2562 01ae DBB2     		uxtb	r3, r3
 2563 01b0 9A42     		cmp	r2, r3
 2564 01b2 07D9     		bls	.L178
1639:.\Generated_Source\PSoC5/RTC_1.c ****                 {
1640:.\Generated_Source\PSoC5/RTC_1.c ****                     RTC_1_statusDateTime |= RTC_1_STATUS_DST;
 2565              		.loc 1 1640 0
 2566 01b4 324B     		ldr	r3, .L232+8
 2567 01b6 1B78     		ldrb	r3, [r3]
 2568 01b8 DBB2     		uxtb	r3, r3
 2569 01ba 43F00103 		orr	r3, r3, #1
ARM GAS  C:\Users\glenn\AppData\Local\Temp\ccPIHEU1.s 			page 75


 2570 01be DAB2     		uxtb	r2, r3
 2571 01c0 2F4B     		ldr	r3, .L232+8
 2572 01c2 1A70     		strb	r2, [r3]
 2573              	.L178:
1641:.\Generated_Source\PSoC5/RTC_1.c ****                 }
1642:.\Generated_Source\PSoC5/RTC_1.c ****             }
1643:.\Generated_Source\PSoC5/RTC_1.c ****             else
1644:.\Generated_Source\PSoC5/RTC_1.c ****             {
1645:.\Generated_Source\PSoC5/RTC_1.c ****                 /* Do nothing if current day of month is less than DST stop day of month */
1646:.\Generated_Source\PSoC5/RTC_1.c ****             }
1647:.\Generated_Source\PSoC5/RTC_1.c ****         }
1648:.\Generated_Source\PSoC5/RTC_1.c ****         else
1649:.\Generated_Source\PSoC5/RTC_1.c ****         {
1650:.\Generated_Source\PSoC5/RTC_1.c ****             /* Do nothing if current month is before than DST stop month */
1651:.\Generated_Source\PSoC5/RTC_1.c ****         }
1652:.\Generated_Source\PSoC5/RTC_1.c **** 
1653:.\Generated_Source\PSoC5/RTC_1.c ****         /* Clears DST status respect to the DST start date and time */
1654:.\Generated_Source\PSoC5/RTC_1.c ****         if(RTC_1_currentTimeDate.Month > RTC_1_dstTimeDateStop.Month)
 2574              		.loc 1 1654 0
 2575 01c4 2C4B     		ldr	r3, .L232
 2576 01c6 1B7A     		ldrb	r3, [r3, #8]
 2577 01c8 DAB2     		uxtb	r2, r3
 2578 01ca 314B     		ldr	r3, .L232+24
 2579 01cc 1B79     		ldrb	r3, [r3, #4]
 2580 01ce DBB2     		uxtb	r3, r3
 2581 01d0 9A42     		cmp	r2, r3
 2582 01d2 08D9     		bls	.L181
1655:.\Generated_Source\PSoC5/RTC_1.c ****         {
1656:.\Generated_Source\PSoC5/RTC_1.c ****             RTC_1_statusDateTime &= (uint8)(~RTC_1_STATUS_DST);
 2583              		.loc 1 1656 0
 2584 01d4 2A4B     		ldr	r3, .L232+8
 2585 01d6 1B78     		ldrb	r3, [r3]
 2586 01d8 DBB2     		uxtb	r3, r3
 2587 01da 23F00103 		bic	r3, r3, #1
 2588 01de DAB2     		uxtb	r2, r3
 2589 01e0 274B     		ldr	r3, .L232+8
 2590 01e2 1A70     		strb	r2, [r3]
 2591 01e4 30E0     		b	.L182
 2592              	.L181:
1657:.\Generated_Source\PSoC5/RTC_1.c ****         }
1658:.\Generated_Source\PSoC5/RTC_1.c ****         else if(RTC_1_currentTimeDate.Month == RTC_1_dstTimeDateStop.Month)
 2593              		.loc 1 1658 0
 2594 01e6 244B     		ldr	r3, .L232
 2595 01e8 1B7A     		ldrb	r3, [r3, #8]
 2596 01ea DAB2     		uxtb	r2, r3
 2597 01ec 284B     		ldr	r3, .L232+24
 2598 01ee 1B79     		ldrb	r3, [r3, #4]
 2599 01f0 DBB2     		uxtb	r3, r3
 2600 01f2 9A42     		cmp	r2, r3
 2601 01f4 28D1     		bne	.L182
1659:.\Generated_Source\PSoC5/RTC_1.c ****         {
1660:.\Generated_Source\PSoC5/RTC_1.c ****             if(RTC_1_currentTimeDate.DayOfMonth > RTC_1_dstTimeDateStop.DayOfMonth)
 2602              		.loc 1 1660 0
 2603 01f6 204B     		ldr	r3, .L232
 2604 01f8 1B79     		ldrb	r3, [r3, #4]
 2605 01fa DAB2     		uxtb	r2, r3
 2606 01fc 244B     		ldr	r3, .L232+24
ARM GAS  C:\Users\glenn\AppData\Local\Temp\ccPIHEU1.s 			page 76


 2607 01fe DB78     		ldrb	r3, [r3, #3]
 2608 0200 DBB2     		uxtb	r3, r3
 2609 0202 9A42     		cmp	r2, r3
 2610 0204 08D9     		bls	.L183
1661:.\Generated_Source\PSoC5/RTC_1.c ****             {
1662:.\Generated_Source\PSoC5/RTC_1.c ****                 RTC_1_statusDateTime &= (uint8)(~RTC_1_STATUS_DST);
 2611              		.loc 1 1662 0
 2612 0206 1E4B     		ldr	r3, .L232+8
 2613 0208 1B78     		ldrb	r3, [r3]
 2614 020a DBB2     		uxtb	r3, r3
 2615 020c 23F00103 		bic	r3, r3, #1
 2616 0210 DAB2     		uxtb	r2, r3
 2617 0212 1B4B     		ldr	r3, .L232+8
 2618 0214 1A70     		strb	r2, [r3]
 2619 0216 17E0     		b	.L182
 2620              	.L183:
1663:.\Generated_Source\PSoC5/RTC_1.c ****             }
1664:.\Generated_Source\PSoC5/RTC_1.c ****             else if(RTC_1_currentTimeDate.DayOfMonth == RTC_1_dstTimeDateStop.DayOfMonth)
 2621              		.loc 1 1664 0
 2622 0218 174B     		ldr	r3, .L232
 2623 021a 1B79     		ldrb	r3, [r3, #4]
 2624 021c DAB2     		uxtb	r2, r3
 2625 021e 1C4B     		ldr	r3, .L232+24
 2626 0220 DB78     		ldrb	r3, [r3, #3]
 2627 0222 DBB2     		uxtb	r3, r3
 2628 0224 9A42     		cmp	r2, r3
 2629 0226 0FD1     		bne	.L182
1665:.\Generated_Source\PSoC5/RTC_1.c ****             {
1666:.\Generated_Source\PSoC5/RTC_1.c ****                 if(RTC_1_currentTimeDate.Hour > RTC_1_dstTimeDateStop.Hour)
 2630              		.loc 1 1666 0
 2631 0228 134B     		ldr	r3, .L232
 2632 022a 9B78     		ldrb	r3, [r3, #2]
 2633 022c DAB2     		uxtb	r2, r3
 2634 022e 184B     		ldr	r3, .L232+24
 2635 0230 1B78     		ldrb	r3, [r3]
 2636 0232 DBB2     		uxtb	r3, r3
 2637 0234 9A42     		cmp	r2, r3
 2638 0236 07D9     		bls	.L182
1667:.\Generated_Source\PSoC5/RTC_1.c ****                 {
1668:.\Generated_Source\PSoC5/RTC_1.c ****                     RTC_1_statusDateTime &= (uint8)(~RTC_1_STATUS_DST);
 2639              		.loc 1 1668 0
 2640 0238 114B     		ldr	r3, .L232+8
 2641 023a 1B78     		ldrb	r3, [r3]
 2642 023c DBB2     		uxtb	r3, r3
 2643 023e 23F00103 		bic	r3, r3, #1
 2644 0242 DAB2     		uxtb	r2, r3
 2645 0244 0E4B     		ldr	r3, .L232+8
 2646 0246 1A70     		strb	r2, [r3]
 2647              	.L182:
1669:.\Generated_Source\PSoC5/RTC_1.c ****                 }
1670:.\Generated_Source\PSoC5/RTC_1.c ****             }
1671:.\Generated_Source\PSoC5/RTC_1.c ****             else
1672:.\Generated_Source\PSoC5/RTC_1.c ****             {
1673:.\Generated_Source\PSoC5/RTC_1.c ****                 /* Do nothing if current day of month is less than DST stop day of month */
1674:.\Generated_Source\PSoC5/RTC_1.c ****             }
1675:.\Generated_Source\PSoC5/RTC_1.c ****         }
1676:.\Generated_Source\PSoC5/RTC_1.c ****         else
ARM GAS  C:\Users\glenn\AppData\Local\Temp\ccPIHEU1.s 			page 77


1677:.\Generated_Source\PSoC5/RTC_1.c ****         {
1678:.\Generated_Source\PSoC5/RTC_1.c ****             /* Do nothing if current month is before than DST stop month */
1679:.\Generated_Source\PSoC5/RTC_1.c ****         }
1680:.\Generated_Source\PSoC5/RTC_1.c **** 
1681:.\Generated_Source\PSoC5/RTC_1.c ****         /* Clear DST start/stop statuses */
1682:.\Generated_Source\PSoC5/RTC_1.c ****         RTC_1_dstStartStatus = 0u;
 2648              		.loc 1 1682 0
 2649 0248 124B     		ldr	r3, .L232+28
 2650 024a 0022     		movs	r2, #0
 2651 024c 1A70     		strb	r2, [r3]
1683:.\Generated_Source\PSoC5/RTC_1.c ****         RTC_1_dstStopStatus = 0u;
 2652              		.loc 1 1683 0
 2653 024e 124B     		ldr	r3, .L232+32
 2654 0250 0022     		movs	r2, #0
 2655 0252 1A70     		strb	r2, [r3]
1684:.\Generated_Source\PSoC5/RTC_1.c **** 
1685:.\Generated_Source\PSoC5/RTC_1.c ****         /* Sets DST stop status month flag if DST stop month is equal to the
1686:.\Generated_Source\PSoC5/RTC_1.c ****         * current month, otherwise clears that flag.
1687:.\Generated_Source\PSoC5/RTC_1.c ****         */
1688:.\Generated_Source\PSoC5/RTC_1.c ****         if(RTC_1_dstTimeDateStop.Month == RTC_1_currentTimeDate.Month)
 2656              		.loc 1 1688 0
 2657 0254 0E4B     		ldr	r3, .L232+24
 2658 0256 1B79     		ldrb	r3, [r3, #4]
 2659 0258 DAB2     		uxtb	r2, r3
 2660 025a 074B     		ldr	r3, .L232
 2661 025c 1B7A     		ldrb	r3, [r3, #8]
 2662 025e DBB2     		uxtb	r3, r3
 2663 0260 9A42     		cmp	r2, r3
 2664 0262 1BD1     		bne	.L185
1689:.\Generated_Source\PSoC5/RTC_1.c ****         {
1690:.\Generated_Source\PSoC5/RTC_1.c ****             RTC_1_dstStopStatus |= RTC_1_DST_MONTH;
 2665              		.loc 1 1690 0
 2666 0264 0C4B     		ldr	r3, .L232+32
 2667 0266 1B78     		ldrb	r3, [r3]
 2668 0268 DBB2     		uxtb	r3, r3
 2669 026a 43F00403 		orr	r3, r3, #4
 2670 026e DAB2     		uxtb	r2, r3
 2671 0270 094B     		ldr	r3, .L232+32
 2672 0272 1A70     		strb	r2, [r3]
 2673 0274 1AE0     		b	.L186
 2674              	.L233:
 2675 0276 00BF     		.align	2
 2676              	.L232:
 2677 0278 00000000 		.word	RTC_1_currentTimeDate
 2678 027c 1F85EB51 		.word	1374389535
 2679 0280 00000000 		.word	RTC_1_statusDateTime
 2680 0284 00000000 		.word	RTC_1_daysInMonths
 2681 0288 00000000 		.word	RTC_1_dstModeType
 2682 028c 00000000 		.word	RTC_1_dstTimeDateStart
 2683 0290 00000000 		.word	RTC_1_dstTimeDateStop
 2684 0294 00000000 		.word	RTC_1_dstStartStatus
 2685 0298 00000000 		.word	RTC_1_dstStopStatus
 2686              	.L185:
1691:.\Generated_Source\PSoC5/RTC_1.c ****         }
1692:.\Generated_Source\PSoC5/RTC_1.c ****         else
1693:.\Generated_Source\PSoC5/RTC_1.c ****         {
1694:.\Generated_Source\PSoC5/RTC_1.c ****             RTC_1_dstStopStatus &= (uint8)(~RTC_1_DST_MONTH);
ARM GAS  C:\Users\glenn\AppData\Local\Temp\ccPIHEU1.s 			page 78


 2687              		.loc 1 1694 0
 2688 029c 3E4B     		ldr	r3, .L234
 2689 029e 1B78     		ldrb	r3, [r3]
 2690 02a0 DBB2     		uxtb	r3, r3
 2691 02a2 23F00403 		bic	r3, r3, #4
 2692 02a6 DAB2     		uxtb	r2, r3
 2693 02a8 3B4B     		ldr	r3, .L234
 2694 02aa 1A70     		strb	r2, [r3]
 2695              	.L186:
1695:.\Generated_Source\PSoC5/RTC_1.c ****         }
1696:.\Generated_Source\PSoC5/RTC_1.c **** 
1697:.\Generated_Source\PSoC5/RTC_1.c ****         /* Sets DST start status month flag if DST start month is equal to the
1698:.\Generated_Source\PSoC5/RTC_1.c ****         * current month, otherwise clears that flag.
1699:.\Generated_Source\PSoC5/RTC_1.c ****         */
1700:.\Generated_Source\PSoC5/RTC_1.c ****         if(RTC_1_dstTimeDateStart.Month == RTC_1_currentTimeDate.Month)
 2696              		.loc 1 1700 0
 2697 02ac 3B4B     		ldr	r3, .L234+4
 2698 02ae 1B79     		ldrb	r3, [r3, #4]
 2699 02b0 DAB2     		uxtb	r2, r3
 2700 02b2 3B4B     		ldr	r3, .L234+8
 2701 02b4 1B7A     		ldrb	r3, [r3, #8]
 2702 02b6 DBB2     		uxtb	r3, r3
 2703 02b8 9A42     		cmp	r2, r3
 2704 02ba 08D1     		bne	.L187
1701:.\Generated_Source\PSoC5/RTC_1.c ****         {
1702:.\Generated_Source\PSoC5/RTC_1.c ****             RTC_1_dstStartStatus |= RTC_1_DST_MONTH;
 2705              		.loc 1 1702 0
 2706 02bc 394B     		ldr	r3, .L234+12
 2707 02be 1B78     		ldrb	r3, [r3]
 2708 02c0 DBB2     		uxtb	r3, r3
 2709 02c2 43F00403 		orr	r3, r3, #4
 2710 02c6 DAB2     		uxtb	r2, r3
 2711 02c8 364B     		ldr	r3, .L234+12
 2712 02ca 1A70     		strb	r2, [r3]
 2713 02cc 07E0     		b	.L188
 2714              	.L187:
1703:.\Generated_Source\PSoC5/RTC_1.c ****         }
1704:.\Generated_Source\PSoC5/RTC_1.c ****         else
1705:.\Generated_Source\PSoC5/RTC_1.c ****         {
1706:.\Generated_Source\PSoC5/RTC_1.c ****             RTC_1_dstStartStatus &= (uint8)(~RTC_1_DST_MONTH);
 2715              		.loc 1 1706 0
 2716 02ce 354B     		ldr	r3, .L234+12
 2717 02d0 1B78     		ldrb	r3, [r3]
 2718 02d2 DBB2     		uxtb	r3, r3
 2719 02d4 23F00403 		bic	r3, r3, #4
 2720 02d8 DAB2     		uxtb	r2, r3
 2721 02da 324B     		ldr	r3, .L234+12
 2722 02dc 1A70     		strb	r2, [r3]
 2723              	.L188:
1707:.\Generated_Source\PSoC5/RTC_1.c ****         }
1708:.\Generated_Source\PSoC5/RTC_1.c **** 
1709:.\Generated_Source\PSoC5/RTC_1.c ****         /* Sets DST stop status day of month flag if DST stop day of month is
1710:.\Generated_Source\PSoC5/RTC_1.c ****         * equal to the current day of month, otherwise clears that flag.
1711:.\Generated_Source\PSoC5/RTC_1.c ****         */
1712:.\Generated_Source\PSoC5/RTC_1.c ****         if(RTC_1_dstTimeDateStop.DayOfMonth == RTC_1_currentTimeDate.DayOfMonth)
 2724              		.loc 1 1712 0
 2725 02de 324B     		ldr	r3, .L234+16
ARM GAS  C:\Users\glenn\AppData\Local\Temp\ccPIHEU1.s 			page 79


 2726 02e0 DB78     		ldrb	r3, [r3, #3]
 2727 02e2 DAB2     		uxtb	r2, r3
 2728 02e4 2E4B     		ldr	r3, .L234+8
 2729 02e6 1B79     		ldrb	r3, [r3, #4]
 2730 02e8 DBB2     		uxtb	r3, r3
 2731 02ea 9A42     		cmp	r2, r3
 2732 02ec 08D1     		bne	.L189
1713:.\Generated_Source\PSoC5/RTC_1.c ****         {
1714:.\Generated_Source\PSoC5/RTC_1.c ****             RTC_1_dstStopStatus |= RTC_1_DST_DAYOFMONTH;
 2733              		.loc 1 1714 0
 2734 02ee 2A4B     		ldr	r3, .L234
 2735 02f0 1B78     		ldrb	r3, [r3]
 2736 02f2 DBB2     		uxtb	r3, r3
 2737 02f4 43F00203 		orr	r3, r3, #2
 2738 02f8 DAB2     		uxtb	r2, r3
 2739 02fa 274B     		ldr	r3, .L234
 2740 02fc 1A70     		strb	r2, [r3]
 2741 02fe 07E0     		b	.L190
 2742              	.L189:
1715:.\Generated_Source\PSoC5/RTC_1.c ****         }
1716:.\Generated_Source\PSoC5/RTC_1.c ****         else
1717:.\Generated_Source\PSoC5/RTC_1.c ****         {
1718:.\Generated_Source\PSoC5/RTC_1.c ****             RTC_1_dstStopStatus &= (uint8)(~RTC_1_DST_DAYOFMONTH);
 2743              		.loc 1 1718 0
 2744 0300 254B     		ldr	r3, .L234
 2745 0302 1B78     		ldrb	r3, [r3]
 2746 0304 DBB2     		uxtb	r3, r3
 2747 0306 23F00203 		bic	r3, r3, #2
 2748 030a DAB2     		uxtb	r2, r3
 2749 030c 224B     		ldr	r3, .L234
 2750 030e 1A70     		strb	r2, [r3]
 2751              	.L190:
1719:.\Generated_Source\PSoC5/RTC_1.c ****         }
1720:.\Generated_Source\PSoC5/RTC_1.c **** 
1721:.\Generated_Source\PSoC5/RTC_1.c ****         /* Sets DST start status day of month flag if DST start day of month is
1722:.\Generated_Source\PSoC5/RTC_1.c ****         * equal to the current day of month, otherwise clears that flag.
1723:.\Generated_Source\PSoC5/RTC_1.c ****         */
1724:.\Generated_Source\PSoC5/RTC_1.c ****         if(RTC_1_dstTimeDateStart.DayOfMonth == RTC_1_currentTimeDate.DayOfMonth)
 2752              		.loc 1 1724 0
 2753 0310 224B     		ldr	r3, .L234+4
 2754 0312 DB78     		ldrb	r3, [r3, #3]
 2755 0314 DAB2     		uxtb	r2, r3
 2756 0316 224B     		ldr	r3, .L234+8
 2757 0318 1B79     		ldrb	r3, [r3, #4]
 2758 031a DBB2     		uxtb	r3, r3
 2759 031c 9A42     		cmp	r2, r3
 2760 031e 08D1     		bne	.L191
1725:.\Generated_Source\PSoC5/RTC_1.c ****         {
1726:.\Generated_Source\PSoC5/RTC_1.c ****             RTC_1_dstStartStatus |= RTC_1_DST_DAYOFMONTH;
 2761              		.loc 1 1726 0
 2762 0320 204B     		ldr	r3, .L234+12
 2763 0322 1B78     		ldrb	r3, [r3]
 2764 0324 DBB2     		uxtb	r3, r3
 2765 0326 43F00203 		orr	r3, r3, #2
 2766 032a DAB2     		uxtb	r2, r3
 2767 032c 1D4B     		ldr	r3, .L234+12
 2768 032e 1A70     		strb	r2, [r3]
ARM GAS  C:\Users\glenn\AppData\Local\Temp\ccPIHEU1.s 			page 80


 2769 0330 07E0     		b	.L192
 2770              	.L191:
1727:.\Generated_Source\PSoC5/RTC_1.c ****         }
1728:.\Generated_Source\PSoC5/RTC_1.c ****         else
1729:.\Generated_Source\PSoC5/RTC_1.c ****         {
1730:.\Generated_Source\PSoC5/RTC_1.c ****             RTC_1_dstStartStatus &= (uint8)(~RTC_1_DST_DAYOFMONTH);
 2771              		.loc 1 1730 0
 2772 0332 1C4B     		ldr	r3, .L234+12
 2773 0334 1B78     		ldrb	r3, [r3]
 2774 0336 DBB2     		uxtb	r3, r3
 2775 0338 23F00203 		bic	r3, r3, #2
 2776 033c DAB2     		uxtb	r2, r3
 2777 033e 194B     		ldr	r3, .L234+12
 2778 0340 1A70     		strb	r2, [r3]
 2779              	.L192:
1731:.\Generated_Source\PSoC5/RTC_1.c ****         }
1732:.\Generated_Source\PSoC5/RTC_1.c **** 
1733:.\Generated_Source\PSoC5/RTC_1.c ****         /* Sets DST stop status hour flag if DST stop hour is equal to the
1734:.\Generated_Source\PSoC5/RTC_1.c ****         * current hour, otherwise clears that flag.
1735:.\Generated_Source\PSoC5/RTC_1.c ****         */
1736:.\Generated_Source\PSoC5/RTC_1.c ****         if(RTC_1_dstTimeDateStop.Hour == RTC_1_currentTimeDate.Hour)
 2780              		.loc 1 1736 0
 2781 0342 194B     		ldr	r3, .L234+16
 2782 0344 1B78     		ldrb	r3, [r3]
 2783 0346 DAB2     		uxtb	r2, r3
 2784 0348 154B     		ldr	r3, .L234+8
 2785 034a 9B78     		ldrb	r3, [r3, #2]
 2786 034c DBB2     		uxtb	r3, r3
 2787 034e 9A42     		cmp	r2, r3
 2788 0350 08D1     		bne	.L193
1737:.\Generated_Source\PSoC5/RTC_1.c ****         {
1738:.\Generated_Source\PSoC5/RTC_1.c ****             RTC_1_dstStopStatus |= RTC_1_DST_HOUR;
 2789              		.loc 1 1738 0
 2790 0352 114B     		ldr	r3, .L234
 2791 0354 1B78     		ldrb	r3, [r3]
 2792 0356 DBB2     		uxtb	r3, r3
 2793 0358 43F00103 		orr	r3, r3, #1
 2794 035c DAB2     		uxtb	r2, r3
 2795 035e 0E4B     		ldr	r3, .L234
 2796 0360 1A70     		strb	r2, [r3]
 2797 0362 07E0     		b	.L194
 2798              	.L193:
1739:.\Generated_Source\PSoC5/RTC_1.c ****         }
1740:.\Generated_Source\PSoC5/RTC_1.c ****         else
1741:.\Generated_Source\PSoC5/RTC_1.c ****         {
1742:.\Generated_Source\PSoC5/RTC_1.c ****             RTC_1_dstStopStatus &= (uint8)(~RTC_1_DST_HOUR);
 2799              		.loc 1 1742 0
 2800 0364 0C4B     		ldr	r3, .L234
 2801 0366 1B78     		ldrb	r3, [r3]
 2802 0368 DBB2     		uxtb	r3, r3
 2803 036a 23F00103 		bic	r3, r3, #1
 2804 036e DAB2     		uxtb	r2, r3
 2805 0370 094B     		ldr	r3, .L234
 2806 0372 1A70     		strb	r2, [r3]
 2807              	.L194:
1743:.\Generated_Source\PSoC5/RTC_1.c ****         }
1744:.\Generated_Source\PSoC5/RTC_1.c **** 
ARM GAS  C:\Users\glenn\AppData\Local\Temp\ccPIHEU1.s 			page 81


1745:.\Generated_Source\PSoC5/RTC_1.c ****         /* Sets DST start status hour flag if DST start hour is equal to the
1746:.\Generated_Source\PSoC5/RTC_1.c ****         * current hour, otherwise clears that flag.
1747:.\Generated_Source\PSoC5/RTC_1.c ****         */
1748:.\Generated_Source\PSoC5/RTC_1.c ****         if(RTC_1_dstTimeDateStart.Hour == RTC_1_currentTimeDate.Hour)
 2808              		.loc 1 1748 0
 2809 0374 094B     		ldr	r3, .L234+4
 2810 0376 1B78     		ldrb	r3, [r3]
 2811 0378 DAB2     		uxtb	r2, r3
 2812 037a 094B     		ldr	r3, .L234+8
 2813 037c 9B78     		ldrb	r3, [r3, #2]
 2814 037e DBB2     		uxtb	r3, r3
 2815 0380 9A42     		cmp	r2, r3
 2816 0382 13D1     		bne	.L195
1749:.\Generated_Source\PSoC5/RTC_1.c ****         {
1750:.\Generated_Source\PSoC5/RTC_1.c ****             RTC_1_dstStartStatus |= RTC_1_DST_HOUR;
 2817              		.loc 1 1750 0
 2818 0384 074B     		ldr	r3, .L234+12
 2819 0386 1B78     		ldrb	r3, [r3]
 2820 0388 DBB2     		uxtb	r3, r3
 2821 038a 43F00103 		orr	r3, r3, #1
 2822 038e DAB2     		uxtb	r2, r3
 2823 0390 044B     		ldr	r3, .L234+12
 2824 0392 1A70     		strb	r2, [r3]
 2825 0394 12E0     		b	.L196
 2826              	.L235:
 2827 0396 00BF     		.align	2
 2828              	.L234:
 2829 0398 00000000 		.word	RTC_1_dstStopStatus
 2830 039c 00000000 		.word	RTC_1_dstTimeDateStart
 2831 03a0 00000000 		.word	RTC_1_currentTimeDate
 2832 03a4 00000000 		.word	RTC_1_dstStartStatus
 2833 03a8 00000000 		.word	RTC_1_dstTimeDateStop
 2834              	.L195:
1751:.\Generated_Source\PSoC5/RTC_1.c ****         }
1752:.\Generated_Source\PSoC5/RTC_1.c ****         else
1753:.\Generated_Source\PSoC5/RTC_1.c ****         {
1754:.\Generated_Source\PSoC5/RTC_1.c ****             RTC_1_dstStartStatus &= (uint8)(~RTC_1_DST_HOUR);
 2835              		.loc 1 1754 0
 2836 03ac 7C4B     		ldr	r3, .L236
 2837 03ae 1B78     		ldrb	r3, [r3]
 2838 03b0 DBB2     		uxtb	r3, r3
 2839 03b2 23F00103 		bic	r3, r3, #1
 2840 03b6 DAB2     		uxtb	r2, r3
 2841 03b8 794B     		ldr	r3, .L236
 2842 03ba 1A70     		strb	r2, [r3]
 2843              	.L196:
1755:.\Generated_Source\PSoC5/RTC_1.c ****         }
1756:.\Generated_Source\PSoC5/RTC_1.c **** 
1757:.\Generated_Source\PSoC5/RTC_1.c ****         /* DST Enable ? */
1758:.\Generated_Source\PSoC5/RTC_1.c ****         if(0u != RTC_1_IS_BIT_SET(RTC_1_dstModeType, RTC_1_DST_ENABLE))
 2844              		.loc 1 1758 0
 2845 03bc 794B     		ldr	r3, .L236+4
 2846 03be 1B78     		ldrb	r3, [r3]
 2847 03c0 DBB2     		uxtb	r3, r3
 2848 03c2 03F00103 		and	r3, r3, #1
 2849 03c6 002B     		cmp	r3, #0
 2850 03c8 00F0D081 		beq	.L197
ARM GAS  C:\Users\glenn\AppData\Local\Temp\ccPIHEU1.s 			page 82


1759:.\Generated_Source\PSoC5/RTC_1.c ****         {
1760:.\Generated_Source\PSoC5/RTC_1.c ****             if(0u != RTC_1_IS_BIT_SET(RTC_1_statusDateTime, RTC_1_STATUS_DST))
 2851              		.loc 1 1760 0
 2852 03cc 764B     		ldr	r3, .L236+8
 2853 03ce 1B78     		ldrb	r3, [r3]
 2854 03d0 DBB2     		uxtb	r3, r3
 2855 03d2 03F00103 		and	r3, r3, #1
 2856 03d6 002B     		cmp	r3, #0
 2857 03d8 00F0F480 		beq	.L198
1761:.\Generated_Source\PSoC5/RTC_1.c ****             {
1762:.\Generated_Source\PSoC5/RTC_1.c ****                 if(0u != RTC_1_IS_BIT_SET(RTC_1_dstStartStatus,
 2858              		.loc 1 1762 0
 2859 03dc 704B     		ldr	r3, .L236
 2860 03de 1B78     		ldrb	r3, [r3]
 2861 03e0 DBB2     		uxtb	r3, r3
 2862 03e2 03F00703 		and	r3, r3, #7
 2863 03e6 072B     		cmp	r3, #7
 2864 03e8 40F0C081 		bne	.L197
1763:.\Generated_Source\PSoC5/RTC_1.c ****                         (RTC_1_DST_HOUR | RTC_1_DST_DAYOFMONTH | RTC_1_DST_MONTH)))
1764:.\Generated_Source\PSoC5/RTC_1.c ****                 {
1765:.\Generated_Source\PSoC5/RTC_1.c ****                     /* Subtract current minutes value with minutes value, what
1766:.\Generated_Source\PSoC5/RTC_1.c ****                     *  are out of full hour in DST offset.
1767:.\Generated_Source\PSoC5/RTC_1.c ****                     */
1768:.\Generated_Source\PSoC5/RTC_1.c ****                     RTC_1_currentTimeDate.Min -= RTC_1_dstOffsetMin %
 2865              		.loc 1 1768 0
 2866 03ec 6F4B     		ldr	r3, .L236+12
 2867 03ee 1B78     		ldrb	r3, [r3]
 2868 03f0 DAB2     		uxtb	r2, r3
 2869 03f2 6F4B     		ldr	r3, .L236+16
 2870 03f4 A3FB0213 		umull	r1, r3, r3, r2
 2871 03f8 5909     		lsrs	r1, r3, #5
 2872 03fa 0B46     		mov	r3, r1
 2873 03fc 1B01     		lsls	r3, r3, #4
 2874 03fe 5B1A     		subs	r3, r3, r1
 2875 0400 9B00     		lsls	r3, r3, #2
 2876 0402 D31A     		subs	r3, r2, r3
 2877 0404 DBB2     		uxtb	r3, r3
 2878 0406 1946     		mov	r1, r3
 2879 0408 6A4B     		ldr	r3, .L236+20
 2880 040a 5B78     		ldrb	r3, [r3, #1]
 2881 040c DAB2     		uxtb	r2, r3
 2882 040e CBB2     		uxtb	r3, r1
 2883 0410 D31A     		subs	r3, r2, r3
 2884 0412 DAB2     		uxtb	r2, r3
 2885 0414 674B     		ldr	r3, .L236+20
 2886 0416 5A70     		strb	r2, [r3, #1]
1769:.\Generated_Source\PSoC5/RTC_1.c ****                                                             (RTC_1_HOUR_ELAPSED + 1u);
1770:.\Generated_Source\PSoC5/RTC_1.c **** 
1771:.\Generated_Source\PSoC5/RTC_1.c ****                     /* If current minutes value is greater than number of
1772:.\Generated_Source\PSoC5/RTC_1.c ****                     * minutes in hour - could be only if hour's value is negative
1773:.\Generated_Source\PSoC5/RTC_1.c ****                     */
1774:.\Generated_Source\PSoC5/RTC_1.c ****                     if(RTC_1_currentTimeDate.Min > RTC_1_HOUR_ELAPSED)
 2887              		.loc 1 1774 0
 2888 0418 664B     		ldr	r3, .L236+20
 2889 041a 5B78     		ldrb	r3, [r3, #1]
 2890 041c DBB2     		uxtb	r3, r3
 2891 041e 3B2B     		cmp	r3, #59
ARM GAS  C:\Users\glenn\AppData\Local\Temp\ccPIHEU1.s 			page 83


 2892 0420 0DD9     		bls	.L200
1775:.\Generated_Source\PSoC5/RTC_1.c ****                     {
1776:.\Generated_Source\PSoC5/RTC_1.c ****                         /* Adjust current minutes value. Convert to the positive. */
1777:.\Generated_Source\PSoC5/RTC_1.c ****                         RTC_1_currentTimeDate.Min = RTC_1_HOUR_ELAPSED -
1778:.\Generated_Source\PSoC5/RTC_1.c ****                                                                ((uint8)(~RTC_1_currentTimeDate.Min)
 2893              		.loc 1 1778 0
 2894 0422 644B     		ldr	r3, .L236+20
 2895 0424 5B78     		ldrb	r3, [r3, #1]
 2896 0426 DBB2     		uxtb	r3, r3
1777:.\Generated_Source\PSoC5/RTC_1.c ****                                                                ((uint8)(~RTC_1_currentTimeDate.Min)
 2897              		.loc 1 1777 0
 2898 0428 3C33     		adds	r3, r3, #60
 2899 042a DAB2     		uxtb	r2, r3
 2900 042c 614B     		ldr	r3, .L236+20
 2901 042e 5A70     		strb	r2, [r3, #1]
1779:.\Generated_Source\PSoC5/RTC_1.c **** 
1780:.\Generated_Source\PSoC5/RTC_1.c ****                         /* Decrement current hours value. */
1781:.\Generated_Source\PSoC5/RTC_1.c ****                         RTC_1_currentTimeDate.Hour--;
 2902              		.loc 1 1781 0
 2903 0430 604B     		ldr	r3, .L236+20
 2904 0432 9B78     		ldrb	r3, [r3, #2]
 2905 0434 DBB2     		uxtb	r3, r3
 2906 0436 013B     		subs	r3, r3, #1
 2907 0438 DAB2     		uxtb	r2, r3
 2908 043a 5E4B     		ldr	r3, .L236+20
 2909 043c 9A70     		strb	r2, [r3, #2]
 2910              	.L200:
1782:.\Generated_Source\PSoC5/RTC_1.c ****                     }
1783:.\Generated_Source\PSoC5/RTC_1.c **** 
1784:.\Generated_Source\PSoC5/RTC_1.c ****                     /* Subtract current hours value with hours value, what
1785:.\Generated_Source\PSoC5/RTC_1.c ****                     *  are full part of hours in DST offset.
1786:.\Generated_Source\PSoC5/RTC_1.c ****                     */
1787:.\Generated_Source\PSoC5/RTC_1.c ****                     RTC_1_currentTimeDate.Hour -= RTC_1_dstOffsetMin /
 2911              		.loc 1 1787 0
 2912 043e 5B4B     		ldr	r3, .L236+12
 2913 0440 1B78     		ldrb	r3, [r3]
 2914 0442 DBB2     		uxtb	r3, r3
 2915 0444 5A4A     		ldr	r2, .L236+16
 2916 0446 A2FB0323 		umull	r2, r3, r2, r3
 2917 044a 5B09     		lsrs	r3, r3, #5
 2918 044c DBB2     		uxtb	r3, r3
 2919 044e 1946     		mov	r1, r3
 2920 0450 584B     		ldr	r3, .L236+20
 2921 0452 9B78     		ldrb	r3, [r3, #2]
 2922 0454 DAB2     		uxtb	r2, r3
 2923 0456 CBB2     		uxtb	r3, r1
 2924 0458 D31A     		subs	r3, r2, r3
 2925 045a DAB2     		uxtb	r2, r3
 2926 045c 554B     		ldr	r3, .L236+20
 2927 045e 9A70     		strb	r2, [r3, #2]
1788:.\Generated_Source\PSoC5/RTC_1.c ****                                                              (RTC_1_HOUR_ELAPSED + 1u);
1789:.\Generated_Source\PSoC5/RTC_1.c **** 
1790:.\Generated_Source\PSoC5/RTC_1.c ****                     /* Check if current hour's value is negative */
1791:.\Generated_Source\PSoC5/RTC_1.c ****                     if(RTC_1_currentTimeDate.Hour > RTC_1_DAY_ELAPSED)
 2928              		.loc 1 1791 0
 2929 0460 544B     		ldr	r3, .L236+20
 2930 0462 9B78     		ldrb	r3, [r3, #2]
ARM GAS  C:\Users\glenn\AppData\Local\Temp\ccPIHEU1.s 			page 84


 2931 0464 DBB2     		uxtb	r3, r3
 2932 0466 172B     		cmp	r3, #23
 2933 0468 40F28E80 		bls	.L201
1792:.\Generated_Source\PSoC5/RTC_1.c ****                     {
1793:.\Generated_Source\PSoC5/RTC_1.c ****                         /* Adjust hour */
1794:.\Generated_Source\PSoC5/RTC_1.c ****                         RTC_1_currentTimeDate.Hour = RTC_1_DAY_ELAPSED -
1795:.\Generated_Source\PSoC5/RTC_1.c ****                                                                 ((uint8)(~RTC_1_currentTimeDate.Hou
 2934              		.loc 1 1795 0
 2935 046c 514B     		ldr	r3, .L236+20
 2936 046e 9B78     		ldrb	r3, [r3, #2]
 2937 0470 DBB2     		uxtb	r3, r3
1794:.\Generated_Source\PSoC5/RTC_1.c ****                                                                 ((uint8)(~RTC_1_currentTimeDate.Hou
 2938              		.loc 1 1794 0
 2939 0472 1833     		adds	r3, r3, #24
 2940 0474 DAB2     		uxtb	r2, r3
 2941 0476 4F4B     		ldr	r3, .L236+20
 2942 0478 9A70     		strb	r2, [r3, #2]
1796:.\Generated_Source\PSoC5/RTC_1.c **** 
1797:.\Generated_Source\PSoC5/RTC_1.c ****                         /* Decrement day of month, year and week */
1798:.\Generated_Source\PSoC5/RTC_1.c ****                         RTC_1_currentTimeDate.DayOfMonth--;
 2943              		.loc 1 1798 0
 2944 047a 4E4B     		ldr	r3, .L236+20
 2945 047c 1B79     		ldrb	r3, [r3, #4]
 2946 047e DBB2     		uxtb	r3, r3
 2947 0480 013B     		subs	r3, r3, #1
 2948 0482 DAB2     		uxtb	r2, r3
 2949 0484 4B4B     		ldr	r3, .L236+20
 2950 0486 1A71     		strb	r2, [r3, #4]
1799:.\Generated_Source\PSoC5/RTC_1.c ****                         RTC_1_currentTimeDate.DayOfYear--;
