ARM GAS  C:\Users\glenn\AppData\Local\Temp\ccxzV7hg.s 			page 1


   1              		.syntax unified
   2              		.cpu cortex-m3
   3              		.fpu softvfp
   4              		.eabi_attribute 20, 1
   5              		.eabi_attribute 21, 1
   6              		.eabi_attribute 23, 3
   7              		.eabi_attribute 24, 1
   8              		.eabi_attribute 25, 1
   9              		.eabi_attribute 26, 1
  10              		.eabi_attribute 30, 6
  11              		.eabi_attribute 34, 1
  12              		.eabi_attribute 18, 4
  13              		.thumb
  14              		.file	"RTC_1_INT.c"
  15              		.text
  16              	.Ltext0:
  17              		.cfi_sections	.debug_frame
  18              		.section	.text.RTC_1_EverySecondHandler,"ax",%progbits
  19              		.align	2
  20              		.thumb
  21              		.thumb_func
  22              		.type	RTC_1_EverySecondHandler, %function
  23              	RTC_1_EverySecondHandler:
  24              	.LFB0:
  25              		.file 1 ".\\Generated_Source\\PSoC5\\RTC_1_INT.c"
   1:.\Generated_Source\PSoC5/RTC_1_INT.c **** /*******************************************************************************
   2:.\Generated_Source\PSoC5/RTC_1_INT.c **** * File Name: RTC_1_INT.c
   3:.\Generated_Source\PSoC5/RTC_1_INT.c **** * Version 2.0
   4:.\Generated_Source\PSoC5/RTC_1_INT.c **** *
   5:.\Generated_Source\PSoC5/RTC_1_INT.c **** * Description:
   6:.\Generated_Source\PSoC5/RTC_1_INT.c **** *  This file contains the Interrupt Service Routine (ISR) for the RTC component.
   7:.\Generated_Source\PSoC5/RTC_1_INT.c **** *  This interrupt routine has entry pointes to overflow on time or date.
   8:.\Generated_Source\PSoC5/RTC_1_INT.c **** *
   9:.\Generated_Source\PSoC5/RTC_1_INT.c **** ********************************************************************************
  10:.\Generated_Source\PSoC5/RTC_1_INT.c **** * Copyright 2008-2013, Cypress Semiconductor Corporation.  All rights reserved.
  11:.\Generated_Source\PSoC5/RTC_1_INT.c **** * You may use this file only in accordance with the license, terms, conditions,
  12:.\Generated_Source\PSoC5/RTC_1_INT.c **** * disclaimers, and limitations in the end user license agreement accompanying
  13:.\Generated_Source\PSoC5/RTC_1_INT.c **** * the software package with which this file was provided.
  14:.\Generated_Source\PSoC5/RTC_1_INT.c **** *******************************************************************************/
  15:.\Generated_Source\PSoC5/RTC_1_INT.c **** 
  16:.\Generated_Source\PSoC5/RTC_1_INT.c **** #include "RTC_1.h"
  17:.\Generated_Source\PSoC5/RTC_1_INT.c **** #include "CyLib.h"
  18:.\Generated_Source\PSoC5/RTC_1_INT.c **** #include "cyapicallbacks.h"
  19:.\Generated_Source\PSoC5/RTC_1_INT.c **** 
  20:.\Generated_Source\PSoC5/RTC_1_INT.c **** /* Function Prototypes */
  21:.\Generated_Source\PSoC5/RTC_1_INT.c **** static void RTC_1_EverySecondHandler(void);
  22:.\Generated_Source\PSoC5/RTC_1_INT.c **** static void RTC_1_EveryMinuteHandler(void);
  23:.\Generated_Source\PSoC5/RTC_1_INT.c **** static void RTC_1_EveryHourHandler(void);
  24:.\Generated_Source\PSoC5/RTC_1_INT.c **** static void RTC_1_EveryDayHandler(void);
  25:.\Generated_Source\PSoC5/RTC_1_INT.c **** static void RTC_1_EveryWeekHandler(void);
  26:.\Generated_Source\PSoC5/RTC_1_INT.c **** static void RTC_1_EveryMonthHandler(void);
  27:.\Generated_Source\PSoC5/RTC_1_INT.c **** static void RTC_1_EveryYearHandler(void);
  28:.\Generated_Source\PSoC5/RTC_1_INT.c **** 
  29:.\Generated_Source\PSoC5/RTC_1_INT.c **** 
  30:.\Generated_Source\PSoC5/RTC_1_INT.c **** /*******************************************************************************
  31:.\Generated_Source\PSoC5/RTC_1_INT.c **** *  Place your includes, defines and code here
  32:.\Generated_Source\PSoC5/RTC_1_INT.c **** *******************************************************************************/
ARM GAS  C:\Users\glenn\AppData\Local\Temp\ccxzV7hg.s 			page 2


  33:.\Generated_Source\PSoC5/RTC_1_INT.c **** /* `#START RTC_ISR_DEFINITION` */
  34:.\Generated_Source\PSoC5/RTC_1_INT.c **** extern void rtc_second_tick( void );
  35:.\Generated_Source\PSoC5/RTC_1_INT.c **** extern void rtc_minute_tick( void );
  36:.\Generated_Source\PSoC5/RTC_1_INT.c **** extern void rtc_hour_tick( void );
  37:.\Generated_Source\PSoC5/RTC_1_INT.c **** /* `#END` */
  38:.\Generated_Source\PSoC5/RTC_1_INT.c **** 
  39:.\Generated_Source\PSoC5/RTC_1_INT.c **** 
  40:.\Generated_Source\PSoC5/RTC_1_INT.c **** /*******************************************************************************
  41:.\Generated_Source\PSoC5/RTC_1_INT.c **** * Function Name:   RTC_1_EverySecondHandler
  42:.\Generated_Source\PSoC5/RTC_1_INT.c **** ********************************************************************************
  43:.\Generated_Source\PSoC5/RTC_1_INT.c **** *
  44:.\Generated_Source\PSoC5/RTC_1_INT.c **** * Summary:
  45:.\Generated_Source\PSoC5/RTC_1_INT.c **** *  This function is called every second.
  46:.\Generated_Source\PSoC5/RTC_1_INT.c **** *
  47:.\Generated_Source\PSoC5/RTC_1_INT.c **** * Parameters:
  48:.\Generated_Source\PSoC5/RTC_1_INT.c **** *  None.
  49:.\Generated_Source\PSoC5/RTC_1_INT.c **** *
  50:.\Generated_Source\PSoC5/RTC_1_INT.c **** * Return:
  51:.\Generated_Source\PSoC5/RTC_1_INT.c **** *  None.
  52:.\Generated_Source\PSoC5/RTC_1_INT.c **** *
  53:.\Generated_Source\PSoC5/RTC_1_INT.c **** *******************************************************************************/
  54:.\Generated_Source\PSoC5/RTC_1_INT.c **** static void RTC_1_EverySecondHandler(void)
  55:.\Generated_Source\PSoC5/RTC_1_INT.c **** {
  26              		.loc 1 55 0
  27              		.cfi_startproc
  28              		@ args = 0, pretend = 0, frame = 0
  29              		@ frame_needed = 1, uses_anonymous_args = 0
  30 0000 80B5     		push	{r7, lr}
  31              		.cfi_def_cfa_offset 8
  32              		.cfi_offset 7, -8
  33              		.cfi_offset 14, -4
  34 0002 00AF     		add	r7, sp, #0
  35              		.cfi_def_cfa_register 7
  56:.\Generated_Source\PSoC5/RTC_1_INT.c ****     /*  Place your every second handler code here. */
  57:.\Generated_Source\PSoC5/RTC_1_INT.c ****     /* `#START EVERY_SECOND_HANDLER_CODE` */
  58:.\Generated_Source\PSoC5/RTC_1_INT.c ****     rtc_second_tick();
  36              		.loc 1 58 0
  37 0004 FFF7FEFF 		bl	rtc_second_tick
  59:.\Generated_Source\PSoC5/RTC_1_INT.c ****     /* `#END` */
  60:.\Generated_Source\PSoC5/RTC_1_INT.c ****     
  61:.\Generated_Source\PSoC5/RTC_1_INT.c ****     #ifdef RTC_1_EVERY_SECOND_HANDLER_CALLBACK
  62:.\Generated_Source\PSoC5/RTC_1_INT.c ****         RTC_1_EverySecondHandler_Callback();
  63:.\Generated_Source\PSoC5/RTC_1_INT.c ****     #endif /* RTC_1_EVERY_SECOND_HANDLER_CALLBACK */
  64:.\Generated_Source\PSoC5/RTC_1_INT.c **** }
  38              		.loc 1 64 0
  39 0008 80BD     		pop	{r7, pc}
  40              		.cfi_endproc
  41              	.LFE0:
  42              		.size	RTC_1_EverySecondHandler, .-RTC_1_EverySecondHandler
  43 000a 00BF     		.section	.text.RTC_1_EveryMinuteHandler,"ax",%progbits
  44              		.align	2
  45              		.thumb
  46              		.thumb_func
  47              		.type	RTC_1_EveryMinuteHandler, %function
  48              	RTC_1_EveryMinuteHandler:
  49              	.LFB1:
  65:.\Generated_Source\PSoC5/RTC_1_INT.c **** 
ARM GAS  C:\Users\glenn\AppData\Local\Temp\ccxzV7hg.s 			page 3


  66:.\Generated_Source\PSoC5/RTC_1_INT.c **** 
  67:.\Generated_Source\PSoC5/RTC_1_INT.c **** /*******************************************************************************
  68:.\Generated_Source\PSoC5/RTC_1_INT.c **** * Function Name:   RTC_1_EveryMinuteHandler
  69:.\Generated_Source\PSoC5/RTC_1_INT.c **** ********************************************************************************
  70:.\Generated_Source\PSoC5/RTC_1_INT.c **** *
  71:.\Generated_Source\PSoC5/RTC_1_INT.c **** * Summary:
  72:.\Generated_Source\PSoC5/RTC_1_INT.c **** *  This function is called every minute.
  73:.\Generated_Source\PSoC5/RTC_1_INT.c **** *
  74:.\Generated_Source\PSoC5/RTC_1_INT.c **** * Parameters:
  75:.\Generated_Source\PSoC5/RTC_1_INT.c **** *  None.
  76:.\Generated_Source\PSoC5/RTC_1_INT.c **** *
  77:.\Generated_Source\PSoC5/RTC_1_INT.c **** * Return:
  78:.\Generated_Source\PSoC5/RTC_1_INT.c **** *  None.
  79:.\Generated_Source\PSoC5/RTC_1_INT.c **** *
  80:.\Generated_Source\PSoC5/RTC_1_INT.c **** *******************************************************************************/
  81:.\Generated_Source\PSoC5/RTC_1_INT.c **** static void RTC_1_EveryMinuteHandler(void)
  82:.\Generated_Source\PSoC5/RTC_1_INT.c **** {
  50              		.loc 1 82 0
  51              		.cfi_startproc
  52              		@ args = 0, pretend = 0, frame = 0
  53              		@ frame_needed = 1, uses_anonymous_args = 0
  54 0000 80B5     		push	{r7, lr}
  55              		.cfi_def_cfa_offset 8
  56              		.cfi_offset 7, -8
  57              		.cfi_offset 14, -4
  58 0002 00AF     		add	r7, sp, #0
  59              		.cfi_def_cfa_register 7
  83:.\Generated_Source\PSoC5/RTC_1_INT.c ****     /*  Place your every minute handler code here. */
  84:.\Generated_Source\PSoC5/RTC_1_INT.c ****     /* `#START EVERY_MINUTE_HANDLER_CODE` */
  85:.\Generated_Source\PSoC5/RTC_1_INT.c ****     rtc_minute_tick();
  60              		.loc 1 85 0
  61 0004 FFF7FEFF 		bl	rtc_minute_tick
  86:.\Generated_Source\PSoC5/RTC_1_INT.c ****     /* `#END` */
  87:.\Generated_Source\PSoC5/RTC_1_INT.c **** 
  88:.\Generated_Source\PSoC5/RTC_1_INT.c ****     #ifdef RTC_1_EVERY_MINUTE_HANDLER_CALLBACK
  89:.\Generated_Source\PSoC5/RTC_1_INT.c ****         RTC_1_EveryMinuteHandler_Callback();
  90:.\Generated_Source\PSoC5/RTC_1_INT.c ****     #endif /* RTC_1_EVERY_MINUTE_HANDLER_CALLBACK */    
  91:.\Generated_Source\PSoC5/RTC_1_INT.c **** }
  62              		.loc 1 91 0
  63 0008 80BD     		pop	{r7, pc}
  64              		.cfi_endproc
  65              	.LFE1:
  66              		.size	RTC_1_EveryMinuteHandler, .-RTC_1_EveryMinuteHandler
  67 000a 00BF     		.section	.text.RTC_1_EveryHourHandler,"ax",%progbits
  68              		.align	2
  69              		.thumb
  70              		.thumb_func
  71              		.type	RTC_1_EveryHourHandler, %function
  72              	RTC_1_EveryHourHandler:
  73              	.LFB2:
  92:.\Generated_Source\PSoC5/RTC_1_INT.c **** 
  93:.\Generated_Source\PSoC5/RTC_1_INT.c **** 
  94:.\Generated_Source\PSoC5/RTC_1_INT.c **** /*******************************************************************************
  95:.\Generated_Source\PSoC5/RTC_1_INT.c **** * Function Name:   RTC_1_EveryHourHandler
  96:.\Generated_Source\PSoC5/RTC_1_INT.c **** ********************************************************************************
  97:.\Generated_Source\PSoC5/RTC_1_INT.c **** *
  98:.\Generated_Source\PSoC5/RTC_1_INT.c **** * Summary:
ARM GAS  C:\Users\glenn\AppData\Local\Temp\ccxzV7hg.s 			page 4


  99:.\Generated_Source\PSoC5/RTC_1_INT.c **** *  This function is called every hour.
 100:.\Generated_Source\PSoC5/RTC_1_INT.c **** *
 101:.\Generated_Source\PSoC5/RTC_1_INT.c **** * Parameters:
 102:.\Generated_Source\PSoC5/RTC_1_INT.c **** *  None.
 103:.\Generated_Source\PSoC5/RTC_1_INT.c **** *
 104:.\Generated_Source\PSoC5/RTC_1_INT.c **** * Return:
 105:.\Generated_Source\PSoC5/RTC_1_INT.c **** *  None.
 106:.\Generated_Source\PSoC5/RTC_1_INT.c **** *
 107:.\Generated_Source\PSoC5/RTC_1_INT.c **** *******************************************************************************/
 108:.\Generated_Source\PSoC5/RTC_1_INT.c **** static void RTC_1_EveryHourHandler(void)
 109:.\Generated_Source\PSoC5/RTC_1_INT.c **** {
  74              		.loc 1 109 0
  75              		.cfi_startproc
  76              		@ args = 0, pretend = 0, frame = 0
  77              		@ frame_needed = 1, uses_anonymous_args = 0
  78 0000 80B5     		push	{r7, lr}
  79              		.cfi_def_cfa_offset 8
  80              		.cfi_offset 7, -8
  81              		.cfi_offset 14, -4
  82 0002 00AF     		add	r7, sp, #0
  83              		.cfi_def_cfa_register 7
 110:.\Generated_Source\PSoC5/RTC_1_INT.c ****     /*  Place your every hour handler code here. */
 111:.\Generated_Source\PSoC5/RTC_1_INT.c ****     /* `#START EVERY_HOUR_HANDLER_CODE` */
 112:.\Generated_Source\PSoC5/RTC_1_INT.c ****     rtc_minute_tick();
  84              		.loc 1 112 0
  85 0004 FFF7FEFF 		bl	rtc_minute_tick
 113:.\Generated_Source\PSoC5/RTC_1_INT.c ****     /* `#END` */
 114:.\Generated_Source\PSoC5/RTC_1_INT.c ****     
 115:.\Generated_Source\PSoC5/RTC_1_INT.c ****     #ifdef RTC_1_EVERY_HOUR_HANDLER_CALLBACK
 116:.\Generated_Source\PSoC5/RTC_1_INT.c ****         RTC_1_EveryHourHandler_Callback();
 117:.\Generated_Source\PSoC5/RTC_1_INT.c ****     #endif /* RTC_1_EVERY_HOUR_HANDLER_CALLBACK */
 118:.\Generated_Source\PSoC5/RTC_1_INT.c **** }
  86              		.loc 1 118 0
  87 0008 80BD     		pop	{r7, pc}
  88              		.cfi_endproc
  89              	.LFE2:
  90              		.size	RTC_1_EveryHourHandler, .-RTC_1_EveryHourHandler
  91 000a 00BF     		.section	.text.RTC_1_EveryDayHandler,"ax",%progbits
  92              		.align	2
  93              		.thumb
  94              		.thumb_func
  95              		.type	RTC_1_EveryDayHandler, %function
  96              	RTC_1_EveryDayHandler:
  97              	.LFB3:
 119:.\Generated_Source\PSoC5/RTC_1_INT.c **** 
 120:.\Generated_Source\PSoC5/RTC_1_INT.c **** 
 121:.\Generated_Source\PSoC5/RTC_1_INT.c **** /*******************************************************************************
 122:.\Generated_Source\PSoC5/RTC_1_INT.c **** * Function Name:   RTC_1_EveryDayHandler
 123:.\Generated_Source\PSoC5/RTC_1_INT.c **** ********************************************************************************
 124:.\Generated_Source\PSoC5/RTC_1_INT.c **** *
 125:.\Generated_Source\PSoC5/RTC_1_INT.c **** * Summary:
 126:.\Generated_Source\PSoC5/RTC_1_INT.c **** *  This function is called every day.
 127:.\Generated_Source\PSoC5/RTC_1_INT.c **** *
 128:.\Generated_Source\PSoC5/RTC_1_INT.c **** * Parameters:
 129:.\Generated_Source\PSoC5/RTC_1_INT.c **** *  None.
 130:.\Generated_Source\PSoC5/RTC_1_INT.c **** *
 131:.\Generated_Source\PSoC5/RTC_1_INT.c **** * Return:
ARM GAS  C:\Users\glenn\AppData\Local\Temp\ccxzV7hg.s 			page 5


 132:.\Generated_Source\PSoC5/RTC_1_INT.c **** *  None.
 133:.\Generated_Source\PSoC5/RTC_1_INT.c **** *
 134:.\Generated_Source\PSoC5/RTC_1_INT.c **** *******************************************************************************/
 135:.\Generated_Source\PSoC5/RTC_1_INT.c **** static void RTC_1_EveryDayHandler(void)
 136:.\Generated_Source\PSoC5/RTC_1_INT.c **** {
  98              		.loc 1 136 0
  99              		.cfi_startproc
 100              		@ args = 0, pretend = 0, frame = 0
 101              		@ frame_needed = 1, uses_anonymous_args = 0
 102              		@ link register save eliminated.
 103 0000 80B4     		push	{r7}
 104              		.cfi_def_cfa_offset 4
 105              		.cfi_offset 7, -4
 106 0002 00AF     		add	r7, sp, #0
 107              		.cfi_def_cfa_register 7
 137:.\Generated_Source\PSoC5/RTC_1_INT.c ****     /*  Place your everyday handler code here. */
 138:.\Generated_Source\PSoC5/RTC_1_INT.c ****     /* `#START EVERY_DAY_HANDLER_CODE` */
 139:.\Generated_Source\PSoC5/RTC_1_INT.c **** 
 140:.\Generated_Source\PSoC5/RTC_1_INT.c ****     /* `#END` */
 141:.\Generated_Source\PSoC5/RTC_1_INT.c ****     
 142:.\Generated_Source\PSoC5/RTC_1_INT.c ****     #ifdef RTC_1_EVERY_DAY_HANDLER_CALLBACK
 143:.\Generated_Source\PSoC5/RTC_1_INT.c ****         RTC_1_EveryDayHandler_Callback();
 144:.\Generated_Source\PSoC5/RTC_1_INT.c ****     #endif /* RTC_1_EVERY_DAY_HANDLER_CALLBACK */
 145:.\Generated_Source\PSoC5/RTC_1_INT.c **** }
 108              		.loc 1 145 0
 109 0004 BD46     		mov	sp, r7
 110              		.cfi_def_cfa_register 13
 111              		@ sp needed
 112 0006 5DF8047B 		ldr	r7, [sp], #4
 113              		.cfi_restore 7
 114              		.cfi_def_cfa_offset 0
 115 000a 7047     		bx	lr
 116              		.cfi_endproc
 117              	.LFE3:
 118              		.size	RTC_1_EveryDayHandler, .-RTC_1_EveryDayHandler
 119              		.section	.text.RTC_1_EveryWeekHandler,"ax",%progbits
 120              		.align	2
 121              		.thumb
 122              		.thumb_func
 123              		.type	RTC_1_EveryWeekHandler, %function
 124              	RTC_1_EveryWeekHandler:
 125              	.LFB4:
 146:.\Generated_Source\PSoC5/RTC_1_INT.c **** 
 147:.\Generated_Source\PSoC5/RTC_1_INT.c **** 
 148:.\Generated_Source\PSoC5/RTC_1_INT.c **** /*******************************************************************************
 149:.\Generated_Source\PSoC5/RTC_1_INT.c **** * Function Name:   RTC_1_EveryWeekHandler
 150:.\Generated_Source\PSoC5/RTC_1_INT.c **** ********************************************************************************
 151:.\Generated_Source\PSoC5/RTC_1_INT.c **** *
 152:.\Generated_Source\PSoC5/RTC_1_INT.c **** * Summary:
 153:.\Generated_Source\PSoC5/RTC_1_INT.c **** *  This function is called every week.
 154:.\Generated_Source\PSoC5/RTC_1_INT.c **** *
 155:.\Generated_Source\PSoC5/RTC_1_INT.c **** * Parameters:
 156:.\Generated_Source\PSoC5/RTC_1_INT.c **** *  None.
 157:.\Generated_Source\PSoC5/RTC_1_INT.c **** *
 158:.\Generated_Source\PSoC5/RTC_1_INT.c **** * Return:
 159:.\Generated_Source\PSoC5/RTC_1_INT.c **** *  None.
 160:.\Generated_Source\PSoC5/RTC_1_INT.c **** *
ARM GAS  C:\Users\glenn\AppData\Local\Temp\ccxzV7hg.s 			page 6


 161:.\Generated_Source\PSoC5/RTC_1_INT.c **** *******************************************************************************/
 162:.\Generated_Source\PSoC5/RTC_1_INT.c **** static void RTC_1_EveryWeekHandler(void)
 163:.\Generated_Source\PSoC5/RTC_1_INT.c **** {
 126              		.loc 1 163 0
 127              		.cfi_startproc
 128              		@ args = 0, pretend = 0, frame = 0
 129              		@ frame_needed = 1, uses_anonymous_args = 0
 130              		@ link register save eliminated.
 131 0000 80B4     		push	{r7}
 132              		.cfi_def_cfa_offset 4
 133              		.cfi_offset 7, -4
 134 0002 00AF     		add	r7, sp, #0
 135              		.cfi_def_cfa_register 7
 164:.\Generated_Source\PSoC5/RTC_1_INT.c ****     /*  Place your every week handler code here. */
 165:.\Generated_Source\PSoC5/RTC_1_INT.c ****     /* `#START EVERY_WEEK_HANDLER_CODE` */
 166:.\Generated_Source\PSoC5/RTC_1_INT.c **** 
 167:.\Generated_Source\PSoC5/RTC_1_INT.c ****     /* `#END` */
 168:.\Generated_Source\PSoC5/RTC_1_INT.c **** 
 169:.\Generated_Source\PSoC5/RTC_1_INT.c ****     #ifdef RTC_1_EVERY_WEEK_HANDLER_CALLBACK
 170:.\Generated_Source\PSoC5/RTC_1_INT.c ****         RTC_1_EveryWeekHandler_Callback();
 171:.\Generated_Source\PSoC5/RTC_1_INT.c ****     #endif /* RTC_1_EVERY_WEEK_HANDLER_CALLBACK */
 172:.\Generated_Source\PSoC5/RTC_1_INT.c **** }
 136              		.loc 1 172 0
 137 0004 BD46     		mov	sp, r7
 138              		.cfi_def_cfa_register 13
 139              		@ sp needed
 140 0006 5DF8047B 		ldr	r7, [sp], #4
 141              		.cfi_restore 7
 142              		.cfi_def_cfa_offset 0
 143 000a 7047     		bx	lr
 144              		.cfi_endproc
 145              	.LFE4:
 146              		.size	RTC_1_EveryWeekHandler, .-RTC_1_EveryWeekHandler
 147              		.section	.text.RTC_1_EveryMonthHandler,"ax",%progbits
 148              		.align	2
 149              		.thumb
 150              		.thumb_func
 151              		.type	RTC_1_EveryMonthHandler, %function
 152              	RTC_1_EveryMonthHandler:
 153              	.LFB5:
 173:.\Generated_Source\PSoC5/RTC_1_INT.c **** 
 174:.\Generated_Source\PSoC5/RTC_1_INT.c **** 
 175:.\Generated_Source\PSoC5/RTC_1_INT.c **** /*******************************************************************************
 176:.\Generated_Source\PSoC5/RTC_1_INT.c **** * Function Name:   RTC_1_EveryMonthHandler
 177:.\Generated_Source\PSoC5/RTC_1_INT.c **** ********************************************************************************
 178:.\Generated_Source\PSoC5/RTC_1_INT.c **** *
 179:.\Generated_Source\PSoC5/RTC_1_INT.c **** * Summary:
 180:.\Generated_Source\PSoC5/RTC_1_INT.c **** *  This function is called every month.
 181:.\Generated_Source\PSoC5/RTC_1_INT.c **** *
 182:.\Generated_Source\PSoC5/RTC_1_INT.c **** * Parameters:
 183:.\Generated_Source\PSoC5/RTC_1_INT.c **** *  None.
 184:.\Generated_Source\PSoC5/RTC_1_INT.c **** *
 185:.\Generated_Source\PSoC5/RTC_1_INT.c **** * Return:
 186:.\Generated_Source\PSoC5/RTC_1_INT.c **** *  None.
 187:.\Generated_Source\PSoC5/RTC_1_INT.c **** *
 188:.\Generated_Source\PSoC5/RTC_1_INT.c **** *******************************************************************************/
 189:.\Generated_Source\PSoC5/RTC_1_INT.c **** static void RTC_1_EveryMonthHandler(void)
ARM GAS  C:\Users\glenn\AppData\Local\Temp\ccxzV7hg.s 			page 7


 190:.\Generated_Source\PSoC5/RTC_1_INT.c **** {
 154              		.loc 1 190 0
 155              		.cfi_startproc
 156              		@ args = 0, pretend = 0, frame = 0
 157              		@ frame_needed = 1, uses_anonymous_args = 0
 158              		@ link register save eliminated.
 159 0000 80B4     		push	{r7}
 160              		.cfi_def_cfa_offset 4
 161              		.cfi_offset 7, -4
 162 0002 00AF     		add	r7, sp, #0
 163              		.cfi_def_cfa_register 7
 191:.\Generated_Source\PSoC5/RTC_1_INT.c ****     /*  Place your every month handler code here. */
 192:.\Generated_Source\PSoC5/RTC_1_INT.c ****     /* `#START EVERY_MONTH_HANDLER_CODE` */
 193:.\Generated_Source\PSoC5/RTC_1_INT.c **** 
 194:.\Generated_Source\PSoC5/RTC_1_INT.c ****     /* `#END` */
 195:.\Generated_Source\PSoC5/RTC_1_INT.c ****     
 196:.\Generated_Source\PSoC5/RTC_1_INT.c ****     #ifdef RTC_1_EVERY_MONTH_HANDLER_CALLBACK
 197:.\Generated_Source\PSoC5/RTC_1_INT.c ****         RTC_1_EveryMonthHandler_Callback();
 198:.\Generated_Source\PSoC5/RTC_1_INT.c ****     #endif /* RTC_1_EVERY_MONTH_HANDLER_CALLBACK */
 199:.\Generated_Source\PSoC5/RTC_1_INT.c **** }
 164              		.loc 1 199 0
 165 0004 BD46     		mov	sp, r7
 166              		.cfi_def_cfa_register 13
 167              		@ sp needed
 168 0006 5DF8047B 		ldr	r7, [sp], #4
 169              		.cfi_restore 7
 170              		.cfi_def_cfa_offset 0
 171 000a 7047     		bx	lr
 172              		.cfi_endproc
 173              	.LFE5:
 174              		.size	RTC_1_EveryMonthHandler, .-RTC_1_EveryMonthHandler
 175              		.section	.text.RTC_1_EveryYearHandler,"ax",%progbits
 176              		.align	2
 177              		.thumb
 178              		.thumb_func
 179              		.type	RTC_1_EveryYearHandler, %function
 180              	RTC_1_EveryYearHandler:
 181              	.LFB6:
 200:.\Generated_Source\PSoC5/RTC_1_INT.c **** 
 201:.\Generated_Source\PSoC5/RTC_1_INT.c **** 
 202:.\Generated_Source\PSoC5/RTC_1_INT.c **** /*******************************************************************************
 203:.\Generated_Source\PSoC5/RTC_1_INT.c **** * Function Name:   RTC_1_EveryYearHandler
 204:.\Generated_Source\PSoC5/RTC_1_INT.c **** ********************************************************************************
 205:.\Generated_Source\PSoC5/RTC_1_INT.c **** *
 206:.\Generated_Source\PSoC5/RTC_1_INT.c **** * Summary:
 207:.\Generated_Source\PSoC5/RTC_1_INT.c **** *  This function is called every year.
 208:.\Generated_Source\PSoC5/RTC_1_INT.c **** *
 209:.\Generated_Source\PSoC5/RTC_1_INT.c **** * Parameters:
 210:.\Generated_Source\PSoC5/RTC_1_INT.c **** *  None.
 211:.\Generated_Source\PSoC5/RTC_1_INT.c **** *
 212:.\Generated_Source\PSoC5/RTC_1_INT.c **** * Return:
 213:.\Generated_Source\PSoC5/RTC_1_INT.c **** *  None.
 214:.\Generated_Source\PSoC5/RTC_1_INT.c **** *
 215:.\Generated_Source\PSoC5/RTC_1_INT.c **** *******************************************************************************/
 216:.\Generated_Source\PSoC5/RTC_1_INT.c **** static void RTC_1_EveryYearHandler(void)
 217:.\Generated_Source\PSoC5/RTC_1_INT.c **** {
 182              		.loc 1 217 0
ARM GAS  C:\Users\glenn\AppData\Local\Temp\ccxzV7hg.s 			page 8


 183              		.cfi_startproc
 184              		@ args = 0, pretend = 0, frame = 0
 185              		@ frame_needed = 1, uses_anonymous_args = 0
 186              		@ link register save eliminated.
 187 0000 80B4     		push	{r7}
 188              		.cfi_def_cfa_offset 4
 189              		.cfi_offset 7, -4
 190 0002 00AF     		add	r7, sp, #0
 191              		.cfi_def_cfa_register 7
 218:.\Generated_Source\PSoC5/RTC_1_INT.c ****     /*  Place your every year handler code here. */
 219:.\Generated_Source\PSoC5/RTC_1_INT.c ****     /* `#START EVERY_YEAR_HANDLER_CODE` */
 220:.\Generated_Source\PSoC5/RTC_1_INT.c **** 
 221:.\Generated_Source\PSoC5/RTC_1_INT.c ****     /* `#END` */
 222:.\Generated_Source\PSoC5/RTC_1_INT.c **** 
 223:.\Generated_Source\PSoC5/RTC_1_INT.c ****     #ifdef RTC_1_EVERY_YEAR_HANDLER_CALLBACK
 224:.\Generated_Source\PSoC5/RTC_1_INT.c ****         RTC_1_EveryYearHandler_Callback();
 225:.\Generated_Source\PSoC5/RTC_1_INT.c ****     #endif /* RTC_1_EVERY_YEAR_HANDLER_CALLBACK */    
 226:.\Generated_Source\PSoC5/RTC_1_INT.c **** }
 192              		.loc 1 226 0
 193 0004 BD46     		mov	sp, r7
 194              		.cfi_def_cfa_register 13
 195              		@ sp needed
 196 0006 5DF8047B 		ldr	r7, [sp], #4
 197              		.cfi_restore 7
 198              		.cfi_def_cfa_offset 0
 199 000a 7047     		bx	lr
 200              		.cfi_endproc
 201              	.LFE6:
 202              		.size	RTC_1_EveryYearHandler, .-RTC_1_EveryYearHandler
 203              		.section	.text.RTC_1_ISR,"ax",%progbits
 204              		.align	2
 205              		.global	RTC_1_ISR
 206              		.thumb
 207              		.thumb_func
 208              		.type	RTC_1_ISR, %function
 209              	RTC_1_ISR:
 210              	.LFB7:
 227:.\Generated_Source\PSoC5/RTC_1_INT.c **** 
 228:.\Generated_Source\PSoC5/RTC_1_INT.c **** 
 229:.\Generated_Source\PSoC5/RTC_1_INT.c **** /*******************************************************************************
 230:.\Generated_Source\PSoC5/RTC_1_INT.c **** * Function Name: RTC_1_ISR
 231:.\Generated_Source\PSoC5/RTC_1_INT.c **** ********************************************************************************
 232:.\Generated_Source\PSoC5/RTC_1_INT.c **** *
 233:.\Generated_Source\PSoC5/RTC_1_INT.c **** * Summary:
 234:.\Generated_Source\PSoC5/RTC_1_INT.c **** *  This ISR is executed on 1PPS (one pulse per second) event.
 235:.\Generated_Source\PSoC5/RTC_1_INT.c **** *  Global interrupt must be enabled to invoke this ISR.
 236:.\Generated_Source\PSoC5/RTC_1_INT.c **** *  This interrupt trigs every second.
 237:.\Generated_Source\PSoC5/RTC_1_INT.c **** *
 238:.\Generated_Source\PSoC5/RTC_1_INT.c **** * Parameters:
 239:.\Generated_Source\PSoC5/RTC_1_INT.c **** *  None.
 240:.\Generated_Source\PSoC5/RTC_1_INT.c **** *
 241:.\Generated_Source\PSoC5/RTC_1_INT.c **** * Return:
 242:.\Generated_Source\PSoC5/RTC_1_INT.c **** *  None.
 243:.\Generated_Source\PSoC5/RTC_1_INT.c **** *
 244:.\Generated_Source\PSoC5/RTC_1_INT.c **** * Global variables:
 245:.\Generated_Source\PSoC5/RTC_1_INT.c **** * RTC_1_currentTimeDate, RTC_1_dstTimeDateStart,
 246:.\Generated_Source\PSoC5/RTC_1_INT.c **** *  RTC_1_dstTimeDateStop, RTC_1_dstTimeDateStart,
ARM GAS  C:\Users\glenn\AppData\Local\Temp\ccxzV7hg.s 			page 9


 247:.\Generated_Source\PSoC5/RTC_1_INT.c **** *  RTC_1_alarmCfgTimeDate, RTC_1_statusDateTime,
 248:.\Generated_Source\PSoC5/RTC_1_INT.c **** *  RTC_1_dstStartStatus, RTC_1_dstStartStatus,
 249:.\Generated_Source\PSoC5/RTC_1_INT.c **** *  RTC_1_dstStopStatus, RTC_1_alarmCurStatus: global
 250:.\Generated_Source\PSoC5/RTC_1_INT.c **** *  variables are used for the time/date, DST and alarm update procedure.
 251:.\Generated_Source\PSoC5/RTC_1_INT.c **** *
 252:.\Generated_Source\PSoC5/RTC_1_INT.c **** *  RTC_1_dstTimeDateStart and RTC_1_currentTimeDate:
 253:.\Generated_Source\PSoC5/RTC_1_INT.c **** *  are modified with the updated values.
 254:.\Generated_Source\PSoC5/RTC_1_INT.c **** *
 255:.\Generated_Source\PSoC5/RTC_1_INT.c **** *  RTC_1_statusDateTime, RTC_1_dstStartStatus,
 256:.\Generated_Source\PSoC5/RTC_1_INT.c **** *  RTC_1_dstStartStatus, RTC_1_dstStopStatus,
 257:.\Generated_Source\PSoC5/RTC_1_INT.c **** *  RTC_1_alarmCurStatus: global variables could be modified while
 258:.\Generated_Source\PSoC5/RTC_1_INT.c **** *  current time/date is updated.
 259:.\Generated_Source\PSoC5/RTC_1_INT.c **** *
 260:.\Generated_Source\PSoC5/RTC_1_INT.c **** * Side Effects:
 261:.\Generated_Source\PSoC5/RTC_1_INT.c **** *  Clears all interrupt status bits (react_int, limact_int, onepps_int, ctw_int,
 262:.\Generated_Source\PSoC5/RTC_1_INT.c **** *  and  ftw_int) in Power Manager Interrupt Status Register. If an interrupt
 263:.\Generated_Source\PSoC5/RTC_1_INT.c **** *  gets generated at the same time as a clear, the bit will remain set (which
 264:.\Generated_Source\PSoC5/RTC_1_INT.c **** *  causes another interrupt).
 265:.\Generated_Source\PSoC5/RTC_1_INT.c **** *
 266:.\Generated_Source\PSoC5/RTC_1_INT.c **** *******************************************************************************/
 267:.\Generated_Source\PSoC5/RTC_1_INT.c **** CY_ISR(RTC_1_ISR)
 268:.\Generated_Source\PSoC5/RTC_1_INT.c **** {
 211              		.loc 1 268 0
 212              		.cfi_startproc
 213              		@ args = 0, pretend = 0, frame = 8
 214              		@ frame_needed = 1, uses_anonymous_args = 0
 215 0000 80B5     		push	{r7, lr}
 216              		.cfi_def_cfa_offset 8
 217              		.cfi_offset 7, -8
 218              		.cfi_offset 14, -4
 219 0002 82B0     		sub	sp, sp, #8
 220              		.cfi_def_cfa_offset 16
 221 0004 00AF     		add	r7, sp, #0
 222              		.cfi_def_cfa_register 7
 269:.\Generated_Source\PSoC5/RTC_1_INT.c ****     uint8 RTC_1_tmp;
 270:.\Generated_Source\PSoC5/RTC_1_INT.c **** 
 271:.\Generated_Source\PSoC5/RTC_1_INT.c ****     #ifdef RTC_1_ISR_ENTRY_CALLBACK
 272:.\Generated_Source\PSoC5/RTC_1_INT.c ****         RTC_1_ISR_EntryCallback();
 273:.\Generated_Source\PSoC5/RTC_1_INT.c ****     #endif /* RTC_1_ISR_ENTRY_CALLBACK */
 274:.\Generated_Source\PSoC5/RTC_1_INT.c ****     
 275:.\Generated_Source\PSoC5/RTC_1_INT.c ****     /* Clear OPPS interrupt status flag */
 276:.\Generated_Source\PSoC5/RTC_1_INT.c ****     (void) CyPmReadStatus(CY_PM_ONEPPS_INT);
 223              		.loc 1 276 0
 224 0006 0420     		movs	r0, #4
 225 0008 FFF7FEFF 		bl	CyPmReadStatus
 277:.\Generated_Source\PSoC5/RTC_1_INT.c **** 
 278:.\Generated_Source\PSoC5/RTC_1_INT.c ****     /* Increment seconds counter */
 279:.\Generated_Source\PSoC5/RTC_1_INT.c ****     RTC_1_currentTimeDate.Sec++;
 226              		.loc 1 279 0
 227 000c 9F4B     		ldr	r3, .L101
 228 000e 1B78     		ldrb	r3, [r3]
 229 0010 DBB2     		uxtb	r3, r3
 230 0012 0133     		adds	r3, r3, #1
 231 0014 DAB2     		uxtb	r2, r3
 232 0016 9D4B     		ldr	r3, .L101
 233 0018 1A70     		strb	r2, [r3]
 280:.\Generated_Source\PSoC5/RTC_1_INT.c **** 
ARM GAS  C:\Users\glenn\AppData\Local\Temp\ccxzV7hg.s 			page 10


 281:.\Generated_Source\PSoC5/RTC_1_INT.c ****     /* Check if minute elapsed */
 282:.\Generated_Source\PSoC5/RTC_1_INT.c ****     if(RTC_1_currentTimeDate.Sec > RTC_1_MINUTE_ELAPSED)
 234              		.loc 1 282 0
 235 001a 9C4B     		ldr	r3, .L101
 236 001c 1B78     		ldrb	r3, [r3]
 237 001e DBB2     		uxtb	r3, r3
 238 0020 3B2B     		cmp	r3, #59
 239 0022 40F2B486 		bls	.L9
 283:.\Generated_Source\PSoC5/RTC_1_INT.c ****     {
 284:.\Generated_Source\PSoC5/RTC_1_INT.c ****         /* Inc Min */
 285:.\Generated_Source\PSoC5/RTC_1_INT.c ****         RTC_1_currentTimeDate.Min++;
 240              		.loc 1 285 0
 241 0026 994B     		ldr	r3, .L101
 242 0028 5B78     		ldrb	r3, [r3, #1]
 243 002a DBB2     		uxtb	r3, r3
 244 002c 0133     		adds	r3, r3, #1
 245 002e DAB2     		uxtb	r2, r3
 246 0030 964B     		ldr	r3, .L101
 247 0032 5A70     		strb	r2, [r3, #1]
 286:.\Generated_Source\PSoC5/RTC_1_INT.c **** 
 287:.\Generated_Source\PSoC5/RTC_1_INT.c ****         /* Clear Sec */
 288:.\Generated_Source\PSoC5/RTC_1_INT.c ****         RTC_1_currentTimeDate.Sec = 0u;
 248              		.loc 1 288 0
 249 0034 954B     		ldr	r3, .L101
 250 0036 0022     		movs	r2, #0
 251 0038 1A70     		strb	r2, [r3]
 289:.\Generated_Source\PSoC5/RTC_1_INT.c **** 
 290:.\Generated_Source\PSoC5/RTC_1_INT.c ****         if(RTC_1_currentTimeDate.Min > RTC_1_HOUR_ELAPSED)
 252              		.loc 1 290 0
 253 003a 944B     		ldr	r3, .L101
 254 003c 5B78     		ldrb	r3, [r3, #1]
 255 003e DBB2     		uxtb	r3, r3
 256 0040 3B2B     		cmp	r3, #59
 257 0042 40F25186 		bls	.L10
 291:.\Generated_Source\PSoC5/RTC_1_INT.c ****         {
 292:.\Generated_Source\PSoC5/RTC_1_INT.c ****             /* Inc HOUR */
 293:.\Generated_Source\PSoC5/RTC_1_INT.c ****             RTC_1_currentTimeDate.Hour++;
 258              		.loc 1 293 0
 259 0046 914B     		ldr	r3, .L101
 260 0048 9B78     		ldrb	r3, [r3, #2]
 261 004a DBB2     		uxtb	r3, r3
 262 004c 0133     		adds	r3, r3, #1
 263 004e DAB2     		uxtb	r2, r3
 264 0050 8E4B     		ldr	r3, .L101
 265 0052 9A70     		strb	r2, [r3, #2]
 294:.\Generated_Source\PSoC5/RTC_1_INT.c **** 
 295:.\Generated_Source\PSoC5/RTC_1_INT.c ****             /* Clear Min */
 296:.\Generated_Source\PSoC5/RTC_1_INT.c ****             RTC_1_currentTimeDate.Min = 0u;
 266              		.loc 1 296 0
 267 0054 8D4B     		ldr	r3, .L101
 268 0056 0022     		movs	r2, #0
 269 0058 5A70     		strb	r2, [r3, #1]
 297:.\Generated_Source\PSoC5/RTC_1_INT.c **** 
 298:.\Generated_Source\PSoC5/RTC_1_INT.c ****             /* Day roll over */
 299:.\Generated_Source\PSoC5/RTC_1_INT.c ****             if(RTC_1_currentTimeDate.Hour > RTC_1_DAY_ELAPSED)
 270              		.loc 1 299 0
 271 005a 8C4B     		ldr	r3, .L101
ARM GAS  C:\Users\glenn\AppData\Local\Temp\ccxzV7hg.s 			page 11


 272 005c 9B78     		ldrb	r3, [r3, #2]
 273 005e DBB2     		uxtb	r3, r3
 274 0060 172B     		cmp	r3, #23
 275 0062 40F24382 		bls	.L11
 300:.\Generated_Source\PSoC5/RTC_1_INT.c ****             {
 301:.\Generated_Source\PSoC5/RTC_1_INT.c ****                 /* Inc DayOfMonth */
 302:.\Generated_Source\PSoC5/RTC_1_INT.c ****                 RTC_1_currentTimeDate.DayOfMonth++;
 276              		.loc 1 302 0
 277 0066 894B     		ldr	r3, .L101
 278 0068 1B79     		ldrb	r3, [r3, #4]
 279 006a DBB2     		uxtb	r3, r3
 280 006c 0133     		adds	r3, r3, #1
 281 006e DAB2     		uxtb	r2, r3
 282 0070 864B     		ldr	r3, .L101
 283 0072 1A71     		strb	r2, [r3, #4]
 303:.\Generated_Source\PSoC5/RTC_1_INT.c **** 
 304:.\Generated_Source\PSoC5/RTC_1_INT.c ****                 /* Clear Hour */
 305:.\Generated_Source\PSoC5/RTC_1_INT.c ****                 RTC_1_currentTimeDate.Hour = 0u;
 284              		.loc 1 305 0
 285 0074 854B     		ldr	r3, .L101
 286 0076 0022     		movs	r2, #0
 287 0078 9A70     		strb	r2, [r3, #2]
 306:.\Generated_Source\PSoC5/RTC_1_INT.c **** 
 307:.\Generated_Source\PSoC5/RTC_1_INT.c ****                 /* Inc DayOfYear */
 308:.\Generated_Source\PSoC5/RTC_1_INT.c ****                 RTC_1_currentTimeDate.DayOfYear++;
 288              		.loc 1 308 0
 289 007a 844B     		ldr	r3, .L101
 290 007c DB88     		ldrh	r3, [r3, #6]	@ movhi
 291 007e 9BB2     		uxth	r3, r3
 292 0080 0133     		adds	r3, r3, #1
 293 0082 9AB2     		uxth	r2, r3
 294 0084 814B     		ldr	r3, .L101
 295 0086 DA80     		strh	r2, [r3, #6]	@ movhi
 309:.\Generated_Source\PSoC5/RTC_1_INT.c **** 
 310:.\Generated_Source\PSoC5/RTC_1_INT.c ****                 /* Inc DayOfWeek */
 311:.\Generated_Source\PSoC5/RTC_1_INT.c ****                 RTC_1_currentTimeDate.DayOfWeek++;
 296              		.loc 1 311 0
 297 0088 804B     		ldr	r3, .L101
 298 008a DB78     		ldrb	r3, [r3, #3]
 299 008c DBB2     		uxtb	r3, r3
 300 008e 0133     		adds	r3, r3, #1
 301 0090 DAB2     		uxtb	r2, r3
 302 0092 7E4B     		ldr	r3, .L101
 303 0094 DA70     		strb	r2, [r3, #3]
 312:.\Generated_Source\PSoC5/RTC_1_INT.c **** 
 313:.\Generated_Source\PSoC5/RTC_1_INT.c ****                 /* Check DayOfWeek */
 314:.\Generated_Source\PSoC5/RTC_1_INT.c ****                 if(RTC_1_currentTimeDate.DayOfWeek > RTC_1_WEEK_ELAPSED)
 304              		.loc 1 314 0
 305 0096 7D4B     		ldr	r3, .L101
 306 0098 DB78     		ldrb	r3, [r3, #3]
 307 009a DBB2     		uxtb	r3, r3
 308 009c 072B     		cmp	r3, #7
 309 009e 02D9     		bls	.L12
 315:.\Generated_Source\PSoC5/RTC_1_INT.c ****                 {
 316:.\Generated_Source\PSoC5/RTC_1_INT.c ****                     /* start new week */
 317:.\Generated_Source\PSoC5/RTC_1_INT.c ****                     RTC_1_currentTimeDate.DayOfWeek = 1u;
 310              		.loc 1 317 0
ARM GAS  C:\Users\glenn\AppData\Local\Temp\ccxzV7hg.s 			page 12


 311 00a0 7A4B     		ldr	r3, .L101
 312 00a2 0122     		movs	r2, #1
 313 00a4 DA70     		strb	r2, [r3, #3]
 314              	.L12:
 318:.\Generated_Source\PSoC5/RTC_1_INT.c ****                 }
 319:.\Generated_Source\PSoC5/RTC_1_INT.c **** 
 320:.\Generated_Source\PSoC5/RTC_1_INT.c ****                 /* Day of month roll over.
 321:.\Generated_Source\PSoC5/RTC_1_INT.c ****                 * Check if day of month greater than 29 in February of leap year or
 322:.\Generated_Source\PSoC5/RTC_1_INT.c ****                 * if day of month greater than 28 NOT in February of NON leap year or
 323:.\Generated_Source\PSoC5/RTC_1_INT.c ****                 * if day of month greater than it should be in every month in non leap year
 324:.\Generated_Source\PSoC5/RTC_1_INT.c ****                 */
 325:.\Generated_Source\PSoC5/RTC_1_INT.c ****                 if(((0u != (RTC_1_statusDateTime & RTC_1_STATUS_LY)) &&
 315              		.loc 1 325 0
 316 00a6 7A4B     		ldr	r3, .L101+4
 317 00a8 1B78     		ldrb	r3, [r3]
 318 00aa DBB2     		uxtb	r3, r3
 319 00ac 03F00203 		and	r3, r3, #2
 320 00b0 002B     		cmp	r3, #0
 321 00b2 11D0     		beq	.L13
 326:.\Generated_Source\PSoC5/RTC_1_INT.c ****                     (RTC_1_currentTimeDate.Month == RTC_1_FEBRUARY)  &&
 322              		.loc 1 326 0 discriminator 1
 323 00b4 754B     		ldr	r3, .L101
 324 00b6 1B7A     		ldrb	r3, [r3, #8]
 325 00b8 DBB2     		uxtb	r3, r3
 325:.\Generated_Source\PSoC5/RTC_1_INT.c ****                     (RTC_1_currentTimeDate.Month == RTC_1_FEBRUARY)  &&
 326              		.loc 1 325 0 discriminator 1
 327 00ba 022B     		cmp	r3, #2
 328 00bc 0CD1     		bne	.L13
 327:.\Generated_Source\PSoC5/RTC_1_INT.c ****                     (RTC_1_currentTimeDate.DayOfMonth >
 329              		.loc 1 327 0
 330 00be 734B     		ldr	r3, .L101
 331 00c0 1B79     		ldrb	r3, [r3, #4]
 332 00c2 DBB2     		uxtb	r3, r3
 333 00c4 1946     		mov	r1, r3
 328:.\Generated_Source\PSoC5/RTC_1_INT.c ****                              (RTC_1_daysInMonths[RTC_1_currentTimeDate.Month - 1u] + 1u))) ||
 334              		.loc 1 328 0
 335 00c6 714B     		ldr	r3, .L101
 336 00c8 1B7A     		ldrb	r3, [r3, #8]
 337 00ca DBB2     		uxtb	r3, r3
 338 00cc 013B     		subs	r3, r3, #1
 339 00ce 714A     		ldr	r2, .L101+8
 340 00d0 D35C     		ldrb	r3, [r2, r3]	@ zero_extendqisi2
 341 00d2 0133     		adds	r3, r3, #1
 326:.\Generated_Source\PSoC5/RTC_1_INT.c ****                     (RTC_1_currentTimeDate.DayOfMonth >
 342              		.loc 1 326 0
 343 00d4 9942     		cmp	r1, r3
 344 00d6 2AD8     		bhi	.L14
 345              	.L13:
 329:.\Generated_Source\PSoC5/RTC_1_INT.c ****                    ((0u != (RTC_1_statusDateTime & RTC_1_STATUS_LY))  &&
 346              		.loc 1 329 0
 347 00d8 6D4B     		ldr	r3, .L101+4
 348 00da 1B78     		ldrb	r3, [r3]
 349 00dc DBB2     		uxtb	r3, r3
 350 00de 03F00203 		and	r3, r3, #2
 328:.\Generated_Source\PSoC5/RTC_1_INT.c ****                              (RTC_1_daysInMonths[RTC_1_currentTimeDate.Month - 1u] + 1u))) ||
 351              		.loc 1 328 0
 352 00e2 002B     		cmp	r3, #0
ARM GAS  C:\Users\glenn\AppData\Local\Temp\ccxzV7hg.s 			page 13


 353 00e4 0FD0     		beq	.L15
 330:.\Generated_Source\PSoC5/RTC_1_INT.c ****                     (RTC_1_currentTimeDate.Month != RTC_1_FEBRUARY) &&
 354              		.loc 1 330 0
 355 00e6 694B     		ldr	r3, .L101
 356 00e8 1B7A     		ldrb	r3, [r3, #8]
 357 00ea DBB2     		uxtb	r3, r3
 329:.\Generated_Source\PSoC5/RTC_1_INT.c ****                    ((0u != (RTC_1_statusDateTime & RTC_1_STATUS_LY))  &&
 358              		.loc 1 329 0
 359 00ec 022B     		cmp	r3, #2
 360 00ee 0AD0     		beq	.L15
 331:.\Generated_Source\PSoC5/RTC_1_INT.c ****                     (RTC_1_currentTimeDate.DayOfMonth >
 361              		.loc 1 331 0
 362 00f0 664B     		ldr	r3, .L101
 363 00f2 1B79     		ldrb	r3, [r3, #4]
 364 00f4 DAB2     		uxtb	r2, r3
 332:.\Generated_Source\PSoC5/RTC_1_INT.c ****                                     RTC_1_daysInMonths[RTC_1_currentTimeDate.Month - 1u])) ||
 365              		.loc 1 332 0
 366 00f6 654B     		ldr	r3, .L101
 367 00f8 1B7A     		ldrb	r3, [r3, #8]
 368 00fa DBB2     		uxtb	r3, r3
 369 00fc 013B     		subs	r3, r3, #1
 370 00fe 6549     		ldr	r1, .L101+8
 371 0100 CB5C     		ldrb	r3, [r1, r3]	@ zero_extendqisi2
 330:.\Generated_Source\PSoC5/RTC_1_INT.c ****                     (RTC_1_currentTimeDate.Month != RTC_1_FEBRUARY) &&
 372              		.loc 1 330 0
 373 0102 9A42     		cmp	r2, r3
 374 0104 13D8     		bhi	.L14
 375              	.L15:
 333:.\Generated_Source\PSoC5/RTC_1_INT.c ****                    ((0u == (RTC_1_statusDateTime & RTC_1_STATUS_LY))  &&
 376              		.loc 1 333 0
 377 0106 624B     		ldr	r3, .L101+4
 378 0108 1B78     		ldrb	r3, [r3]
 379 010a DBB2     		uxtb	r3, r3
 380 010c 03F00203 		and	r3, r3, #2
 332:.\Generated_Source\PSoC5/RTC_1_INT.c ****                                     RTC_1_daysInMonths[RTC_1_currentTimeDate.Month - 1u])) ||
 381              		.loc 1 332 0
 382 0110 002B     		cmp	r3, #0
 383 0112 40F02881 		bne	.L16
 334:.\Generated_Source\PSoC5/RTC_1_INT.c ****                     (RTC_1_currentTimeDate.DayOfMonth >
 384              		.loc 1 334 0
 385 0116 5D4B     		ldr	r3, .L101
 386 0118 1B79     		ldrb	r3, [r3, #4]
 387 011a DAB2     		uxtb	r2, r3
 335:.\Generated_Source\PSoC5/RTC_1_INT.c ****                                     RTC_1_daysInMonths[RTC_1_currentTimeDate.Month - 1u])))
 388              		.loc 1 335 0
 389 011c 5B4B     		ldr	r3, .L101
 390 011e 1B7A     		ldrb	r3, [r3, #8]
 391 0120 DBB2     		uxtb	r3, r3
 392 0122 013B     		subs	r3, r3, #1
 393 0124 5B49     		ldr	r1, .L101+8
 394 0126 CB5C     		ldrb	r3, [r1, r3]	@ zero_extendqisi2
 333:.\Generated_Source\PSoC5/RTC_1_INT.c ****                    ((0u == (RTC_1_statusDateTime & RTC_1_STATUS_LY))  &&
 395              		.loc 1 333 0
 396 0128 9A42     		cmp	r2, r3
 397 012a 40F21C81 		bls	.L16
 398              	.L14:
 336:.\Generated_Source\PSoC5/RTC_1_INT.c ****                 {
ARM GAS  C:\Users\glenn\AppData\Local\Temp\ccxzV7hg.s 			page 14


 337:.\Generated_Source\PSoC5/RTC_1_INT.c ****                     /* Inc Month */
 338:.\Generated_Source\PSoC5/RTC_1_INT.c ****                     RTC_1_currentTimeDate.Month++;
 399              		.loc 1 338 0
 400 012e 574B     		ldr	r3, .L101
 401 0130 1B7A     		ldrb	r3, [r3, #8]
 402 0132 DBB2     		uxtb	r3, r3
 403 0134 0133     		adds	r3, r3, #1
 404 0136 DAB2     		uxtb	r2, r3
 405 0138 544B     		ldr	r3, .L101
 406 013a 1A72     		strb	r2, [r3, #8]
 339:.\Generated_Source\PSoC5/RTC_1_INT.c **** 
 340:.\Generated_Source\PSoC5/RTC_1_INT.c ****                     /* Set first day of month */
 341:.\Generated_Source\PSoC5/RTC_1_INT.c ****                     RTC_1_currentTimeDate.DayOfMonth = 1u;
 407              		.loc 1 341 0
 408 013c 534B     		ldr	r3, .L101
 409 013e 0122     		movs	r2, #1
 410 0140 1A71     		strb	r2, [r3, #4]
 342:.\Generated_Source\PSoC5/RTC_1_INT.c **** 
 343:.\Generated_Source\PSoC5/RTC_1_INT.c ****                     /* Year roll over */
 344:.\Generated_Source\PSoC5/RTC_1_INT.c ****                     if(RTC_1_currentTimeDate.Month > RTC_1_YEAR_ELAPSED)
 411              		.loc 1 344 0
 412 0142 524B     		ldr	r3, .L101
 413 0144 1B7A     		ldrb	r3, [r3, #8]
 414 0146 DBB2     		uxtb	r3, r3
 415 0148 0C2B     		cmp	r3, #12
 416 014a 40F28680 		bls	.L17
 345:.\Generated_Source\PSoC5/RTC_1_INT.c ****                     {
 346:.\Generated_Source\PSoC5/RTC_1_INT.c ****                         /* Inc Year */
 347:.\Generated_Source\PSoC5/RTC_1_INT.c ****                         RTC_1_currentTimeDate.Year++;
 417              		.loc 1 347 0
 418 014e 4F4B     		ldr	r3, .L101
 419 0150 5B89     		ldrh	r3, [r3, #10]	@ movhi
 420 0152 9BB2     		uxth	r3, r3
 421 0154 0133     		adds	r3, r3, #1
 422 0156 9AB2     		uxth	r2, r3
 423 0158 4C4B     		ldr	r3, .L101
 424 015a 5A81     		strh	r2, [r3, #10]	@ movhi
 348:.\Generated_Source\PSoC5/RTC_1_INT.c **** 
 349:.\Generated_Source\PSoC5/RTC_1_INT.c ****                         /* Set first month of year */
 350:.\Generated_Source\PSoC5/RTC_1_INT.c ****                         RTC_1_currentTimeDate.Month = 1u;
 425              		.loc 1 350 0
 426 015c 4B4B     		ldr	r3, .L101
 427 015e 0122     		movs	r2, #1
 428 0160 1A72     		strb	r2, [r3, #8]
 351:.\Generated_Source\PSoC5/RTC_1_INT.c **** 
 352:.\Generated_Source\PSoC5/RTC_1_INT.c ****                         /* Set first day of year */
 353:.\Generated_Source\PSoC5/RTC_1_INT.c ****                         RTC_1_currentTimeDate.DayOfYear = 1u;
 429              		.loc 1 353 0
 430 0162 4A4B     		ldr	r3, .L101
 431 0164 0122     		movs	r2, #1
 432 0166 DA80     		strh	r2, [r3, #6]	@ movhi
 354:.\Generated_Source\PSoC5/RTC_1_INT.c **** 
 355:.\Generated_Source\PSoC5/RTC_1_INT.c ****                         /* Is this year leap */
 356:.\Generated_Source\PSoC5/RTC_1_INT.c ****                         if(1u == RTC_1_LEAP_YEAR(RTC_1_currentTimeDate.Year))
 433              		.loc 1 356 0
 434 0168 484B     		ldr	r3, .L101
 435 016a 5B89     		ldrh	r3, [r3, #10]	@ movhi
ARM GAS  C:\Users\glenn\AppData\Local\Temp\ccxzV7hg.s 			page 15


 436 016c 9BB2     		uxth	r3, r3
 437 016e 4A4A     		ldr	r2, .L101+12
 438 0170 A2FB0312 		umull	r1, r2, r2, r3
 439 0174 D209     		lsrs	r2, r2, #7
 440 0176 4FF4C871 		mov	r1, #400
 441 017a 01FB02F2 		mul	r2, r1, r2
 442 017e 9B1A     		subs	r3, r3, r2
 443 0180 9BB2     		uxth	r3, r3
 444 0182 002B     		cmp	r3, #0
 445 0184 15D0     		beq	.L18
 446              		.loc 1 356 0 is_stmt 0 discriminator 1
 447 0186 414B     		ldr	r3, .L101
 448 0188 5B89     		ldrh	r3, [r3, #10]	@ movhi
 449 018a 9BB2     		uxth	r3, r3
 450 018c 03F00303 		and	r3, r3, #3
 451 0190 9BB2     		uxth	r3, r3
 452 0192 002B     		cmp	r3, #0
 453 0194 16D1     		bne	.L19
 454              		.loc 1 356 0 discriminator 2
 455 0196 3D4B     		ldr	r3, .L101
 456 0198 5B89     		ldrh	r3, [r3, #10]	@ movhi
 457 019a 9BB2     		uxth	r3, r3
 458 019c 3E4A     		ldr	r2, .L101+12
 459 019e A2FB0312 		umull	r1, r2, r2, r3
 460 01a2 5209     		lsrs	r2, r2, #5
 461 01a4 6421     		movs	r1, #100
 462 01a6 01FB02F2 		mul	r2, r1, r2
 463 01aa 9B1A     		subs	r3, r3, r2
 464 01ac 9BB2     		uxth	r3, r3
 465 01ae 002B     		cmp	r3, #0
 466 01b0 08D0     		beq	.L19
 467              	.L18:
 357:.\Generated_Source\PSoC5/RTC_1_INT.c ****                         {
 358:.\Generated_Source\PSoC5/RTC_1_INT.c ****                             /* Set leap year flag */
 359:.\Generated_Source\PSoC5/RTC_1_INT.c ****                             RTC_1_statusDateTime |= RTC_1_STATUS_LY;
 468              		.loc 1 359 0 is_stmt 1
 469 01b2 374B     		ldr	r3, .L101+4
 470 01b4 1B78     		ldrb	r3, [r3]
 471 01b6 DBB2     		uxtb	r3, r3
 472 01b8 43F00203 		orr	r3, r3, #2
 473 01bc DAB2     		uxtb	r2, r3
 474 01be 344B     		ldr	r3, .L101+4
 475 01c0 1A70     		strb	r2, [r3]
 476 01c2 07E0     		b	.L20
 477              	.L19:
 360:.\Generated_Source\PSoC5/RTC_1_INT.c ****                         }
 361:.\Generated_Source\PSoC5/RTC_1_INT.c ****                         else    /* not leap year */
 362:.\Generated_Source\PSoC5/RTC_1_INT.c ****                         {
 363:.\Generated_Source\PSoC5/RTC_1_INT.c ****                             /* Clear leap year */
 364:.\Generated_Source\PSoC5/RTC_1_INT.c ****                             RTC_1_statusDateTime &= (uint8)(~RTC_1_STATUS_LY);
 478              		.loc 1 364 0
 479 01c4 324B     		ldr	r3, .L101+4
 480 01c6 1B78     		ldrb	r3, [r3]
 481 01c8 DBB2     		uxtb	r3, r3
 482 01ca 23F00203 		bic	r3, r3, #2
 483 01ce DAB2     		uxtb	r2, r3
 484 01d0 2F4B     		ldr	r3, .L101+4
ARM GAS  C:\Users\glenn\AppData\Local\Temp\ccxzV7hg.s 			page 16


 485 01d2 1A70     		strb	r2, [r3]
 486              	.L20:
 365:.\Generated_Source\PSoC5/RTC_1_INT.c ****                         }
 366:.\Generated_Source\PSoC5/RTC_1_INT.c **** 
 367:.\Generated_Source\PSoC5/RTC_1_INT.c ****                         /* Alarm YEAR */
 368:.\Generated_Source\PSoC5/RTC_1_INT.c ****                         if(0u != RTC_1_IS_BIT_SET(RTC_1_alarmCfgMask,
 487              		.loc 1 368 0
 488 01d4 314B     		ldr	r3, .L101+16
 489 01d6 1B78     		ldrb	r3, [r3]
 490 01d8 DBB2     		uxtb	r3, r3
 491 01da DBB2     		uxtb	r3, r3
 492 01dc 5BB2     		sxtb	r3, r3
 493 01de 002B     		cmp	r3, #0
 494 01e0 18DA     		bge	.L21
 369:.\Generated_Source\PSoC5/RTC_1_INT.c ****                                                              RTC_1_ALARM_YEAR_MASK))
 370:.\Generated_Source\PSoC5/RTC_1_INT.c ****                         {
 371:.\Generated_Source\PSoC5/RTC_1_INT.c ****                             /* Years match */
 372:.\Generated_Source\PSoC5/RTC_1_INT.c ****                             if(RTC_1_alarmCfgTimeDate.Year == RTC_1_currentTimeDate.Year)
 495              		.loc 1 372 0
 496 01e2 2F4B     		ldr	r3, .L101+20
 497 01e4 5B89     		ldrh	r3, [r3, #10]	@ movhi
 498 01e6 9AB2     		uxth	r2, r3
 499 01e8 284B     		ldr	r3, .L101
 500 01ea 5B89     		ldrh	r3, [r3, #10]	@ movhi
 501 01ec 9BB2     		uxth	r3, r3
 502 01ee 9A42     		cmp	r2, r3
 503 01f0 08D1     		bne	.L22
 373:.\Generated_Source\PSoC5/RTC_1_INT.c ****                             {
 374:.\Generated_Source\PSoC5/RTC_1_INT.c ****                                 /* Rise year alarm */
 375:.\Generated_Source\PSoC5/RTC_1_INT.c ****                                 RTC_1_alarmCurStatus |= RTC_1_ALARM_YEAR_MASK;
 504              		.loc 1 375 0
 505 01f2 2C4B     		ldr	r3, .L101+24
 506 01f4 1B78     		ldrb	r3, [r3]
 507 01f6 DBB2     		uxtb	r3, r3
 508 01f8 63F07F03 		orn	r3, r3, #127
 509 01fc DAB2     		uxtb	r2, r3
 510 01fe 294B     		ldr	r3, .L101+24
 511 0200 1A70     		strb	r2, [r3]
 512 0202 07E0     		b	.L21
 513              	.L22:
 376:.\Generated_Source\PSoC5/RTC_1_INT.c ****                             }
 377:.\Generated_Source\PSoC5/RTC_1_INT.c ****                             else    /* Years do not match */
 378:.\Generated_Source\PSoC5/RTC_1_INT.c ****                             {
 379:.\Generated_Source\PSoC5/RTC_1_INT.c ****                                 /* Clear year alarm */
 380:.\Generated_Source\PSoC5/RTC_1_INT.c ****                                 RTC_1_alarmCurStatus &= (uint8)(~RTC_1_ALARM_YEAR_MASK);
 514              		.loc 1 380 0
 515 0204 274B     		ldr	r3, .L101+24
 516 0206 1B78     		ldrb	r3, [r3]
 517 0208 DBB2     		uxtb	r3, r3
 518 020a 03F07F03 		and	r3, r3, #127
 519 020e DAB2     		uxtb	r2, r3
 520 0210 244B     		ldr	r3, .L101+24
 521 0212 1A70     		strb	r2, [r3]
 522              	.L21:
 381:.\Generated_Source\PSoC5/RTC_1_INT.c ****                             }
 382:.\Generated_Source\PSoC5/RTC_1_INT.c ****                         } /* do not alarm year */
 383:.\Generated_Source\PSoC5/RTC_1_INT.c **** 
ARM GAS  C:\Users\glenn\AppData\Local\Temp\ccxzV7hg.s 			page 17


 384:.\Generated_Source\PSoC5/RTC_1_INT.c ****                         /* Set Alarm flag event */
 385:.\Generated_Source\PSoC5/RTC_1_INT.c ****                         RTC_1_tmp = RTC_1_alarmCfgMask;
 523              		.loc 1 385 0
 524 0214 214B     		ldr	r3, .L101+16
 525 0216 1B78     		ldrb	r3, [r3]
 526 0218 FB71     		strb	r3, [r7, #7]
 386:.\Generated_Source\PSoC5/RTC_1_INT.c ****                         RTC_1_SET_ALARM(RTC_1_tmp,
 527              		.loc 1 386 0
 528 021a FB79     		ldrb	r3, [r7, #7]	@ zero_extendqisi2
 529 021c 002B     		cmp	r3, #0
 530 021e 13D0     		beq	.L23
 531              		.loc 1 386 0 is_stmt 0 discriminator 1
 532 0220 204B     		ldr	r3, .L101+24
 533 0222 1B78     		ldrb	r3, [r3]
 534 0224 DAB2     		uxtb	r2, r3
 535 0226 FB79     		ldrb	r3, [r7, #7]
 536 0228 1340     		ands	r3, r3, r2
 537 022a DBB2     		uxtb	r3, r3
 538 022c FA79     		ldrb	r2, [r7, #7]	@ zero_extendqisi2
 539 022e 9A42     		cmp	r2, r3
 540 0230 0AD1     		bne	.L23
 541              		.loc 1 386 0 discriminator 2
 542 0232 174B     		ldr	r3, .L101+4
 543 0234 1B78     		ldrb	r3, [r3]
 544 0236 DBB2     		uxtb	r3, r3
 545 0238 43F00803 		orr	r3, r3, #8
 546 023c DAB2     		uxtb	r2, r3
 547 023e 144B     		ldr	r3, .L101+4
 548 0240 1A70     		strb	r2, [r3]
 549 0242 184B     		ldr	r3, .L101+24
 550 0244 0022     		movs	r2, #0
 551 0246 1A70     		strb	r2, [r3]
 552              	.L23:
 387:.\Generated_Source\PSoC5/RTC_1_INT.c ****                                                    RTC_1_alarmCurStatus,
 388:.\Generated_Source\PSoC5/RTC_1_INT.c ****                                                    RTC_1_statusDateTime);
 389:.\Generated_Source\PSoC5/RTC_1_INT.c **** 
 390:.\Generated_Source\PSoC5/RTC_1_INT.c ****                         /* Every Year */
 391:.\Generated_Source\PSoC5/RTC_1_INT.c ****                         if(0u != RTC_1_IS_BIT_SET(RTC_1_intervalCfgMask,
 553              		.loc 1 391 0 is_stmt 1
 554 0248 174B     		ldr	r3, .L101+28
 555 024a 1B78     		ldrb	r3, [r3]
 556 024c DBB2     		uxtb	r3, r3
 557 024e 03F04003 		and	r3, r3, #64
 558 0252 002B     		cmp	r3, #0
 559 0254 01D0     		beq	.L17
 392:.\Generated_Source\PSoC5/RTC_1_INT.c ****                                                              RTC_1_INTERVAL_YEAR_MASK))
 393:.\Generated_Source\PSoC5/RTC_1_INT.c ****                         {
 394:.\Generated_Source\PSoC5/RTC_1_INT.c ****                             RTC_1_EveryYearHandler();
 560              		.loc 1 394 0
 561 0256 FFF7FEFF 		bl	RTC_1_EveryYearHandler
 562              	.L17:
 395:.\Generated_Source\PSoC5/RTC_1_INT.c ****                         }
 396:.\Generated_Source\PSoC5/RTC_1_INT.c **** 
 397:.\Generated_Source\PSoC5/RTC_1_INT.c ****                     } /* Month > 12 */
 398:.\Generated_Source\PSoC5/RTC_1_INT.c **** 
 399:.\Generated_Source\PSoC5/RTC_1_INT.c ****                     /* Alarm MONTH */
 400:.\Generated_Source\PSoC5/RTC_1_INT.c ****                     if(0u != RTC_1_IS_BIT_SET(RTC_1_alarmCfgMask,
ARM GAS  C:\Users\glenn\AppData\Local\Temp\ccxzV7hg.s 			page 18


 563              		.loc 1 400 0
 564 025a 104B     		ldr	r3, .L101+16
 565 025c 1B78     		ldrb	r3, [r3]
 566 025e DBB2     		uxtb	r3, r3
 567 0260 03F04003 		and	r3, r3, #64
 568 0264 002B     		cmp	r3, #0
 569 0266 29D0     		beq	.L24
 401:.\Generated_Source\PSoC5/RTC_1_INT.c ****                                                          RTC_1_ALARM_MONTH_MASK))
 402:.\Generated_Source\PSoC5/RTC_1_INT.c ****                     {
 403:.\Generated_Source\PSoC5/RTC_1_INT.c ****                         if(RTC_1_alarmCfgTimeDate.Month == RTC_1_currentTimeDate.Month)
 570              		.loc 1 403 0
 571 0268 0D4B     		ldr	r3, .L101+20
 572 026a 1B7A     		ldrb	r3, [r3, #8]
 573 026c DAB2     		uxtb	r2, r3
 574 026e 074B     		ldr	r3, .L101
 575 0270 1B7A     		ldrb	r3, [r3, #8]
 576 0272 DBB2     		uxtb	r3, r3
 577 0274 9A42     		cmp	r2, r3
 578 0276 19D1     		bne	.L25
 404:.\Generated_Source\PSoC5/RTC_1_INT.c ****                         {
 405:.\Generated_Source\PSoC5/RTC_1_INT.c ****                             /* Set month alarm */
 406:.\Generated_Source\PSoC5/RTC_1_INT.c ****                             RTC_1_alarmCurStatus |= RTC_1_ALARM_MONTH_MASK;
 579              		.loc 1 406 0
 580 0278 0A4B     		ldr	r3, .L101+24
 581 027a 1B78     		ldrb	r3, [r3]
 582 027c DBB2     		uxtb	r3, r3
 583 027e 43F04003 		orr	r3, r3, #64
 584 0282 DAB2     		uxtb	r2, r3
 585 0284 074B     		ldr	r3, .L101+24
 586 0286 1A70     		strb	r2, [r3]
 587 0288 18E0     		b	.L24
 588              	.L102:
 589 028a 00BF     		.align	2
 590              	.L101:
 591 028c 00000000 		.word	RTC_1_currentTimeDate
 592 0290 00000000 		.word	RTC_1_statusDateTime
 593 0294 00000000 		.word	RTC_1_daysInMonths
 594 0298 1F85EB51 		.word	1374389535
 595 029c 00000000 		.word	RTC_1_alarmCfgMask
 596 02a0 00000000 		.word	RTC_1_alarmCfgTimeDate
 597 02a4 00000000 		.word	RTC_1_alarmCurStatus
 598 02a8 00000000 		.word	RTC_1_intervalCfgMask
 599              	.L25:
 407:.\Generated_Source\PSoC5/RTC_1_INT.c ****                         }
 408:.\Generated_Source\PSoC5/RTC_1_INT.c ****                         else
 409:.\Generated_Source\PSoC5/RTC_1_INT.c ****                         {
 410:.\Generated_Source\PSoC5/RTC_1_INT.c ****                             /* Clear month alarm */
 411:.\Generated_Source\PSoC5/RTC_1_INT.c ****                             RTC_1_alarmCurStatus &= (uint8)(~RTC_1_ALARM_MONTH_MASK);
 600              		.loc 1 411 0
 601 02ac A34B     		ldr	r3, .L103
 602 02ae 1B78     		ldrb	r3, [r3]
 603 02b0 DBB2     		uxtb	r3, r3
 604 02b2 23F04003 		bic	r3, r3, #64
 605 02b6 DAB2     		uxtb	r2, r3
 606 02b8 A04B     		ldr	r3, .L103
 607 02ba 1A70     		strb	r2, [r3]
 608              	.L24:
ARM GAS  C:\Users\glenn\AppData\Local\Temp\ccxzV7hg.s 			page 19


 412:.\Generated_Source\PSoC5/RTC_1_INT.c ****                         }
 413:.\Generated_Source\PSoC5/RTC_1_INT.c ****                     }   /* Month alarm is masked */
 414:.\Generated_Source\PSoC5/RTC_1_INT.c **** 
 415:.\Generated_Source\PSoC5/RTC_1_INT.c ****                     #if (1u == RTC_1_DST_FUNC_ENABLE)
 416:.\Generated_Source\PSoC5/RTC_1_INT.c ****                         if(RTC_1_dstTimeDateStop.Month == RTC_1_currentTimeDate.Month)
 609              		.loc 1 416 0
 610 02bc A04B     		ldr	r3, .L103+4
 611 02be 1B79     		ldrb	r3, [r3, #4]
 612 02c0 DAB2     		uxtb	r2, r3
 613 02c2 A04B     		ldr	r3, .L103+8
 614 02c4 1B7A     		ldrb	r3, [r3, #8]
 615 02c6 DBB2     		uxtb	r3, r3
 616 02c8 9A42     		cmp	r2, r3
 617 02ca 08D1     		bne	.L26
 417:.\Generated_Source\PSoC5/RTC_1_INT.c ****                         {
 418:.\Generated_Source\PSoC5/RTC_1_INT.c ****                             RTC_1_dstStopStatus |= RTC_1_DST_MONTH;
 618              		.loc 1 418 0
 619 02cc 9E4B     		ldr	r3, .L103+12
 620 02ce 1B78     		ldrb	r3, [r3]
 621 02d0 DBB2     		uxtb	r3, r3
 622 02d2 43F00403 		orr	r3, r3, #4
 623 02d6 DAB2     		uxtb	r2, r3
 624 02d8 9B4B     		ldr	r3, .L103+12
 625 02da 1A70     		strb	r2, [r3]
 626 02dc 07E0     		b	.L27
 627              	.L26:
 419:.\Generated_Source\PSoC5/RTC_1_INT.c ****                         }
 420:.\Generated_Source\PSoC5/RTC_1_INT.c ****                         else
 421:.\Generated_Source\PSoC5/RTC_1_INT.c ****                         {
 422:.\Generated_Source\PSoC5/RTC_1_INT.c ****                             RTC_1_dstStopStatus &= (uint8)(~RTC_1_DST_MONTH);
 628              		.loc 1 422 0
 629 02de 9A4B     		ldr	r3, .L103+12
 630 02e0 1B78     		ldrb	r3, [r3]
 631 02e2 DBB2     		uxtb	r3, r3
 632 02e4 23F00403 		bic	r3, r3, #4
 633 02e8 DAB2     		uxtb	r2, r3
 634 02ea 974B     		ldr	r3, .L103+12
 635 02ec 1A70     		strb	r2, [r3]
 636              	.L27:
 423:.\Generated_Source\PSoC5/RTC_1_INT.c ****                         }
 424:.\Generated_Source\PSoC5/RTC_1_INT.c **** 
 425:.\Generated_Source\PSoC5/RTC_1_INT.c ****                         if(RTC_1_dstTimeDateStart.Month == RTC_1_currentTimeDate.Month)
 637              		.loc 1 425 0
 638 02ee 974B     		ldr	r3, .L103+16
 639 02f0 1B79     		ldrb	r3, [r3, #4]
 640 02f2 DAB2     		uxtb	r2, r3
 641 02f4 934B     		ldr	r3, .L103+8
 642 02f6 1B7A     		ldrb	r3, [r3, #8]
 643 02f8 DBB2     		uxtb	r3, r3
 644 02fa 9A42     		cmp	r2, r3
 645 02fc 08D1     		bne	.L28
 426:.\Generated_Source\PSoC5/RTC_1_INT.c ****                         {
 427:.\Generated_Source\PSoC5/RTC_1_INT.c ****                             RTC_1_dstStartStatus |= RTC_1_DST_MONTH;
 646              		.loc 1 427 0
 647 02fe 944B     		ldr	r3, .L103+20
 648 0300 1B78     		ldrb	r3, [r3]
 649 0302 DBB2     		uxtb	r3, r3
ARM GAS  C:\Users\glenn\AppData\Local\Temp\ccxzV7hg.s 			page 20


 650 0304 43F00403 		orr	r3, r3, #4
 651 0308 DAB2     		uxtb	r2, r3
 652 030a 914B     		ldr	r3, .L103+20
 653 030c 1A70     		strb	r2, [r3]
 654 030e 07E0     		b	.L29
 655              	.L28:
 428:.\Generated_Source\PSoC5/RTC_1_INT.c ****                         }
 429:.\Generated_Source\PSoC5/RTC_1_INT.c ****                         else
 430:.\Generated_Source\PSoC5/RTC_1_INT.c ****                         {
 431:.\Generated_Source\PSoC5/RTC_1_INT.c ****                             RTC_1_dstStartStatus &= (uint8)(~RTC_1_DST_MONTH);
 656              		.loc 1 431 0
 657 0310 8F4B     		ldr	r3, .L103+20
 658 0312 1B78     		ldrb	r3, [r3]
 659 0314 DBB2     		uxtb	r3, r3
 660 0316 23F00403 		bic	r3, r3, #4
 661 031a DAB2     		uxtb	r2, r3
 662 031c 8C4B     		ldr	r3, .L103+20
 663 031e 1A70     		strb	r2, [r3]
 664              	.L29:
 432:.\Generated_Source\PSoC5/RTC_1_INT.c ****                         }
 433:.\Generated_Source\PSoC5/RTC_1_INT.c ****                     #endif /* 1u == RTC_1_DST_FUNC_ENABLE */
 434:.\Generated_Source\PSoC5/RTC_1_INT.c **** 
 435:.\Generated_Source\PSoC5/RTC_1_INT.c ****                     /* Set Alarm flag event */
 436:.\Generated_Source\PSoC5/RTC_1_INT.c ****                     RTC_1_tmp = RTC_1_alarmCfgMask;
 665              		.loc 1 436 0
 666 0320 8C4B     		ldr	r3, .L103+24
 667 0322 1B78     		ldrb	r3, [r3]
 668 0324 FB71     		strb	r3, [r7, #7]
 437:.\Generated_Source\PSoC5/RTC_1_INT.c ****                     RTC_1_SET_ALARM(RTC_1_tmp,
 669              		.loc 1 437 0
 670 0326 FB79     		ldrb	r3, [r7, #7]	@ zero_extendqisi2
 671 0328 002B     		cmp	r3, #0
 672 032a 13D0     		beq	.L30
 673              		.loc 1 437 0 is_stmt 0 discriminator 1
 674 032c 834B     		ldr	r3, .L103
 675 032e 1B78     		ldrb	r3, [r3]
 676 0330 DAB2     		uxtb	r2, r3
 677 0332 FB79     		ldrb	r3, [r7, #7]
 678 0334 1340     		ands	r3, r3, r2
 679 0336 DBB2     		uxtb	r3, r3
 680 0338 FA79     		ldrb	r2, [r7, #7]	@ zero_extendqisi2
 681 033a 9A42     		cmp	r2, r3
 682 033c 0AD1     		bne	.L30
 683              		.loc 1 437 0 discriminator 2
 684 033e 864B     		ldr	r3, .L103+28
 685 0340 1B78     		ldrb	r3, [r3]
 686 0342 DBB2     		uxtb	r3, r3
 687 0344 43F00803 		orr	r3, r3, #8
 688 0348 DAB2     		uxtb	r2, r3
 689 034a 834B     		ldr	r3, .L103+28
 690 034c 1A70     		strb	r2, [r3]
 691 034e 7B4B     		ldr	r3, .L103
 692 0350 0022     		movs	r2, #0
 693 0352 1A70     		strb	r2, [r3]
 694              	.L30:
 438:.\Generated_Source\PSoC5/RTC_1_INT.c ****                                                RTC_1_alarmCurStatus,
 439:.\Generated_Source\PSoC5/RTC_1_INT.c ****                                                RTC_1_statusDateTime);
ARM GAS  C:\Users\glenn\AppData\Local\Temp\ccxzV7hg.s 			page 21


 440:.\Generated_Source\PSoC5/RTC_1_INT.c **** 
 441:.\Generated_Source\PSoC5/RTC_1_INT.c ****                     /* Every Month */
 442:.\Generated_Source\PSoC5/RTC_1_INT.c ****                     if(0u != RTC_1_IS_BIT_SET(RTC_1_intervalCfgMask,
 695              		.loc 1 442 0 is_stmt 1
 696 0354 814B     		ldr	r3, .L103+32
 697 0356 1B78     		ldrb	r3, [r3]
 698 0358 DBB2     		uxtb	r3, r3
 699 035a 03F02003 		and	r3, r3, #32
 700 035e 002B     		cmp	r3, #0
 701 0360 01D0     		beq	.L16
 443:.\Generated_Source\PSoC5/RTC_1_INT.c ****                                                          RTC_1_INTERVAL_MONTH_MASK))
 444:.\Generated_Source\PSoC5/RTC_1_INT.c ****                     {
 445:.\Generated_Source\PSoC5/RTC_1_INT.c ****                         RTC_1_EveryMonthHandler();
 702              		.loc 1 445 0
 703 0362 FFF7FEFF 		bl	RTC_1_EveryMonthHandler
 704              	.L16:
 446:.\Generated_Source\PSoC5/RTC_1_INT.c ****                     }
 447:.\Generated_Source\PSoC5/RTC_1_INT.c ****                 }   /* Day roll over */
 448:.\Generated_Source\PSoC5/RTC_1_INT.c **** 
 449:.\Generated_Source\PSoC5/RTC_1_INT.c ****                 /* Alarm DAYOFWEEK */
 450:.\Generated_Source\PSoC5/RTC_1_INT.c ****                 if(0u != RTC_1_IS_BIT_SET(RTC_1_alarmCfgMask,
 705              		.loc 1 450 0
 706 0366 7B4B     		ldr	r3, .L103+24
 707 0368 1B78     		ldrb	r3, [r3]
 708 036a DBB2     		uxtb	r3, r3
 709 036c 03F00803 		and	r3, r3, #8
 710 0370 002B     		cmp	r3, #0
 711 0372 18D0     		beq	.L31
 451:.\Generated_Source\PSoC5/RTC_1_INT.c ****                                                      RTC_1_ALARM_DAYOFWEEK_MASK))
 452:.\Generated_Source\PSoC5/RTC_1_INT.c ****                 {
 453:.\Generated_Source\PSoC5/RTC_1_INT.c ****                     if(RTC_1_alarmCfgTimeDate.DayOfWeek == RTC_1_currentTimeDate.DayOfWeek)
 712              		.loc 1 453 0
 713 0374 7A4B     		ldr	r3, .L103+36
 714 0376 DB78     		ldrb	r3, [r3, #3]
 715 0378 DAB2     		uxtb	r2, r3
 716 037a 724B     		ldr	r3, .L103+8
 717 037c DB78     		ldrb	r3, [r3, #3]
 718 037e DBB2     		uxtb	r3, r3
 719 0380 9A42     		cmp	r2, r3
 720 0382 08D1     		bne	.L32
 454:.\Generated_Source\PSoC5/RTC_1_INT.c ****                     {
 455:.\Generated_Source\PSoC5/RTC_1_INT.c ****                         /* Set day of week alarm */
 456:.\Generated_Source\PSoC5/RTC_1_INT.c ****                         RTC_1_alarmCurStatus |= RTC_1_ALARM_DAYOFWEEK_MASK;
 721              		.loc 1 456 0
 722 0384 6D4B     		ldr	r3, .L103
 723 0386 1B78     		ldrb	r3, [r3]
 724 0388 DBB2     		uxtb	r3, r3
 725 038a 43F00803 		orr	r3, r3, #8
 726 038e DAB2     		uxtb	r2, r3
 727 0390 6A4B     		ldr	r3, .L103
 728 0392 1A70     		strb	r2, [r3]
 729 0394 07E0     		b	.L31
 730              	.L32:
 457:.\Generated_Source\PSoC5/RTC_1_INT.c ****                     }
 458:.\Generated_Source\PSoC5/RTC_1_INT.c ****                     else
 459:.\Generated_Source\PSoC5/RTC_1_INT.c ****                     {
 460:.\Generated_Source\PSoC5/RTC_1_INT.c ****                         /* Clear day of week alarm */
ARM GAS  C:\Users\glenn\AppData\Local\Temp\ccxzV7hg.s 			page 22


 461:.\Generated_Source\PSoC5/RTC_1_INT.c ****                         RTC_1_alarmCurStatus &= (uint8)(~RTC_1_ALARM_DAYOFWEEK_MASK);
 731              		.loc 1 461 0
 732 0396 694B     		ldr	r3, .L103
 733 0398 1B78     		ldrb	r3, [r3]
 734 039a DBB2     		uxtb	r3, r3
 735 039c 23F00803 		bic	r3, r3, #8
 736 03a0 DAB2     		uxtb	r2, r3
 737 03a2 664B     		ldr	r3, .L103
 738 03a4 1A70     		strb	r2, [r3]
 739              	.L31:
 462:.\Generated_Source\PSoC5/RTC_1_INT.c ****                     }
 463:.\Generated_Source\PSoC5/RTC_1_INT.c ****                 }   /* Day of week alarm is masked */
 464:.\Generated_Source\PSoC5/RTC_1_INT.c **** 
 465:.\Generated_Source\PSoC5/RTC_1_INT.c ****                 /* Alarm DAYOFYEAR */
 466:.\Generated_Source\PSoC5/RTC_1_INT.c ****                 if(0u != RTC_1_IS_BIT_SET(RTC_1_alarmCfgMask,
 740              		.loc 1 466 0
 741 03a6 6B4B     		ldr	r3, .L103+24
 742 03a8 1B78     		ldrb	r3, [r3]
 743 03aa DBB2     		uxtb	r3, r3
 744 03ac 03F02003 		and	r3, r3, #32
 745 03b0 002B     		cmp	r3, #0
 746 03b2 18D0     		beq	.L33
 467:.\Generated_Source\PSoC5/RTC_1_INT.c ****                                                      RTC_1_ALARM_DAYOFYEAR_MASK))
 468:.\Generated_Source\PSoC5/RTC_1_INT.c ****                 {
 469:.\Generated_Source\PSoC5/RTC_1_INT.c ****                     if(RTC_1_alarmCfgTimeDate.DayOfYear == RTC_1_currentTimeDate.DayOfYear)
 747              		.loc 1 469 0
 748 03b4 6A4B     		ldr	r3, .L103+36
 749 03b6 DB88     		ldrh	r3, [r3, #6]	@ movhi
 750 03b8 9AB2     		uxth	r2, r3
 751 03ba 624B     		ldr	r3, .L103+8
 752 03bc DB88     		ldrh	r3, [r3, #6]	@ movhi
 753 03be 9BB2     		uxth	r3, r3
 754 03c0 9A42     		cmp	r2, r3
 755 03c2 08D1     		bne	.L34
 470:.\Generated_Source\PSoC5/RTC_1_INT.c ****                     {
 471:.\Generated_Source\PSoC5/RTC_1_INT.c ****                         /* Set day of year alarm */
 472:.\Generated_Source\PSoC5/RTC_1_INT.c ****                         RTC_1_alarmCurStatus |= RTC_1_ALARM_DAYOFYEAR_MASK;
 756              		.loc 1 472 0
 757 03c4 5D4B     		ldr	r3, .L103
 758 03c6 1B78     		ldrb	r3, [r3]
 759 03c8 DBB2     		uxtb	r3, r3
 760 03ca 43F02003 		orr	r3, r3, #32
 761 03ce DAB2     		uxtb	r2, r3
 762 03d0 5A4B     		ldr	r3, .L103
 763 03d2 1A70     		strb	r2, [r3]
 764 03d4 07E0     		b	.L33
 765              	.L34:
 473:.\Generated_Source\PSoC5/RTC_1_INT.c ****                     }
 474:.\Generated_Source\PSoC5/RTC_1_INT.c ****                     else
 475:.\Generated_Source\PSoC5/RTC_1_INT.c ****                     {
 476:.\Generated_Source\PSoC5/RTC_1_INT.c ****                         /* Clear day of year alarm */
 477:.\Generated_Source\PSoC5/RTC_1_INT.c ****                         RTC_1_alarmCurStatus &= (uint8)(~RTC_1_ALARM_DAYOFYEAR_MASK);
 766              		.loc 1 477 0
 767 03d6 594B     		ldr	r3, .L103
 768 03d8 1B78     		ldrb	r3, [r3]
 769 03da DBB2     		uxtb	r3, r3
 770 03dc 23F02003 		bic	r3, r3, #32
ARM GAS  C:\Users\glenn\AppData\Local\Temp\ccxzV7hg.s 			page 23


 771 03e0 DAB2     		uxtb	r2, r3
 772 03e2 564B     		ldr	r3, .L103
 773 03e4 1A70     		strb	r2, [r3]
 774              	.L33:
 478:.\Generated_Source\PSoC5/RTC_1_INT.c ****                     }
 479:.\Generated_Source\PSoC5/RTC_1_INT.c ****                 }   /* Day of year alarm is masked */
 480:.\Generated_Source\PSoC5/RTC_1_INT.c **** 
 481:.\Generated_Source\PSoC5/RTC_1_INT.c ****                 /* Alarm DAYOFMONTH */
 482:.\Generated_Source\PSoC5/RTC_1_INT.c ****                 if(0u != RTC_1_IS_BIT_SET(RTC_1_alarmCfgMask,
 775              		.loc 1 482 0
 776 03e6 5B4B     		ldr	r3, .L103+24
 777 03e8 1B78     		ldrb	r3, [r3]
 778 03ea DBB2     		uxtb	r3, r3
 779 03ec 03F01003 		and	r3, r3, #16
 780 03f0 002B     		cmp	r3, #0
 781 03f2 18D0     		beq	.L35
 483:.\Generated_Source\PSoC5/RTC_1_INT.c ****                          RTC_1_ALARM_DAYOFMONTH_MASK))
 484:.\Generated_Source\PSoC5/RTC_1_INT.c ****                 {
 485:.\Generated_Source\PSoC5/RTC_1_INT.c ****                     if(RTC_1_alarmCfgTimeDate.DayOfMonth == RTC_1_currentTimeDate.DayOfMonth)
 782              		.loc 1 485 0
 783 03f4 5A4B     		ldr	r3, .L103+36
 784 03f6 1B79     		ldrb	r3, [r3, #4]
 785 03f8 DAB2     		uxtb	r2, r3
 786 03fa 524B     		ldr	r3, .L103+8
 787 03fc 1B79     		ldrb	r3, [r3, #4]
 788 03fe DBB2     		uxtb	r3, r3
 789 0400 9A42     		cmp	r2, r3
 790 0402 08D1     		bne	.L36
 486:.\Generated_Source\PSoC5/RTC_1_INT.c ****                     {
 487:.\Generated_Source\PSoC5/RTC_1_INT.c ****                         /* Set day of month alarm */
 488:.\Generated_Source\PSoC5/RTC_1_INT.c ****                         RTC_1_alarmCurStatus |= RTC_1_ALARM_DAYOFMONTH_MASK;
 791              		.loc 1 488 0
 792 0404 4D4B     		ldr	r3, .L103
 793 0406 1B78     		ldrb	r3, [r3]
 794 0408 DBB2     		uxtb	r3, r3
 795 040a 43F01003 		orr	r3, r3, #16
 796 040e DAB2     		uxtb	r2, r3
 797 0410 4A4B     		ldr	r3, .L103
 798 0412 1A70     		strb	r2, [r3]
 799 0414 07E0     		b	.L35
 800              	.L36:
 489:.\Generated_Source\PSoC5/RTC_1_INT.c ****                     }
 490:.\Generated_Source\PSoC5/RTC_1_INT.c ****                     else
 491:.\Generated_Source\PSoC5/RTC_1_INT.c ****                     {
 492:.\Generated_Source\PSoC5/RTC_1_INT.c ****                         /* Clear day of month alarm */
 493:.\Generated_Source\PSoC5/RTC_1_INT.c ****                         RTC_1_alarmCurStatus &= (uint8)(~RTC_1_ALARM_DAYOFMONTH_MASK);
 801              		.loc 1 493 0
 802 0416 494B     		ldr	r3, .L103
 803 0418 1B78     		ldrb	r3, [r3]
 804 041a DBB2     		uxtb	r3, r3
 805 041c 23F01003 		bic	r3, r3, #16
 806 0420 DAB2     		uxtb	r2, r3
 807 0422 464B     		ldr	r3, .L103
 808 0424 1A70     		strb	r2, [r3]
 809              	.L35:
 494:.\Generated_Source\PSoC5/RTC_1_INT.c ****                     }
 495:.\Generated_Source\PSoC5/RTC_1_INT.c ****                 }   /* Day of month alarm is masked */
ARM GAS  C:\Users\glenn\AppData\Local\Temp\ccxzV7hg.s 			page 24


 496:.\Generated_Source\PSoC5/RTC_1_INT.c **** 
 497:.\Generated_Source\PSoC5/RTC_1_INT.c ****                 #if (1u == RTC_1_DST_FUNC_ENABLE)
 498:.\Generated_Source\PSoC5/RTC_1_INT.c ****                     if(RTC_1_dstTimeDateStop.DayOfMonth == RTC_1_currentTimeDate.DayOfMonth)
 810              		.loc 1 498 0
 811 0426 464B     		ldr	r3, .L103+4
 812 0428 DB78     		ldrb	r3, [r3, #3]
 813 042a DAB2     		uxtb	r2, r3
 814 042c 454B     		ldr	r3, .L103+8
 815 042e 1B79     		ldrb	r3, [r3, #4]
 816 0430 DBB2     		uxtb	r3, r3
 817 0432 9A42     		cmp	r2, r3
 818 0434 08D1     		bne	.L37
 499:.\Generated_Source\PSoC5/RTC_1_INT.c ****                     {
 500:.\Generated_Source\PSoC5/RTC_1_INT.c ****                         RTC_1_dstStopStatus |= RTC_1_DST_DAYOFMONTH;
 819              		.loc 1 500 0
 820 0436 444B     		ldr	r3, .L103+12
 821 0438 1B78     		ldrb	r3, [r3]
 822 043a DBB2     		uxtb	r3, r3
 823 043c 43F00203 		orr	r3, r3, #2
 824 0440 DAB2     		uxtb	r2, r3
 825 0442 414B     		ldr	r3, .L103+12
 826 0444 1A70     		strb	r2, [r3]
 827 0446 07E0     		b	.L38
 828              	.L37:
 501:.\Generated_Source\PSoC5/RTC_1_INT.c ****                     }
 502:.\Generated_Source\PSoC5/RTC_1_INT.c ****                     else
 503:.\Generated_Source\PSoC5/RTC_1_INT.c ****                     {
 504:.\Generated_Source\PSoC5/RTC_1_INT.c ****                         RTC_1_dstStopStatus &= (uint8)(~RTC_1_DST_DAYOFMONTH);
 829              		.loc 1 504 0
 830 0448 3F4B     		ldr	r3, .L103+12
 831 044a 1B78     		ldrb	r3, [r3]
 832 044c DBB2     		uxtb	r3, r3
 833 044e 23F00203 		bic	r3, r3, #2
 834 0452 DAB2     		uxtb	r2, r3
 835 0454 3C4B     		ldr	r3, .L103+12
 836 0456 1A70     		strb	r2, [r3]
 837              	.L38:
 505:.\Generated_Source\PSoC5/RTC_1_INT.c ****                     }
 506:.\Generated_Source\PSoC5/RTC_1_INT.c **** 
 507:.\Generated_Source\PSoC5/RTC_1_INT.c ****                     if(RTC_1_dstTimeDateStart.DayOfMonth == RTC_1_currentTimeDate.DayOfMonth)
 838              		.loc 1 507 0
 839 0458 3C4B     		ldr	r3, .L103+16
 840 045a DB78     		ldrb	r3, [r3, #3]
 841 045c DAB2     		uxtb	r2, r3
 842 045e 394B     		ldr	r3, .L103+8
 843 0460 1B79     		ldrb	r3, [r3, #4]
 844 0462 DBB2     		uxtb	r3, r3
 845 0464 9A42     		cmp	r2, r3
 846 0466 08D1     		bne	.L39
 508:.\Generated_Source\PSoC5/RTC_1_INT.c ****                     {
 509:.\Generated_Source\PSoC5/RTC_1_INT.c ****                         RTC_1_dstStartStatus |= RTC_1_DST_DAYOFMONTH;
 847              		.loc 1 509 0
 848 0468 394B     		ldr	r3, .L103+20
 849 046a 1B78     		ldrb	r3, [r3]
 850 046c DBB2     		uxtb	r3, r3
 851 046e 43F00203 		orr	r3, r3, #2
 852 0472 DAB2     		uxtb	r2, r3
ARM GAS  C:\Users\glenn\AppData\Local\Temp\ccxzV7hg.s 			page 25


 853 0474 364B     		ldr	r3, .L103+20
 854 0476 1A70     		strb	r2, [r3]
 855 0478 07E0     		b	.L40
 856              	.L39:
 510:.\Generated_Source\PSoC5/RTC_1_INT.c ****                     }
 511:.\Generated_Source\PSoC5/RTC_1_INT.c ****                     else
 512:.\Generated_Source\PSoC5/RTC_1_INT.c ****                     {
 513:.\Generated_Source\PSoC5/RTC_1_INT.c ****                         RTC_1_dstStartStatus &= (uint8)(~RTC_1_DST_DAYOFMONTH);
 857              		.loc 1 513 0
 858 047a 354B     		ldr	r3, .L103+20
 859 047c 1B78     		ldrb	r3, [r3]
 860 047e DBB2     		uxtb	r3, r3
 861 0480 23F00203 		bic	r3, r3, #2
 862 0484 DAB2     		uxtb	r2, r3
 863 0486 324B     		ldr	r3, .L103+20
 864 0488 1A70     		strb	r2, [r3]
 865              	.L40:
 514:.\Generated_Source\PSoC5/RTC_1_INT.c ****                     }
 515:.\Generated_Source\PSoC5/RTC_1_INT.c ****                 #endif /* 1u == RTC_1_DST_FUNC_ENABLE */
 516:.\Generated_Source\PSoC5/RTC_1_INT.c **** 
 517:.\Generated_Source\PSoC5/RTC_1_INT.c ****                 /* Set Alarm flag event */
 518:.\Generated_Source\PSoC5/RTC_1_INT.c ****                 RTC_1_tmp = RTC_1_alarmCfgMask;
 866              		.loc 1 518 0
 867 048a 324B     		ldr	r3, .L103+24
 868 048c 1B78     		ldrb	r3, [r3]
 869 048e FB71     		strb	r3, [r7, #7]
 519:.\Generated_Source\PSoC5/RTC_1_INT.c ****                 RTC_1_SET_ALARM(RTC_1_tmp,
 870              		.loc 1 519 0
 871 0490 FB79     		ldrb	r3, [r7, #7]	@ zero_extendqisi2
 872 0492 002B     		cmp	r3, #0
 873 0494 13D0     		beq	.L41
 874              		.loc 1 519 0 is_stmt 0 discriminator 1
 875 0496 294B     		ldr	r3, .L103
 876 0498 1B78     		ldrb	r3, [r3]
 877 049a DAB2     		uxtb	r2, r3
 878 049c FB79     		ldrb	r3, [r7, #7]
 879 049e 1340     		ands	r3, r3, r2
 880 04a0 DBB2     		uxtb	r3, r3
 881 04a2 FA79     		ldrb	r2, [r7, #7]	@ zero_extendqisi2
 882 04a4 9A42     		cmp	r2, r3
 883 04a6 0AD1     		bne	.L41
 884              		.loc 1 519 0 discriminator 2
 885 04a8 2B4B     		ldr	r3, .L103+28
 886 04aa 1B78     		ldrb	r3, [r3]
 887 04ac DBB2     		uxtb	r3, r3
 888 04ae 43F00803 		orr	r3, r3, #8
 889 04b2 DAB2     		uxtb	r2, r3
 890 04b4 284B     		ldr	r3, .L103+28
 891 04b6 1A70     		strb	r2, [r3]
 892 04b8 204B     		ldr	r3, .L103
 893 04ba 0022     		movs	r2, #0
 894 04bc 1A70     		strb	r2, [r3]
 895              	.L41:
 520:.\Generated_Source\PSoC5/RTC_1_INT.c ****                                            RTC_1_alarmCurStatus,
 521:.\Generated_Source\PSoC5/RTC_1_INT.c ****                                            RTC_1_statusDateTime);
 522:.\Generated_Source\PSoC5/RTC_1_INT.c **** 
 523:.\Generated_Source\PSoC5/RTC_1_INT.c ****                 /* Every Day */
ARM GAS  C:\Users\glenn\AppData\Local\Temp\ccxzV7hg.s 			page 26


 524:.\Generated_Source\PSoC5/RTC_1_INT.c ****                 if(0u != RTC_1_IS_BIT_SET(RTC_1_intervalCfgMask,
 896              		.loc 1 524 0 is_stmt 1
 897 04be 274B     		ldr	r3, .L103+32
 898 04c0 1B78     		ldrb	r3, [r3]
 899 04c2 DBB2     		uxtb	r3, r3
 900 04c4 03F00803 		and	r3, r3, #8
 901 04c8 002B     		cmp	r3, #0
 902 04ca 01D0     		beq	.L42
 525:.\Generated_Source\PSoC5/RTC_1_INT.c ****                          RTC_1_INTERVAL_DAY_MASK))
 526:.\Generated_Source\PSoC5/RTC_1_INT.c ****                 {
 527:.\Generated_Source\PSoC5/RTC_1_INT.c ****                     RTC_1_EveryDayHandler();
 903              		.loc 1 527 0
 904 04cc FFF7FEFF 		bl	RTC_1_EveryDayHandler
 905              	.L42:
 528:.\Generated_Source\PSoC5/RTC_1_INT.c ****                 }
 529:.\Generated_Source\PSoC5/RTC_1_INT.c **** 
 530:.\Generated_Source\PSoC5/RTC_1_INT.c ****                 if(1u == RTC_1_currentTimeDate.DayOfWeek)
 906              		.loc 1 530 0
 907 04d0 1C4B     		ldr	r3, .L103+8
 908 04d2 DB78     		ldrb	r3, [r3, #3]
 909 04d4 DBB2     		uxtb	r3, r3
 910 04d6 012B     		cmp	r3, #1
 911 04d8 08D1     		bne	.L11
 531:.\Generated_Source\PSoC5/RTC_1_INT.c ****                 {
 532:.\Generated_Source\PSoC5/RTC_1_INT.c ****                     /* Every Week */
 533:.\Generated_Source\PSoC5/RTC_1_INT.c ****                     if(0u != RTC_1_IS_BIT_SET(RTC_1_intervalCfgMask,
 912              		.loc 1 533 0
 913 04da 204B     		ldr	r3, .L103+32
 914 04dc 1B78     		ldrb	r3, [r3]
 915 04de DBB2     		uxtb	r3, r3
 916 04e0 03F01003 		and	r3, r3, #16
 917 04e4 002B     		cmp	r3, #0
 918 04e6 01D0     		beq	.L11
 534:.\Generated_Source\PSoC5/RTC_1_INT.c ****                                                          RTC_1_INTERVAL_WEEK_MASK))
 535:.\Generated_Source\PSoC5/RTC_1_INT.c ****                     {
 536:.\Generated_Source\PSoC5/RTC_1_INT.c ****                        RTC_1_EveryWeekHandler();
 919              		.loc 1 536 0
 920 04e8 FFF7FEFF 		bl	RTC_1_EveryWeekHandler
 921              	.L11:
 537:.\Generated_Source\PSoC5/RTC_1_INT.c ****                     }
 538:.\Generated_Source\PSoC5/RTC_1_INT.c ****                 }
 539:.\Generated_Source\PSoC5/RTC_1_INT.c **** 
 540:.\Generated_Source\PSoC5/RTC_1_INT.c ****             } /* End of day roll over */
 541:.\Generated_Source\PSoC5/RTC_1_INT.c **** 
 542:.\Generated_Source\PSoC5/RTC_1_INT.c ****             /* Status set PM/AM flag */
 543:.\Generated_Source\PSoC5/RTC_1_INT.c ****             if(RTC_1_currentTimeDate.Hour < RTC_1_HALF_OF_DAY_ELAPSED)
 922              		.loc 1 543 0
 923 04ec 154B     		ldr	r3, .L103+8
 924 04ee 9B78     		ldrb	r3, [r3, #2]
 925 04f0 DBB2     		uxtb	r3, r3
 926 04f2 0B2B     		cmp	r3, #11
 927 04f4 08D8     		bhi	.L43
 544:.\Generated_Source\PSoC5/RTC_1_INT.c ****             {
 545:.\Generated_Source\PSoC5/RTC_1_INT.c ****                 /* AM Hour 00:00-11:59, flag zero */
 546:.\Generated_Source\PSoC5/RTC_1_INT.c ****                 RTC_1_statusDateTime &= (uint8)(~RTC_1_STATUS_AM_PM);
 928              		.loc 1 546 0
 929 04f6 184B     		ldr	r3, .L103+28
ARM GAS  C:\Users\glenn\AppData\Local\Temp\ccxzV7hg.s 			page 27


 930 04f8 1B78     		ldrb	r3, [r3]
 931 04fa DBB2     		uxtb	r3, r3
 932 04fc 23F00403 		bic	r3, r3, #4
 933 0500 DAB2     		uxtb	r2, r3
 934 0502 154B     		ldr	r3, .L103+28
 935 0504 1A70     		strb	r2, [r3]
 936 0506 07E0     		b	.L44
 937              	.L43:
 547:.\Generated_Source\PSoC5/RTC_1_INT.c ****             }
 548:.\Generated_Source\PSoC5/RTC_1_INT.c ****             else
 549:.\Generated_Source\PSoC5/RTC_1_INT.c ****             {
 550:.\Generated_Source\PSoC5/RTC_1_INT.c ****                 /* PM Hour 12:00-23:59, flag set */
 551:.\Generated_Source\PSoC5/RTC_1_INT.c ****                 RTC_1_statusDateTime |= RTC_1_STATUS_AM_PM;
 938              		.loc 1 551 0
 939 0508 134B     		ldr	r3, .L103+28
 940 050a 1B78     		ldrb	r3, [r3]
 941 050c DBB2     		uxtb	r3, r3
 942 050e 43F00403 		orr	r3, r3, #4
 943 0512 DAB2     		uxtb	r2, r3
 944 0514 104B     		ldr	r3, .L103+28
 945 0516 1A70     		strb	r2, [r3]
 946              	.L44:
 552:.\Generated_Source\PSoC5/RTC_1_INT.c ****             }
 553:.\Generated_Source\PSoC5/RTC_1_INT.c **** 
 554:.\Generated_Source\PSoC5/RTC_1_INT.c ****             #if (1u == RTC_1_DST_FUNC_ENABLE)
 555:.\Generated_Source\PSoC5/RTC_1_INT.c ****                 if(RTC_1_dstTimeDateStop.Hour == RTC_1_currentTimeDate.Hour)
 947              		.loc 1 555 0
 948 0518 094B     		ldr	r3, .L103+4
 949 051a 1B78     		ldrb	r3, [r3]
 950 051c DAB2     		uxtb	r2, r3
 951 051e 094B     		ldr	r3, .L103+8
 952 0520 9B78     		ldrb	r3, [r3, #2]
 953 0522 DBB2     		uxtb	r3, r3
 954 0524 9A42     		cmp	r2, r3
 955 0526 1DD1     		bne	.L45
 556:.\Generated_Source\PSoC5/RTC_1_INT.c ****                 {
 557:.\Generated_Source\PSoC5/RTC_1_INT.c ****                     RTC_1_dstStopStatus |= RTC_1_DST_HOUR;
 956              		.loc 1 557 0
 957 0528 074B     		ldr	r3, .L103+12
 958 052a 1B78     		ldrb	r3, [r3]
 959 052c DBB2     		uxtb	r3, r3
 960 052e 43F00103 		orr	r3, r3, #1
 961 0532 DAB2     		uxtb	r2, r3
 962 0534 044B     		ldr	r3, .L103+12
 963 0536 1A70     		strb	r2, [r3]
 964 0538 1CE0     		b	.L46
 965              	.L104:
 966 053a 00BF     		.align	2
 967              	.L103:
 968 053c 00000000 		.word	RTC_1_alarmCurStatus
 969 0540 00000000 		.word	RTC_1_dstTimeDateStop
 970 0544 00000000 		.word	RTC_1_currentTimeDate
 971 0548 00000000 		.word	RTC_1_dstStopStatus
 972 054c 00000000 		.word	RTC_1_dstTimeDateStart
 973 0550 00000000 		.word	RTC_1_dstStartStatus
 974 0554 00000000 		.word	RTC_1_alarmCfgMask
 975 0558 00000000 		.word	RTC_1_statusDateTime
ARM GAS  C:\Users\glenn\AppData\Local\Temp\ccxzV7hg.s 			page 28


 976 055c 00000000 		.word	RTC_1_intervalCfgMask
 977 0560 00000000 		.word	RTC_1_alarmCfgTimeDate
 978              	.L45:
 558:.\Generated_Source\PSoC5/RTC_1_INT.c ****                 }
 559:.\Generated_Source\PSoC5/RTC_1_INT.c ****                 else
 560:.\Generated_Source\PSoC5/RTC_1_INT.c ****                 {
 561:.\Generated_Source\PSoC5/RTC_1_INT.c ****                     RTC_1_dstStopStatus &= (uint8)(~RTC_1_DST_HOUR);
 979              		.loc 1 561 0
 980 0564 A24B     		ldr	r3, .L105
 981 0566 1B78     		ldrb	r3, [r3]
 982 0568 DBB2     		uxtb	r3, r3
 983 056a 23F00103 		bic	r3, r3, #1
 984 056e DAB2     		uxtb	r2, r3
 985 0570 9F4B     		ldr	r3, .L105
 986 0572 1A70     		strb	r2, [r3]
 987              	.L46:
 562:.\Generated_Source\PSoC5/RTC_1_INT.c ****                 }
 563:.\Generated_Source\PSoC5/RTC_1_INT.c **** 
 564:.\Generated_Source\PSoC5/RTC_1_INT.c ****                 if(RTC_1_dstTimeDateStart.Hour == RTC_1_currentTimeDate.Hour)
 988              		.loc 1 564 0
 989 0574 9F4B     		ldr	r3, .L105+4
 990 0576 1B78     		ldrb	r3, [r3]
 991 0578 DAB2     		uxtb	r2, r3
 992 057a 9F4B     		ldr	r3, .L105+8
 993 057c 9B78     		ldrb	r3, [r3, #2]
 994 057e DBB2     		uxtb	r3, r3
 995 0580 9A42     		cmp	r2, r3
 996 0582 08D1     		bne	.L47
 565:.\Generated_Source\PSoC5/RTC_1_INT.c ****                 {
 566:.\Generated_Source\PSoC5/RTC_1_INT.c ****                     RTC_1_dstStartStatus |= RTC_1_DST_HOUR;
 997              		.loc 1 566 0
 998 0584 9D4B     		ldr	r3, .L105+12
 999 0586 1B78     		ldrb	r3, [r3]
 1000 0588 DBB2     		uxtb	r3, r3
 1001 058a 43F00103 		orr	r3, r3, #1
 1002 058e DAB2     		uxtb	r2, r3
 1003 0590 9A4B     		ldr	r3, .L105+12
 1004 0592 1A70     		strb	r2, [r3]
 1005 0594 07E0     		b	.L48
 1006              	.L47:
 567:.\Generated_Source\PSoC5/RTC_1_INT.c ****                 }
 568:.\Generated_Source\PSoC5/RTC_1_INT.c ****                 else
 569:.\Generated_Source\PSoC5/RTC_1_INT.c ****                 {
 570:.\Generated_Source\PSoC5/RTC_1_INT.c ****                 RTC_1_dstStartStatus &= (uint8)(~RTC_1_DST_HOUR);
 1007              		.loc 1 570 0
 1008 0596 994B     		ldr	r3, .L105+12
 1009 0598 1B78     		ldrb	r3, [r3]
 1010 059a DBB2     		uxtb	r3, r3
 1011 059c 23F00103 		bic	r3, r3, #1
 1012 05a0 DAB2     		uxtb	r2, r3
 1013 05a2 964B     		ldr	r3, .L105+12
 1014 05a4 1A70     		strb	r2, [r3]
 1015              	.L48:
 571:.\Generated_Source\PSoC5/RTC_1_INT.c ****                 }
 572:.\Generated_Source\PSoC5/RTC_1_INT.c **** 
 573:.\Generated_Source\PSoC5/RTC_1_INT.c ****                 /* DST Enable ? */
 574:.\Generated_Source\PSoC5/RTC_1_INT.c ****                 if(0u != RTC_1_IS_BIT_SET(RTC_1_dstModeType, RTC_1_DST_ENABLE))
ARM GAS  C:\Users\glenn\AppData\Local\Temp\ccxzV7hg.s 			page 29


 1016              		.loc 1 574 0
 1017 05a6 964B     		ldr	r3, .L105+16
 1018 05a8 1B78     		ldrb	r3, [r3]
 1019 05aa DBB2     		uxtb	r3, r3
 1020 05ac 03F00103 		and	r3, r3, #1
 1021 05b0 002B     		cmp	r3, #0
 1022 05b2 00F05683 		beq	.L49
 575:.\Generated_Source\PSoC5/RTC_1_INT.c ****                 {
 576:.\Generated_Source\PSoC5/RTC_1_INT.c ****                     if(0u != RTC_1_IS_BIT_SET(RTC_1_statusDateTime, RTC_1_STATUS_DST))
 1023              		.loc 1 576 0
 1024 05b6 934B     		ldr	r3, .L105+20
 1025 05b8 1B78     		ldrb	r3, [r3]
 1026 05ba DBB2     		uxtb	r3, r3
 1027 05bc 03F00103 		and	r3, r3, #1
 1028 05c0 002B     		cmp	r3, #0
 1029 05c2 00F02981 		beq	.L50
 577:.\Generated_Source\PSoC5/RTC_1_INT.c ****                     {
 578:.\Generated_Source\PSoC5/RTC_1_INT.c ****                         if(0u != RTC_1_IS_BIT_SET(RTC_1_dstStopStatus, RTC_1_DST_HOUR |
 1030              		.loc 1 578 0
 1031 05c6 8A4B     		ldr	r3, .L105
 1032 05c8 1B78     		ldrb	r3, [r3]
 1033 05ca DBB2     		uxtb	r3, r3
 1034 05cc 03F00703 		and	r3, r3, #7
 1035 05d0 072B     		cmp	r3, #7
 1036 05d2 40F08C82 		bne	.L64
 579:.\Generated_Source\PSoC5/RTC_1_INT.c ****                                                        RTC_1_DST_DAYOFMONTH | RTC_1_DST_MONTH))
 580:.\Generated_Source\PSoC5/RTC_1_INT.c ****                         {
 581:.\Generated_Source\PSoC5/RTC_1_INT.c ****                             /* Substruct from current value of minutes, number of minutes
 582:.\Generated_Source\PSoC5/RTC_1_INT.c ****                             * in DST offset which is out of complete hour
 583:.\Generated_Source\PSoC5/RTC_1_INT.c ****                             */
 584:.\Generated_Source\PSoC5/RTC_1_INT.c ****                             RTC_1_currentTimeDate.Min -=
 585:.\Generated_Source\PSoC5/RTC_1_INT.c ****                                                 RTC_1_dstOffsetMin % (RTC_1_HOUR_ELAPSED + 1u);
 1037              		.loc 1 585 0
 1038 05d6 8C4B     		ldr	r3, .L105+24
 1039 05d8 1B78     		ldrb	r3, [r3]
 1040 05da DAB2     		uxtb	r2, r3
 1041 05dc 8B4B     		ldr	r3, .L105+28
 1042 05de A3FB0213 		umull	r1, r3, r3, r2
 1043 05e2 5909     		lsrs	r1, r3, #5
 1044 05e4 0B46     		mov	r3, r1
 1045 05e6 1B01     		lsls	r3, r3, #4
 1046 05e8 5B1A     		subs	r3, r3, r1
 1047 05ea 9B00     		lsls	r3, r3, #2
 1048 05ec D31A     		subs	r3, r2, r3
 1049 05ee DBB2     		uxtb	r3, r3
 1050 05f0 1946     		mov	r1, r3
 584:.\Generated_Source\PSoC5/RTC_1_INT.c ****                                                 RTC_1_dstOffsetMin % (RTC_1_HOUR_ELAPSED + 1u);
 1051              		.loc 1 584 0
 1052 05f2 814B     		ldr	r3, .L105+8
 1053 05f4 5B78     		ldrb	r3, [r3, #1]
 1054 05f6 DAB2     		uxtb	r2, r3
 1055 05f8 CBB2     		uxtb	r3, r1
 1056 05fa D31A     		subs	r3, r2, r3
 1057 05fc DAB2     		uxtb	r2, r3
 1058 05fe 7E4B     		ldr	r3, .L105+8
 1059 0600 5A70     		strb	r2, [r3, #1]
 586:.\Generated_Source\PSoC5/RTC_1_INT.c **** 
ARM GAS  C:\Users\glenn\AppData\Local\Temp\ccxzV7hg.s 			page 30


 587:.\Generated_Source\PSoC5/RTC_1_INT.c ****                             /* Is minute value negative? */
 588:.\Generated_Source\PSoC5/RTC_1_INT.c ****                             if(RTC_1_currentTimeDate.Min > RTC_1_HOUR_ELAPSED)
 1060              		.loc 1 588 0
 1061 0602 7D4B     		ldr	r3, .L105+8
 1062 0604 5B78     		ldrb	r3, [r3, #1]
 1063 0606 DBB2     		uxtb	r3, r3
 1064 0608 3B2B     		cmp	r3, #59
 1065 060a 0DD9     		bls	.L52
 589:.\Generated_Source\PSoC5/RTC_1_INT.c ****                             {
 590:.\Generated_Source\PSoC5/RTC_1_INT.c ****                                 /* Convert to the positive.
 591:.\Generated_Source\PSoC5/RTC_1_INT.c ****                                 * HOUR_ELAPSED -     (~currentTimeDate.Min    ) ==
 592:.\Generated_Source\PSoC5/RTC_1_INT.c ****                                 * HOUR_ELAPSED + 1 - (~currentTimeDate.Min + 1)
 593:.\Generated_Source\PSoC5/RTC_1_INT.c ****                                 */
 594:.\Generated_Source\PSoC5/RTC_1_INT.c ****                                 RTC_1_currentTimeDate.Min = RTC_1_HOUR_ELAPSED -
 595:.\Generated_Source\PSoC5/RTC_1_INT.c ****                                                              ((uint8)(~RTC_1_currentTimeDate.Min));
 1066              		.loc 1 595 0
 1067 060c 7A4B     		ldr	r3, .L105+8
 1068 060e 5B78     		ldrb	r3, [r3, #1]
 1069 0610 DBB2     		uxtb	r3, r3
 594:.\Generated_Source\PSoC5/RTC_1_INT.c ****                                                              ((uint8)(~RTC_1_currentTimeDate.Min));
 1070              		.loc 1 594 0
 1071 0612 3C33     		adds	r3, r3, #60
 1072 0614 DAB2     		uxtb	r2, r3
 1073 0616 784B     		ldr	r3, .L105+8
 1074 0618 5A70     		strb	r2, [r3, #1]
 596:.\Generated_Source\PSoC5/RTC_1_INT.c **** 
 597:.\Generated_Source\PSoC5/RTC_1_INT.c ****                                 RTC_1_currentTimeDate.Hour--;
 1075              		.loc 1 597 0
 1076 061a 774B     		ldr	r3, .L105+8
 1077 061c 9B78     		ldrb	r3, [r3, #2]
 1078 061e DBB2     		uxtb	r3, r3
 1079 0620 013B     		subs	r3, r3, #1
 1080 0622 DAB2     		uxtb	r2, r3
 1081 0624 744B     		ldr	r3, .L105+8
 1082 0626 9A70     		strb	r2, [r3, #2]
 1083              	.L52:
 598:.\Generated_Source\PSoC5/RTC_1_INT.c ****                             }
 599:.\Generated_Source\PSoC5/RTC_1_INT.c **** 
 600:.\Generated_Source\PSoC5/RTC_1_INT.c ****                             RTC_1_currentTimeDate.Hour -= RTC_1_dstOffsetMin /
 1084              		.loc 1 600 0
 1085 0628 774B     		ldr	r3, .L105+24
 1086 062a 1B78     		ldrb	r3, [r3]
 1087 062c DBB2     		uxtb	r3, r3
 1088 062e 774A     		ldr	r2, .L105+28
 1089 0630 A2FB0323 		umull	r2, r3, r2, r3
 1090 0634 5B09     		lsrs	r3, r3, #5
 1091 0636 DBB2     		uxtb	r3, r3
 1092 0638 1946     		mov	r1, r3
 1093 063a 6F4B     		ldr	r3, .L105+8
 1094 063c 9B78     		ldrb	r3, [r3, #2]
 1095 063e DAB2     		uxtb	r2, r3
 1096 0640 CBB2     		uxtb	r3, r1
 1097 0642 D31A     		subs	r3, r2, r3
 1098 0644 DAB2     		uxtb	r2, r3
 1099 0646 6C4B     		ldr	r3, .L105+8
 1100 0648 9A70     		strb	r2, [r3, #2]
 601:.\Generated_Source\PSoC5/RTC_1_INT.c ****                                                                      (RTC_1_HOUR_ELAPSED + 1u);
ARM GAS  C:\Users\glenn\AppData\Local\Temp\ccxzV7hg.s 			page 31


 602:.\Generated_Source\PSoC5/RTC_1_INT.c **** 
 603:.\Generated_Source\PSoC5/RTC_1_INT.c ****                             /* Day roll over
 604:.\Generated_Source\PSoC5/RTC_1_INT.c ****                             * Is hour value negative? */
 605:.\Generated_Source\PSoC5/RTC_1_INT.c ****                             if(RTC_1_currentTimeDate.Hour > RTC_1_DAY_ELAPSED)
 1101              		.loc 1 605 0
 1102 064a 6B4B     		ldr	r3, .L105+8
 1103 064c 9B78     		ldrb	r3, [r3, #2]
 1104 064e DBB2     		uxtb	r3, r3
 1105 0650 172B     		cmp	r3, #23
 1106 0652 40F2C180 		bls	.L53
 606:.\Generated_Source\PSoC5/RTC_1_INT.c ****                             {
 607:.\Generated_Source\PSoC5/RTC_1_INT.c ****                                 /* Convert to the positive.
 608:.\Generated_Source\PSoC5/RTC_1_INT.c ****                                 * DAY_ELAPSED - (~currentTimeDate.Hour) ==
 609:.\Generated_Source\PSoC5/RTC_1_INT.c ****                                 * DAY_ELAPSED + 1 - (~currentTimeDate.Hour + 1)
 610:.\Generated_Source\PSoC5/RTC_1_INT.c ****                                 */
 611:.\Generated_Source\PSoC5/RTC_1_INT.c ****                                 RTC_1_currentTimeDate.Hour = RTC_1_DAY_ELAPSED -
 612:.\Generated_Source\PSoC5/RTC_1_INT.c ****                                                               ((uint8)(~RTC_1_currentTimeDate.Hour)
 1107              		.loc 1 612 0
 1108 0656 684B     		ldr	r3, .L105+8
 1109 0658 9B78     		ldrb	r3, [r3, #2]
 1110 065a DBB2     		uxtb	r3, r3
 611:.\Generated_Source\PSoC5/RTC_1_INT.c ****                                                               ((uint8)(~RTC_1_currentTimeDate.Hour)
 1111              		.loc 1 611 0
 1112 065c 1833     		adds	r3, r3, #24
 1113 065e DAB2     		uxtb	r2, r3
 1114 0660 654B     		ldr	r3, .L105+8
 1115 0662 9A70     		strb	r2, [r3, #2]
 613:.\Generated_Source\PSoC5/RTC_1_INT.c **** 
 614:.\Generated_Source\PSoC5/RTC_1_INT.c ****                                 /* Status set PM/AM flag */
 615:.\Generated_Source\PSoC5/RTC_1_INT.c ****                                 if(RTC_1_currentTimeDate.Hour < RTC_1_HALF_OF_DAY_ELAPSED)
 1116              		.loc 1 615 0
 1117 0664 644B     		ldr	r3, .L105+8
 1118 0666 9B78     		ldrb	r3, [r3, #2]
 1119 0668 DBB2     		uxtb	r3, r3
 1120 066a 0B2B     		cmp	r3, #11
 1121 066c 08D8     		bhi	.L54
 616:.\Generated_Source\PSoC5/RTC_1_INT.c ****                                 {
 617:.\Generated_Source\PSoC5/RTC_1_INT.c ****                                     /* AM Hour 00:00-11:59, flag zero */
 618:.\Generated_Source\PSoC5/RTC_1_INT.c ****                                     RTC_1_statusDateTime &= (uint8)(~RTC_1_STATUS_AM_PM);
 1122              		.loc 1 618 0
 1123 066e 654B     		ldr	r3, .L105+20
 1124 0670 1B78     		ldrb	r3, [r3]
 1125 0672 DBB2     		uxtb	r3, r3
 1126 0674 23F00403 		bic	r3, r3, #4
 1127 0678 DAB2     		uxtb	r2, r3
 1128 067a 624B     		ldr	r3, .L105+20
 1129 067c 1A70     		strb	r2, [r3]
 1130 067e 07E0     		b	.L55
 1131              	.L54:
 619:.\Generated_Source\PSoC5/RTC_1_INT.c ****                                 }
 620:.\Generated_Source\PSoC5/RTC_1_INT.c ****                                 else
 621:.\Generated_Source\PSoC5/RTC_1_INT.c ****                                 {
 622:.\Generated_Source\PSoC5/RTC_1_INT.c ****                                     /* PM Hour 12:00-23:59, flag set */
 623:.\Generated_Source\PSoC5/RTC_1_INT.c ****                                     RTC_1_statusDateTime |= RTC_1_STATUS_AM_PM;
 1132              		.loc 1 623 0
 1133 0680 604B     		ldr	r3, .L105+20
 1134 0682 1B78     		ldrb	r3, [r3]
ARM GAS  C:\Users\glenn\AppData\Local\Temp\ccxzV7hg.s 			page 32


 1135 0684 DBB2     		uxtb	r3, r3
 1136 0686 43F00403 		orr	r3, r3, #4
 1137 068a DAB2     		uxtb	r2, r3
 1138 068c 5D4B     		ldr	r3, .L105+20
 1139 068e 1A70     		strb	r2, [r3]
 1140              	.L55:
 624:.\Generated_Source\PSoC5/RTC_1_INT.c ****                                 }
 625:.\Generated_Source\PSoC5/RTC_1_INT.c **** 
 626:.\Generated_Source\PSoC5/RTC_1_INT.c ****                                 RTC_1_currentTimeDate.DayOfMonth--;
 1141              		.loc 1 626 0
 1142 0690 594B     		ldr	r3, .L105+8
 1143 0692 1B79     		ldrb	r3, [r3, #4]
 1144 0694 DBB2     		uxtb	r3, r3
 1145 0696 013B     		subs	r3, r3, #1
 1146 0698 DAB2     		uxtb	r2, r3
 1147 069a 574B     		ldr	r3, .L105+8
 1148 069c 1A71     		strb	r2, [r3, #4]
 627:.\Generated_Source\PSoC5/RTC_1_INT.c ****                                 RTC_1_currentTimeDate.DayOfYear--;
 1149              		.loc 1 627 0
 1150 069e 564B     		ldr	r3, .L105+8
 1151 06a0 DB88     		ldrh	r3, [r3, #6]	@ movhi
 1152 06a2 9BB2     		uxth	r3, r3
 1153 06a4 013B     		subs	r3, r3, #1
 1154 06a6 9AB2     		uxth	r2, r3
 1155 06a8 534B     		ldr	r3, .L105+8
 1156 06aa DA80     		strh	r2, [r3, #6]	@ movhi
 628:.\Generated_Source\PSoC5/RTC_1_INT.c ****                                 RTC_1_currentTimeDate.DayOfWeek--;
 1157              		.loc 1 628 0
 1158 06ac 524B     		ldr	r3, .L105+8
 1159 06ae DB78     		ldrb	r3, [r3, #3]
 1160 06b0 DBB2     		uxtb	r3, r3
 1161 06b2 013B     		subs	r3, r3, #1
 1162 06b4 DAB2     		uxtb	r2, r3
 1163 06b6 504B     		ldr	r3, .L105+8
 1164 06b8 DA70     		strb	r2, [r3, #3]
 629:.\Generated_Source\PSoC5/RTC_1_INT.c **** 
 630:.\Generated_Source\PSoC5/RTC_1_INT.c ****                                 if(0u == RTC_1_currentTimeDate.DayOfWeek)
 1165              		.loc 1 630 0
 1166 06ba 4F4B     		ldr	r3, .L105+8
 1167 06bc DB78     		ldrb	r3, [r3, #3]
 1168 06be DBB2     		uxtb	r3, r3
 1169 06c0 002B     		cmp	r3, #0
 1170 06c2 02D1     		bne	.L56
 631:.\Generated_Source\PSoC5/RTC_1_INT.c ****                                 {
 632:.\Generated_Source\PSoC5/RTC_1_INT.c ****                                     RTC_1_currentTimeDate.DayOfWeek = RTC_1_DAYS_IN_WEEK;
 1171              		.loc 1 632 0
 1172 06c4 4C4B     		ldr	r3, .L105+8
 1173 06c6 0722     		movs	r2, #7
 1174 06c8 DA70     		strb	r2, [r3, #3]
 1175              	.L56:
 633:.\Generated_Source\PSoC5/RTC_1_INT.c ****                                 }
 634:.\Generated_Source\PSoC5/RTC_1_INT.c **** 
 635:.\Generated_Source\PSoC5/RTC_1_INT.c ****                                 if(0u == RTC_1_currentTimeDate.DayOfMonth)
 1176              		.loc 1 635 0
 1177 06ca 4B4B     		ldr	r3, .L105+8
 1178 06cc 1B79     		ldrb	r3, [r3, #4]
 1179 06ce DBB2     		uxtb	r3, r3
ARM GAS  C:\Users\glenn\AppData\Local\Temp\ccxzV7hg.s 			page 33


 1180 06d0 002B     		cmp	r3, #0
 1181 06d2 7FD1     		bne	.L57
 636:.\Generated_Source\PSoC5/RTC_1_INT.c ****                                 {
 637:.\Generated_Source\PSoC5/RTC_1_INT.c ****                                     RTC_1_currentTimeDate.Month--;
 1182              		.loc 1 637 0
 1183 06d4 484B     		ldr	r3, .L105+8
 1184 06d6 1B7A     		ldrb	r3, [r3, #8]
 1185 06d8 DBB2     		uxtb	r3, r3
 1186 06da 013B     		subs	r3, r3, #1
 1187 06dc DAB2     		uxtb	r2, r3
 1188 06de 464B     		ldr	r3, .L105+8
 1189 06e0 1A72     		strb	r2, [r3, #8]
 638:.\Generated_Source\PSoC5/RTC_1_INT.c ****                                     if(0u == RTC_1_currentTimeDate.Month)
 1190              		.loc 1 638 0
 1191 06e2 454B     		ldr	r3, .L105+8
 1192 06e4 1B7A     		ldrb	r3, [r3, #8]
 1193 06e6 DBB2     		uxtb	r3, r3
 1194 06e8 002B     		cmp	r3, #0
 1195 06ea 52D1     		bne	.L58
 639:.\Generated_Source\PSoC5/RTC_1_INT.c ****                                     {
 640:.\Generated_Source\PSoC5/RTC_1_INT.c ****                                         RTC_1_currentTimeDate.Month = RTC_1_DECEMBER;
 1196              		.loc 1 640 0
 1197 06ec 424B     		ldr	r3, .L105+8
 1198 06ee 0C22     		movs	r2, #12
 1199 06f0 1A72     		strb	r2, [r3, #8]
 641:.\Generated_Source\PSoC5/RTC_1_INT.c **** 
 642:.\Generated_Source\PSoC5/RTC_1_INT.c ****                                         RTC_1_currentTimeDate.DayOfMonth =
 643:.\Generated_Source\PSoC5/RTC_1_INT.c ****                                             RTC_1_daysInMonths[RTC_1_currentTimeDate.Month - 1u];
 1200              		.loc 1 643 0
 1201 06f2 414B     		ldr	r3, .L105+8
 1202 06f4 1B7A     		ldrb	r3, [r3, #8]
 1203 06f6 DBB2     		uxtb	r3, r3
 1204 06f8 013B     		subs	r3, r3, #1
 1205 06fa 454A     		ldr	r2, .L105+32
 1206 06fc D25C     		ldrb	r2, [r2, r3]	@ zero_extendqisi2
 642:.\Generated_Source\PSoC5/RTC_1_INT.c ****                                             RTC_1_daysInMonths[RTC_1_currentTimeDate.Month - 1u];
 1207              		.loc 1 642 0
 1208 06fe 3E4B     		ldr	r3, .L105+8
 1209 0700 1A71     		strb	r2, [r3, #4]
 644:.\Generated_Source\PSoC5/RTC_1_INT.c **** 
 645:.\Generated_Source\PSoC5/RTC_1_INT.c ****                                         RTC_1_currentTimeDate.Year--;
 1210              		.loc 1 645 0
 1211 0702 3D4B     		ldr	r3, .L105+8
 1212 0704 5B89     		ldrh	r3, [r3, #10]	@ movhi
 1213 0706 9BB2     		uxth	r3, r3
 1214 0708 013B     		subs	r3, r3, #1
 1215 070a 9AB2     		uxth	r2, r3
 1216 070c 3A4B     		ldr	r3, .L105+8
 1217 070e 5A81     		strh	r2, [r3, #10]	@ movhi
 646:.\Generated_Source\PSoC5/RTC_1_INT.c **** 
 647:.\Generated_Source\PSoC5/RTC_1_INT.c ****                                         if(1u == RTC_1_LEAP_YEAR(RTC_1_currentTimeDate.Year))
 1218              		.loc 1 647 0
 1219 0710 394B     		ldr	r3, .L105+8
 1220 0712 5B89     		ldrh	r3, [r3, #10]	@ movhi
 1221 0714 9BB2     		uxth	r3, r3
 1222 0716 3F4A     		ldr	r2, .L105+36
 1223 0718 A2FB0312 		umull	r1, r2, r2, r3
ARM GAS  C:\Users\glenn\AppData\Local\Temp\ccxzV7hg.s 			page 34


 1224 071c D209     		lsrs	r2, r2, #7
 1225 071e 4FF4C871 		mov	r1, #400
 1226 0722 01FB02F2 		mul	r2, r1, r2
 1227 0726 9B1A     		subs	r3, r3, r2
 1228 0728 9BB2     		uxth	r3, r3
 1229 072a 002B     		cmp	r3, #0
 1230 072c 15D0     		beq	.L59
 1231              		.loc 1 647 0 is_stmt 0 discriminator 1
 1232 072e 324B     		ldr	r3, .L105+8
 1233 0730 5B89     		ldrh	r3, [r3, #10]	@ movhi
 1234 0732 9BB2     		uxth	r3, r3
 1235 0734 03F00303 		and	r3, r3, #3
 1236 0738 9BB2     		uxth	r3, r3
 1237 073a 002B     		cmp	r3, #0
 1238 073c 1AD1     		bne	.L60
 1239              		.loc 1 647 0 discriminator 2
 1240 073e 2E4B     		ldr	r3, .L105+8
 1241 0740 5B89     		ldrh	r3, [r3, #10]	@ movhi
 1242 0742 9BB2     		uxth	r3, r3
 1243 0744 334A     		ldr	r2, .L105+36
 1244 0746 A2FB0312 		umull	r1, r2, r2, r3
 1245 074a 5209     		lsrs	r2, r2, #5
 1246 074c 6421     		movs	r1, #100
 1247 074e 01FB02F2 		mul	r2, r1, r2
 1248 0752 9B1A     		subs	r3, r3, r2
 1249 0754 9BB2     		uxth	r3, r3
 1250 0756 002B     		cmp	r3, #0
 1251 0758 0CD0     		beq	.L60
 1252              	.L59:
 648:.\Generated_Source\PSoC5/RTC_1_INT.c ****                                         {
 649:.\Generated_Source\PSoC5/RTC_1_INT.c ****                                             /* LP - true, else - false */
 650:.\Generated_Source\PSoC5/RTC_1_INT.c ****                                             RTC_1_statusDateTime |= RTC_1_STATUS_LY;
 1253              		.loc 1 650 0 is_stmt 1
 1254 075a 2A4B     		ldr	r3, .L105+20
 1255 075c 1B78     		ldrb	r3, [r3]
 1256 075e DBB2     		uxtb	r3, r3
 1257 0760 43F00203 		orr	r3, r3, #2
 1258 0764 DAB2     		uxtb	r2, r3
 1259 0766 274B     		ldr	r3, .L105+20
 1260 0768 1A70     		strb	r2, [r3]
 651:.\Generated_Source\PSoC5/RTC_1_INT.c ****                                             RTC_1_currentTimeDate.DayOfYear =
 1261              		.loc 1 651 0
 1262 076a 234B     		ldr	r3, .L105+8
 1263 076c 4FF4B772 		mov	r2, #366
 1264 0770 DA80     		strh	r2, [r3, #6]	@ movhi
 1265 0772 0BE0     		b	.L61
 1266              	.L60:
 652:.\Generated_Source\PSoC5/RTC_1_INT.c ****                                                                                     RTC_1_DAYS_IN_L
 653:.\Generated_Source\PSoC5/RTC_1_INT.c ****                                         }
 654:.\Generated_Source\PSoC5/RTC_1_INT.c ****                                         else
 655:.\Generated_Source\PSoC5/RTC_1_INT.c ****                                         {
 656:.\Generated_Source\PSoC5/RTC_1_INT.c ****                                             RTC_1_statusDateTime &= (uint8)(~RTC_1_STATUS_LY);
 1267              		.loc 1 656 0
 1268 0774 234B     		ldr	r3, .L105+20
 1269 0776 1B78     		ldrb	r3, [r3]
 1270 0778 DBB2     		uxtb	r3, r3
 1271 077a 23F00203 		bic	r3, r3, #2
ARM GAS  C:\Users\glenn\AppData\Local\Temp\ccxzV7hg.s 			page 35


 1272 077e DAB2     		uxtb	r2, r3
 1273 0780 204B     		ldr	r3, .L105+20
 1274 0782 1A70     		strb	r2, [r3]
 657:.\Generated_Source\PSoC5/RTC_1_INT.c ****                                             RTC_1_currentTimeDate.DayOfYear = RTC_1_DAYS_IN_YEAR;
 1275              		.loc 1 657 0
 1276 0784 1C4B     		ldr	r3, .L105+8
 1277 0786 40F26D12 		movw	r2, #365
 1278 078a DA80     		strh	r2, [r3, #6]	@ movhi
 1279              	.L61:
 658:.\Generated_Source\PSoC5/RTC_1_INT.c ****                                         }
 659:.\Generated_Source\PSoC5/RTC_1_INT.c ****                                         RTC_1_EveryYearHandler();
 1280              		.loc 1 659 0
 1281 078c FFF7FEFF 		bl	RTC_1_EveryYearHandler
 1282 0790 1EE0     		b	.L62
 1283              	.L58:
 660:.\Generated_Source\PSoC5/RTC_1_INT.c ****                                     }
 661:.\Generated_Source\PSoC5/RTC_1_INT.c ****                                     else
 662:.\Generated_Source\PSoC5/RTC_1_INT.c ****                                     {
 663:.\Generated_Source\PSoC5/RTC_1_INT.c ****                                         /* Day of month roll over.
 664:.\Generated_Source\PSoC5/RTC_1_INT.c ****                                         * Check if day of month February 29 of leap year
 665:.\Generated_Source\PSoC5/RTC_1_INT.c ****                                         */
 666:.\Generated_Source\PSoC5/RTC_1_INT.c ****                                         if((0u != (RTC_1_statusDateTime & RTC_1_STATUS_LY)) &&
 1284              		.loc 1 666 0
 1285 0792 1C4B     		ldr	r3, .L105+20
 1286 0794 1B78     		ldrb	r3, [r3]
 1287 0796 DBB2     		uxtb	r3, r3
 1288 0798 03F00203 		and	r3, r3, #2
 1289 079c 002B     		cmp	r3, #0
 1290 079e 0FD0     		beq	.L63
 667:.\Generated_Source\PSoC5/RTC_1_INT.c ****                                             (RTC_1_currentTimeDate.Month == RTC_1_FEBRUARY))
 1291              		.loc 1 667 0 discriminator 1
 1292 07a0 154B     		ldr	r3, .L105+8
 1293 07a2 1B7A     		ldrb	r3, [r3, #8]
 1294 07a4 DBB2     		uxtb	r3, r3
 666:.\Generated_Source\PSoC5/RTC_1_INT.c ****                                             (RTC_1_currentTimeDate.Month == RTC_1_FEBRUARY))
 1295              		.loc 1 666 0 discriminator 1
 1296 07a6 022B     		cmp	r3, #2
 1297 07a8 0AD1     		bne	.L63
 668:.\Generated_Source\PSoC5/RTC_1_INT.c ****                                         {
 669:.\Generated_Source\PSoC5/RTC_1_INT.c ****                                             RTC_1_currentTimeDate.DayOfMonth =
 670:.\Generated_Source\PSoC5/RTC_1_INT.c ****                                             RTC_1_daysInMonths[RTC_1_currentTimeDate.Month - 1u]
 1298              		.loc 1 670 0
 1299 07aa 134B     		ldr	r3, .L105+8
 1300 07ac 1B7A     		ldrb	r3, [r3, #8]
 1301 07ae DBB2     		uxtb	r3, r3
 1302 07b0 013B     		subs	r3, r3, #1
 1303 07b2 174A     		ldr	r2, .L105+32
 1304 07b4 D35C     		ldrb	r3, [r2, r3]	@ zero_extendqisi2
 669:.\Generated_Source\PSoC5/RTC_1_INT.c ****                                             RTC_1_daysInMonths[RTC_1_currentTimeDate.Month - 1u]
 1305              		.loc 1 669 0
 1306 07b6 0133     		adds	r3, r3, #1
 1307 07b8 DAB2     		uxtb	r2, r3
 1308 07ba 0F4B     		ldr	r3, .L105+8
 1309 07bc 1A71     		strb	r2, [r3, #4]
 1310 07be 07E0     		b	.L62
 1311              	.L63:
 671:.\Generated_Source\PSoC5/RTC_1_INT.c ****                                             + 1u;
ARM GAS  C:\Users\glenn\AppData\Local\Temp\ccxzV7hg.s 			page 36


 672:.\Generated_Source\PSoC5/RTC_1_INT.c ****                                         }
 673:.\Generated_Source\PSoC5/RTC_1_INT.c ****                                         else
 674:.\Generated_Source\PSoC5/RTC_1_INT.c ****                                         {
 675:.\Generated_Source\PSoC5/RTC_1_INT.c ****                                             RTC_1_currentTimeDate.DayOfMonth =
 676:.\Generated_Source\PSoC5/RTC_1_INT.c ****                                             RTC_1_daysInMonths[RTC_1_currentTimeDate.Month - 1u];
 1312              		.loc 1 676 0
 1313 07c0 0D4B     		ldr	r3, .L105+8
 1314 07c2 1B7A     		ldrb	r3, [r3, #8]
 1315 07c4 DBB2     		uxtb	r3, r3
 1316 07c6 013B     		subs	r3, r3, #1
 1317 07c8 114A     		ldr	r2, .L105+32
 1318 07ca D25C     		ldrb	r2, [r2, r3]	@ zero_extendqisi2
 675:.\Generated_Source\PSoC5/RTC_1_INT.c ****                                             RTC_1_daysInMonths[RTC_1_currentTimeDate.Month - 1u];
 1319              		.loc 1 675 0
 1320 07cc 0A4B     		ldr	r3, .L105+8
 1321 07ce 1A71     		strb	r2, [r3, #4]
 1322              	.L62:
 677:.\Generated_Source\PSoC5/RTC_1_INT.c ****                                         }
 678:.\Generated_Source\PSoC5/RTC_1_INT.c ****                                     }
 679:.\Generated_Source\PSoC5/RTC_1_INT.c ****                                     RTC_1_EveryMonthHandler();
 1323              		.loc 1 679 0
 1324 07d0 FFF7FEFF 		bl	RTC_1_EveryMonthHandler
 1325              	.L57:
 680:.\Generated_Source\PSoC5/RTC_1_INT.c ****                                 }
 681:.\Generated_Source\PSoC5/RTC_1_INT.c ****                                 RTC_1_EveryDayHandler();
 1326              		.loc 1 681 0
 1327 07d4 FFF7FEFF 		bl	RTC_1_EveryDayHandler
 1328              	.L53:
 682:.\Generated_Source\PSoC5/RTC_1_INT.c ****                             }
 683:.\Generated_Source\PSoC5/RTC_1_INT.c ****                             RTC_1_statusDateTime &= (uint8)(~RTC_1_STATUS_DST);
 1329              		.loc 1 683 0
 1330 07d8 0A4B     		ldr	r3, .L105+20
 1331 07da 1B78     		ldrb	r3, [r3]
 1332 07dc DBB2     		uxtb	r3, r3
 1333 07de 23F00103 		bic	r3, r3, #1
 1334 07e2 DAB2     		uxtb	r2, r3
 1335 07e4 074B     		ldr	r3, .L105+20
 1336 07e6 1A70     		strb	r2, [r3]
 684:.\Generated_Source\PSoC5/RTC_1_INT.c ****                             RTC_1_dstStopStatus = 0u;
 1337              		.loc 1 684 0
 1338 07e8 014B     		ldr	r3, .L105
 1339 07ea 0022     		movs	r2, #0
 1340 07ec 1A70     		strb	r2, [r3]
 1341 07ee 7EE1     		b	.L64
 1342              	.L106:
 1343              		.align	2
 1344              	.L105:
 1345 07f0 00000000 		.word	RTC_1_dstStopStatus
 1346 07f4 00000000 		.word	RTC_1_dstTimeDateStart
 1347 07f8 00000000 		.word	RTC_1_currentTimeDate
 1348 07fc 00000000 		.word	RTC_1_dstStartStatus
 1349 0800 00000000 		.word	RTC_1_dstModeType
 1350 0804 00000000 		.word	RTC_1_statusDateTime
 1351 0808 00000000 		.word	RTC_1_dstOffsetMin
 1352 080c 89888888 		.word	-2004318071
 1353 0810 00000000 		.word	RTC_1_daysInMonths
 1354 0814 1F85EB51 		.word	1374389535
ARM GAS  C:\Users\glenn\AppData\Local\Temp\ccxzV7hg.s 			page 37


 1355              	.L50:
 685:.\Generated_Source\PSoC5/RTC_1_INT.c ****                         }
 686:.\Generated_Source\PSoC5/RTC_1_INT.c ****                     }
 687:.\Generated_Source\PSoC5/RTC_1_INT.c ****                     else
 688:.\Generated_Source\PSoC5/RTC_1_INT.c ****                     {
 689:.\Generated_Source\PSoC5/RTC_1_INT.c ****                         if(0u != RTC_1_IS_BIT_SET(RTC_1_dstStartStatus,
 1356              		.loc 1 689 0
 1357 0818 9B4B     		ldr	r3, .L107
 1358 081a 1B78     		ldrb	r3, [r3]
 1359 081c DBB2     		uxtb	r3, r3
 1360 081e 03F00703 		and	r3, r3, #7
 1361 0822 072B     		cmp	r3, #7
 1362 0824 40F06381 		bne	.L64
 690:.\Generated_Source\PSoC5/RTC_1_INT.c ****                                                       (RTC_1_DST_HOUR | RTC_1_DST_DAYOFMONTH |
 691:.\Generated_Source\PSoC5/RTC_1_INT.c ****                                                        RTC_1_DST_MONTH)))
 692:.\Generated_Source\PSoC5/RTC_1_INT.c ****                         {
 693:.\Generated_Source\PSoC5/RTC_1_INT.c ****                             /* Add Hour and Min */
 694:.\Generated_Source\PSoC5/RTC_1_INT.c ****                             RTC_1_currentTimeDate.Min +=
 695:.\Generated_Source\PSoC5/RTC_1_INT.c ****                                                 RTC_1_dstOffsetMin % (RTC_1_HOUR_ELAPSED + 1u);
 1363              		.loc 1 695 0
 1364 0828 984B     		ldr	r3, .L107+4
 1365 082a 1B78     		ldrb	r3, [r3]
 1366 082c DAB2     		uxtb	r2, r3
 1367 082e 984B     		ldr	r3, .L107+8
 1368 0830 A3FB0213 		umull	r1, r3, r3, r2
 1369 0834 5909     		lsrs	r1, r3, #5
 1370 0836 0B46     		mov	r3, r1
 1371 0838 1B01     		lsls	r3, r3, #4
 1372 083a 5B1A     		subs	r3, r3, r1
 1373 083c 9B00     		lsls	r3, r3, #2
 1374 083e D31A     		subs	r3, r2, r3
 1375 0840 DBB2     		uxtb	r3, r3
 1376 0842 1946     		mov	r1, r3
 694:.\Generated_Source\PSoC5/RTC_1_INT.c ****                                                 RTC_1_dstOffsetMin % (RTC_1_HOUR_ELAPSED + 1u);
 1377              		.loc 1 694 0
 1378 0844 934B     		ldr	r3, .L107+12
 1379 0846 5B78     		ldrb	r3, [r3, #1]
 1380 0848 DAB2     		uxtb	r2, r3
 1381 084a CBB2     		uxtb	r3, r1
 1382 084c 1344     		add	r3, r3, r2
 1383 084e DAB2     		uxtb	r2, r3
 1384 0850 904B     		ldr	r3, .L107+12
 1385 0852 5A70     		strb	r2, [r3, #1]
 696:.\Generated_Source\PSoC5/RTC_1_INT.c **** 
 697:.\Generated_Source\PSoC5/RTC_1_INT.c ****                             if(RTC_1_currentTimeDate.Min > RTC_1_HOUR_ELAPSED)
 1386              		.loc 1 697 0
 1387 0854 8F4B     		ldr	r3, .L107+12
 1388 0856 5B78     		ldrb	r3, [r3, #1]
 1389 0858 DBB2     		uxtb	r3, r3
 1390 085a 3B2B     		cmp	r3, #59
 1391 085c 0DD9     		bls	.L65
 698:.\Generated_Source\PSoC5/RTC_1_INT.c ****                             {
 699:.\Generated_Source\PSoC5/RTC_1_INT.c ****                                 /* Adjust Min */
 700:.\Generated_Source\PSoC5/RTC_1_INT.c ****                                 RTC_1_currentTimeDate.Min -= (RTC_1_HOUR_ELAPSED + 1u);
 1392              		.loc 1 700 0
 1393 085e 8D4B     		ldr	r3, .L107+12
 1394 0860 5B78     		ldrb	r3, [r3, #1]
ARM GAS  C:\Users\glenn\AppData\Local\Temp\ccxzV7hg.s 			page 38


 1395 0862 DBB2     		uxtb	r3, r3
 1396 0864 3C3B     		subs	r3, r3, #60
 1397 0866 DAB2     		uxtb	r2, r3
 1398 0868 8A4B     		ldr	r3, .L107+12
 1399 086a 5A70     		strb	r2, [r3, #1]
 701:.\Generated_Source\PSoC5/RTC_1_INT.c ****                                 RTC_1_currentTimeDate.Hour++;
 1400              		.loc 1 701 0
 1401 086c 894B     		ldr	r3, .L107+12
 1402 086e 9B78     		ldrb	r3, [r3, #2]
 1403 0870 DBB2     		uxtb	r3, r3
 1404 0872 0133     		adds	r3, r3, #1
 1405 0874 DAB2     		uxtb	r2, r3
 1406 0876 874B     		ldr	r3, .L107+12
 1407 0878 9A70     		strb	r2, [r3, #2]
 1408              	.L65:
 702:.\Generated_Source\PSoC5/RTC_1_INT.c ****                             }
 703:.\Generated_Source\PSoC5/RTC_1_INT.c **** 
 704:.\Generated_Source\PSoC5/RTC_1_INT.c ****                             RTC_1_currentTimeDate.Hour += RTC_1_dstOffsetMin /
 1409              		.loc 1 704 0
 1410 087a 844B     		ldr	r3, .L107+4
 1411 087c 1B78     		ldrb	r3, [r3]
 1412 087e DBB2     		uxtb	r3, r3
 1413 0880 834A     		ldr	r2, .L107+8
 1414 0882 A2FB0323 		umull	r2, r3, r2, r3
 1415 0886 5B09     		lsrs	r3, r3, #5
 1416 0888 DBB2     		uxtb	r3, r3
 1417 088a 1946     		mov	r1, r3
 1418 088c 814B     		ldr	r3, .L107+12
 1419 088e 9B78     		ldrb	r3, [r3, #2]
 1420 0890 DAB2     		uxtb	r2, r3
 1421 0892 CBB2     		uxtb	r3, r1
 1422 0894 1344     		add	r3, r3, r2
 1423 0896 DAB2     		uxtb	r2, r3
 1424 0898 7E4B     		ldr	r3, .L107+12
 1425 089a 9A70     		strb	r2, [r3, #2]
 705:.\Generated_Source\PSoC5/RTC_1_INT.c ****                                                                      (RTC_1_HOUR_ELAPSED + 1u);
 706:.\Generated_Source\PSoC5/RTC_1_INT.c **** 
 707:.\Generated_Source\PSoC5/RTC_1_INT.c ****                             if(RTC_1_currentTimeDate.Hour > RTC_1_DAY_ELAPSED)
 1426              		.loc 1 707 0
 1427 089c 7D4B     		ldr	r3, .L107+12
 1428 089e 9B78     		ldrb	r3, [r3, #2]
 1429 08a0 DBB2     		uxtb	r3, r3
 1430 08a2 172B     		cmp	r3, #23
 1431 08a4 40F2D480 		bls	.L66
 708:.\Generated_Source\PSoC5/RTC_1_INT.c ****                             {
 709:.\Generated_Source\PSoC5/RTC_1_INT.c ****                                 /* Adjust hour, add day */
 710:.\Generated_Source\PSoC5/RTC_1_INT.c ****                                 RTC_1_currentTimeDate.Hour -= (RTC_1_DAY_ELAPSED + 1u);
 1432              		.loc 1 710 0
 1433 08a8 7A4B     		ldr	r3, .L107+12
 1434 08aa 9B78     		ldrb	r3, [r3, #2]
 1435 08ac DBB2     		uxtb	r3, r3
 1436 08ae 183B     		subs	r3, r3, #24
 1437 08b0 DAB2     		uxtb	r2, r3
 1438 08b2 784B     		ldr	r3, .L107+12
 1439 08b4 9A70     		strb	r2, [r3, #2]
 711:.\Generated_Source\PSoC5/RTC_1_INT.c **** 
 712:.\Generated_Source\PSoC5/RTC_1_INT.c ****                                 /* Status set PM/AM flag */
ARM GAS  C:\Users\glenn\AppData\Local\Temp\ccxzV7hg.s 			page 39


 713:.\Generated_Source\PSoC5/RTC_1_INT.c ****                                 if(RTC_1_currentTimeDate.Hour < RTC_1_HALF_OF_DAY_ELAPSED)
 1440              		.loc 1 713 0
 1441 08b6 774B     		ldr	r3, .L107+12
 1442 08b8 9B78     		ldrb	r3, [r3, #2]
 1443 08ba DBB2     		uxtb	r3, r3
 1444 08bc 0B2B     		cmp	r3, #11
 1445 08be 08D8     		bhi	.L67
 714:.\Generated_Source\PSoC5/RTC_1_INT.c ****                                 {
 715:.\Generated_Source\PSoC5/RTC_1_INT.c ****                                     /* AM Hour 00:00-11:59, flag zero */
 716:.\Generated_Source\PSoC5/RTC_1_INT.c ****                                     RTC_1_statusDateTime &= (uint8)(~RTC_1_STATUS_AM_PM);
 1446              		.loc 1 716 0
 1447 08c0 754B     		ldr	r3, .L107+16
 1448 08c2 1B78     		ldrb	r3, [r3]
 1449 08c4 DBB2     		uxtb	r3, r3
 1450 08c6 23F00403 		bic	r3, r3, #4
 1451 08ca DAB2     		uxtb	r2, r3
 1452 08cc 724B     		ldr	r3, .L107+16
 1453 08ce 1A70     		strb	r2, [r3]
 1454 08d0 07E0     		b	.L68
 1455              	.L67:
 717:.\Generated_Source\PSoC5/RTC_1_INT.c ****                                 }
 718:.\Generated_Source\PSoC5/RTC_1_INT.c ****                                 else
 719:.\Generated_Source\PSoC5/RTC_1_INT.c ****                                 {
 720:.\Generated_Source\PSoC5/RTC_1_INT.c ****                                     /* PM Hour 12:00-23:59, flag set */
 721:.\Generated_Source\PSoC5/RTC_1_INT.c ****                                     RTC_1_statusDateTime |= RTC_1_STATUS_AM_PM;
 1456              		.loc 1 721 0
 1457 08d2 714B     		ldr	r3, .L107+16
 1458 08d4 1B78     		ldrb	r3, [r3]
 1459 08d6 DBB2     		uxtb	r3, r3
 1460 08d8 43F00403 		orr	r3, r3, #4
 1461 08dc DAB2     		uxtb	r2, r3
 1462 08de 6E4B     		ldr	r3, .L107+16
 1463 08e0 1A70     		strb	r2, [r3]
 1464              	.L68:
 722:.\Generated_Source\PSoC5/RTC_1_INT.c ****                                 }
 723:.\Generated_Source\PSoC5/RTC_1_INT.c **** 
 724:.\Generated_Source\PSoC5/RTC_1_INT.c ****                                 RTC_1_currentTimeDate.DayOfMonth++;
 1465              		.loc 1 724 0
 1466 08e2 6C4B     		ldr	r3, .L107+12
 1467 08e4 1B79     		ldrb	r3, [r3, #4]
 1468 08e6 DBB2     		uxtb	r3, r3
 1469 08e8 0133     		adds	r3, r3, #1
 1470 08ea DAB2     		uxtb	r2, r3
 1471 08ec 694B     		ldr	r3, .L107+12
 1472 08ee 1A71     		strb	r2, [r3, #4]
 725:.\Generated_Source\PSoC5/RTC_1_INT.c ****                                 RTC_1_currentTimeDate.DayOfYear++;
 1473              		.loc 1 725 0
 1474 08f0 684B     		ldr	r3, .L107+12
 1475 08f2 DB88     		ldrh	r3, [r3, #6]	@ movhi
 1476 08f4 9BB2     		uxth	r3, r3
 1477 08f6 0133     		adds	r3, r3, #1
 1478 08f8 9AB2     		uxth	r2, r3
 1479 08fa 664B     		ldr	r3, .L107+12
 1480 08fc DA80     		strh	r2, [r3, #6]	@ movhi
 726:.\Generated_Source\PSoC5/RTC_1_INT.c ****                                 RTC_1_currentTimeDate.DayOfWeek++;
 1481              		.loc 1 726 0
 1482 08fe 654B     		ldr	r3, .L107+12
ARM GAS  C:\Users\glenn\AppData\Local\Temp\ccxzV7hg.s 			page 40


 1483 0900 DB78     		ldrb	r3, [r3, #3]
 1484 0902 DBB2     		uxtb	r3, r3
 1485 0904 0133     		adds	r3, r3, #1
 1486 0906 DAB2     		uxtb	r2, r3
 1487 0908 624B     		ldr	r3, .L107+12
 1488 090a DA70     		strb	r2, [r3, #3]
 727:.\Generated_Source\PSoC5/RTC_1_INT.c **** 
 728:.\Generated_Source\PSoC5/RTC_1_INT.c ****                                 if(RTC_1_currentTimeDate.DayOfWeek > RTC_1_WEEK_ELAPSED)
 1489              		.loc 1 728 0
 1490 090c 614B     		ldr	r3, .L107+12
 1491 090e DB78     		ldrb	r3, [r3, #3]
 1492 0910 DBB2     		uxtb	r3, r3
 1493 0912 072B     		cmp	r3, #7
 1494 0914 02D9     		bls	.L69
 729:.\Generated_Source\PSoC5/RTC_1_INT.c ****                                 {
 730:.\Generated_Source\PSoC5/RTC_1_INT.c ****                                     RTC_1_currentTimeDate.DayOfWeek = 1u;
 1495              		.loc 1 730 0
 1496 0916 5F4B     		ldr	r3, .L107+12
 1497 0918 0122     		movs	r2, #1
 1498 091a DA70     		strb	r2, [r3, #3]
 1499              	.L69:
 731:.\Generated_Source\PSoC5/RTC_1_INT.c ****                                 }
 732:.\Generated_Source\PSoC5/RTC_1_INT.c **** 
 733:.\Generated_Source\PSoC5/RTC_1_INT.c ****                                 /* Day of month roll over.
 734:.\Generated_Source\PSoC5/RTC_1_INT.c ****                                 * Check if day of month greater than 29 in February of leap year or
 735:.\Generated_Source\PSoC5/RTC_1_INT.c ****                                 * if day of month greater than 28 NOT in February of NON leap year 
 736:.\Generated_Source\PSoC5/RTC_1_INT.c ****                                 * if day of month greater than it should be in every month in non l
 737:.\Generated_Source\PSoC5/RTC_1_INT.c ****                                 */
 738:.\Generated_Source\PSoC5/RTC_1_INT.c ****                                 if(((0u != (RTC_1_statusDateTime & RTC_1_STATUS_LY)) &&
 1500              		.loc 1 738 0
 1501 091c 5E4B     		ldr	r3, .L107+16
 1502 091e 1B78     		ldrb	r3, [r3]
 1503 0920 DBB2     		uxtb	r3, r3
 1504 0922 03F00203 		and	r3, r3, #2
 1505 0926 002B     		cmp	r3, #0
 1506 0928 11D0     		beq	.L70
 739:.\Generated_Source\PSoC5/RTC_1_INT.c ****                                     (RTC_1_currentTimeDate.Month == RTC_1_FEBRUARY)  &&
 1507              		.loc 1 739 0 discriminator 1
 1508 092a 5A4B     		ldr	r3, .L107+12
 1509 092c 1B7A     		ldrb	r3, [r3, #8]
 1510 092e DBB2     		uxtb	r3, r3
 738:.\Generated_Source\PSoC5/RTC_1_INT.c ****                                     (RTC_1_currentTimeDate.Month == RTC_1_FEBRUARY)  &&
 1511              		.loc 1 738 0 discriminator 1
 1512 0930 022B     		cmp	r3, #2
 1513 0932 0CD1     		bne	.L70
 740:.\Generated_Source\PSoC5/RTC_1_INT.c ****                                     (RTC_1_currentTimeDate.DayOfMonth >
 1514              		.loc 1 740 0
 1515 0934 574B     		ldr	r3, .L107+12
 1516 0936 1B79     		ldrb	r3, [r3, #4]
 1517 0938 DBB2     		uxtb	r3, r3
 1518 093a 1946     		mov	r1, r3
 741:.\Generated_Source\PSoC5/RTC_1_INT.c ****                                   (RTC_1_daysInMonths[RTC_1_currentTimeDate.Month - 1u] + 1u))) ||
 1519              		.loc 1 741 0
 1520 093c 554B     		ldr	r3, .L107+12
 1521 093e 1B7A     		ldrb	r3, [r3, #8]
 1522 0940 DBB2     		uxtb	r3, r3
 1523 0942 013B     		subs	r3, r3, #1
ARM GAS  C:\Users\glenn\AppData\Local\Temp\ccxzV7hg.s 			page 41


 1524 0944 554A     		ldr	r2, .L107+20
 1525 0946 D35C     		ldrb	r3, [r2, r3]	@ zero_extendqisi2
 1526 0948 0133     		adds	r3, r3, #1
 739:.\Generated_Source\PSoC5/RTC_1_INT.c ****                                     (RTC_1_currentTimeDate.DayOfMonth >
 1527              		.loc 1 739 0
 1528 094a 9942     		cmp	r1, r3
 1529 094c 28D8     		bhi	.L71
 1530              	.L70:
 742:.\Generated_Source\PSoC5/RTC_1_INT.c ****                                    ((0u != (RTC_1_statusDateTime & RTC_1_STATUS_LY)) &&
 1531              		.loc 1 742 0
 1532 094e 524B     		ldr	r3, .L107+16
 1533 0950 1B78     		ldrb	r3, [r3]
 1534 0952 DBB2     		uxtb	r3, r3
 1535 0954 03F00203 		and	r3, r3, #2
 741:.\Generated_Source\PSoC5/RTC_1_INT.c ****                                   (RTC_1_daysInMonths[RTC_1_currentTimeDate.Month - 1u] + 1u))) ||
 1536              		.loc 1 741 0
 1537 0958 002B     		cmp	r3, #0
 1538 095a 0FD0     		beq	.L72
 743:.\Generated_Source\PSoC5/RTC_1_INT.c ****                                     (RTC_1_currentTimeDate.Month != RTC_1_FEBRUARY)  &&
 1539              		.loc 1 743 0
 1540 095c 4D4B     		ldr	r3, .L107+12
 1541 095e 1B7A     		ldrb	r3, [r3, #8]
 1542 0960 DBB2     		uxtb	r3, r3
 742:.\Generated_Source\PSoC5/RTC_1_INT.c ****                                    ((0u != (RTC_1_statusDateTime & RTC_1_STATUS_LY)) &&
 1543              		.loc 1 742 0
 1544 0962 022B     		cmp	r3, #2
 1545 0964 0AD0     		beq	.L72
 744:.\Generated_Source\PSoC5/RTC_1_INT.c ****                                     (RTC_1_currentTimeDate.DayOfMonth >
 1546              		.loc 1 744 0
 1547 0966 4B4B     		ldr	r3, .L107+12
 1548 0968 1B79     		ldrb	r3, [r3, #4]
 1549 096a DAB2     		uxtb	r2, r3
 745:.\Generated_Source\PSoC5/RTC_1_INT.c ****                                      RTC_1_daysInMonths[RTC_1_currentTimeDate.Month - 1u])) ||
 1550              		.loc 1 745 0
 1551 096c 494B     		ldr	r3, .L107+12
 1552 096e 1B7A     		ldrb	r3, [r3, #8]
 1553 0970 DBB2     		uxtb	r3, r3
 1554 0972 013B     		subs	r3, r3, #1
 1555 0974 4949     		ldr	r1, .L107+20
 1556 0976 CB5C     		ldrb	r3, [r1, r3]	@ zero_extendqisi2
 743:.\Generated_Source\PSoC5/RTC_1_INT.c ****                                     (RTC_1_currentTimeDate.Month != RTC_1_FEBRUARY)  &&
 1557              		.loc 1 743 0
 1558 0978 9A42     		cmp	r2, r3
 1559 097a 11D8     		bhi	.L71
 1560              	.L72:
 746:.\Generated_Source\PSoC5/RTC_1_INT.c ****                                    ((0u == (RTC_1_statusDateTime & RTC_1_STATUS_LY)) &&
 1561              		.loc 1 746 0
 1562 097c 464B     		ldr	r3, .L107+16
 1563 097e 1B78     		ldrb	r3, [r3]
 1564 0980 DBB2     		uxtb	r3, r3
 1565 0982 03F00203 		and	r3, r3, #2
 745:.\Generated_Source\PSoC5/RTC_1_INT.c ****                                      RTC_1_daysInMonths[RTC_1_currentTimeDate.Month - 1u])) ||
 1566              		.loc 1 745 0
 1567 0986 002B     		cmp	r3, #0
 1568 0988 60D1     		bne	.L73
 747:.\Generated_Source\PSoC5/RTC_1_INT.c ****                                     (RTC_1_currentTimeDate.DayOfMonth >
 1569              		.loc 1 747 0
ARM GAS  C:\Users\glenn\AppData\Local\Temp\ccxzV7hg.s 			page 42


 1570 098a 424B     		ldr	r3, .L107+12
 1571 098c 1B79     		ldrb	r3, [r3, #4]
 1572 098e DAB2     		uxtb	r2, r3
 748:.\Generated_Source\PSoC5/RTC_1_INT.c ****                                      RTC_1_daysInMonths[RTC_1_currentTimeDate.Month - 1u])))
 1573              		.loc 1 748 0
 1574 0990 404B     		ldr	r3, .L107+12
 1575 0992 1B7A     		ldrb	r3, [r3, #8]
 1576 0994 DBB2     		uxtb	r3, r3
 1577 0996 013B     		subs	r3, r3, #1
 1578 0998 4049     		ldr	r1, .L107+20
 1579 099a CB5C     		ldrb	r3, [r1, r3]	@ zero_extendqisi2
 746:.\Generated_Source\PSoC5/RTC_1_INT.c ****                                    ((0u == (RTC_1_statusDateTime & RTC_1_STATUS_LY)) &&
 1580              		.loc 1 746 0
 1581 099c 9A42     		cmp	r2, r3
 1582 099e 55D9     		bls	.L73
 1583              	.L71:
 749:.\Generated_Source\PSoC5/RTC_1_INT.c ****                                 {
 750:.\Generated_Source\PSoC5/RTC_1_INT.c ****                                     RTC_1_currentTimeDate.Month++;
 1584              		.loc 1 750 0
 1585 09a0 3C4B     		ldr	r3, .L107+12
 1586 09a2 1B7A     		ldrb	r3, [r3, #8]
 1587 09a4 DBB2     		uxtb	r3, r3
 1588 09a6 0133     		adds	r3, r3, #1
 1589 09a8 DAB2     		uxtb	r2, r3
 1590 09aa 3A4B     		ldr	r3, .L107+12
 1591 09ac 1A72     		strb	r2, [r3, #8]
 751:.\Generated_Source\PSoC5/RTC_1_INT.c ****                                     RTC_1_currentTimeDate.DayOfMonth = 1u;
 1592              		.loc 1 751 0
 1593 09ae 394B     		ldr	r3, .L107+12
 1594 09b0 0122     		movs	r2, #1
 1595 09b2 1A71     		strb	r2, [r3, #4]
 752:.\Generated_Source\PSoC5/RTC_1_INT.c ****                                     if(RTC_1_currentTimeDate.Month > RTC_1_YEAR_ELAPSED)
 1596              		.loc 1 752 0
 1597 09b4 374B     		ldr	r3, .L107+12
 1598 09b6 1B7A     		ldrb	r3, [r3, #8]
 1599 09b8 DBB2     		uxtb	r3, r3
 1600 09ba 0C2B     		cmp	r3, #12
 1601 09bc 44D9     		bls	.L74
 753:.\Generated_Source\PSoC5/RTC_1_INT.c ****                                     {
 754:.\Generated_Source\PSoC5/RTC_1_INT.c ****                                         RTC_1_currentTimeDate.Month = RTC_1_JANUARY;
 1602              		.loc 1 754 0
 1603 09be 354B     		ldr	r3, .L107+12
 1604 09c0 0122     		movs	r2, #1
 1605 09c2 1A72     		strb	r2, [r3, #8]
 755:.\Generated_Source\PSoC5/RTC_1_INT.c ****                                         RTC_1_currentTimeDate.Year++;
 1606              		.loc 1 755 0
 1607 09c4 334B     		ldr	r3, .L107+12
 1608 09c6 5B89     		ldrh	r3, [r3, #10]	@ movhi
 1609 09c8 9BB2     		uxth	r3, r3
 1610 09ca 0133     		adds	r3, r3, #1
 1611 09cc 9AB2     		uxth	r2, r3
 1612 09ce 314B     		ldr	r3, .L107+12
 1613 09d0 5A81     		strh	r2, [r3, #10]	@ movhi
 756:.\Generated_Source\PSoC5/RTC_1_INT.c **** 
 757:.\Generated_Source\PSoC5/RTC_1_INT.c ****                                         if(1u == RTC_1_LEAP_YEAR(RTC_1_currentTimeDate.Year))
 1614              		.loc 1 757 0
 1615 09d2 304B     		ldr	r3, .L107+12
ARM GAS  C:\Users\glenn\AppData\Local\Temp\ccxzV7hg.s 			page 43


 1616 09d4 5B89     		ldrh	r3, [r3, #10]	@ movhi
 1617 09d6 9BB2     		uxth	r3, r3
 1618 09d8 314A     		ldr	r2, .L107+24
 1619 09da A2FB0312 		umull	r1, r2, r2, r3
 1620 09de D209     		lsrs	r2, r2, #7
 1621 09e0 4FF4C871 		mov	r1, #400
 1622 09e4 01FB02F2 		mul	r2, r1, r2
 1623 09e8 9B1A     		subs	r3, r3, r2
 1624 09ea 9BB2     		uxth	r3, r3
 1625 09ec 002B     		cmp	r3, #0
 1626 09ee 15D0     		beq	.L75
 1627              		.loc 1 757 0 is_stmt 0 discriminator 1
 1628 09f0 284B     		ldr	r3, .L107+12
 1629 09f2 5B89     		ldrh	r3, [r3, #10]	@ movhi
 1630 09f4 9BB2     		uxth	r3, r3
 1631 09f6 03F00303 		and	r3, r3, #3
 1632 09fa 9BB2     		uxth	r3, r3
 1633 09fc 002B     		cmp	r3, #0
 1634 09fe 16D1     		bne	.L76
 1635              		.loc 1 757 0 discriminator 2
 1636 0a00 244B     		ldr	r3, .L107+12
 1637 0a02 5B89     		ldrh	r3, [r3, #10]	@ movhi
 1638 0a04 9BB2     		uxth	r3, r3
 1639 0a06 264A     		ldr	r2, .L107+24
 1640 0a08 A2FB0312 		umull	r1, r2, r2, r3
 1641 0a0c 5209     		lsrs	r2, r2, #5
 1642 0a0e 6421     		movs	r1, #100
 1643 0a10 01FB02F2 		mul	r2, r1, r2
 1644 0a14 9B1A     		subs	r3, r3, r2
 1645 0a16 9BB2     		uxth	r3, r3
 1646 0a18 002B     		cmp	r3, #0
 1647 0a1a 08D0     		beq	.L76
 1648              	.L75:
 758:.\Generated_Source\PSoC5/RTC_1_INT.c ****                                         {
 759:.\Generated_Source\PSoC5/RTC_1_INT.c ****                                             /* LP - true, else - false */
 760:.\Generated_Source\PSoC5/RTC_1_INT.c ****                                             RTC_1_statusDateTime |= RTC_1_STATUS_LY;
 1649              		.loc 1 760 0 is_stmt 1
 1650 0a1c 1E4B     		ldr	r3, .L107+16
 1651 0a1e 1B78     		ldrb	r3, [r3]
 1652 0a20 DBB2     		uxtb	r3, r3
 1653 0a22 43F00203 		orr	r3, r3, #2
 1654 0a26 DAB2     		uxtb	r2, r3
 1655 0a28 1B4B     		ldr	r3, .L107+16
 1656 0a2a 1A70     		strb	r2, [r3]
 1657 0a2c 07E0     		b	.L77
 1658              	.L76:
 761:.\Generated_Source\PSoC5/RTC_1_INT.c ****                                         }
 762:.\Generated_Source\PSoC5/RTC_1_INT.c ****                                         else
 763:.\Generated_Source\PSoC5/RTC_1_INT.c ****                                         {
 764:.\Generated_Source\PSoC5/RTC_1_INT.c ****                                             RTC_1_statusDateTime &= (uint8)(~RTC_1_STATUS_LY);
 1659              		.loc 1 764 0
 1660 0a2e 1A4B     		ldr	r3, .L107+16
 1661 0a30 1B78     		ldrb	r3, [r3]
 1662 0a32 DBB2     		uxtb	r3, r3
 1663 0a34 23F00203 		bic	r3, r3, #2
 1664 0a38 DAB2     		uxtb	r2, r3
 1665 0a3a 174B     		ldr	r3, .L107+16
ARM GAS  C:\Users\glenn\AppData\Local\Temp\ccxzV7hg.s 			page 44


 1666 0a3c 1A70     		strb	r2, [r3]
 1667              	.L77:
 765:.\Generated_Source\PSoC5/RTC_1_INT.c ****                                         }
 766:.\Generated_Source\PSoC5/RTC_1_INT.c ****                                         RTC_1_currentTimeDate.DayOfYear = 1u;
 1668              		.loc 1 766 0
 1669 0a3e 154B     		ldr	r3, .L107+12
 1670 0a40 0122     		movs	r2, #1
 1671 0a42 DA80     		strh	r2, [r3, #6]	@ movhi
 767:.\Generated_Source\PSoC5/RTC_1_INT.c **** 
 768:.\Generated_Source\PSoC5/RTC_1_INT.c ****                                         RTC_1_EveryYearHandler();
 1672              		.loc 1 768 0
 1673 0a44 FFF7FEFF 		bl	RTC_1_EveryYearHandler
 1674              	.L74:
 769:.\Generated_Source\PSoC5/RTC_1_INT.c ****                                     }
 770:.\Generated_Source\PSoC5/RTC_1_INT.c ****                                     RTC_1_EveryMonthHandler();
 1675              		.loc 1 770 0
 1676 0a48 FFF7FEFF 		bl	RTC_1_EveryMonthHandler
 1677              	.L73:
 771:.\Generated_Source\PSoC5/RTC_1_INT.c ****                                 }
 772:.\Generated_Source\PSoC5/RTC_1_INT.c ****                                 RTC_1_EveryDayHandler();
 1678              		.loc 1 772 0
 1679 0a4c FFF7FEFF 		bl	RTC_1_EveryDayHandler
 1680              	.L66:
 773:.\Generated_Source\PSoC5/RTC_1_INT.c ****                             }
 774:.\Generated_Source\PSoC5/RTC_1_INT.c ****                             RTC_1_statusDateTime |= RTC_1_STATUS_DST;
 1681              		.loc 1 774 0
 1682 0a50 114B     		ldr	r3, .L107+16
 1683 0a52 1B78     		ldrb	r3, [r3]
 1684 0a54 DBB2     		uxtb	r3, r3
 1685 0a56 43F00103 		orr	r3, r3, #1
 1686 0a5a DAB2     		uxtb	r2, r3
 1687 0a5c 0E4B     		ldr	r3, .L107+16
 1688 0a5e 1A70     		strb	r2, [r3]
 775:.\Generated_Source\PSoC5/RTC_1_INT.c ****                             RTC_1_dstStartStatus = 0u;
 1689              		.loc 1 775 0
 1690 0a60 094B     		ldr	r3, .L107
 1691 0a62 0022     		movs	r2, #0
 1692 0a64 1A70     		strb	r2, [r3]
 776:.\Generated_Source\PSoC5/RTC_1_INT.c **** 
 777:.\Generated_Source\PSoC5/RTC_1_INT.c ****                             /* Month */
 778:.\Generated_Source\PSoC5/RTC_1_INT.c ****                             if(RTC_1_dstTimeDateStop.Month == RTC_1_currentTimeDate.Month)
 1693              		.loc 1 778 0
 1694 0a66 0F4B     		ldr	r3, .L107+28
 1695 0a68 1B79     		ldrb	r3, [r3, #4]
 1696 0a6a DAB2     		uxtb	r2, r3
 1697 0a6c 094B     		ldr	r3, .L107+12
 1698 0a6e 1B7A     		ldrb	r3, [r3, #8]
 1699 0a70 DBB2     		uxtb	r3, r3
 1700 0a72 9A42     		cmp	r2, r3
 1701 0a74 1AD1     		bne	.L78
 779:.\Generated_Source\PSoC5/RTC_1_INT.c ****                             {
 780:.\Generated_Source\PSoC5/RTC_1_INT.c ****                                 RTC_1_dstStopStatus |= RTC_1_DST_MONTH;
 1702              		.loc 1 780 0
 1703 0a76 0C4B     		ldr	r3, .L107+32
 1704 0a78 1B78     		ldrb	r3, [r3]
 1705 0a7a DBB2     		uxtb	r3, r3
 1706 0a7c 43F00403 		orr	r3, r3, #4
ARM GAS  C:\Users\glenn\AppData\Local\Temp\ccxzV7hg.s 			page 45


 1707 0a80 DAB2     		uxtb	r2, r3
 1708 0a82 094B     		ldr	r3, .L107+32
 1709 0a84 1A70     		strb	r2, [r3]
 1710 0a86 19E0     		b	.L79
 1711              	.L108:
 1712              		.align	2
 1713              	.L107:
 1714 0a88 00000000 		.word	RTC_1_dstStartStatus
 1715 0a8c 00000000 		.word	RTC_1_dstOffsetMin
 1716 0a90 89888888 		.word	-2004318071
 1717 0a94 00000000 		.word	RTC_1_currentTimeDate
 1718 0a98 00000000 		.word	RTC_1_statusDateTime
 1719 0a9c 00000000 		.word	RTC_1_daysInMonths
 1720 0aa0 1F85EB51 		.word	1374389535
 1721 0aa4 00000000 		.word	RTC_1_dstTimeDateStop
 1722 0aa8 00000000 		.word	RTC_1_dstStopStatus
 1723              	.L78:
 781:.\Generated_Source\PSoC5/RTC_1_INT.c ****                             }
 782:.\Generated_Source\PSoC5/RTC_1_INT.c ****                             else
 783:.\Generated_Source\PSoC5/RTC_1_INT.c ****                             {
 784:.\Generated_Source\PSoC5/RTC_1_INT.c ****                                 RTC_1_dstStopStatus &= (uint8)(~RTC_1_DST_MONTH);
 1724              		.loc 1 784 0
 1725 0aac 9A4B     		ldr	r3, .L109
 1726 0aae 1B78     		ldrb	r3, [r3]
 1727 0ab0 DBB2     		uxtb	r3, r3
 1728 0ab2 23F00403 		bic	r3, r3, #4
 1729 0ab6 DAB2     		uxtb	r2, r3
 1730 0ab8 974B     		ldr	r3, .L109
 1731 0aba 1A70     		strb	r2, [r3]
 1732              	.L79:
 785:.\Generated_Source\PSoC5/RTC_1_INT.c ****                             }
 786:.\Generated_Source\PSoC5/RTC_1_INT.c **** 
 787:.\Generated_Source\PSoC5/RTC_1_INT.c ****                             /* DayOfMonth */
 788:.\Generated_Source\PSoC5/RTC_1_INT.c ****                             if(RTC_1_dstTimeDateStop.DayOfMonth ==
 1733              		.loc 1 788 0
 1734 0abc 974B     		ldr	r3, .L109+4
 1735 0abe DB78     		ldrb	r3, [r3, #3]
 1736 0ac0 DAB2     		uxtb	r2, r3
 789:.\Generated_Source\PSoC5/RTC_1_INT.c ****                                                                             RTC_1_currentTimeDate.D
 1737              		.loc 1 789 0
 1738 0ac2 974B     		ldr	r3, .L109+8
 1739 0ac4 1B79     		ldrb	r3, [r3, #4]
 1740 0ac6 DBB2     		uxtb	r3, r3
 788:.\Generated_Source\PSoC5/RTC_1_INT.c ****                                                                             RTC_1_currentTimeDate.D
 1741              		.loc 1 788 0
 1742 0ac8 9A42     		cmp	r2, r3
 1743 0aca 08D1     		bne	.L80
 790:.\Generated_Source\PSoC5/RTC_1_INT.c ****                             {
 791:.\Generated_Source\PSoC5/RTC_1_INT.c ****                                 RTC_1_dstStopStatus |= RTC_1_DST_DAYOFMONTH;
 1744              		.loc 1 791 0
 1745 0acc 924B     		ldr	r3, .L109
 1746 0ace 1B78     		ldrb	r3, [r3]
 1747 0ad0 DBB2     		uxtb	r3, r3
 1748 0ad2 43F00203 		orr	r3, r3, #2
 1749 0ad6 DAB2     		uxtb	r2, r3
 1750 0ad8 8F4B     		ldr	r3, .L109
 1751 0ada 1A70     		strb	r2, [r3]
ARM GAS  C:\Users\glenn\AppData\Local\Temp\ccxzV7hg.s 			page 46


 1752 0adc 07E0     		b	.L64
 1753              	.L80:
 792:.\Generated_Source\PSoC5/RTC_1_INT.c ****                             }
 793:.\Generated_Source\PSoC5/RTC_1_INT.c ****                             else
 794:.\Generated_Source\PSoC5/RTC_1_INT.c ****                             {
 795:.\Generated_Source\PSoC5/RTC_1_INT.c ****                                 RTC_1_dstStopStatus &= (uint8)(~RTC_1_DST_DAYOFMONTH);
 1754              		.loc 1 795 0
 1755 0ade 8E4B     		ldr	r3, .L109
 1756 0ae0 1B78     		ldrb	r3, [r3]
 1757 0ae2 DBB2     		uxtb	r3, r3
 1758 0ae4 23F00203 		bic	r3, r3, #2
 1759 0ae8 DAB2     		uxtb	r2, r3
 1760 0aea 8B4B     		ldr	r3, .L109
 1761 0aec 1A70     		strb	r2, [r3]
 1762              	.L64:
 796:.\Generated_Source\PSoC5/RTC_1_INT.c ****                             }
 797:.\Generated_Source\PSoC5/RTC_1_INT.c ****                         }
 798:.\Generated_Source\PSoC5/RTC_1_INT.c ****                     }
 799:.\Generated_Source\PSoC5/RTC_1_INT.c **** 
 800:.\Generated_Source\PSoC5/RTC_1_INT.c ****                     /* Alarm DAYOFWEEK */
 801:.\Generated_Source\PSoC5/RTC_1_INT.c ****                     if(0u != RTC_1_IS_BIT_SET(RTC_1_alarmCfgMask,
 1763              		.loc 1 801 0
 1764 0aee 8D4B     		ldr	r3, .L109+12
 1765 0af0 1B78     		ldrb	r3, [r3]
 1766 0af2 DBB2     		uxtb	r3, r3
 1767 0af4 03F00803 		and	r3, r3, #8
 1768 0af8 002B     		cmp	r3, #0
 1769 0afa 18D0     		beq	.L81
 802:.\Generated_Source\PSoC5/RTC_1_INT.c ****                                                          RTC_1_ALARM_DAYOFWEEK_MASK))
 803:.\Generated_Source\PSoC5/RTC_1_INT.c ****                     {
 804:.\Generated_Source\PSoC5/RTC_1_INT.c ****                         if(RTC_1_alarmCfgTimeDate.DayOfWeek == RTC_1_currentTimeDate.DayOfWeek)
 1770              		.loc 1 804 0
 1771 0afc 8A4B     		ldr	r3, .L109+16
 1772 0afe DB78     		ldrb	r3, [r3, #3]
 1773 0b00 DAB2     		uxtb	r2, r3
 1774 0b02 874B     		ldr	r3, .L109+8
 1775 0b04 DB78     		ldrb	r3, [r3, #3]
 1776 0b06 DBB2     		uxtb	r3, r3
 1777 0b08 9A42     		cmp	r2, r3
 1778 0b0a 08D1     		bne	.L82
 805:.\Generated_Source\PSoC5/RTC_1_INT.c ****                         {
 806:.\Generated_Source\PSoC5/RTC_1_INT.c ****                             RTC_1_alarmCurStatus |= RTC_1_ALARM_DAYOFWEEK_MASK;
 1779              		.loc 1 806 0
 1780 0b0c 874B     		ldr	r3, .L109+20
 1781 0b0e 1B78     		ldrb	r3, [r3]
 1782 0b10 DBB2     		uxtb	r3, r3
 1783 0b12 43F00803 		orr	r3, r3, #8
 1784 0b16 DAB2     		uxtb	r2, r3
 1785 0b18 844B     		ldr	r3, .L109+20
 1786 0b1a 1A70     		strb	r2, [r3]
 1787 0b1c 07E0     		b	.L81
 1788              	.L82:
 807:.\Generated_Source\PSoC5/RTC_1_INT.c ****                         }
 808:.\Generated_Source\PSoC5/RTC_1_INT.c ****                         else
 809:.\Generated_Source\PSoC5/RTC_1_INT.c ****                         {
 810:.\Generated_Source\PSoC5/RTC_1_INT.c ****                             RTC_1_alarmCurStatus &= (uint8)(~RTC_1_ALARM_DAYOFWEEK_MASK);
 1789              		.loc 1 810 0
ARM GAS  C:\Users\glenn\AppData\Local\Temp\ccxzV7hg.s 			page 47


 1790 0b1e 834B     		ldr	r3, .L109+20
 1791 0b20 1B78     		ldrb	r3, [r3]
 1792 0b22 DBB2     		uxtb	r3, r3
 1793 0b24 23F00803 		bic	r3, r3, #8
 1794 0b28 DAB2     		uxtb	r2, r3
 1795 0b2a 804B     		ldr	r3, .L109+20
 1796 0b2c 1A70     		strb	r2, [r3]
 1797              	.L81:
 811:.\Generated_Source\PSoC5/RTC_1_INT.c ****                         }
 812:.\Generated_Source\PSoC5/RTC_1_INT.c ****                     }
 813:.\Generated_Source\PSoC5/RTC_1_INT.c **** 
 814:.\Generated_Source\PSoC5/RTC_1_INT.c ****                     /* Alarm DAYOFYEAR */
 815:.\Generated_Source\PSoC5/RTC_1_INT.c ****                     if(0u != RTC_1_IS_BIT_SET(RTC_1_alarmCfgMask,
 1798              		.loc 1 815 0
 1799 0b2e 7D4B     		ldr	r3, .L109+12
 1800 0b30 1B78     		ldrb	r3, [r3]
 1801 0b32 DBB2     		uxtb	r3, r3
 1802 0b34 03F02003 		and	r3, r3, #32
 1803 0b38 002B     		cmp	r3, #0
 1804 0b3a 18D0     		beq	.L83
 816:.\Generated_Source\PSoC5/RTC_1_INT.c ****                                                          RTC_1_ALARM_DAYOFYEAR_MASK))
 817:.\Generated_Source\PSoC5/RTC_1_INT.c ****                     {
 818:.\Generated_Source\PSoC5/RTC_1_INT.c ****                         if(RTC_1_alarmCfgTimeDate.DayOfYear == RTC_1_currentTimeDate.DayOfYear)
 1805              		.loc 1 818 0
 1806 0b3c 7A4B     		ldr	r3, .L109+16
 1807 0b3e DB88     		ldrh	r3, [r3, #6]	@ movhi
 1808 0b40 9AB2     		uxth	r2, r3
 1809 0b42 774B     		ldr	r3, .L109+8
 1810 0b44 DB88     		ldrh	r3, [r3, #6]	@ movhi
 1811 0b46 9BB2     		uxth	r3, r3
 1812 0b48 9A42     		cmp	r2, r3
 1813 0b4a 08D1     		bne	.L84
 819:.\Generated_Source\PSoC5/RTC_1_INT.c ****                         {
 820:.\Generated_Source\PSoC5/RTC_1_INT.c ****                             RTC_1_alarmCurStatus |= RTC_1_ALARM_DAYOFYEAR_MASK;
 1814              		.loc 1 820 0
 1815 0b4c 774B     		ldr	r3, .L109+20
 1816 0b4e 1B78     		ldrb	r3, [r3]
 1817 0b50 DBB2     		uxtb	r3, r3
 1818 0b52 43F02003 		orr	r3, r3, #32
 1819 0b56 DAB2     		uxtb	r2, r3
 1820 0b58 744B     		ldr	r3, .L109+20
 1821 0b5a 1A70     		strb	r2, [r3]
 1822 0b5c 07E0     		b	.L83
 1823              	.L84:
 821:.\Generated_Source\PSoC5/RTC_1_INT.c ****                         }
 822:.\Generated_Source\PSoC5/RTC_1_INT.c ****                         else
 823:.\Generated_Source\PSoC5/RTC_1_INT.c ****                         {
 824:.\Generated_Source\PSoC5/RTC_1_INT.c ****                             RTC_1_alarmCurStatus &= (uint8)(~RTC_1_ALARM_DAYOFYEAR_MASK);
 1824              		.loc 1 824 0
 1825 0b5e 734B     		ldr	r3, .L109+20
 1826 0b60 1B78     		ldrb	r3, [r3]
 1827 0b62 DBB2     		uxtb	r3, r3
 1828 0b64 23F02003 		bic	r3, r3, #32
 1829 0b68 DAB2     		uxtb	r2, r3
 1830 0b6a 704B     		ldr	r3, .L109+20
 1831 0b6c 1A70     		strb	r2, [r3]
 1832              	.L83:
ARM GAS  C:\Users\glenn\AppData\Local\Temp\ccxzV7hg.s 			page 48


 825:.\Generated_Source\PSoC5/RTC_1_INT.c ****                         }
 826:.\Generated_Source\PSoC5/RTC_1_INT.c ****                     }
 827:.\Generated_Source\PSoC5/RTC_1_INT.c **** 
 828:.\Generated_Source\PSoC5/RTC_1_INT.c ****                     /* Alarm DAYOFMONTH */
 829:.\Generated_Source\PSoC5/RTC_1_INT.c ****                     if(0u != RTC_1_IS_BIT_SET(RTC_1_alarmCfgMask,
 1833              		.loc 1 829 0
 1834 0b6e 6D4B     		ldr	r3, .L109+12
 1835 0b70 1B78     		ldrb	r3, [r3]
 1836 0b72 DBB2     		uxtb	r3, r3
 1837 0b74 03F01003 		and	r3, r3, #16
 1838 0b78 002B     		cmp	r3, #0
 1839 0b7a 18D0     		beq	.L85
 830:.\Generated_Source\PSoC5/RTC_1_INT.c ****                                                          RTC_1_ALARM_DAYOFMONTH_MASK))
 831:.\Generated_Source\PSoC5/RTC_1_INT.c ****                     {
 832:.\Generated_Source\PSoC5/RTC_1_INT.c ****                         if(RTC_1_alarmCfgTimeDate.DayOfMonth == RTC_1_currentTimeDate.DayOfMonth)
 1840              		.loc 1 832 0
 1841 0b7c 6A4B     		ldr	r3, .L109+16
 1842 0b7e 1B79     		ldrb	r3, [r3, #4]
 1843 0b80 DAB2     		uxtb	r2, r3
 1844 0b82 674B     		ldr	r3, .L109+8
 1845 0b84 1B79     		ldrb	r3, [r3, #4]
 1846 0b86 DBB2     		uxtb	r3, r3
 1847 0b88 9A42     		cmp	r2, r3
 1848 0b8a 08D1     		bne	.L86
 833:.\Generated_Source\PSoC5/RTC_1_INT.c ****                         {
 834:.\Generated_Source\PSoC5/RTC_1_INT.c ****                             RTC_1_alarmCurStatus |= RTC_1_ALARM_DAYOFMONTH_MASK;
 1849              		.loc 1 834 0
 1850 0b8c 674B     		ldr	r3, .L109+20
 1851 0b8e 1B78     		ldrb	r3, [r3]
 1852 0b90 DBB2     		uxtb	r3, r3
 1853 0b92 43F01003 		orr	r3, r3, #16
 1854 0b96 DAB2     		uxtb	r2, r3
 1855 0b98 644B     		ldr	r3, .L109+20
 1856 0b9a 1A70     		strb	r2, [r3]
 1857 0b9c 07E0     		b	.L85
 1858              	.L86:
 835:.\Generated_Source\PSoC5/RTC_1_INT.c ****                         }
 836:.\Generated_Source\PSoC5/RTC_1_INT.c ****                         else
 837:.\Generated_Source\PSoC5/RTC_1_INT.c ****                         {
 838:.\Generated_Source\PSoC5/RTC_1_INT.c ****                             RTC_1_alarmCurStatus &= (uint8)(~RTC_1_ALARM_DAYOFMONTH_MASK);
 1859              		.loc 1 838 0
 1860 0b9e 634B     		ldr	r3, .L109+20
 1861 0ba0 1B78     		ldrb	r3, [r3]
 1862 0ba2 DBB2     		uxtb	r3, r3
 1863 0ba4 23F01003 		bic	r3, r3, #16
 1864 0ba8 DAB2     		uxtb	r2, r3
 1865 0baa 604B     		ldr	r3, .L109+20
 1866 0bac 1A70     		strb	r2, [r3]
 1867              	.L85:
 839:.\Generated_Source\PSoC5/RTC_1_INT.c ****                         }
 840:.\Generated_Source\PSoC5/RTC_1_INT.c ****                     }
 841:.\Generated_Source\PSoC5/RTC_1_INT.c **** 
 842:.\Generated_Source\PSoC5/RTC_1_INT.c ****                     /* Alarm MONTH */
 843:.\Generated_Source\PSoC5/RTC_1_INT.c ****                     if(0u != RTC_1_IS_BIT_SET(RTC_1_alarmCfgMask,
 1868              		.loc 1 843 0
 1869 0bae 5D4B     		ldr	r3, .L109+12
 1870 0bb0 1B78     		ldrb	r3, [r3]
ARM GAS  C:\Users\glenn\AppData\Local\Temp\ccxzV7hg.s 			page 49


 1871 0bb2 DBB2     		uxtb	r3, r3
 1872 0bb4 03F04003 		and	r3, r3, #64
 1873 0bb8 002B     		cmp	r3, #0
 1874 0bba 18D0     		beq	.L87
 844:.\Generated_Source\PSoC5/RTC_1_INT.c ****                                                          RTC_1_ALARM_MONTH_MASK))
 845:.\Generated_Source\PSoC5/RTC_1_INT.c ****                     {
 846:.\Generated_Source\PSoC5/RTC_1_INT.c ****                         if(RTC_1_alarmCfgTimeDate.Month == RTC_1_currentTimeDate.Month)
 1875              		.loc 1 846 0
 1876 0bbc 5A4B     		ldr	r3, .L109+16
 1877 0bbe 1B7A     		ldrb	r3, [r3, #8]
 1878 0bc0 DAB2     		uxtb	r2, r3
 1879 0bc2 574B     		ldr	r3, .L109+8
 1880 0bc4 1B7A     		ldrb	r3, [r3, #8]
 1881 0bc6 DBB2     		uxtb	r3, r3
 1882 0bc8 9A42     		cmp	r2, r3
 1883 0bca 08D1     		bne	.L88
 847:.\Generated_Source\PSoC5/RTC_1_INT.c ****                         {
 848:.\Generated_Source\PSoC5/RTC_1_INT.c ****                             RTC_1_alarmCurStatus |= RTC_1_ALARM_MONTH_MASK;
 1884              		.loc 1 848 0
 1885 0bcc 574B     		ldr	r3, .L109+20
 1886 0bce 1B78     		ldrb	r3, [r3]
 1887 0bd0 DBB2     		uxtb	r3, r3
 1888 0bd2 43F04003 		orr	r3, r3, #64
 1889 0bd6 DAB2     		uxtb	r2, r3
 1890 0bd8 544B     		ldr	r3, .L109+20
 1891 0bda 1A70     		strb	r2, [r3]
 1892 0bdc 07E0     		b	.L87
 1893              	.L88:
 849:.\Generated_Source\PSoC5/RTC_1_INT.c ****                         }
 850:.\Generated_Source\PSoC5/RTC_1_INT.c ****                         else
 851:.\Generated_Source\PSoC5/RTC_1_INT.c ****                         {
 852:.\Generated_Source\PSoC5/RTC_1_INT.c ****                             RTC_1_alarmCurStatus &= (uint8)(~RTC_1_ALARM_MONTH_MASK);
 1894              		.loc 1 852 0
 1895 0bde 534B     		ldr	r3, .L109+20
 1896 0be0 1B78     		ldrb	r3, [r3]
 1897 0be2 DBB2     		uxtb	r3, r3
 1898 0be4 23F04003 		bic	r3, r3, #64
 1899 0be8 DAB2     		uxtb	r2, r3
 1900 0bea 504B     		ldr	r3, .L109+20
 1901 0bec 1A70     		strb	r2, [r3]
 1902              	.L87:
 853:.\Generated_Source\PSoC5/RTC_1_INT.c ****                         }
 854:.\Generated_Source\PSoC5/RTC_1_INT.c ****                     }
 855:.\Generated_Source\PSoC5/RTC_1_INT.c **** 
 856:.\Generated_Source\PSoC5/RTC_1_INT.c ****                     /* Alarm YEAR */
 857:.\Generated_Source\PSoC5/RTC_1_INT.c ****                     if(0u != RTC_1_IS_BIT_SET(RTC_1_alarmCfgMask,
 1903              		.loc 1 857 0
 1904 0bee 4D4B     		ldr	r3, .L109+12
 1905 0bf0 1B78     		ldrb	r3, [r3]
 1906 0bf2 DBB2     		uxtb	r3, r3
 1907 0bf4 DBB2     		uxtb	r3, r3
 1908 0bf6 5BB2     		sxtb	r3, r3
 1909 0bf8 002B     		cmp	r3, #0
 1910 0bfa 18DA     		bge	.L89
 858:.\Generated_Source\PSoC5/RTC_1_INT.c ****                                                          RTC_1_ALARM_YEAR_MASK))
 859:.\Generated_Source\PSoC5/RTC_1_INT.c ****                     {
 860:.\Generated_Source\PSoC5/RTC_1_INT.c ****                         if(RTC_1_alarmCfgTimeDate.Year == RTC_1_currentTimeDate.Year)
ARM GAS  C:\Users\glenn\AppData\Local\Temp\ccxzV7hg.s 			page 50


 1911              		.loc 1 860 0
 1912 0bfc 4A4B     		ldr	r3, .L109+16
 1913 0bfe 5B89     		ldrh	r3, [r3, #10]	@ movhi
 1914 0c00 9AB2     		uxth	r2, r3
 1915 0c02 474B     		ldr	r3, .L109+8
 1916 0c04 5B89     		ldrh	r3, [r3, #10]	@ movhi
 1917 0c06 9BB2     		uxth	r3, r3
 1918 0c08 9A42     		cmp	r2, r3
 1919 0c0a 08D1     		bne	.L90
 861:.\Generated_Source\PSoC5/RTC_1_INT.c ****                         {
 862:.\Generated_Source\PSoC5/RTC_1_INT.c ****                             RTC_1_alarmCurStatus |= RTC_1_ALARM_YEAR_MASK;
 1920              		.loc 1 862 0
 1921 0c0c 474B     		ldr	r3, .L109+20
 1922 0c0e 1B78     		ldrb	r3, [r3]
 1923 0c10 DBB2     		uxtb	r3, r3
 1924 0c12 63F07F03 		orn	r3, r3, #127
 1925 0c16 DAB2     		uxtb	r2, r3
 1926 0c18 444B     		ldr	r3, .L109+20
 1927 0c1a 1A70     		strb	r2, [r3]
 1928 0c1c 07E0     		b	.L89
 1929              	.L90:
 863:.\Generated_Source\PSoC5/RTC_1_INT.c ****                         }
 864:.\Generated_Source\PSoC5/RTC_1_INT.c ****                         else
 865:.\Generated_Source\PSoC5/RTC_1_INT.c ****                         {
 866:.\Generated_Source\PSoC5/RTC_1_INT.c ****                             RTC_1_alarmCurStatus &= (uint8)(~RTC_1_ALARM_YEAR_MASK);
 1930              		.loc 1 866 0
 1931 0c1e 434B     		ldr	r3, .L109+20
 1932 0c20 1B78     		ldrb	r3, [r3]
 1933 0c22 DBB2     		uxtb	r3, r3
 1934 0c24 03F07F03 		and	r3, r3, #127
 1935 0c28 DAB2     		uxtb	r2, r3
 1936 0c2a 404B     		ldr	r3, .L109+20
 1937 0c2c 1A70     		strb	r2, [r3]
 1938              	.L89:
 867:.\Generated_Source\PSoC5/RTC_1_INT.c ****                         }
 868:.\Generated_Source\PSoC5/RTC_1_INT.c ****                     }
 869:.\Generated_Source\PSoC5/RTC_1_INT.c **** 
 870:.\Generated_Source\PSoC5/RTC_1_INT.c ****                     /* Set Alarm flag event */
 871:.\Generated_Source\PSoC5/RTC_1_INT.c ****                     RTC_1_tmp = RTC_1_alarmCfgMask;
 1939              		.loc 1 871 0
 1940 0c2e 3D4B     		ldr	r3, .L109+12
 1941 0c30 1B78     		ldrb	r3, [r3]
 1942 0c32 FB71     		strb	r3, [r7, #7]
 872:.\Generated_Source\PSoC5/RTC_1_INT.c ****                     RTC_1_SET_ALARM(RTC_1_tmp,
 1943              		.loc 1 872 0
 1944 0c34 FB79     		ldrb	r3, [r7, #7]	@ zero_extendqisi2
 1945 0c36 002B     		cmp	r3, #0
 1946 0c38 13D0     		beq	.L49
 1947              		.loc 1 872 0 is_stmt 0 discriminator 1
 1948 0c3a 3C4B     		ldr	r3, .L109+20
 1949 0c3c 1B78     		ldrb	r3, [r3]
 1950 0c3e DAB2     		uxtb	r2, r3
 1951 0c40 FB79     		ldrb	r3, [r7, #7]
 1952 0c42 1340     		ands	r3, r3, r2
 1953 0c44 DBB2     		uxtb	r3, r3
 1954 0c46 FA79     		ldrb	r2, [r7, #7]	@ zero_extendqisi2
 1955 0c48 9A42     		cmp	r2, r3
ARM GAS  C:\Users\glenn\AppData\Local\Temp\ccxzV7hg.s 			page 51


 1956 0c4a 0AD1     		bne	.L49
 1957              		.loc 1 872 0 discriminator 2
 1958 0c4c 384B     		ldr	r3, .L109+24
 1959 0c4e 1B78     		ldrb	r3, [r3]
 1960 0c50 DBB2     		uxtb	r3, r3
 1961 0c52 43F00803 		orr	r3, r3, #8
 1962 0c56 DAB2     		uxtb	r2, r3
 1963 0c58 354B     		ldr	r3, .L109+24
 1964 0c5a 1A70     		strb	r2, [r3]
 1965 0c5c 334B     		ldr	r3, .L109+20
 1966 0c5e 0022     		movs	r2, #0
 1967 0c60 1A70     		strb	r2, [r3]
 1968              	.L49:
 873:.\Generated_Source\PSoC5/RTC_1_INT.c ****                                                RTC_1_alarmCurStatus,
 874:.\Generated_Source\PSoC5/RTC_1_INT.c ****                                                RTC_1_statusDateTime);
 875:.\Generated_Source\PSoC5/RTC_1_INT.c ****                 }
 876:.\Generated_Source\PSoC5/RTC_1_INT.c ****             #endif /* 1u == RTC_1_DST_FUNC_ENABLE */
 877:.\Generated_Source\PSoC5/RTC_1_INT.c **** 
 878:.\Generated_Source\PSoC5/RTC_1_INT.c ****             /* Alarm HOUR */
 879:.\Generated_Source\PSoC5/RTC_1_INT.c ****             if(0u != RTC_1_IS_BIT_SET(RTC_1_alarmCfgMask, RTC_1_ALARM_HOUR_MASK))
 1969              		.loc 1 879 0 is_stmt 1
 1970 0c62 304B     		ldr	r3, .L109+12
 1971 0c64 1B78     		ldrb	r3, [r3]
 1972 0c66 DBB2     		uxtb	r3, r3
 1973 0c68 03F00403 		and	r3, r3, #4
 1974 0c6c 002B     		cmp	r3, #0
 1975 0c6e 18D0     		beq	.L91
 880:.\Generated_Source\PSoC5/RTC_1_INT.c ****             {
 881:.\Generated_Source\PSoC5/RTC_1_INT.c ****                 if(RTC_1_alarmCfgTimeDate.Hour == RTC_1_currentTimeDate.Hour)
 1976              		.loc 1 881 0
 1977 0c70 2D4B     		ldr	r3, .L109+16
 1978 0c72 9B78     		ldrb	r3, [r3, #2]
 1979 0c74 DAB2     		uxtb	r2, r3
 1980 0c76 2A4B     		ldr	r3, .L109+8
 1981 0c78 9B78     		ldrb	r3, [r3, #2]
 1982 0c7a DBB2     		uxtb	r3, r3
 1983 0c7c 9A42     		cmp	r2, r3
 1984 0c7e 08D1     		bne	.L92
 882:.\Generated_Source\PSoC5/RTC_1_INT.c ****                 {
 883:.\Generated_Source\PSoC5/RTC_1_INT.c ****                     RTC_1_alarmCurStatus |= RTC_1_ALARM_HOUR_MASK;
 1985              		.loc 1 883 0
 1986 0c80 2A4B     		ldr	r3, .L109+20
 1987 0c82 1B78     		ldrb	r3, [r3]
 1988 0c84 DBB2     		uxtb	r3, r3
 1989 0c86 43F00403 		orr	r3, r3, #4
 1990 0c8a DAB2     		uxtb	r2, r3
 1991 0c8c 274B     		ldr	r3, .L109+20
 1992 0c8e 1A70     		strb	r2, [r3]
 1993 0c90 07E0     		b	.L91
 1994              	.L92:
 884:.\Generated_Source\PSoC5/RTC_1_INT.c ****                 }
 885:.\Generated_Source\PSoC5/RTC_1_INT.c ****                 else
 886:.\Generated_Source\PSoC5/RTC_1_INT.c ****                 {
 887:.\Generated_Source\PSoC5/RTC_1_INT.c ****                     RTC_1_alarmCurStatus &= (uint8)(~RTC_1_ALARM_HOUR_MASK);
 1995              		.loc 1 887 0
 1996 0c92 264B     		ldr	r3, .L109+20
 1997 0c94 1B78     		ldrb	r3, [r3]
ARM GAS  C:\Users\glenn\AppData\Local\Temp\ccxzV7hg.s 			page 52


 1998 0c96 DBB2     		uxtb	r3, r3
 1999 0c98 23F00403 		bic	r3, r3, #4
 2000 0c9c DAB2     		uxtb	r2, r3
 2001 0c9e 234B     		ldr	r3, .L109+20
 2002 0ca0 1A70     		strb	r2, [r3]
 2003              	.L91:
 888:.\Generated_Source\PSoC5/RTC_1_INT.c ****                 }
 889:.\Generated_Source\PSoC5/RTC_1_INT.c ****             }
 890:.\Generated_Source\PSoC5/RTC_1_INT.c **** 
 891:.\Generated_Source\PSoC5/RTC_1_INT.c ****             /* Set Alarm flag event */
 892:.\Generated_Source\PSoC5/RTC_1_INT.c ****             RTC_1_tmp = RTC_1_alarmCfgMask;
 2004              		.loc 1 892 0
 2005 0ca2 204B     		ldr	r3, .L109+12
 2006 0ca4 1B78     		ldrb	r3, [r3]
 2007 0ca6 FB71     		strb	r3, [r7, #7]
 893:.\Generated_Source\PSoC5/RTC_1_INT.c ****             RTC_1_SET_ALARM(RTC_1_tmp,
 2008              		.loc 1 893 0
 2009 0ca8 FB79     		ldrb	r3, [r7, #7]	@ zero_extendqisi2
 2010 0caa 002B     		cmp	r3, #0
 2011 0cac 13D0     		beq	.L93
 2012              		.loc 1 893 0 is_stmt 0 discriminator 1
 2013 0cae 1F4B     		ldr	r3, .L109+20
 2014 0cb0 1B78     		ldrb	r3, [r3]
 2015 0cb2 DAB2     		uxtb	r2, r3
 2016 0cb4 FB79     		ldrb	r3, [r7, #7]
 2017 0cb6 1340     		ands	r3, r3, r2
 2018 0cb8 DBB2     		uxtb	r3, r3
 2019 0cba FA79     		ldrb	r2, [r7, #7]	@ zero_extendqisi2
 2020 0cbc 9A42     		cmp	r2, r3
 2021 0cbe 0AD1     		bne	.L93
 2022              		.loc 1 893 0 discriminator 2
 2023 0cc0 1B4B     		ldr	r3, .L109+24
 2024 0cc2 1B78     		ldrb	r3, [r3]
 2025 0cc4 DBB2     		uxtb	r3, r3
 2026 0cc6 43F00803 		orr	r3, r3, #8
 2027 0cca DAB2     		uxtb	r2, r3
 2028 0ccc 184B     		ldr	r3, .L109+24
 2029 0cce 1A70     		strb	r2, [r3]
 2030 0cd0 164B     		ldr	r3, .L109+20
 2031 0cd2 0022     		movs	r2, #0
 2032 0cd4 1A70     		strb	r2, [r3]
 2033              	.L93:
 894:.\Generated_Source\PSoC5/RTC_1_INT.c ****                                        RTC_1_alarmCurStatus,
 895:.\Generated_Source\PSoC5/RTC_1_INT.c ****                                        RTC_1_statusDateTime);
 896:.\Generated_Source\PSoC5/RTC_1_INT.c **** 
 897:.\Generated_Source\PSoC5/RTC_1_INT.c ****             /* Every Hour */
 898:.\Generated_Source\PSoC5/RTC_1_INT.c ****             if(0u != RTC_1_IS_BIT_SET(RTC_1_intervalCfgMask, RTC_1_INTERVAL_HOUR_MASK))
 2034              		.loc 1 898 0 is_stmt 1
 2035 0cd6 174B     		ldr	r3, .L109+28
 2036 0cd8 1B78     		ldrb	r3, [r3]
 2037 0cda DBB2     		uxtb	r3, r3
 2038 0cdc 03F00403 		and	r3, r3, #4
 2039 0ce0 002B     		cmp	r3, #0
 2040 0ce2 01D0     		beq	.L10
 899:.\Generated_Source\PSoC5/RTC_1_INT.c ****             {
 900:.\Generated_Source\PSoC5/RTC_1_INT.c ****                 RTC_1_EveryHourHandler();
 2041              		.loc 1 900 0
ARM GAS  C:\Users\glenn\AppData\Local\Temp\ccxzV7hg.s 			page 53


 2042 0ce4 FFF7FEFF 		bl	RTC_1_EveryHourHandler
 2043              	.L10:
 901:.\Generated_Source\PSoC5/RTC_1_INT.c ****             }
 902:.\Generated_Source\PSoC5/RTC_1_INT.c ****         } /* Min > 59 = Hour */
 903:.\Generated_Source\PSoC5/RTC_1_INT.c **** 
 904:.\Generated_Source\PSoC5/RTC_1_INT.c ****         /* Alarm MIN */
 905:.\Generated_Source\PSoC5/RTC_1_INT.c ****         if(0u != RTC_1_IS_BIT_SET(RTC_1_alarmCfgMask, RTC_1_ALARM_MIN_MASK))
 2044              		.loc 1 905 0
 2045 0ce8 0E4B     		ldr	r3, .L109+12
 2046 0cea 1B78     		ldrb	r3, [r3]
 2047 0cec DBB2     		uxtb	r3, r3
 2048 0cee 03F00203 		and	r3, r3, #2
 2049 0cf2 002B     		cmp	r3, #0
 2050 0cf4 28D0     		beq	.L94
 906:.\Generated_Source\PSoC5/RTC_1_INT.c ****         {
 907:.\Generated_Source\PSoC5/RTC_1_INT.c ****             if(RTC_1_alarmCfgTimeDate.Min == RTC_1_currentTimeDate.Min)
 2051              		.loc 1 907 0
 2052 0cf6 0C4B     		ldr	r3, .L109+16
 2053 0cf8 5B78     		ldrb	r3, [r3, #1]
 2054 0cfa DAB2     		uxtb	r2, r3
 2055 0cfc 084B     		ldr	r3, .L109+8
 2056 0cfe 5B78     		ldrb	r3, [r3, #1]
 2057 0d00 DBB2     		uxtb	r3, r3
 2058 0d02 9A42     		cmp	r2, r3
 2059 0d04 18D1     		bne	.L95
 908:.\Generated_Source\PSoC5/RTC_1_INT.c ****             {
 909:.\Generated_Source\PSoC5/RTC_1_INT.c ****                 RTC_1_alarmCurStatus |= RTC_1_ALARM_MIN_MASK;
 2060              		.loc 1 909 0
 2061 0d06 094B     		ldr	r3, .L109+20
 2062 0d08 1B78     		ldrb	r3, [r3]
 2063 0d0a DBB2     		uxtb	r3, r3
 2064 0d0c 43F00203 		orr	r3, r3, #2
 2065 0d10 DAB2     		uxtb	r2, r3
 2066 0d12 064B     		ldr	r3, .L109+20
 2067 0d14 1A70     		strb	r2, [r3]
 2068 0d16 17E0     		b	.L94
 2069              	.L110:
 2070              		.align	2
 2071              	.L109:
 2072 0d18 00000000 		.word	RTC_1_dstStopStatus
 2073 0d1c 00000000 		.word	RTC_1_dstTimeDateStop
 2074 0d20 00000000 		.word	RTC_1_currentTimeDate
 2075 0d24 00000000 		.word	RTC_1_alarmCfgMask
 2076 0d28 00000000 		.word	RTC_1_alarmCfgTimeDate
 2077 0d2c 00000000 		.word	RTC_1_alarmCurStatus
 2078 0d30 00000000 		.word	RTC_1_statusDateTime
 2079 0d34 00000000 		.word	RTC_1_intervalCfgMask
 2080              	.L95:
 910:.\Generated_Source\PSoC5/RTC_1_INT.c ****             }
 911:.\Generated_Source\PSoC5/RTC_1_INT.c ****             else
 912:.\Generated_Source\PSoC5/RTC_1_INT.c ****             {
 913:.\Generated_Source\PSoC5/RTC_1_INT.c ****                 RTC_1_alarmCurStatus &= (uint8)(~RTC_1_ALARM_MIN_MASK);
 2081              		.loc 1 913 0
 2082 0d38 384B     		ldr	r3, .L111
 2083 0d3a 1B78     		ldrb	r3, [r3]
 2084 0d3c DBB2     		uxtb	r3, r3
 2085 0d3e 23F00203 		bic	r3, r3, #2
ARM GAS  C:\Users\glenn\AppData\Local\Temp\ccxzV7hg.s 			page 54


 2086 0d42 DAB2     		uxtb	r2, r3
 2087 0d44 354B     		ldr	r3, .L111
 2088 0d46 1A70     		strb	r2, [r3]
 2089              	.L94:
 914:.\Generated_Source\PSoC5/RTC_1_INT.c ****             }
 915:.\Generated_Source\PSoC5/RTC_1_INT.c ****         }
 916:.\Generated_Source\PSoC5/RTC_1_INT.c **** 
 917:.\Generated_Source\PSoC5/RTC_1_INT.c ****         /* Set Alarm flag event */
 918:.\Generated_Source\PSoC5/RTC_1_INT.c ****         RTC_1_tmp = RTC_1_alarmCfgMask;
 2090              		.loc 1 918 0
 2091 0d48 354B     		ldr	r3, .L111+4
 2092 0d4a 1B78     		ldrb	r3, [r3]
 2093 0d4c FB71     		strb	r3, [r7, #7]
 919:.\Generated_Source\PSoC5/RTC_1_INT.c ****         RTC_1_SET_ALARM(RTC_1_tmp,
 2094              		.loc 1 919 0
 2095 0d4e FB79     		ldrb	r3, [r7, #7]	@ zero_extendqisi2
 2096 0d50 002B     		cmp	r3, #0
 2097 0d52 13D0     		beq	.L96
 2098              		.loc 1 919 0 is_stmt 0 discriminator 1
 2099 0d54 314B     		ldr	r3, .L111
 2100 0d56 1B78     		ldrb	r3, [r3]
 2101 0d58 DAB2     		uxtb	r2, r3
 2102 0d5a FB79     		ldrb	r3, [r7, #7]
 2103 0d5c 1340     		ands	r3, r3, r2
 2104 0d5e DBB2     		uxtb	r3, r3
 2105 0d60 FA79     		ldrb	r2, [r7, #7]	@ zero_extendqisi2
 2106 0d62 9A42     		cmp	r2, r3
 2107 0d64 0AD1     		bne	.L96
 2108              		.loc 1 919 0 discriminator 2
 2109 0d66 2F4B     		ldr	r3, .L111+8
 2110 0d68 1B78     		ldrb	r3, [r3]
 2111 0d6a DBB2     		uxtb	r3, r3
 2112 0d6c 43F00803 		orr	r3, r3, #8
 2113 0d70 DAB2     		uxtb	r2, r3
 2114 0d72 2C4B     		ldr	r3, .L111+8
 2115 0d74 1A70     		strb	r2, [r3]
 2116 0d76 294B     		ldr	r3, .L111
 2117 0d78 0022     		movs	r2, #0
 2118 0d7a 1A70     		strb	r2, [r3]
 2119              	.L96:
 920:.\Generated_Source\PSoC5/RTC_1_INT.c ****                                    RTC_1_alarmCurStatus,
 921:.\Generated_Source\PSoC5/RTC_1_INT.c ****                                    RTC_1_statusDateTime);
 922:.\Generated_Source\PSoC5/RTC_1_INT.c **** 
 923:.\Generated_Source\PSoC5/RTC_1_INT.c ****         /* Every Min */
 924:.\Generated_Source\PSoC5/RTC_1_INT.c ****         if(0u != RTC_1_IS_BIT_SET(RTC_1_intervalCfgMask, RTC_1_INTERVAL_MIN_MASK))
 2120              		.loc 1 924 0 is_stmt 1
 2121 0d7c 2A4B     		ldr	r3, .L111+12
 2122 0d7e 1B78     		ldrb	r3, [r3]
 2123 0d80 DBB2     		uxtb	r3, r3
 2124 0d82 03F00203 		and	r3, r3, #2
 2125 0d86 002B     		cmp	r3, #0
 2126 0d88 01D0     		beq	.L9
 925:.\Generated_Source\PSoC5/RTC_1_INT.c ****         {
 926:.\Generated_Source\PSoC5/RTC_1_INT.c ****             RTC_1_EveryMinuteHandler();
 2127              		.loc 1 926 0
 2128 0d8a FFF7FEFF 		bl	RTC_1_EveryMinuteHandler
 2129              	.L9:
ARM GAS  C:\Users\glenn\AppData\Local\Temp\ccxzV7hg.s 			page 55


 927:.\Generated_Source\PSoC5/RTC_1_INT.c ****         }
 928:.\Generated_Source\PSoC5/RTC_1_INT.c ****     } /* Sec */
 929:.\Generated_Source\PSoC5/RTC_1_INT.c **** 
 930:.\Generated_Source\PSoC5/RTC_1_INT.c ****     /* Alarm SEC */
 931:.\Generated_Source\PSoC5/RTC_1_INT.c ****     if(0u != RTC_1_IS_BIT_SET(RTC_1_alarmCfgMask, RTC_1_ALARM_SEC_MASK))
 2130              		.loc 1 931 0
 2131 0d8e 244B     		ldr	r3, .L111+4
 2132 0d90 1B78     		ldrb	r3, [r3]
 2133 0d92 DBB2     		uxtb	r3, r3
 2134 0d94 03F00103 		and	r3, r3, #1
 2135 0d98 002B     		cmp	r3, #0
 2136 0d9a 18D0     		beq	.L97
 932:.\Generated_Source\PSoC5/RTC_1_INT.c ****     {
 933:.\Generated_Source\PSoC5/RTC_1_INT.c ****         if(RTC_1_alarmCfgTimeDate.Sec == RTC_1_currentTimeDate.Sec)
 2137              		.loc 1 933 0
 2138 0d9c 234B     		ldr	r3, .L111+16
 2139 0d9e 1B78     		ldrb	r3, [r3]
 2140 0da0 DAB2     		uxtb	r2, r3
 2141 0da2 234B     		ldr	r3, .L111+20
 2142 0da4 1B78     		ldrb	r3, [r3]
 2143 0da6 DBB2     		uxtb	r3, r3
 2144 0da8 9A42     		cmp	r2, r3
 2145 0daa 08D1     		bne	.L98
 934:.\Generated_Source\PSoC5/RTC_1_INT.c ****         {
 935:.\Generated_Source\PSoC5/RTC_1_INT.c ****             RTC_1_alarmCurStatus |= RTC_1_ALARM_SEC_MASK;
 2146              		.loc 1 935 0
 2147 0dac 1B4B     		ldr	r3, .L111
 2148 0dae 1B78     		ldrb	r3, [r3]
 2149 0db0 DBB2     		uxtb	r3, r3
 2150 0db2 43F00103 		orr	r3, r3, #1
 2151 0db6 DAB2     		uxtb	r2, r3
 2152 0db8 184B     		ldr	r3, .L111
 2153 0dba 1A70     		strb	r2, [r3]
 2154 0dbc 07E0     		b	.L97
 2155              	.L98:
 936:.\Generated_Source\PSoC5/RTC_1_INT.c ****         }
 937:.\Generated_Source\PSoC5/RTC_1_INT.c ****         else
 938:.\Generated_Source\PSoC5/RTC_1_INT.c ****         {
 939:.\Generated_Source\PSoC5/RTC_1_INT.c ****             RTC_1_alarmCurStatus &= (uint8)(~RTC_1_ALARM_SEC_MASK);
 2156              		.loc 1 939 0
 2157 0dbe 174B     		ldr	r3, .L111
 2158 0dc0 1B78     		ldrb	r3, [r3]
 2159 0dc2 DBB2     		uxtb	r3, r3
 2160 0dc4 23F00103 		bic	r3, r3, #1
 2161 0dc8 DAB2     		uxtb	r2, r3
 2162 0dca 144B     		ldr	r3, .L111
 2163 0dcc 1A70     		strb	r2, [r3]
 2164              	.L97:
 940:.\Generated_Source\PSoC5/RTC_1_INT.c ****         }
 941:.\Generated_Source\PSoC5/RTC_1_INT.c ****     }
 942:.\Generated_Source\PSoC5/RTC_1_INT.c **** 
 943:.\Generated_Source\PSoC5/RTC_1_INT.c ****     /* Set Alarm flag event */
 944:.\Generated_Source\PSoC5/RTC_1_INT.c ****     RTC_1_tmp = RTC_1_alarmCfgMask;
 2165              		.loc 1 944 0
 2166 0dce 144B     		ldr	r3, .L111+4
 2167 0dd0 1B78     		ldrb	r3, [r3]
 2168 0dd2 FB71     		strb	r3, [r7, #7]
ARM GAS  C:\Users\glenn\AppData\Local\Temp\ccxzV7hg.s 			page 56


 945:.\Generated_Source\PSoC5/RTC_1_INT.c ****     RTC_1_SET_ALARM(RTC_1_tmp, RTC_1_alarmCurStatus, RTC_1_statusDateTime);
 2169              		.loc 1 945 0
 2170 0dd4 FB79     		ldrb	r3, [r7, #7]	@ zero_extendqisi2
 2171 0dd6 002B     		cmp	r3, #0
 2172 0dd8 13D0     		beq	.L99
 2173              		.loc 1 945 0 is_stmt 0 discriminator 1
 2174 0dda 104B     		ldr	r3, .L111
 2175 0ddc 1B78     		ldrb	r3, [r3]
 2176 0dde DAB2     		uxtb	r2, r3
 2177 0de0 FB79     		ldrb	r3, [r7, #7]
 2178 0de2 1340     		ands	r3, r3, r2
 2179 0de4 DBB2     		uxtb	r3, r3
 2180 0de6 FA79     		ldrb	r2, [r7, #7]	@ zero_extendqisi2
 2181 0de8 9A42     		cmp	r2, r3
 2182 0dea 0AD1     		bne	.L99
 2183              		.loc 1 945 0 discriminator 2
 2184 0dec 0D4B     		ldr	r3, .L111+8
 2185 0dee 1B78     		ldrb	r3, [r3]
 2186 0df0 DBB2     		uxtb	r3, r3
 2187 0df2 43F00803 		orr	r3, r3, #8
 2188 0df6 DAB2     		uxtb	r2, r3
 2189 0df8 0A4B     		ldr	r3, .L111+8
 2190 0dfa 1A70     		strb	r2, [r3]
 2191 0dfc 074B     		ldr	r3, .L111
 2192 0dfe 0022     		movs	r2, #0
 2193 0e00 1A70     		strb	r2, [r3]
 2194              	.L99:
 946:.\Generated_Source\PSoC5/RTC_1_INT.c **** 
 947:.\Generated_Source\PSoC5/RTC_1_INT.c ****     /* Execute every second handler if needed */
 948:.\Generated_Source\PSoC5/RTC_1_INT.c ****     if(0u != RTC_1_IS_BIT_SET(RTC_1_intervalCfgMask, RTC_1_INTERVAL_SEC_MASK))
 2195              		.loc 1 948 0 is_stmt 1
 2196 0e02 094B     		ldr	r3, .L111+12
 2197 0e04 1B78     		ldrb	r3, [r3]
 2198 0e06 DBB2     		uxtb	r3, r3
 2199 0e08 03F00103 		and	r3, r3, #1
 2200 0e0c 002B     		cmp	r3, #0
 2201 0e0e 01D0     		beq	.L8
 949:.\Generated_Source\PSoC5/RTC_1_INT.c ****     {
 950:.\Generated_Source\PSoC5/RTC_1_INT.c ****         RTC_1_EverySecondHandler();
 2202              		.loc 1 950 0
 2203 0e10 FFF7FEFF 		bl	RTC_1_EverySecondHandler
 2204              	.L8:
 951:.\Generated_Source\PSoC5/RTC_1_INT.c ****     }
 952:.\Generated_Source\PSoC5/RTC_1_INT.c ****     
 953:.\Generated_Source\PSoC5/RTC_1_INT.c ****     #ifdef RTC_1_ISR_EXIT_CALLBACK
 954:.\Generated_Source\PSoC5/RTC_1_INT.c ****         RTC_1_ISR_ExitCallback();
 955:.\Generated_Source\PSoC5/RTC_1_INT.c ****     #endif /* RTC_1_ISR_EXIT_CALLBACK */
 956:.\Generated_Source\PSoC5/RTC_1_INT.c **** }
 2205              		.loc 1 956 0
 2206 0e14 0837     		adds	r7, r7, #8
 2207              		.cfi_def_cfa_offset 8
 2208 0e16 BD46     		mov	sp, r7
 2209              		.cfi_def_cfa_register 13
 2210              		@ sp needed
 2211 0e18 80BD     		pop	{r7, pc}
 2212              	.L112:
 2213 0e1a 00BF     		.align	2
ARM GAS  C:\Users\glenn\AppData\Local\Temp\ccxzV7hg.s 			page 57


 2214              	.L111:
 2215 0e1c 00000000 		.word	RTC_1_alarmCurStatus
 2216 0e20 00000000 		.word	RTC_1_alarmCfgMask
 2217 0e24 00000000 		.word	RTC_1_statusDateTime
 2218 0e28 00000000 		.word	RTC_1_intervalCfgMask
 2219 0e2c 00000000 		.word	RTC_1_alarmCfgTimeDate
 2220 0e30 00000000 		.word	RTC_1_currentTimeDate
 2221              		.cfi_endproc
 2222              	.LFE7:
 2223              		.size	RTC_1_ISR, .-RTC_1_ISR
 2224              		.text
 2225              	.Letext0:
 2226              		.file 2 ".\\Generated_Source\\PSoC5\\cytypes.h"
 2227              		.file 3 ".\\Generated_Source\\PSoC5\\RTC_1.h"