ARM GAS  C:\Users\glenn\AppData\Local\Temp\cc65vgjb.s 			page 1


   1              		.syntax unified
   2              		.cpu cortex-m3
   3              		.fpu softvfp
   4              		.eabi_attribute 20, 1
   5              		.eabi_attribute 21, 1
   6              		.eabi_attribute 23, 3
   7              		.eabi_attribute 24, 1
   8              		.eabi_attribute 25, 1
   9              		.eabi_attribute 26, 1
  10              		.eabi_attribute 30, 6
  11              		.eabi_attribute 34, 1
  12              		.eabi_attribute 18, 4
  13              		.thumb
  14              		.file	"sigma_mux.c"
  15              		.text
  16              	.Ltext0:
  17              		.cfi_sections	.debug_frame
  18              		.bss
  19              		.align	2
  20              	mux_ac:
  21 0000 00000000 		.space	8
  21      00000000 
  22              		.align	2
  23              	mux_dc:
  24 0008 00000000 		.space	8
  24      00000000 
  25              		.align	2
  26              	mux_peak:
  27 0010 00000000 		.space	8
  27      00000000 
  28              		.align	2
  29              	mux_negative:
  30 0018 00000000 		.space	8
  30      00000000 
  31              		.section	.text.check_channel,"ax",%progbits
  32              		.align	2
  33              		.thumb
  34              		.thumb_func
  35              		.type	check_channel, %function
  36              	check_channel:
  37              	.LFB63:
  38              		.file 1 ".\\a_to_d_functions\\sigma_mux.c"
   1:.\a_to_d_functions/sigma_mux.c **** /*
   2:.\a_to_d_functions/sigma_mux.c **** **
   3:.\a_to_d_functions/sigma_mux.c **** **
   4:.\a_to_d_functions/sigma_mux.c **** **  File sigma_mux.c
   5:.\a_to_d_functions/sigma_mux.c **** **  Controls sequencing mux for sigma delta values
   6:.\a_to_d_functions/sigma_mux.c **** **
   7:.\a_to_d_functions/sigma_mux.c **** **
   8:.\a_to_d_functions/sigma_mux.c **** */
   9:.\a_to_d_functions/sigma_mux.c **** 
  10:.\a_to_d_functions/sigma_mux.c **** #include <device.h>
  11:.\a_to_d_functions/sigma_mux.c **** #include "sigma_mux.h"
  12:.\a_to_d_functions/sigma_mux.c **** #include "a_to_d_functions.h"
  13:.\a_to_d_functions/sigma_mux.c **** #include "Sigma_Mux.h"
  14:.\a_to_d_functions/sigma_mux.c **** 
  15:.\a_to_d_functions/sigma_mux.c **** 
ARM GAS  C:\Users\glenn\AppData\Local\Temp\cc65vgjb.s 			page 2


  16:.\a_to_d_functions/sigma_mux.c **** static int32 mux_ac[ MUX_NUMBER ];
  17:.\a_to_d_functions/sigma_mux.c **** static int32 mux_dc[MUX_NUMBER ];
  18:.\a_to_d_functions/sigma_mux.c **** static int32 mux_peak[ MUX_NUMBER ];
  19:.\a_to_d_functions/sigma_mux.c **** static int32 mux_negative[ MUX_NUMBER ];
  20:.\a_to_d_functions/sigma_mux.c **** 
  21:.\a_to_d_functions/sigma_mux.c **** static inline unsigned check_channel( unsigned channel )
  22:.\a_to_d_functions/sigma_mux.c **** {
  39              		.loc 1 22 0
  40              		.cfi_startproc
  41              		@ args = 0, pretend = 0, frame = 8
  42              		@ frame_needed = 1, uses_anonymous_args = 0
  43              		@ link register save eliminated.
  44 0000 80B4     		push	{r7}
  45              		.cfi_def_cfa_offset 4
  46              		.cfi_offset 7, -4
  47 0002 83B0     		sub	sp, sp, #12
  48              		.cfi_def_cfa_offset 16
  49 0004 00AF     		add	r7, sp, #0
  50              		.cfi_def_cfa_register 7
  51 0006 7860     		str	r0, [r7, #4]
  23:.\a_to_d_functions/sigma_mux.c **** 	if( channel > (MUX_NUMBER -1) )
  52              		.loc 1 23 0
  53 0008 7B68     		ldr	r3, [r7, #4]
  54 000a 012B     		cmp	r3, #1
  55 000c 01D9     		bls	.L2
  24:.\a_to_d_functions/sigma_mux.c **** 	{
  25:.\a_to_d_functions/sigma_mux.c **** 		return MUX_NUMBER-1;
  56              		.loc 1 25 0
  57 000e 0123     		movs	r3, #1
  58 0010 00E0     		b	.L3
  59              	.L2:
  26:.\a_to_d_functions/sigma_mux.c **** 	}
  27:.\a_to_d_functions/sigma_mux.c **** 	return channel;
  60              		.loc 1 27 0
  61 0012 7B68     		ldr	r3, [r7, #4]
  62              	.L3:
  28:.\a_to_d_functions/sigma_mux.c **** }
  63              		.loc 1 28 0
  64 0014 1846     		mov	r0, r3
  65 0016 0C37     		adds	r7, r7, #12
  66              		.cfi_def_cfa_offset 4
  67 0018 BD46     		mov	sp, r7
  68              		.cfi_def_cfa_register 13
  69              		@ sp needed
  70 001a 5DF8047B 		ldr	r7, [sp], #4
  71              		.cfi_restore 7
  72              		.cfi_def_cfa_offset 0
  73 001e 7047     		bx	lr
  74              		.cfi_endproc
  75              	.LFE63:
  76              		.size	check_channel, .-check_channel
  77              		.section	.text.sm_initialization,"ax",%progbits
  78              		.align	2
  79              		.global	sm_initialization
  80              		.thumb
  81              		.thumb_func
  82              		.type	sm_initialization, %function
ARM GAS  C:\Users\glenn\AppData\Local\Temp\cc65vgjb.s 			page 3


  83              	sm_initialization:
  84              	.LFB64:
  29:.\a_to_d_functions/sigma_mux.c **** 
  30:.\a_to_d_functions/sigma_mux.c **** 
  31:.\a_to_d_functions/sigma_mux.c **** void sm_initialization( void )
  32:.\a_to_d_functions/sigma_mux.c **** {
  85              		.loc 1 32 0
  86              		.cfi_startproc
  87              		@ args = 0, pretend = 0, frame = 0
  88              		@ frame_needed = 1, uses_anonymous_args = 0
  89 0000 80B5     		push	{r7, lr}
  90              		.cfi_def_cfa_offset 8
  91              		.cfi_offset 7, -8
  92              		.cfi_offset 14, -4
  93 0002 00AF     		add	r7, sp, #0
  94              		.cfi_def_cfa_register 7
  33:.\a_to_d_functions/sigma_mux.c ****     Sigma_Mux_Differential_Start() ;
  95              		.loc 1 33 0
  96 0004 FFF7FEFF 		bl	Sigma_Mux_Differential_Start
  34:.\a_to_d_functions/sigma_mux.c ****     Sigma_Mux_Differential_FastSelect(0) ;
  97              		.loc 1 34 0
  98 0008 0020     		movs	r0, #0
  99 000a FFF7FEFF 		bl	Sigma_Mux_Differential_FastSelect
  35:.\a_to_d_functions/sigma_mux.c **** 	ad_init_sigma_delta(1 );
 100              		.loc 1 35 0
 101 000e 0120     		movs	r0, #1
 102 0010 FFF7FEFF 		bl	ad_init_sigma_delta
  36:.\a_to_d_functions/sigma_mux.c **** 	
  37:.\a_to_d_functions/sigma_mux.c **** }
 103              		.loc 1 37 0
 104 0014 80BD     		pop	{r7, pc}
 105              		.cfi_endproc
 106              	.LFE64:
 107              		.size	sm_initialization, .-sm_initialization
 108 0016 00BF     		.section	.text.sm_set_configuration,"ax",%progbits
 109              		.align	2
 110              		.global	sm_set_configuration
 111              		.thumb
 112              		.thumb_func
 113              		.type	sm_set_configuration, %function
 114              	sm_set_configuration:
 115              	.LFB65:
  38:.\a_to_d_functions/sigma_mux.c **** 
  39:.\a_to_d_functions/sigma_mux.c **** void  sm_set_configuration( unsigned config, unsigned mux_channel )
  40:.\a_to_d_functions/sigma_mux.c **** {
 116              		.loc 1 40 0
 117              		.cfi_startproc
 118              		@ args = 0, pretend = 0, frame = 8
 119              		@ frame_needed = 1, uses_anonymous_args = 0
 120 0000 80B5     		push	{r7, lr}
 121              		.cfi_def_cfa_offset 8
 122              		.cfi_offset 7, -8
 123              		.cfi_offset 14, -4
 124 0002 82B0     		sub	sp, sp, #8
 125              		.cfi_def_cfa_offset 16
 126 0004 00AF     		add	r7, sp, #0
 127              		.cfi_def_cfa_register 7
ARM GAS  C:\Users\glenn\AppData\Local\Temp\cc65vgjb.s 			page 4


 128 0006 7860     		str	r0, [r7, #4]
 129 0008 3960     		str	r1, [r7]
  41:.\a_to_d_functions/sigma_mux.c ****     Sigma_Mux_Differential_FastSelect(mux_channel) ;
 130              		.loc 1 41 0
 131 000a 3B68     		ldr	r3, [r7]
 132 000c DBB2     		uxtb	r3, r3
 133 000e 1846     		mov	r0, r3
 134 0010 FFF7FEFF 		bl	Sigma_Mux_Differential_FastSelect
  42:.\a_to_d_functions/sigma_mux.c **** 	ad_init_sigma_delta( config );
 135              		.loc 1 42 0
 136 0014 7868     		ldr	r0, [r7, #4]
 137 0016 FFF7FEFF 		bl	ad_init_sigma_delta
  43:.\a_to_d_functions/sigma_mux.c **** }
 138              		.loc 1 43 0
 139 001a 0837     		adds	r7, r7, #8
 140              		.cfi_def_cfa_offset 8
 141 001c BD46     		mov	sp, r7
 142              		.cfi_def_cfa_register 13
 143              		@ sp needed
 144 001e 80BD     		pop	{r7, pc}
 145              		.cfi_endproc
 146              	.LFE65:
 147              		.size	sm_set_configuration, .-sm_set_configuration
 148              		.section	.text.sm_store_value,"ax",%progbits
 149              		.align	2
 150              		.global	sm_store_value
 151              		.thumb
 152              		.thumb_func
 153              		.type	sm_store_value, %function
 154              	sm_store_value:
 155              	.LFB66:
  44:.\a_to_d_functions/sigma_mux.c **** 
  45:.\a_to_d_functions/sigma_mux.c **** void sm_store_value( unsigned mux_channel )
  46:.\a_to_d_functions/sigma_mux.c **** {
 156              		.loc 1 46 0
 157              		.cfi_startproc
 158              		@ args = 0, pretend = 0, frame = 8
 159              		@ frame_needed = 1, uses_anonymous_args = 0
 160 0000 80B5     		push	{r7, lr}
 161              		.cfi_def_cfa_offset 8
 162              		.cfi_offset 7, -8
 163              		.cfi_offset 14, -4
 164 0002 82B0     		sub	sp, sp, #8
 165              		.cfi_def_cfa_offset 16
 166 0004 00AF     		add	r7, sp, #0
 167              		.cfi_def_cfa_register 7
 168 0006 7860     		str	r0, [r7, #4]
  47:.\a_to_d_functions/sigma_mux.c ****       mux_channel = check_channel( mux_channel );
 169              		.loc 1 47 0
 170 0008 7868     		ldr	r0, [r7, #4]
 171 000a FFF7FEFF 		bl	check_channel
 172 000e 7860     		str	r0, [r7, #4]
  48:.\a_to_d_functions/sigma_mux.c ****       mux_dc[mux_channel] = ad_get_sigma_delta_dc( );
 173              		.loc 1 48 0
 174 0010 FFF7FEFF 		bl	ad_get_sigma_delta_dc
 175 0014 0146     		mov	r1, r0
 176 0016 0E4A     		ldr	r2, .L7
ARM GAS  C:\Users\glenn\AppData\Local\Temp\cc65vgjb.s 			page 5


 177 0018 7B68     		ldr	r3, [r7, #4]
 178 001a 42F82310 		str	r1, [r2, r3, lsl #2]
  49:.\a_to_d_functions/sigma_mux.c ****       mux_ac[mux_channel] = ad_get_sigma_delta_ac();
 179              		.loc 1 49 0
 180 001e FFF7FEFF 		bl	ad_get_sigma_delta_ac
 181 0022 0146     		mov	r1, r0
 182 0024 0B4A     		ldr	r2, .L7+4
 183 0026 7B68     		ldr	r3, [r7, #4]
 184 0028 42F82310 		str	r1, [r2, r3, lsl #2]
  50:.\a_to_d_functions/sigma_mux.c **** 	  mux_peak[ mux_channel ] = ad_get_sigma_delta_peak();
 185              		.loc 1 50 0
 186 002c FFF7FEFF 		bl	ad_get_sigma_delta_peak
 187 0030 0146     		mov	r1, r0
 188 0032 094A     		ldr	r2, .L7+8
 189 0034 7B68     		ldr	r3, [r7, #4]
 190 0036 42F82310 		str	r1, [r2, r3, lsl #2]
  51:.\a_to_d_functions/sigma_mux.c ****       mux_negative[ mux_channel ] = ad_get_sigma_delta_negative();
 191              		.loc 1 51 0
 192 003a FFF7FEFF 		bl	ad_get_sigma_delta_negative
 193 003e 0146     		mov	r1, r0
 194 0040 064A     		ldr	r2, .L7+12
 195 0042 7B68     		ldr	r3, [r7, #4]
 196 0044 42F82310 		str	r1, [r2, r3, lsl #2]
  52:.\a_to_d_functions/sigma_mux.c **** 
  53:.\a_to_d_functions/sigma_mux.c **** }
 197              		.loc 1 53 0
 198 0048 0837     		adds	r7, r7, #8
 199              		.cfi_def_cfa_offset 8
 200 004a BD46     		mov	sp, r7
 201              		.cfi_def_cfa_register 13
 202              		@ sp needed
 203 004c 80BD     		pop	{r7, pc}
 204              	.L8:
 205 004e 00BF     		.align	2
 206              	.L7:
 207 0050 08000000 		.word	mux_dc
 208 0054 00000000 		.word	mux_ac
 209 0058 10000000 		.word	mux_peak
 210 005c 18000000 		.word	mux_negative
 211              		.cfi_endproc
 212              	.LFE66:
 213              		.size	sm_store_value, .-sm_store_value
 214              		.section	.text.sm_get_dc_channel_value,"ax",%progbits
 215              		.align	2
 216              		.global	sm_get_dc_channel_value
 217              		.thumb
 218              		.thumb_func
 219              		.type	sm_get_dc_channel_value, %function
 220              	sm_get_dc_channel_value:
 221              	.LFB67:
  54:.\a_to_d_functions/sigma_mux.c **** 
  55:.\a_to_d_functions/sigma_mux.c **** int32 sm_get_dc_channel_value( unsigned mux_channel )
  56:.\a_to_d_functions/sigma_mux.c **** {
 222              		.loc 1 56 0
 223              		.cfi_startproc
 224              		@ args = 0, pretend = 0, frame = 8
 225              		@ frame_needed = 1, uses_anonymous_args = 0
ARM GAS  C:\Users\glenn\AppData\Local\Temp\cc65vgjb.s 			page 6


 226 0000 80B5     		push	{r7, lr}
 227              		.cfi_def_cfa_offset 8
 228              		.cfi_offset 7, -8
 229              		.cfi_offset 14, -4
 230 0002 82B0     		sub	sp, sp, #8
 231              		.cfi_def_cfa_offset 16
 232 0004 00AF     		add	r7, sp, #0
 233              		.cfi_def_cfa_register 7
 234 0006 7860     		str	r0, [r7, #4]
  57:.\a_to_d_functions/sigma_mux.c ****      mux_channel = check_channel( mux_channel );	
 235              		.loc 1 57 0
 236 0008 7868     		ldr	r0, [r7, #4]
 237 000a FFF7FEFF 		bl	check_channel
 238 000e 7860     		str	r0, [r7, #4]
  58:.\a_to_d_functions/sigma_mux.c ****      return mux_dc[mux_channel];
 239              		.loc 1 58 0
 240 0010 034A     		ldr	r2, .L11
 241 0012 7B68     		ldr	r3, [r7, #4]
 242 0014 52F82330 		ldr	r3, [r2, r3, lsl #2]
  59:.\a_to_d_functions/sigma_mux.c **** }
 243              		.loc 1 59 0
 244 0018 1846     		mov	r0, r3
 245 001a 0837     		adds	r7, r7, #8
 246              		.cfi_def_cfa_offset 8
 247 001c BD46     		mov	sp, r7
 248              		.cfi_def_cfa_register 13
 249              		@ sp needed
 250 001e 80BD     		pop	{r7, pc}
 251              	.L12:
 252              		.align	2
 253              	.L11:
 254 0020 08000000 		.word	mux_dc
 255              		.cfi_endproc
 256              	.LFE67:
 257              		.size	sm_get_dc_channel_value, .-sm_get_dc_channel_value
 258              		.section	.text.sm_get_ac_channel_value,"ax",%progbits
 259              		.align	2
 260              		.global	sm_get_ac_channel_value
 261              		.thumb
 262              		.thumb_func
 263              		.type	sm_get_ac_channel_value, %function
 264              	sm_get_ac_channel_value:
 265              	.LFB68:
  60:.\a_to_d_functions/sigma_mux.c **** 
  61:.\a_to_d_functions/sigma_mux.c **** int32 sm_get_ac_channel_value( unsigned mux_channel )
  62:.\a_to_d_functions/sigma_mux.c **** {
 266              		.loc 1 62 0
 267              		.cfi_startproc
 268              		@ args = 0, pretend = 0, frame = 8
 269              		@ frame_needed = 1, uses_anonymous_args = 0
 270 0000 80B5     		push	{r7, lr}
 271              		.cfi_def_cfa_offset 8
 272              		.cfi_offset 7, -8
 273              		.cfi_offset 14, -4
 274 0002 82B0     		sub	sp, sp, #8
 275              		.cfi_def_cfa_offset 16
 276 0004 00AF     		add	r7, sp, #0
ARM GAS  C:\Users\glenn\AppData\Local\Temp\cc65vgjb.s 			page 7


 277              		.cfi_def_cfa_register 7
 278 0006 7860     		str	r0, [r7, #4]
  63:.\a_to_d_functions/sigma_mux.c **** 	mux_channel = check_channel( mux_channel );
 279              		.loc 1 63 0
 280 0008 7868     		ldr	r0, [r7, #4]
 281 000a FFF7FEFF 		bl	check_channel
 282 000e 7860     		str	r0, [r7, #4]
  64:.\a_to_d_functions/sigma_mux.c **** 	return mux_ac[mux_channel];
 283              		.loc 1 64 0
 284 0010 034A     		ldr	r2, .L15
 285 0012 7B68     		ldr	r3, [r7, #4]
 286 0014 52F82330 		ldr	r3, [r2, r3, lsl #2]
  65:.\a_to_d_functions/sigma_mux.c **** }
 287              		.loc 1 65 0
 288 0018 1846     		mov	r0, r3
 289 001a 0837     		adds	r7, r7, #8
 290              		.cfi_def_cfa_offset 8
 291 001c BD46     		mov	sp, r7
 292              		.cfi_def_cfa_register 13
 293              		@ sp needed
 294 001e 80BD     		pop	{r7, pc}
 295              	.L16:
 296              		.align	2
 297              	.L15:
 298 0020 00000000 		.word	mux_ac
 299              		.cfi_endproc
 300              	.LFE68:
 301              		.size	sm_get_ac_channel_value, .-sm_get_ac_channel_value
 302              		.section	.text.sm_get_peak_channel_value,"ax",%progbits
 303              		.align	2
 304              		.global	sm_get_peak_channel_value
 305              		.thumb
 306              		.thumb_func
 307              		.type	sm_get_peak_channel_value, %function
 308              	sm_get_peak_channel_value:
 309              	.LFB69:
  66:.\a_to_d_functions/sigma_mux.c **** 
  67:.\a_to_d_functions/sigma_mux.c **** int32 sm_get_peak_channel_value( unsigned mux_channel )
  68:.\a_to_d_functions/sigma_mux.c **** {
 310              		.loc 1 68 0
 311              		.cfi_startproc
 312              		@ args = 0, pretend = 0, frame = 8
 313              		@ frame_needed = 1, uses_anonymous_args = 0
 314 0000 80B5     		push	{r7, lr}
 315              		.cfi_def_cfa_offset 8
 316              		.cfi_offset 7, -8
 317              		.cfi_offset 14, -4
 318 0002 82B0     		sub	sp, sp, #8
 319              		.cfi_def_cfa_offset 16
 320 0004 00AF     		add	r7, sp, #0
 321              		.cfi_def_cfa_register 7
 322 0006 7860     		str	r0, [r7, #4]
  69:.\a_to_d_functions/sigma_mux.c ****     mux_channel = check_channel( mux_channel );
 323              		.loc 1 69 0
 324 0008 7868     		ldr	r0, [r7, #4]
 325 000a FFF7FEFF 		bl	check_channel
 326 000e 7860     		str	r0, [r7, #4]
ARM GAS  C:\Users\glenn\AppData\Local\Temp\cc65vgjb.s 			page 8


  70:.\a_to_d_functions/sigma_mux.c ****     return mux_peak[ mux_channel ];
 327              		.loc 1 70 0
 328 0010 034A     		ldr	r2, .L19
 329 0012 7B68     		ldr	r3, [r7, #4]
 330 0014 52F82330 		ldr	r3, [r2, r3, lsl #2]
  71:.\a_to_d_functions/sigma_mux.c **** }
 331              		.loc 1 71 0
 332 0018 1846     		mov	r0, r3
 333 001a 0837     		adds	r7, r7, #8
 334              		.cfi_def_cfa_offset 8
 335 001c BD46     		mov	sp, r7
 336              		.cfi_def_cfa_register 13
 337              		@ sp needed
 338 001e 80BD     		pop	{r7, pc}
 339              	.L20:
 340              		.align	2
 341              	.L19:
 342 0020 10000000 		.word	mux_peak
 343              		.cfi_endproc
 344              	.LFE69:
 345              		.size	sm_get_peak_channel_value, .-sm_get_peak_channel_value
 346              		.section	.text.sm_get_negative_channel_value,"ax",%progbits
 347              		.align	2
 348              		.global	sm_get_negative_channel_value
 349              		.thumb
 350              		.thumb_func
 351              		.type	sm_get_negative_channel_value, %function
 352              	sm_get_negative_channel_value:
 353              	.LFB70:
  72:.\a_to_d_functions/sigma_mux.c **** 
  73:.\a_to_d_functions/sigma_mux.c **** int32 sm_get_negative_channel_value( unsigned mux_channel )
  74:.\a_to_d_functions/sigma_mux.c **** {
 354              		.loc 1 74 0
 355              		.cfi_startproc
 356              		@ args = 0, pretend = 0, frame = 8
 357              		@ frame_needed = 1, uses_anonymous_args = 0
 358 0000 80B5     		push	{r7, lr}
 359              		.cfi_def_cfa_offset 8
 360              		.cfi_offset 7, -8
 361              		.cfi_offset 14, -4
 362 0002 82B0     		sub	sp, sp, #8
 363              		.cfi_def_cfa_offset 16
 364 0004 00AF     		add	r7, sp, #0
 365              		.cfi_def_cfa_register 7
 366 0006 7860     		str	r0, [r7, #4]
  75:.\a_to_d_functions/sigma_mux.c ****     mux_channel = check_channel( mux_channel );
 367              		.loc 1 75 0
 368 0008 7868     		ldr	r0, [r7, #4]
 369 000a FFF7FEFF 		bl	check_channel
 370 000e 7860     		str	r0, [r7, #4]
  76:.\a_to_d_functions/sigma_mux.c ****     return mux_negative[mux_channel ];
 371              		.loc 1 76 0
 372 0010 034A     		ldr	r2, .L23
 373 0012 7B68     		ldr	r3, [r7, #4]
 374 0014 52F82330 		ldr	r3, [r2, r3, lsl #2]
  77:.\a_to_d_functions/sigma_mux.c **** }...
 375              		.loc 1 77 0
ARM GAS  C:\Users\glenn\AppData\Local\Temp\cc65vgjb.s 			page 9


 376 0018 1846     		mov	r0, r3
 377 001a 0837     		adds	r7, r7, #8
 378              		.cfi_def_cfa_offset 8
 379 001c BD46     		mov	sp, r7
 380              		.cfi_def_cfa_register 13
 381              		@ sp needed
 382 001e 80BD     		pop	{r7, pc}
 383              	.L24:
 384              		.align	2
 385              	.L23:
 386 0020 18000000 		.word	mux_negative
 387              		.cfi_endproc
 388              	.LFE70:
 389              		.size	sm_get_negative_channel_value, .-sm_get_negative_channel_value
 390              		.text
 391              	.Letext0:
 392              		.file 2 "c:\\program files (x86)\\cypress\\psoc creator\\3.3\\psoc creator\\import\\gnu\\arm\\4.9.
 393              		.file 3 "c:\\program files (x86)\\cypress\\psoc creator\\3.3\\psoc creator\\import\\gnu\\arm\\4.9.
 394              		.file 4 "Generated_Source\\PSoC5/cytypes.h"
 395              		.file 5 "Generated_Source\\PSoC5/core_cm3.h"