ARM GAS  C:\Users\glenn\AppData\Local\Temp\cc8SSIo9.s 			page 1


   1              		.syntax unified
   2              		.cpu cortex-m3
   3              		.fpu softvfp
   4              		.eabi_attribute 20, 1
   5              		.eabi_attribute 21, 1
   6              		.eabi_attribute 23, 3
   7              		.eabi_attribute 24, 1
   8              		.eabi_attribute 25, 1
   9              		.eabi_attribute 26, 1
  10              		.eabi_attribute 30, 6
  11              		.eabi_attribute 34, 1
  12              		.eabi_attribute 18, 4
  13              		.thumb
  14              		.file	"usb_serial.c"
  15              		.text
  16              	.Ltext0:
  17              		.cfi_sections	.debug_frame
  18              		.section	.text.initialize_usb,"ax",%progbits
  19              		.align	2
  20              		.global	initialize_usb
  21              		.thumb
  22              		.thumb_func
  23              		.type	initialize_usb, %function
  24              	initialize_usb:
  25              	.LFB63:
  26              		.file 1 ".\\usb_serial\\usb_serial.c"
   1:.\usb_serial/usb_serial.c **** /*
   2:.\usb_serial/usb_serial.c **** **
   3:.\usb_serial/usb_serial.c **** ** File: usb_serial.c
   4:.\usb_serial/usb_serial.c **** **
   5:.\usb_serial/usb_serial.c **** **
   6:.\usb_serial/usb_serial.c **** */
   7:.\usb_serial/usb_serial.c **** 
   8:.\usb_serial/usb_serial.c **** 
   9:.\usb_serial/usb_serial.c **** #include <device.h>
  10:.\usb_serial/usb_serial.c **** #include "cf_chain_flow_support.h"
  11:.\usb_serial/usb_serial.c **** #include "cf_external_functions.h"
  12:.\usb_serial/usb_serial.c **** #include "usb_serial.h"
  13:.\usb_serial/usb_serial.c **** #include "process_modbus_message.h"
  14:.\usb_serial/usb_serial.c **** 
  15:.\usb_serial/usb_serial.c **** #define USB_MODBUS_ADDRESS        25
  16:.\usb_serial/usb_serial.c **** 
  17:.\usb_serial/usb_serial.c **** 
  18:.\usb_serial/usb_serial.c **** 
  19:.\usb_serial/usb_serial.c **** int initialize_usb(unsigned link_id, unsigned param_1,
  20:.\usb_serial/usb_serial.c ****   unsigned param_2, unsigned param_3, unsigned event, unsigned data)
  21:.\usb_serial/usb_serial.c **** {
  27              		.loc 1 21 0
  28              		.cfi_startproc
  29              		@ args = 8, pretend = 0, frame = 16
  30              		@ frame_needed = 1, uses_anonymous_args = 0
  31 0000 80B5     		push	{r7, lr}
  32              		.cfi_def_cfa_offset 8
  33              		.cfi_offset 7, -8
  34              		.cfi_offset 14, -4
  35 0002 84B0     		sub	sp, sp, #16
  36              		.cfi_def_cfa_offset 24
ARM GAS  C:\Users\glenn\AppData\Local\Temp\cc8SSIo9.s 			page 2


  37 0004 00AF     		add	r7, sp, #0
  38              		.cfi_def_cfa_register 7
  39 0006 F860     		str	r0, [r7, #12]
  40 0008 B960     		str	r1, [r7, #8]
  41 000a 7A60     		str	r2, [r7, #4]
  42 000c 3B60     		str	r3, [r7]
  22:.\usb_serial/usb_serial.c ****     USBUART_1_Start(0u, USBUART_1_5V_OPERATION);
  43              		.loc 1 22 0
  44 000e 0020     		movs	r0, #0
  45 0010 0121     		movs	r1, #1
  46 0012 FFF7FEFF 		bl	USBUART_1_Start
  23:.\usb_serial/usb_serial.c ****     return CF_DISABLE;
  47              		.loc 1 23 0
  48 0016 0223     		movs	r3, #2
  24:.\usb_serial/usb_serial.c **** }
  49              		.loc 1 24 0
  50 0018 1846     		mov	r0, r3
  51 001a 1037     		adds	r7, r7, #16
  52              		.cfi_def_cfa_offset 8
  53 001c BD46     		mov	sp, r7
  54              		.cfi_def_cfa_register 13
  55              		@ sp needed
  56 001e 80BD     		pop	{r7, pc}
  57              		.cfi_endproc
  58              	.LFE63:
  59              		.size	initialize_usb, .-initialize_usb
  60              		.section	.text.usb_configuration_changed,"ax",%progbits
  61              		.align	2
  62              		.global	usb_configuration_changed
  63              		.thumb
  64              		.thumb_func
  65              		.type	usb_configuration_changed, %function
  66              	usb_configuration_changed:
  67              	.LFB64:
  25:.\usb_serial/usb_serial.c **** 
  26:.\usb_serial/usb_serial.c **** // this is a wait condition
  27:.\usb_serial/usb_serial.c **** int usb_configuration_changed(unsigned link_id, unsigned param_1,
  28:.\usb_serial/usb_serial.c ****   unsigned param_2, unsigned param_3, unsigned event, unsigned data)
  29:.\usb_serial/usb_serial.c **** {
  68              		.loc 1 29 0
  69              		.cfi_startproc
  70              		@ args = 8, pretend = 0, frame = 24
  71              		@ frame_needed = 1, uses_anonymous_args = 0
  72 0000 80B5     		push	{r7, lr}
  73              		.cfi_def_cfa_offset 8
  74              		.cfi_offset 7, -8
  75              		.cfi_offset 14, -4
  76 0002 86B0     		sub	sp, sp, #24
  77              		.cfi_def_cfa_offset 32
  78 0004 00AF     		add	r7, sp, #0
  79              		.cfi_def_cfa_register 7
  80 0006 F860     		str	r0, [r7, #12]
  81 0008 B960     		str	r1, [r7, #8]
  82 000a 7A60     		str	r2, [r7, #4]
  83 000c 3B60     		str	r3, [r7]
  30:.\usb_serial/usb_serial.c ****     int return_value;
  31:.\usb_serial/usb_serial.c ****     if( USBUART_1_IsConfigurationChanged() != 0u )
ARM GAS  C:\Users\glenn\AppData\Local\Temp\cc8SSIo9.s 			page 3


  84              		.loc 1 31 0
  85 000e FFF7FEFF 		bl	USBUART_1_IsConfigurationChanged
  86 0012 0346     		mov	r3, r0
  87 0014 002B     		cmp	r3, #0
  88 0016 0CD0     		beq	.L4
  32:.\usb_serial/usb_serial.c ****     {
  33:.\usb_serial/usb_serial.c ****         if(USBUART_1_GetConfiguration() != 0u)   /* Init IN endpoints when device configured */
  89              		.loc 1 33 0
  90 0018 FFF7FEFF 		bl	USBUART_1_GetConfiguration
  91 001c 0346     		mov	r3, r0
  92 001e 002B     		cmp	r3, #0
  93 0020 09D0     		beq	.L6
  34:.\usb_serial/usb_serial.c ****             {
  35:.\usb_serial/usb_serial.c ****                 /* Enumeration is done, enable OUT endpoint for receive data from Host */
  36:.\usb_serial/usb_serial.c ****                 USBUART_1_CDC_Init();
  94              		.loc 1 36 0
  95 0022 FFF7FEFF 		bl	USBUART_1_CDC_Init
  37:.\usb_serial/usb_serial.c ****                 return_value = 1;
  96              		.loc 1 37 0
  97 0026 0123     		movs	r3, #1
  98 0028 7B61     		str	r3, [r7, #20]
  38:.\usb_serial/usb_serial.c ****                 cf_enable_chain( usb_rx_packet );
  99              		.loc 1 38 0
 100 002a 0720     		movs	r0, #7
 101 002c FFF7FEFF 		bl	cf_enable_chain
 102 0030 01E0     		b	.L6
 103              	.L4:
  39:.\usb_serial/usb_serial.c ****             }
  40:.\usb_serial/usb_serial.c ****     }
  41:.\usb_serial/usb_serial.c ****     else
  42:.\usb_serial/usb_serial.c ****     {
  43:.\usb_serial/usb_serial.c ****         return_value =  0;
 104              		.loc 1 43 0
 105 0032 0023     		movs	r3, #0
 106 0034 7B61     		str	r3, [r7, #20]
 107              	.L6:
  44:.\usb_serial/usb_serial.c ****     }
  45:.\usb_serial/usb_serial.c ****     return return_value;
 108              		.loc 1 45 0
 109 0036 7B69     		ldr	r3, [r7, #20]
  46:.\usb_serial/usb_serial.c ****     
  47:.\usb_serial/usb_serial.c **** }
 110              		.loc 1 47 0
 111 0038 1846     		mov	r0, r3
 112 003a 1837     		adds	r7, r7, #24
 113              		.cfi_def_cfa_offset 8
 114 003c BD46     		mov	sp, r7
 115              		.cfi_def_cfa_register 13
 116              		@ sp needed
 117 003e 80BD     		pop	{r7, pc}
 118              		.cfi_endproc
 119              	.LFE64:
 120              		.size	usb_configuration_changed, .-usb_configuration_changed
 121              		.section	.text.usb_connection_still_active,"ax",%progbits
 122              		.align	2
 123              		.global	usb_connection_still_active
 124              		.thumb
ARM GAS  C:\Users\glenn\AppData\Local\Temp\cc8SSIo9.s 			page 4


 125              		.thumb_func
 126              		.type	usb_connection_still_active, %function
 127              	usb_connection_still_active:
 128              	.LFB65:
  48:.\usb_serial/usb_serial.c **** 
  49:.\usb_serial/usb_serial.c **** // this is a verify condition
  50:.\usb_serial/usb_serial.c **** int usb_connection_still_active(unsigned link_id, unsigned param_1,
  51:.\usb_serial/usb_serial.c ****   unsigned param_2, unsigned param_3, unsigned event, unsigned data)
  52:.\usb_serial/usb_serial.c **** {
 129              		.loc 1 52 0
 130              		.cfi_startproc
 131              		@ args = 8, pretend = 0, frame = 24
 132              		@ frame_needed = 1, uses_anonymous_args = 0
 133 0000 80B5     		push	{r7, lr}
 134              		.cfi_def_cfa_offset 8
 135              		.cfi_offset 7, -8
 136              		.cfi_offset 14, -4
 137 0002 86B0     		sub	sp, sp, #24
 138              		.cfi_def_cfa_offset 32
 139 0004 00AF     		add	r7, sp, #0
 140              		.cfi_def_cfa_register 7
 141 0006 F860     		str	r0, [r7, #12]
 142 0008 B960     		str	r1, [r7, #8]
 143 000a 7A60     		str	r2, [r7, #4]
 144 000c 3B60     		str	r3, [r7]
  53:.\usb_serial/usb_serial.c ****   int return_value;
  54:.\usb_serial/usb_serial.c ****   if( USBUART_1_IsConfigurationChanged() != 0 ) 
 145              		.loc 1 54 0
 146 000e FFF7FEFF 		bl	USBUART_1_IsConfigurationChanged
 147 0012 0346     		mov	r3, r0
 148 0014 002B     		cmp	r3, #0
 149 0016 02D0     		beq	.L9
  55:.\usb_serial/usb_serial.c ****   {
  56:.\usb_serial/usb_serial.c ****     return_value = 0; // verify function will reset
 150              		.loc 1 56 0
 151 0018 0023     		movs	r3, #0
 152 001a 7B61     		str	r3, [r7, #20]
 153 001c 01E0     		b	.L10
 154              	.L9:
  57:.\usb_serial/usb_serial.c ****   }
  58:.\usb_serial/usb_serial.c ****   else
  59:.\usb_serial/usb_serial.c ****   {
  60:.\usb_serial/usb_serial.c ****     return_value = 1; // link has not changed
 155              		.loc 1 60 0
 156 001e 0123     		movs	r3, #1
 157 0020 7B61     		str	r3, [r7, #20]
 158              	.L10:
  61:.\usb_serial/usb_serial.c ****   }
  62:.\usb_serial/usb_serial.c ****   return return_value;
 159              		.loc 1 62 0
 160 0022 7B69     		ldr	r3, [r7, #20]
  63:.\usb_serial/usb_serial.c **** }
 161              		.loc 1 63 0
 162 0024 1846     		mov	r0, r3
 163 0026 1837     		adds	r7, r7, #24
 164              		.cfi_def_cfa_offset 8
 165 0028 BD46     		mov	sp, r7
ARM GAS  C:\Users\glenn\AppData\Local\Temp\cc8SSIo9.s 			page 5


 166              		.cfi_def_cfa_register 13
 167              		@ sp needed
 168 002a 80BD     		pop	{r7, pc}
 169              		.cfi_endproc
 170              	.LFE65:
 171              		.size	usb_connection_still_active, .-usb_connection_still_active
 172              		.section	.text.usb_can_receive,"ax",%progbits
 173              		.align	2
 174              		.global	usb_can_receive
 175              		.thumb
 176              		.thumb_func
 177              		.type	usb_can_receive, %function
 178              	usb_can_receive:
 179              	.LFB66:
  64:.\usb_serial/usb_serial.c ****     
  65:.\usb_serial/usb_serial.c ****    
  66:.\usb_serial/usb_serial.c **** 
  67:.\usb_serial/usb_serial.c **** 
  68:.\usb_serial/usb_serial.c **** int usb_can_receive(unsigned link_id, unsigned time_out,
  69:.\usb_serial/usb_serial.c ****   unsigned param_2, unsigned param_3, unsigned event, unsigned data)
  70:.\usb_serial/usb_serial.c **** {
 180              		.loc 1 70 0
 181              		.cfi_startproc
 182              		@ args = 8, pretend = 0, frame = 24
 183              		@ frame_needed = 1, uses_anonymous_args = 0
 184 0000 80B5     		push	{r7, lr}
 185              		.cfi_def_cfa_offset 8
 186              		.cfi_offset 7, -8
 187              		.cfi_offset 14, -4
 188 0002 86B0     		sub	sp, sp, #24
 189              		.cfi_def_cfa_offset 32
 190 0004 00AF     		add	r7, sp, #0
 191              		.cfi_def_cfa_register 7
 192 0006 F860     		str	r0, [r7, #12]
 193 0008 B960     		str	r1, [r7, #8]
 194 000a 7A60     		str	r2, [r7, #4]
 195 000c 3B60     		str	r3, [r7]
  71:.\usb_serial/usb_serial.c ****      int return_value;
  72:.\usb_serial/usb_serial.c ****     
  73:.\usb_serial/usb_serial.c ****      if( event == CF_INIT_EVENT )
 196              		.loc 1 73 0
 197 000e 3B6A     		ldr	r3, [r7, #32]
 198 0010 012B     		cmp	r3, #1
 199 0012 05D1     		bne	.L13
  74:.\usb_serial/usb_serial.c ****      {
  75:.\usb_serial/usb_serial.c ****        cf_store_cell_value( link_id , 0 );
 200              		.loc 1 75 0
 201 0014 F868     		ldr	r0, [r7, #12]
 202 0016 0021     		movs	r1, #0
 203 0018 FFF7FEFF 		bl	cf_store_cell_value
  76:.\usb_serial/usb_serial.c ****        return CF_CONTINUE;
 204              		.loc 1 76 0
 205 001c 0023     		movs	r3, #0
 206 001e 0AE0     		b	.L14
 207              	.L13:
  77:.\usb_serial/usb_serial.c **** 
  78:.\usb_serial/usb_serial.c ****      }
ARM GAS  C:\Users\glenn\AppData\Local\Temp\cc8SSIo9.s 			page 6


  79:.\usb_serial/usb_serial.c ****      if(USBUART_1_DataIsReady() != 0u)               /* Check for input data from PC */
 208              		.loc 1 79 0
 209 0020 FFF7FEFF 		bl	USBUART_1_DataIsReady
 210 0024 0346     		mov	r3, r0
 211 0026 002B     		cmp	r3, #0
 212 0028 02D0     		beq	.L15
  80:.\usb_serial/usb_serial.c ****      {
  81:.\usb_serial/usb_serial.c ****         return_value =  1 ; // wait condition is meet
 213              		.loc 1 81 0
 214 002a 0123     		movs	r3, #1
 215 002c 7B61     		str	r3, [r7, #20]
 216 002e 01E0     		b	.L16
 217              	.L15:
  82:.\usb_serial/usb_serial.c ****      }
  83:.\usb_serial/usb_serial.c ****      else 
  84:.\usb_serial/usb_serial.c ****      {
  85:.\usb_serial/usb_serial.c ****         return_value = 0;
 218              		.loc 1 85 0
 219 0030 0023     		movs	r3, #0
 220 0032 7B61     		str	r3, [r7, #20]
 221              	.L16:
  86:.\usb_serial/usb_serial.c ****      }
  87:.\usb_serial/usb_serial.c ****      return return_value;    
 222              		.loc 1 87 0
 223 0034 7B69     		ldr	r3, [r7, #20]
 224              	.L14:
  88:.\usb_serial/usb_serial.c ****      
  89:.\usb_serial/usb_serial.c ****    
  90:.\usb_serial/usb_serial.c **** }
 225              		.loc 1 90 0
 226 0036 1846     		mov	r0, r3
 227 0038 1837     		adds	r7, r7, #24
 228              		.cfi_def_cfa_offset 8
 229 003a BD46     		mov	sp, r7
 230              		.cfi_def_cfa_register 13
 231              		@ sp needed
 232 003c 80BD     		pop	{r7, pc}
 233              		.cfi_endproc
 234              	.LFE66:
 235              		.size	usb_can_receive, .-usb_can_receive
 236 003e 00BF     		.bss
 237              		.align	2
 238              	usb_rx_count:
 239 0000 00000000 		.space	4
 240              		.align	2
 241              	usb_rx_buffer:
 242 0004 00000000 		.space	256
 242      00000000 
 242      00000000 
 242      00000000 
 242      00000000 
 243              		.section	.text.process_usb_rx_packet,"ax",%progbits
 244              		.align	2
 245              		.global	process_usb_rx_packet
 246              		.thumb
 247              		.thumb_func
 248              		.type	process_usb_rx_packet, %function
ARM GAS  C:\Users\glenn\AppData\Local\Temp\cc8SSIo9.s 			page 7


 249              	process_usb_rx_packet:
 250              	.LFB67:
  91:.\usb_serial/usb_serial.c **** static unsigned usb_rx_count;
  92:.\usb_serial/usb_serial.c **** static unsigned char usb_rx_buffer[ MODBUS_PACKET_SIZE];
  93:.\usb_serial/usb_serial.c **** 
  94:.\usb_serial/usb_serial.c **** int process_usb_rx_packet(unsigned link_id, unsigned usb_block,
  95:.\usb_serial/usb_serial.c ****   unsigned param_2, unsigned param_3, unsigned event, unsigned data)
  96:.\usb_serial/usb_serial.c **** {
 251              		.loc 1 96 0
 252              		.cfi_startproc
 253              		@ args = 8, pretend = 0, frame = 24
 254              		@ frame_needed = 1, uses_anonymous_args = 0
 255 0000 80B5     		push	{r7, lr}
 256              		.cfi_def_cfa_offset 8
 257              		.cfi_offset 7, -8
 258              		.cfi_offset 14, -4
 259 0002 86B0     		sub	sp, sp, #24
 260              		.cfi_def_cfa_offset 32
 261 0004 00AF     		add	r7, sp, #0
 262              		.cfi_def_cfa_register 7
 263 0006 F860     		str	r0, [r7, #12]
 264 0008 B960     		str	r1, [r7, #8]
 265 000a 7A60     		str	r2, [r7, #4]
 266 000c 3B60     		str	r3, [r7]
  97:.\usb_serial/usb_serial.c ****     int done_flag;
  98:.\usb_serial/usb_serial.c ****     done_flag = 0;
 267              		.loc 1 98 0
 268 000e 0023     		movs	r3, #0
 269 0010 7B61     		str	r3, [r7, #20]
  99:.\usb_serial/usb_serial.c ****     switch( usb_block)
 270              		.loc 1 99 0
 271 0012 BB68     		ldr	r3, [r7, #8]
 272 0014 042B     		cmp	r3, #4
 273 0016 70D8     		bhi	.L18
 274 0018 01A2     		adr	r2, .L20
 275 001a 52F823F0 		ldr	pc, [r2, r3, lsl #2]
 276 001e 00BF     		.p2align 2
 277              	.L20:
 278 0020 35000000 		.word	.L19+1
 279 0024 6F000000 		.word	.L21+1
 280 0028 99000000 		.word	.L22+1
 281 002c C3000000 		.word	.L23+1
 282 0030 ED000000 		.word	.L24+1
 283              		.p2align 1
 284              	.L19:
 100:.\usb_serial/usb_serial.c ****     {
 101:.\usb_serial/usb_serial.c ****         case 0: usb_rx_count = 0;
 285              		.loc 1 101 0
 286 0034 384B     		ldr	r3, .L32
 287 0036 0022     		movs	r2, #0
 288 0038 1A60     		str	r2, [r3]
 102:.\usb_serial/usb_serial.c ****                 usb_rx_count += USBUART_1_GetAll(&usb_rx_buffer[0]);
 289              		.loc 1 102 0
 290 003a 3848     		ldr	r0, .L32+4
 291 003c FFF7FEFF 		bl	USBUART_1_GetAll
 292 0040 0346     		mov	r3, r0
 293 0042 1A46     		mov	r2, r3
ARM GAS  C:\Users\glenn\AppData\Local\Temp\cc8SSIo9.s 			page 8


 294 0044 344B     		ldr	r3, .L32
 295 0046 1B68     		ldr	r3, [r3]
 296 0048 1344     		add	r3, r3, r2
 297 004a 334A     		ldr	r2, .L32
 298 004c 1360     		str	r3, [r2]
 103:.\usb_serial/usb_serial.c ****                 if( usb_rx_count == 0 ) // empty packet
 299              		.loc 1 103 0
 300 004e 324B     		ldr	r3, .L32
 301 0050 1B68     		ldr	r3, [r3]
 302 0052 002B     		cmp	r3, #0
 303 0054 03D1     		bne	.L25
 104:.\usb_serial/usb_serial.c ****                 {
 105:.\usb_serial/usb_serial.c ****                     cf_reset_chain(usb_rx_packet);
 304              		.loc 1 105 0
 305 0056 0720     		movs	r0, #7
 306 0058 FFF7FEFF 		bl	cf_enable_chain
 307 005c 06E0     		b	.L26
 308              	.L25:
 106:.\usb_serial/usb_serial.c ****                 }    
 107:.\usb_serial/usb_serial.c ****                 else if( usb_rx_count < 64 )
 309              		.loc 1 107 0
 310 005e 2E4B     		ldr	r3, .L32
 311 0060 1B68     		ldr	r3, [r3]
 312 0062 3F2B     		cmp	r3, #63
 313 0064 02D8     		bhi	.L26
 108:.\usb_serial/usb_serial.c ****                 {
 109:.\usb_serial/usb_serial.c ****                     done_flag = 1;
 314              		.loc 1 109 0
 315 0066 0123     		movs	r3, #1
 316 0068 7B61     		str	r3, [r7, #20]
 110:.\usb_serial/usb_serial.c ****                 }
 111:.\usb_serial/usb_serial.c **** 
 112:.\usb_serial/usb_serial.c ****                 break;
 317              		.loc 1 112 0
 318 006a 46E0     		b	.L18
 319              	.L26:
 320 006c 45E0     		b	.L18
 321              	.L21:
 113:.\usb_serial/usb_serial.c ****         case 1:
 114:.\usb_serial/usb_serial.c ****                 usb_rx_count = 64;
 322              		.loc 1 114 0
 323 006e 2A4B     		ldr	r3, .L32
 324 0070 4022     		movs	r2, #64
 325 0072 1A60     		str	r2, [r3]
 115:.\usb_serial/usb_serial.c ****                 usb_rx_count += USBUART_1_GetAll(&usb_rx_buffer[0]);
 326              		.loc 1 115 0
 327 0074 2948     		ldr	r0, .L32+4
 328 0076 FFF7FEFF 		bl	USBUART_1_GetAll
 329 007a 0346     		mov	r3, r0
 330 007c 1A46     		mov	r2, r3
 331 007e 264B     		ldr	r3, .L32
 332 0080 1B68     		ldr	r3, [r3]
 333 0082 1344     		add	r3, r3, r2
 334 0084 244A     		ldr	r2, .L32
 335 0086 1360     		str	r3, [r2]
 116:.\usb_serial/usb_serial.c ****                 if( usb_rx_count < 128 )
 336              		.loc 1 116 0
ARM GAS  C:\Users\glenn\AppData\Local\Temp\cc8SSIo9.s 			page 9


 337 0088 234B     		ldr	r3, .L32
 338 008a 1B68     		ldr	r3, [r3]
 339 008c 7F2B     		cmp	r3, #127
 340 008e 02D8     		bhi	.L27
 117:.\usb_serial/usb_serial.c ****                 {
 118:.\usb_serial/usb_serial.c ****                     done_flag = 1;
 341              		.loc 1 118 0
 342 0090 0123     		movs	r3, #1
 343 0092 7B61     		str	r3, [r7, #20]
 119:.\usb_serial/usb_serial.c ****                 }
 120:.\usb_serial/usb_serial.c ****                 
 121:.\usb_serial/usb_serial.c ****                 break;
 344              		.loc 1 121 0
 345 0094 31E0     		b	.L18
 346              	.L27:
 347 0096 30E0     		b	.L18
 348              	.L22:
 122:.\usb_serial/usb_serial.c ****         case 2: 
 123:.\usb_serial/usb_serial.c ****                 usb_rx_count = 128;
 349              		.loc 1 123 0
 350 0098 1F4B     		ldr	r3, .L32
 351 009a 8022     		movs	r2, #128
 352 009c 1A60     		str	r2, [r3]
 124:.\usb_serial/usb_serial.c ****                 usb_rx_count += USBUART_1_GetAll(&usb_rx_buffer[0]); 
 353              		.loc 1 124 0
 354 009e 1F48     		ldr	r0, .L32+4
 355 00a0 FFF7FEFF 		bl	USBUART_1_GetAll
 356 00a4 0346     		mov	r3, r0
 357 00a6 1A46     		mov	r2, r3
 358 00a8 1B4B     		ldr	r3, .L32
 359 00aa 1B68     		ldr	r3, [r3]
 360 00ac 1344     		add	r3, r3, r2
 361 00ae 1A4A     		ldr	r2, .L32
 362 00b0 1360     		str	r3, [r2]
 125:.\usb_serial/usb_serial.c ****                 if( usb_rx_count < 196 )
 363              		.loc 1 125 0
 364 00b2 194B     		ldr	r3, .L32
 365 00b4 1B68     		ldr	r3, [r3]
 366 00b6 C32B     		cmp	r3, #195
 367 00b8 02D8     		bhi	.L28
 126:.\usb_serial/usb_serial.c ****                 {
 127:.\usb_serial/usb_serial.c ****                     done_flag = 1;
 368              		.loc 1 127 0
 369 00ba 0123     		movs	r3, #1
 370 00bc 7B61     		str	r3, [r7, #20]
 128:.\usb_serial/usb_serial.c ****                 }
 129:.\usb_serial/usb_serial.c **** 
 130:.\usb_serial/usb_serial.c ****                 break;
 371              		.loc 1 130 0
 372 00be 1CE0     		b	.L18
 373              	.L28:
 374 00c0 1BE0     		b	.L18
 375              	.L23:
 131:.\usb_serial/usb_serial.c ****         case 3:
 132:.\usb_serial/usb_serial.c ****                 
 133:.\usb_serial/usb_serial.c ****                 usb_rx_count = 192;
 376              		.loc 1 133 0
ARM GAS  C:\Users\glenn\AppData\Local\Temp\cc8SSIo9.s 			page 10


 377 00c2 154B     		ldr	r3, .L32
 378 00c4 C022     		movs	r2, #192
 379 00c6 1A60     		str	r2, [r3]
 134:.\usb_serial/usb_serial.c ****                 usb_rx_count += USBUART_1_GetAll(&usb_rx_buffer[192]);
 380              		.loc 1 134 0
 381 00c8 1548     		ldr	r0, .L32+8
 382 00ca FFF7FEFF 		bl	USBUART_1_GetAll
 383 00ce 0346     		mov	r3, r0
 384 00d0 1A46     		mov	r2, r3
 385 00d2 114B     		ldr	r3, .L32
 386 00d4 1B68     		ldr	r3, [r3]
 387 00d6 1344     		add	r3, r3, r2
 388 00d8 0F4A     		ldr	r2, .L32
 389 00da 1360     		str	r3, [r2]
 135:.\usb_serial/usb_serial.c ****                 if( usb_rx_count < 256 )
 390              		.loc 1 135 0
 391 00dc 0E4B     		ldr	r3, .L32
 392 00de 1B68     		ldr	r3, [r3]
 393 00e0 FF2B     		cmp	r3, #255
 394 00e2 02D8     		bhi	.L29
 136:.\usb_serial/usb_serial.c ****                 {
 137:.\usb_serial/usb_serial.c ****                     done_flag = 1;
 395              		.loc 1 137 0
 396 00e4 0123     		movs	r3, #1
 397 00e6 7B61     		str	r3, [r7, #20]
 138:.\usb_serial/usb_serial.c ****                 }
 139:.\usb_serial/usb_serial.c ****                 break;
 398              		.loc 1 139 0
 399 00e8 07E0     		b	.L18
 400              	.L29:
 401 00ea 06E0     		b	.L18
 402              	.L24:
 140:.\usb_serial/usb_serial.c ****         case 4: 
 141:.\usb_serial/usb_serial.c ****                 // this is the empty packet at modbus message 256
 142:.\usb_serial/usb_serial.c ****                 usb_rx_count = 256;
 403              		.loc 1 142 0
 404 00ec 0A4B     		ldr	r3, .L32
 405 00ee 4FF48072 		mov	r2, #256
 406 00f2 1A60     		str	r2, [r3]
 143:.\usb_serial/usb_serial.c ****                 done_flag = 0;
 407              		.loc 1 143 0
 408 00f4 0023     		movs	r3, #0
 409 00f6 7B61     		str	r3, [r7, #20]
 144:.\usb_serial/usb_serial.c ****                 break;
 410              		.loc 1 144 0
 411 00f8 00BF     		nop
 412              	.L18:
 145:.\usb_serial/usb_serial.c ****         default:
 146:.\usb_serial/usb_serial.c ****                 ; // should not happen
 147:.\usb_serial/usb_serial.c ****      }   
 148:.\usb_serial/usb_serial.c ****      if( done_flag != 0 )
 413              		.loc 1 148 0
 414 00fa 7B69     		ldr	r3, [r7, #20]
 415 00fc 002B     		cmp	r3, #0
 416 00fe 05D0     		beq	.L30
 149:.\usb_serial/usb_serial.c ****      {
 150:.\usb_serial/usb_serial.c ****          cf_disable_chain(  usb_rx_packet );
ARM GAS  C:\Users\glenn\AppData\Local\Temp\cc8SSIo9.s 			page 11


 417              		.loc 1 150 0
 418 0100 0720     		movs	r0, #7
 419 0102 FFF7FEFF 		bl	cf_disable_chain
 151:.\usb_serial/usb_serial.c ****          cf_enable_chain( usb_process_packet );
 420              		.loc 1 151 0
 421 0106 0820     		movs	r0, #8
 422 0108 FFF7FEFF 		bl	cf_enable_chain
 423              	.L30:
 152:.\usb_serial/usb_serial.c ****      }
 153:.\usb_serial/usb_serial.c ****           
 154:.\usb_serial/usb_serial.c ****     
 155:.\usb_serial/usb_serial.c ****     return CF_TERMINATE;
 424              		.loc 1 155 0
 425 010c 0423     		movs	r3, #4
 156:.\usb_serial/usb_serial.c **** }
 426              		.loc 1 156 0
 427 010e 1846     		mov	r0, r3
 428 0110 1837     		adds	r7, r7, #24
 429              		.cfi_def_cfa_offset 8
 430 0112 BD46     		mov	sp, r7
 431              		.cfi_def_cfa_register 13
 432              		@ sp needed
 433 0114 80BD     		pop	{r7, pc}
 434              	.L33:
 435 0116 00BF     		.align	2
 436              	.L32:
 437 0118 00000000 		.word	usb_rx_count
 438 011c 04000000 		.word	usb_rx_buffer
 439 0120 C4000000 		.word	usb_rx_buffer+192
 440              		.cfi_endproc
 441              	.LFE67:
 442              		.size	process_usb_rx_packet, .-process_usb_rx_packet
 443              		.bss
 444              		.align	2
 445              	usb_tx_count:
 446 0104 00000000 		.space	4
 447              		.align	2
 448              	usb_tx_buffer:
 449 0108 00000000 		.space	256
 449      00000000 
 449      00000000 
 449      00000000 
 449      00000000 
 450              		.section	.text.usb_process_modbus_message,"ax",%progbits
 451              		.align	2
 452              		.global	usb_process_modbus_message
 453              		.thumb
 454              		.thumb_func
 455              		.type	usb_process_modbus_message, %function
 456              	usb_process_modbus_message:
 457              	.LFB68:
 157:.\usb_serial/usb_serial.c **** 
 158:.\usb_serial/usb_serial.c **** static unsigned usb_tx_count;
 159:.\usb_serial/usb_serial.c **** static unsigned char usb_tx_buffer[ MODBUS_PACKET_SIZE];
 160:.\usb_serial/usb_serial.c **** 
 161:.\usb_serial/usb_serial.c **** 
 162:.\usb_serial/usb_serial.c **** int usb_process_modbus_message(unsigned link_id, unsigned param_1,
ARM GAS  C:\Users\glenn\AppData\Local\Temp\cc8SSIo9.s 			page 12


 163:.\usb_serial/usb_serial.c ****   unsigned param_2, unsigned param_3, unsigned event, unsigned data)
 164:.\usb_serial/usb_serial.c **** {
 458              		.loc 1 164 0
 459              		.cfi_startproc
 460              		@ args = 8, pretend = 0, frame = 16
 461              		@ frame_needed = 1, uses_anonymous_args = 0
 462 0000 80B5     		push	{r7, lr}
 463              		.cfi_def_cfa_offset 8
 464              		.cfi_offset 7, -8
 465              		.cfi_offset 14, -4
 466 0002 84B0     		sub	sp, sp, #16
 467              		.cfi_def_cfa_offset 24
 468 0004 00AF     		add	r7, sp, #0
 469              		.cfi_def_cfa_register 7
 470 0006 F860     		str	r0, [r7, #12]
 471 0008 B960     		str	r1, [r7, #8]
 472 000a 7A60     		str	r2, [r7, #4]
 473 000c 3B60     		str	r3, [r7]
 165:.\usb_serial/usb_serial.c ****     usb_tx_count = process_modbus_message( usb_rx_count, 
 474              		.loc 1 165 0
 475 000e 0E4B     		ldr	r3, .L38
 476 0010 1B68     		ldr	r3, [r3]
 477 0012 1846     		mov	r0, r3
 478 0014 0D49     		ldr	r1, .L38+4
 479 0016 4FF48072 		mov	r2, #256
 480 001a 0D4B     		ldr	r3, .L38+8
 481 001c FFF7FEFF 		bl	process_modbus_message
 482 0020 0346     		mov	r3, r0
 483 0022 1A46     		mov	r2, r3
 484 0024 0B4B     		ldr	r3, .L38+12
 485 0026 1A60     		str	r2, [r3]
 166:.\usb_serial/usb_serial.c ****                                             usb_rx_buffer, 
 167:.\usb_serial/usb_serial.c ****                                             MODBUS_PACKET_SIZE,
 168:.\usb_serial/usb_serial.c ****                                             usb_tx_buffer );
 169:.\usb_serial/usb_serial.c ****     
 170:.\usb_serial/usb_serial.c ****     if( usb_tx_count > 0 )  // usb_tx_count means bad message
 486              		.loc 1 170 0
 487 0028 0A4B     		ldr	r3, .L38+12
 488 002a 1B68     		ldr	r3, [r3]
 489 002c 002B     		cmp	r3, #0
 490 002e 03D0     		beq	.L35
 171:.\usb_serial/usb_serial.c ****     {
 172:.\usb_serial/usb_serial.c ****         cf_enable_chain( usb_tx_packet );
 491              		.loc 1 172 0
 492 0030 0920     		movs	r0, #9
 493 0032 FFF7FEFF 		bl	cf_enable_chain
 494 0036 02E0     		b	.L36
 495              	.L35:
 173:.\usb_serial/usb_serial.c ****     }
 174:.\usb_serial/usb_serial.c ****     else
 175:.\usb_serial/usb_serial.c ****     {
 176:.\usb_serial/usb_serial.c ****         cf_enable_chain(  usb_rx_packet );
 496              		.loc 1 176 0
 497 0038 0720     		movs	r0, #7
 498 003a FFF7FEFF 		bl	cf_enable_chain
 499              	.L36:
 177:.\usb_serial/usb_serial.c ****     }
ARM GAS  C:\Users\glenn\AppData\Local\Temp\cc8SSIo9.s 			page 13


 178:.\usb_serial/usb_serial.c ****     
 179:.\usb_serial/usb_serial.c ****     return CF_TERMINATE; //  will disable current chain
 500              		.loc 1 179 0
 501 003e 0423     		movs	r3, #4
 180:.\usb_serial/usb_serial.c **** }
 502              		.loc 1 180 0
 503 0040 1846     		mov	r0, r3
 504 0042 1037     		adds	r7, r7, #16
 505              		.cfi_def_cfa_offset 8
 506 0044 BD46     		mov	sp, r7
 507              		.cfi_def_cfa_register 13
 508              		@ sp needed
 509 0046 80BD     		pop	{r7, pc}
 510              	.L39:
 511              		.align	2
 512              	.L38:
 513 0048 00000000 		.word	usb_rx_count
 514 004c 04000000 		.word	usb_rx_buffer
 515 0050 08010000 		.word	usb_tx_buffer
 516 0054 04010000 		.word	usb_tx_count
 517              		.cfi_endproc
 518              	.LFE68:
 519              		.size	usb_process_modbus_message, .-usb_process_modbus_message
 520              		.section	.text.usb_can_transmit,"ax",%progbits
 521              		.align	2
 522              		.global	usb_can_transmit
 523              		.thumb
 524              		.thumb_func
 525              		.type	usb_can_transmit, %function
 526              	usb_can_transmit:
 527              	.LFB69:
 181:.\usb_serial/usb_serial.c **** 
 182:.\usb_serial/usb_serial.c **** 
 183:.\usb_serial/usb_serial.c **** int usb_can_transmit(unsigned link_id, unsigned param_1,
 184:.\usb_serial/usb_serial.c ****   unsigned param_2, unsigned param_3, unsigned event, unsigned data)
 185:.\usb_serial/usb_serial.c **** {
 528              		.loc 1 185 0
 529              		.cfi_startproc
 530              		@ args = 8, pretend = 0, frame = 24
 531              		@ frame_needed = 1, uses_anonymous_args = 0
 532 0000 80B5     		push	{r7, lr}
 533              		.cfi_def_cfa_offset 8
 534              		.cfi_offset 7, -8
 535              		.cfi_offset 14, -4
 536 0002 86B0     		sub	sp, sp, #24
 537              		.cfi_def_cfa_offset 32
 538 0004 00AF     		add	r7, sp, #0
 539              		.cfi_def_cfa_register 7
 540 0006 F860     		str	r0, [r7, #12]
 541 0008 B960     		str	r1, [r7, #8]
 542 000a 7A60     		str	r2, [r7, #4]
 543 000c 3B60     		str	r3, [r7]
 186:.\usb_serial/usb_serial.c ****     int return_value;
 187:.\usb_serial/usb_serial.c ****     if( USBUART_1_CDCIsReady() == 1)    /* Wait till component is ready to send more data to the PC
 544              		.loc 1 187 0
 545 000e FFF7FEFF 		bl	USBUART_1_CDCIsReady
 546 0012 0346     		mov	r3, r0
ARM GAS  C:\Users\glenn\AppData\Local\Temp\cc8SSIo9.s 			page 14


 547 0014 012B     		cmp	r3, #1
 548 0016 02D1     		bne	.L41
 188:.\usb_serial/usb_serial.c ****     {
 189:.\usb_serial/usb_serial.c ****         return_value = 1;
 549              		.loc 1 189 0
 550 0018 0123     		movs	r3, #1
 551 001a 7B61     		str	r3, [r7, #20]
 552 001c 01E0     		b	.L42
 553              	.L41:
 190:.\usb_serial/usb_serial.c ****     }
 191:.\usb_serial/usb_serial.c ****     else
 192:.\usb_serial/usb_serial.c ****     {
 193:.\usb_serial/usb_serial.c ****         return_value = 0;
 554              		.loc 1 193 0
 555 001e 0023     		movs	r3, #0
 556 0020 7B61     		str	r3, [r7, #20]
 557              	.L42:
 194:.\usb_serial/usb_serial.c ****     }
 195:.\usb_serial/usb_serial.c ****     return return_value;
 558              		.loc 1 195 0
 559 0022 7B69     		ldr	r3, [r7, #20]
 196:.\usb_serial/usb_serial.c **** }
 560              		.loc 1 196 0
 561 0024 1846     		mov	r0, r3
 562 0026 1837     		adds	r7, r7, #24
 563              		.cfi_def_cfa_offset 8
 564 0028 BD46     		mov	sp, r7
 565              		.cfi_def_cfa_register 13
 566              		@ sp needed
 567 002a 80BD     		pop	{r7, pc}
 568              		.cfi_endproc
 569              	.LFE69:
 570              		.size	usb_can_transmit, .-usb_can_transmit
 571              		.section	.text.usb_send_packet,"ax",%progbits
 572              		.align	2
 573              		.global	usb_send_packet
 574              		.thumb
 575              		.thumb_func
 576              		.type	usb_send_packet, %function
 577              	usb_send_packet:
 578              	.LFB70:
 197:.\usb_serial/usb_serial.c **** 
 198:.\usb_serial/usb_serial.c **** int usb_send_packet(unsigned link_id, unsigned tx_state,
 199:.\usb_serial/usb_serial.c ****   unsigned param_2, unsigned param_3, unsigned event, unsigned data)
 200:.\usb_serial/usb_serial.c **** {
 579              		.loc 1 200 0
 580              		.cfi_startproc
 581              		@ args = 8, pretend = 0, frame = 24
 582              		@ frame_needed = 1, uses_anonymous_args = 0
 583 0000 80B5     		push	{r7, lr}
 584              		.cfi_def_cfa_offset 8
 585              		.cfi_offset 7, -8
 586              		.cfi_offset 14, -4
 587 0002 86B0     		sub	sp, sp, #24
 588              		.cfi_def_cfa_offset 32
 589 0004 00AF     		add	r7, sp, #0
 590              		.cfi_def_cfa_register 7
ARM GAS  C:\Users\glenn\AppData\Local\Temp\cc8SSIo9.s 			page 15


 591 0006 F860     		str	r0, [r7, #12]
 592 0008 B960     		str	r1, [r7, #8]
 593 000a 7A60     		str	r2, [r7, #4]
 594 000c 3B60     		str	r3, [r7]
 201:.\usb_serial/usb_serial.c ****     int done_flag = 0;
 595              		.loc 1 201 0
 596 000e 0023     		movs	r3, #0
 597 0010 7B61     		str	r3, [r7, #20]
 202:.\usb_serial/usb_serial.c ****     unsigned tx_count;
 203:.\usb_serial/usb_serial.c ****     
 204:.\usb_serial/usb_serial.c ****     done_flag = 0;
 598              		.loc 1 204 0
 599 0012 0023     		movs	r3, #0
 600 0014 7B61     		str	r3, [r7, #20]
 205:.\usb_serial/usb_serial.c ****     switch( tx_state )
 601              		.loc 1 205 0
 602 0016 BB68     		ldr	r3, [r7, #8]
 603 0018 042B     		cmp	r3, #4
 604 001a 7BD8     		bhi	.L45
 605 001c 01A2     		adr	r2, .L47
 606 001e 52F823F0 		ldr	pc, [r2, r3, lsl #2]
 607 0022 00BF     		.p2align 2
 608              	.L47:
 609 0024 39000000 		.word	.L46+1
 610 0028 5F000000 		.word	.L48+1
 611 002c 93000000 		.word	.L49+1
 612 0030 C7000000 		.word	.L50+1
 613 0034 FB000000 		.word	.L51+1
 614              		.p2align 1
 615              	.L46:
 206:.\usb_serial/usb_serial.c ****     {
 207:.\usb_serial/usb_serial.c ****         case 0:
 208:.\usb_serial/usb_serial.c ****                if( usb_tx_count < 64 )
 616              		.loc 1 208 0
 617 0038 3D4B     		ldr	r3, .L67
 618 003a 1B68     		ldr	r3, [r3]
 619 003c 3F2B     		cmp	r3, #63
 620 003e 05D8     		bhi	.L52
 209:.\usb_serial/usb_serial.c ****                {
 210:.\usb_serial/usb_serial.c ****                   tx_count = usb_tx_count;
 621              		.loc 1 210 0
 622 0040 3B4B     		ldr	r3, .L67
 623 0042 1B68     		ldr	r3, [r3]
 624 0044 3B61     		str	r3, [r7, #16]
 211:.\usb_serial/usb_serial.c ****                   done_flag = 1;
 625              		.loc 1 211 0
 626 0046 0123     		movs	r3, #1
 627 0048 7B61     		str	r3, [r7, #20]
 628 004a 01E0     		b	.L53
 629              	.L52:
 212:.\usb_serial/usb_serial.c ****                }
 213:.\usb_serial/usb_serial.c ****                else
 214:.\usb_serial/usb_serial.c ****                {
 215:.\usb_serial/usb_serial.c ****                   tx_count = 64;
 630              		.loc 1 215 0
 631 004c 4023     		movs	r3, #64
 632 004e 3B61     		str	r3, [r7, #16]
ARM GAS  C:\Users\glenn\AppData\Local\Temp\cc8SSIo9.s 			page 16


 633              	.L53:
 216:.\usb_serial/usb_serial.c ****                 }
 217:.\usb_serial/usb_serial.c ****                USBUART_1_PutData(&usb_tx_buffer[0], tx_count);
 634              		.loc 1 217 0
 635 0050 3B69     		ldr	r3, [r7, #16]
 636 0052 9BB2     		uxth	r3, r3
 637 0054 3748     		ldr	r0, .L67+4
 638 0056 1946     		mov	r1, r3
 639 0058 FFF7FEFF 		bl	USBUART_1_PutData
 218:.\usb_serial/usb_serial.c ****                break;
 640              		.loc 1 218 0
 641 005c 5AE0     		b	.L45
 642              	.L48:
 219:.\usb_serial/usb_serial.c ****         
 220:.\usb_serial/usb_serial.c ****         case 1:
 221:.\usb_serial/usb_serial.c ****                if( usb_tx_count < 64)
 643              		.loc 1 221 0
 644 005e 344B     		ldr	r3, .L67
 645 0060 1B68     		ldr	r3, [r3]
 646 0062 3F2B     		cmp	r3, #63
 647 0064 01D8     		bhi	.L54
 222:.\usb_serial/usb_serial.c ****                {
 223:.\usb_serial/usb_serial.c ****                   return CF_DISABLE;
 648              		.loc 1 223 0
 649 0066 0223     		movs	r3, #2
 650 0068 5EE0     		b	.L55
 651              	.L54:
 224:.\usb_serial/usb_serial.c ****                }
 225:.\usb_serial/usb_serial.c ****                if( usb_tx_count < 128 )
 652              		.loc 1 225 0
 653 006a 314B     		ldr	r3, .L67
 654 006c 1B68     		ldr	r3, [r3]
 655 006e 7F2B     		cmp	r3, #127
 656 0070 06D8     		bhi	.L56
 226:.\usb_serial/usb_serial.c ****                {
 227:.\usb_serial/usb_serial.c ****                   tx_count = usb_tx_count-64;
 657              		.loc 1 227 0
 658 0072 2F4B     		ldr	r3, .L67
 659 0074 1B68     		ldr	r3, [r3]
 660 0076 403B     		subs	r3, r3, #64
 661 0078 3B61     		str	r3, [r7, #16]
 228:.\usb_serial/usb_serial.c ****                   done_flag = 1;
 662              		.loc 1 228 0
 663 007a 0123     		movs	r3, #1
 664 007c 7B61     		str	r3, [r7, #20]
 665 007e 01E0     		b	.L57
 666              	.L56:
 229:.\usb_serial/usb_serial.c ****                }
 230:.\usb_serial/usb_serial.c ****                else
 231:.\usb_serial/usb_serial.c ****                {
 232:.\usb_serial/usb_serial.c ****                   tx_count = 64;
 667              		.loc 1 232 0
 668 0080 4023     		movs	r3, #64
 669 0082 3B61     		str	r3, [r7, #16]
 670              	.L57:
 233:.\usb_serial/usb_serial.c ****                 }
 234:.\usb_serial/usb_serial.c ****                USBUART_1_PutData(&usb_tx_buffer[64], tx_count);
ARM GAS  C:\Users\glenn\AppData\Local\Temp\cc8SSIo9.s 			page 17


 671              		.loc 1 234 0
 672 0084 3B69     		ldr	r3, [r7, #16]
 673 0086 9BB2     		uxth	r3, r3
 674 0088 2B48     		ldr	r0, .L67+8
 675 008a 1946     		mov	r1, r3
 676 008c FFF7FEFF 		bl	USBUART_1_PutData
 235:.\usb_serial/usb_serial.c **** 
 236:.\usb_serial/usb_serial.c ****                break;
 677              		.loc 1 236 0
 678 0090 40E0     		b	.L45
 679              	.L49:
 237:.\usb_serial/usb_serial.c ****         
 238:.\usb_serial/usb_serial.c ****         case 2:
 239:.\usb_serial/usb_serial.c ****                if( usb_tx_count < 128 )
 680              		.loc 1 239 0
 681 0092 274B     		ldr	r3, .L67
 682 0094 1B68     		ldr	r3, [r3]
 683 0096 7F2B     		cmp	r3, #127
 684 0098 01D8     		bhi	.L58
 240:.\usb_serial/usb_serial.c ****                {
 241:.\usb_serial/usb_serial.c ****                   return CF_DISABLE;
 685              		.loc 1 241 0
 686 009a 0223     		movs	r3, #2
 687 009c 44E0     		b	.L55
 688              	.L58:
 242:.\usb_serial/usb_serial.c ****                }
 243:.\usb_serial/usb_serial.c **** 
 244:.\usb_serial/usb_serial.c ****                if( usb_tx_count < 192 )
 689              		.loc 1 244 0
 690 009e 244B     		ldr	r3, .L67
 691 00a0 1B68     		ldr	r3, [r3]
 692 00a2 BF2B     		cmp	r3, #191
 693 00a4 06D8     		bhi	.L59
 245:.\usb_serial/usb_serial.c ****                {
 246:.\usb_serial/usb_serial.c ****                   tx_count = usb_tx_count-128;
 694              		.loc 1 246 0
 695 00a6 224B     		ldr	r3, .L67
 696 00a8 1B68     		ldr	r3, [r3]
 697 00aa 803B     		subs	r3, r3, #128
 698 00ac 3B61     		str	r3, [r7, #16]
 247:.\usb_serial/usb_serial.c ****                   done_flag = 1;
 699              		.loc 1 247 0
 700 00ae 0123     		movs	r3, #1
 701 00b0 7B61     		str	r3, [r7, #20]
 702 00b2 01E0     		b	.L60
 703              	.L59:
 248:.\usb_serial/usb_serial.c ****                }
 249:.\usb_serial/usb_serial.c ****                else
 250:.\usb_serial/usb_serial.c ****                {
 251:.\usb_serial/usb_serial.c ****                   tx_count = 64;
 704              		.loc 1 251 0
 705 00b4 4023     		movs	r3, #64
 706 00b6 3B61     		str	r3, [r7, #16]
 707              	.L60:
 252:.\usb_serial/usb_serial.c ****                 }
 253:.\usb_serial/usb_serial.c ****                USBUART_1_PutData(&usb_tx_buffer[128], tx_count);
 708              		.loc 1 253 0
ARM GAS  C:\Users\glenn\AppData\Local\Temp\cc8SSIo9.s 			page 18


 709 00b8 3B69     		ldr	r3, [r7, #16]
 710 00ba 9BB2     		uxth	r3, r3
 711 00bc 1F48     		ldr	r0, .L67+12
 712 00be 1946     		mov	r1, r3
 713 00c0 FFF7FEFF 		bl	USBUART_1_PutData
 254:.\usb_serial/usb_serial.c **** 
 255:.\usb_serial/usb_serial.c ****               break;
 714              		.loc 1 255 0
 715 00c4 26E0     		b	.L45
 716              	.L50:
 256:.\usb_serial/usb_serial.c ****         
 257:.\usb_serial/usb_serial.c ****         case 3:
 258:.\usb_serial/usb_serial.c ****                if( usb_tx_count < 192 )
 717              		.loc 1 258 0
 718 00c6 1A4B     		ldr	r3, .L67
 719 00c8 1B68     		ldr	r3, [r3]
 720 00ca BF2B     		cmp	r3, #191
 721 00cc 01D8     		bhi	.L61
 259:.\usb_serial/usb_serial.c ****                {
 260:.\usb_serial/usb_serial.c ****                   return CF_DISABLE;
 722              		.loc 1 260 0
 723 00ce 0223     		movs	r3, #2
 724 00d0 2AE0     		b	.L55
 725              	.L61:
 261:.\usb_serial/usb_serial.c ****                }
 262:.\usb_serial/usb_serial.c **** 
 263:.\usb_serial/usb_serial.c ****                if( usb_tx_count < 255 )
 726              		.loc 1 263 0
 727 00d2 174B     		ldr	r3, .L67
 728 00d4 1B68     		ldr	r3, [r3]
 729 00d6 FE2B     		cmp	r3, #254
 730 00d8 06D8     		bhi	.L62
 264:.\usb_serial/usb_serial.c ****                {
 265:.\usb_serial/usb_serial.c ****                   tx_count = usb_tx_count-192;
 731              		.loc 1 265 0
 732 00da 154B     		ldr	r3, .L67
 733 00dc 1B68     		ldr	r3, [r3]
 734 00de C03B     		subs	r3, r3, #192
 735 00e0 3B61     		str	r3, [r7, #16]
 266:.\usb_serial/usb_serial.c ****                   done_flag = 1;
 736              		.loc 1 266 0
 737 00e2 0123     		movs	r3, #1
 738 00e4 7B61     		str	r3, [r7, #20]
 739 00e6 01E0     		b	.L63
 740              	.L62:
 267:.\usb_serial/usb_serial.c ****                }
 268:.\usb_serial/usb_serial.c ****                else
 269:.\usb_serial/usb_serial.c ****                {
 270:.\usb_serial/usb_serial.c ****                   tx_count = 64;
 741              		.loc 1 270 0
 742 00e8 4023     		movs	r3, #64
 743 00ea 3B61     		str	r3, [r7, #16]
 744              	.L63:
 271:.\usb_serial/usb_serial.c ****                 }
 272:.\usb_serial/usb_serial.c ****                USBUART_1_PutData(&usb_tx_buffer[196], tx_count);
 745              		.loc 1 272 0
 746 00ec 3B69     		ldr	r3, [r7, #16]
ARM GAS  C:\Users\glenn\AppData\Local\Temp\cc8SSIo9.s 			page 19


 747 00ee 9BB2     		uxth	r3, r3
 748 00f0 1348     		ldr	r0, .L67+16
 749 00f2 1946     		mov	r1, r3
 750 00f4 FFF7FEFF 		bl	USBUART_1_PutData
 273:.\usb_serial/usb_serial.c **** 
 274:.\usb_serial/usb_serial.c ****             break;
 751              		.loc 1 274 0
 752 00f8 0CE0     		b	.L45
 753              	.L51:
 275:.\usb_serial/usb_serial.c ****         
 276:.\usb_serial/usb_serial.c ****         case 4:
 277:.\usb_serial/usb_serial.c ****                if( usb_tx_count == 256 )
 754              		.loc 1 277 0
 755 00fa 0D4B     		ldr	r3, .L67
 756 00fc 1B68     		ldr	r3, [r3]
 757 00fe B3F5807F 		cmp	r3, #256
 758 0102 06D1     		bne	.L64
 278:.\usb_serial/usb_serial.c ****                {
 279:.\usb_serial/usb_serial.c ****                  USBUART_1_PutData(&usb_tx_buffer[0], 0);
 759              		.loc 1 279 0
 760 0104 0B48     		ldr	r0, .L67+4
 761 0106 0021     		movs	r1, #0
 762 0108 FFF7FEFF 		bl	USBUART_1_PutData
 280:.\usb_serial/usb_serial.c ****                  done_flag = 1;
 763              		.loc 1 280 0
 764 010c 0123     		movs	r3, #1
 765 010e 7B61     		str	r3, [r7, #20]
 281:.\usb_serial/usb_serial.c ****                }
 282:.\usb_serial/usb_serial.c ****                break;
 766              		.loc 1 282 0
 767 0110 FFE7     		b	.L66
 768              	.L64:
 769              	.L66:
 770 0112 00BF     		nop
 771              	.L45:
 283:.\usb_serial/usb_serial.c ****     }
 284:.\usb_serial/usb_serial.c ****     if( done_flag == 1 )
 772              		.loc 1 284 0
 773 0114 7B69     		ldr	r3, [r7, #20]
 774 0116 012B     		cmp	r3, #1
 775 0118 05D1     		bne	.L65
 285:.\usb_serial/usb_serial.c ****     {
 286:.\usb_serial/usb_serial.c ****          cf_enable_chain(  usb_rx_packet );
 776              		.loc 1 286 0
 777 011a 0720     		movs	r0, #7
 778 011c FFF7FEFF 		bl	cf_enable_chain
 287:.\usb_serial/usb_serial.c ****          cf_disable_chain( usb_tx_packet );
 779              		.loc 1 287 0
 780 0120 0920     		movs	r0, #9
 781 0122 FFF7FEFF 		bl	cf_disable_chain
 782              	.L65:
 288:.\usb_serial/usb_serial.c ****         
 289:.\usb_serial/usb_serial.c ****     }
 290:.\usb_serial/usb_serial.c ****     
 291:.\usb_serial/usb_serial.c ****     return CF_DISABLE;
 783              		.loc 1 291 0
 784 0126 0223     		movs	r3, #2
ARM GAS  C:\Users\glenn\AppData\Local\Temp\cc8SSIo9.s 			page 20


 785              	.L55:
 292:.\usb_serial/usb_serial.c **** }
 786              		.loc 1 292 0
 787 0128 1846     		mov	r0, r3
 788 012a 1837     		adds	r7, r7, #24
 789              		.cfi_def_cfa_offset 8
 790 012c BD46     		mov	sp, r7
 791              		.cfi_def_cfa_register 13
 792              		@ sp needed
 793 012e 80BD     		pop	{r7, pc}
 794              	.L68:
 795              		.align	2
 796              	.L67:
 797 0130 04010000 		.word	usb_tx_count
 798 0134 08010000 		.word	usb_tx_buffer
 799 0138 48010000 		.word	usb_tx_buffer+64
 800 013c 88010000 		.word	usb_tx_buffer+128
 801 0140 CC010000 		.word	usb_tx_buffer+196
 802              		.cfi_endproc
 803              	.LFE70:
 804              		.size	usb_send_packet, .-usb_send_packet
 805              		.text
 806              	.Letext0:
 807              		.file 2 "c:\\program files (x86)\\cypress\\psoc creator\\3.3\\psoc creator\\import\\gnu\\arm\\4.9.
 808              		.file 3 "c:\\program files (x86)\\cypress\\psoc creator\\3.3\\psoc creator\\import\\gnu\\arm\\4.9.
 809              		.file 4 "Generated_Source\\PSoC5/core_cm3.h"